 PhysX3Common_x64

 Timestamp is 56ecd378 (Sat Mar 19 05:20:08 2016)

 Preferred load address is 0000000180000000

 Start         Length     Name                   Class
 0001:00000000 000002a7H .text                   CODE
 0001:000002b0 00005460H .text$di                CODE
 0001:00005710 0017d914H .text$mn                CODE
 0001:00183030 00000012H .text$mn$00             CODE
 0001:00183050 00000680H .text$x                 CODE
 0001:001836d0 0000000fH .text$yd                CODE
 0002:00000000 00000400H .idata$5                DATA
 0002:00000400 00000010H .00cfg                  DATA
 0002:00000410 00000008H .CRT$XCA                DATA
 0002:00000418 00001398H .CRT$XCU                DATA
 0002:000017b0 00000008H .CRT$XCZ                DATA
 0002:000017b8 00000008H .CRT$XIA                DATA
 0002:000017c0 00000018H .CRT$XIC                DATA
 0002:000017d8 00000008H .CRT$XIZ                DATA
 0002:000017e0 00000008H .CRT$XPA                DATA
 0002:000017e8 00000010H .CRT$XPX                DATA
 0002:000017f8 00000008H .CRT$XPXA               DATA
 0002:00001800 00000008H .CRT$XPZ                DATA
 0002:00001808 00000008H .CRT$XTA                DATA
 0002:00001810 00000008H .CRT$XTZ                DATA
 0002:00001820 0000f6f4H .rdata                  DATA
 0002:00010f18 000004ecH .rdata$r                DATA
 0002:00011408 00000010H .rdata$zETW0            DATA
 0002:00011418 00000077H .rdata$zETW1            DATA
 0002:0001148f 0000002cH .rdata$zETW2            DATA
 0002:000114bb 00000001H .rdata$zETW9            DATA
 0002:000114bc 00000428H .rdata$zzzdbg           DATA
 0002:000118e8 00000008H .rtc$IAA                DATA
 0002:000118f0 00000008H .rtc$IZZ                DATA
 0002:000118f8 00000008H .rtc$TAA                DATA
 0002:00011900 00000008H .rtc$TZZ                DATA
 0002:00011908 00010e5cH .xdata                  DATA
 0002:00022768 000000ecH .xdata$x                DATA
 0002:00022860 000132ccH .edata                  DATA
 0002:00035b2c 0000003cH .idata$2                DATA
 0002:00035b68 00000014H .idata$3                DATA
 0002:00035b80 00000400H .idata$4                DATA
 0002:00035f80 00000804H .idata$6                DATA
 0003:00000000 00001d20H .data                   DATA
 0003:00001d20 00000527H .data$r                 DATA
 0003:00002250 00003ac8H .bss                    DATA
 0004:00000000 00009f24H .pdata                  DATA
 0005:00000000 000000dcH .gfids$x                DATA
 0005:000000dc 00000098H .gfids$y                DATA
 0006:00000000 000000a0H .rsrc$01                DATA
 0006:000000a0 000004b8H .rsrc$02                DATA

  Address         Publics by Value              Rva+Base               Lib:Object

 0000:00000000       __guard_iat_count          0000000000000000     <absolute>
 0000:00000000       __guard_fids_table         0000000000000000     <absolute>
 0000:00000000       ___safe_se_handler_count   0000000000000000     <absolute>
 0000:00000000       __guard_fids_count         0000000000000000     <absolute>
 0000:00000000       __guard_longjmp_table      0000000000000000     <absolute>
 0000:00000000       __guard_longjmp_count      0000000000000000     <absolute>
 0000:00000000       ___safe_se_handler_table   0000000000000000     <absolute>
 0000:00000000       __guard_iat_table          0000000000000000     <absolute>
 0000:00000100       __guard_flags              0000000000000100     <absolute>
 0000:00000000       __ImageBase                0000000180000000     <linker-defined>
 0001:00000000       ?TraceLoggingRegister@__vcrt_trace_logging_provider@@YAJPEBU_TlgProvider_t@1@PEBU_GUID@@P6AX1KE_K2PEAU_EVENT_FILTER_DESCRIPTOR@@PEAX@Z4@Z 0000000180001000 f i libvcruntime:telemetry.obj
 0001:0000007c       ?TraceLoggingSetInformation@__vcrt_trace_logging_provider@@YAJPEBU_TlgProvider_t@1@W4_EVENT_INFO_CLASS@@PEAXK@Z 000000018000107c f i libvcruntime:telemetry.obj
 0001:000000a0       ?TraceLoggingUnregister@__vcrt_trace_logging_provider@@YAXPEBU_TlgProvider_t@1@@Z 00000001800010a0 f i libvcruntime:telemetry.obj
 0001:000000c0       ?_TlgCreateSz@__vcrt_trace_logging_provider@@YAXPEAU_EVENT_DATA_DESCRIPTOR@@PEBD@Z 00000001800010c0 f i libvcruntime:telemetry.obj
 0001:000000ec       ?_TlgCreateWsz@__vcrt_trace_logging_provider@@YAXPEAU_EVENT_DATA_DESCRIPTOR@@PEB_W@Z 00000001800010ec f i libvcruntime:telemetry.obj
 0001:00000124       ?_TlgEnableCallback@__vcrt_trace_logging_provider@@YAXPEBU_GUID@@KE_K1PEAU_EVENT_FILTER_DESCRIPTOR@@PEAX@Z 0000000180001124 f i libvcruntime:telemetry.obj
 0001:000001e8       ?_TlgKeywordOn@__vcrt_trace_logging_provider@@YAEPEBU_TlgProvider_t@1@_K@Z 00000001800011e8 f i libvcruntime:telemetry.obj
 0001:0000020c       ?_TlgWrite@__vcrt_trace_logging_provider@@YAJPEBU_TlgProvider_t@1@PEFBXPEBU_GUID@@2IPEAU_EVENT_DATA_DESCRIPTOR@@@Z 000000018000120c f i libvcruntime:telemetry.obj
 0001:00005710       ?atomicExchange@shdfnd@physx@@YAHPECHH@Z 0000000180006710 f   PsWindowsAtomic.obj
 0001:00005720       ?atomicCompareExchange@shdfnd@physx@@YAHPECHHH@Z 0000000180006720 f   PsWindowsAtomic.obj
 0001:00005730       ?atomicCompareExchangePointer@shdfnd@physx@@YAPEAXPEAPECXPEAX1@Z 0000000180006730 f   PsWindowsAtomic.obj
 0001:00005740       ?atomicIncrement@shdfnd@physx@@YAHPECH@Z 0000000180006740 f   PsWindowsAtomic.obj
 0001:00005760       ?atomicDecrement@shdfnd@physx@@YAHPECH@Z 0000000180006760 f   PsWindowsAtomic.obj
 0001:00005770       ?atomicAdd@shdfnd@physx@@YAHPECHH@Z 0000000180006770 f   PsWindowsAtomic.obj
 0001:00005790       ?atomicMax@shdfnd@physx@@YAHPECHH@Z 0000000180006790 f   PsWindowsAtomic.obj
 0001:000057c0       ?getCpuId@Cpu@shdfnd@physx@@SAEXZ 00000001800067c0 f   PsWindowsCpu.obj
 0001:000057e0       ??0FPUGuard@shdfnd@physx@@QEAA@XZ 00000001800067e0 f   PsWindowsFPU.obj
 0001:00005820       ??1FPUGuard@shdfnd@physx@@QEAA@XZ 0000000180006820 f   PsWindowsFPU.obj
 0001:00005850       ?enableFPExceptions@shdfnd@physx@@YAXXZ 0000000180006850 f   PsWindowsFPU.obj
 0001:00005880       ?disableFPExceptions@shdfnd@physx@@YAXXZ 0000000180006880 f   PsWindowsFPU.obj
 0001:00005890       ??4FPUGuard@shdfnd@physx@@QEAAAEAV012@AEBV012@@Z 0000000180006890 f i PsWindowsFPU.obj
 0001:000058b0       ??0MemoryMappedFile@shdfnd@physx@@QEAA@PEBDI@Z 00000001800068b0 f   PsWindowsMemoryMappedFile.obj
 0001:00005970       ??1MemoryMappedFile@shdfnd@physx@@QEAA@XZ 0000000180006970 f   PsWindowsMemoryMappedFile.obj
 0001:000059c0       ?getBaseAddress@MemoryMappedFile@shdfnd@physx@@QEAAPEAXXZ 00000001800069c0 f   PsWindowsMemoryMappedFile.obj
 0001:000059d0       ??0Allocator@shdfnd@physx@@QEAA@PEBD@Z 00000001800069d0 f i PsWindowsMemoryMappedFile.obj
 0001:000059e0       ??0PxFoundation@physx@@QEAA@AEBV01@@Z 00000001800069e0 f i PsWindowsMemoryMappedFile.obj
 0001:000059f0       ??0PxFoundation@physx@@QEAA@XZ 00000001800069f0 f i PsWindowsMemoryMappedFile.obj
 0001:00005a00       ??1PxFoundation@physx@@MEAA@XZ 0000000180006a00 f i PsWindowsMemoryMappedFile.obj
 0001:00005a10       ??4Allocator@shdfnd@physx@@QEAAAEAV012@$$QEAV012@@Z 0000000180006a10 f i PsWindowsMemoryMappedFile.obj
 0001:00005a20       ??4Allocator@shdfnd@physx@@QEAAAEAV012@AEBV012@@Z 0000000180006a20 f i PsWindowsMemoryMappedFile.obj
 0001:00005a30       ??4ErrorHandler@shdfnd@physx@@QEAAAEAV012@AEBV012@@Z 0000000180006a30 f i PsWindowsMemoryMappedFile.obj
 0001:00005a50       ??4MutexImpl@shdfnd@physx@@QEAAAEAV012@AEBV012@@Z 0000000180006a50 f i PsWindowsMemoryMappedFile.obj
 0001:00005a60       ??4PAUtils@shdfnd@physx@@QEAAAEAV012@AEBV012@@Z 0000000180006a60 f i PsWindowsMemoryMappedFile.obj
 0001:00005a70       ??4PxFoundation@physx@@QEAAAEAV01@AEBV01@@Z 0000000180006a70 f i PsWindowsMemoryMappedFile.obj
 0001:00005a80       ??_EPxFoundation@physx@@MEAAPEAXI@Z 0000000180006a80 f i PsWindowsMemoryMappedFile.obj
 0001:00005b10       ??_FAllocator@shdfnd@physx@@QEAAXXZ 0000000180006b10 f i PsWindowsMemoryMappedFile.obj
 0001:00005b20       ??_GPxFoundation@physx@@MEAAPEAXI@Z 0000000180006b20 f i PsWindowsMemoryMappedFile.obj
 0001:00005b50       ??_I@YAXPEAX_K1P6AX0@Z@Z   0000000180006b50 f i PsWindowsMemoryMappedFile.obj
 0001:00005bb0       ?getAllocator@Foundation@shdfnd@physx@@UEBAAEAVPxBroadcastingAllocator@3@XZ 0000000180006bb0 f i PsWindowsMemoryMappedFile.obj
 0001:00005bc0       ?getCallbackCount@ErrorHandler@shdfnd@physx@@QEBAIXZ 0000000180006bc0 f i PsWindowsMemoryMappedFile.obj
 0001:00005bd0       ?getCheckedAllocator@Foundation@shdfnd@physx@@QEAAAEAVPxAllocatorCallback@3@XZ 0000000180006bd0 f i PsWindowsMemoryMappedFile.obj
 0001:00005be0       ?getErrorCallback@ErrorHandler@shdfnd@physx@@QEBAPEAVPxErrorCallback@3@H@Z 0000000180006be0 f i PsWindowsMemoryMappedFile.obj
 0001:00005bf0       ?getErrorHandler@Foundation@shdfnd@physx@@QEAAAEAVErrorHandler@23@XZ 0000000180006bf0 f i PsWindowsMemoryMappedFile.obj
 0001:00005c00       ?getErrorMutex@Foundation@shdfnd@physx@@QEAAAEAV?$MutexT@V?$ReflectionAllocator@VMutexImpl@shdfnd@physx@@@shdfnd@physx@@@23@XZ 0000000180006c00 f i PsWindowsMemoryMappedFile.obj
 0001:00005c10       ?getMaxCallbackNum@ErrorHandler@shdfnd@physx@@QEBAIXZ 0000000180006c10 f i PsWindowsMemoryMappedFile.obj
 0001:00005c20       ?getNamedAllocMap@Foundation@shdfnd@physx@@QEAAAEAV?$HashMap@PEBVNamedAllocator@shdfnd@physx@@PEBDU?$Hash@PEBVNamedAllocator@shdfnd@physx@@@23@VNonTrackingAllocator@23@@23@XZ 0000000180006c20 f i PsWindowsMemoryMappedFile.obj
 0001:00005c30       ?getNamedAllocMutex@Foundation@shdfnd@physx@@QEAAAEAV?$MutexT@V?$ReflectionAllocator@VMutexImpl@shdfnd@physx@@@shdfnd@physx@@@23@XZ 0000000180006c30 f i PsWindowsMemoryMappedFile.obj
 0001:00005c40       ?getPAUtils@Foundation@shdfnd@physx@@QEAAAEAVPAUtils@23@XZ 0000000180006c40 f i PsWindowsMemoryMappedFile.obj
 0001:00005c50       ?getReportAllocationNames@Foundation@shdfnd@physx@@UEBA_NXZ 0000000180006c50 f i PsWindowsMemoryMappedFile.obj
 0001:00005c60       ?getTempAllocFreeTable@Foundation@shdfnd@physx@@QEAAAEAV?$Array@PEATTempAllocatorChunk@shdfnd@physx@@VAllocator@23@@23@XZ 0000000180006c60 f i PsWindowsMemoryMappedFile.obj
 0001:00005c70       ?getTempAllocMutex@Foundation@shdfnd@physx@@QEAAAEAV?$MutexT@V?$ReflectionAllocator@VMutexImpl@shdfnd@physx@@@shdfnd@physx@@@23@XZ 0000000180006c70 f i PsWindowsMemoryMappedFile.obj
 0001:00005c80       ?setReportAllocationNames@Foundation@shdfnd@physx@@UEAAX_N@Z 0000000180006c80 f i PsWindowsMemoryMappedFile.obj
 0001:00005c90       ??0PsModuleUpdateLoader@shdfnd@physx@@QEAA@PEBD@Z 0000000180006c90 f   PsWindowsModuleUpdateLoader.obj
 0001:00005ce0       ??1PsModuleUpdateLoader@shdfnd@physx@@QEAA@XZ 0000000180006ce0 f   PsWindowsModuleUpdateLoader.obj
 0001:00005d10       ?LoadModule@PsModuleUpdateLoader@shdfnd@physx@@QEAAPEAUHINSTANCE__@@PEBD0@Z 0000000180006d10 f   PsWindowsModuleUpdateLoader.obj
 0001:00005d30       ??4PsModuleUpdateLoader@shdfnd@physx@@QEAAAEAV012@AEBV012@@Z 0000000180006d30 f i PsWindowsModuleUpdateLoader.obj
 0001:00005d40       ??0MutexImpl@shdfnd@physx@@QEAA@XZ 0000000180006d40 f   PsWindowsMutex.obj
 0001:00005d70       ??1MutexImpl@shdfnd@physx@@QEAA@XZ 0000000180006d70 f   PsWindowsMutex.obj
 0001:00005d80       ?lock@MutexImpl@shdfnd@physx@@QEAAXXZ 0000000180006d80 f   PsWindowsMutex.obj
 0001:00005d90       ?trylock@MutexImpl@shdfnd@physx@@QEAA_NXZ 0000000180006d90 f   PsWindowsMutex.obj
 0001:00005db0       ?unlock@MutexImpl@shdfnd@physx@@QEAAXXZ 0000000180006db0 f   PsWindowsMutex.obj
 0001:00005dc0       ?getSize@MutexImpl@shdfnd@physx@@SAAEBIXZ 0000000180006dc0 f   PsWindowsMutex.obj
 0001:00005dd0       ??0ReadWriteLock@shdfnd@physx@@QEAA@XZ 0000000180006dd0 f   PsWindowsMutex.obj
 0001:00005e20       ??1ReadWriteLock@shdfnd@physx@@QEAA@XZ 0000000180006e20 f   PsWindowsMutex.obj
 0001:00005e80       ?lockReader@ReadWriteLock@shdfnd@physx@@QEAAXXZ 0000000180006e80 f   PsWindowsMutex.obj
 0001:00005ec0       ?lockWriter@ReadWriteLock@shdfnd@physx@@QEAAXXZ 0000000180006ec0 f   PsWindowsMutex.obj
 0001:00005ef0       ?unlockReader@ReadWriteLock@shdfnd@physx@@QEAAXXZ 0000000180006ef0 f   PsWindowsMutex.obj
 0001:00005f00       ?unlockWriter@ReadWriteLock@shdfnd@physx@@QEAAXXZ 0000000180006f00 f   PsWindowsMutex.obj
 0001:00005f10       ??0ReadWriteLockImpl@shdfnd@physx@@QEAA@XZ 0000000180006f10 f i PsWindowsMutex.obj
 0001:00005fa0       ??4ThreadImpl@shdfnd@physx@@QEAAAEAV012@AEBV012@@Z 0000000180006fa0 f i PsWindowsMutex.obj
 0001:00005fb0       ?__empty_global_delete@@YAXPEAX@Z 0000000180006fb0 f i PsWindowsMutex.obj
 0001:00005fc0       ?__empty_global_delete@@YAXPEAX_K@Z 0000000180006fc0 f i PsWindowsMutex.obj
 0001:00005fd0       ??0PAUtils@shdfnd@physx@@QEAA@XZ 0000000180006fd0 f   PsWindowsPAEventSrc.obj
 0001:00005ff0       ??1PAUtils@shdfnd@physx@@QEAA@XZ 0000000180006ff0 f   PsWindowsPAEventSrc.obj
 0001:00006050       ?isEnabled@PAUtils@shdfnd@physx@@QEAA_NXZ 0000000180007050 f   PsWindowsPAEventSrc.obj
 0001:00006070       ?isEventEnabled@PAUtils@shdfnd@physx@@QEAA_NG@Z 0000000180007070 f   PsWindowsPAEventSrc.obj
 0001:00006090       ?registerEvent@PAUtils@shdfnd@physx@@QEAAGPEBD@Z 0000000180007090 f   PsWindowsPAEventSrc.obj
 0001:00006150       ?startEvent@PAUtils@shdfnd@physx@@QEAAXGG@Z 0000000180007150 f   PsWindowsPAEventSrc.obj
 0001:00006240       ?stopEvent@PAUtils@shdfnd@physx@@QEAAXGG@Z 0000000180007240 f   PsWindowsPAEventSrc.obj
 0001:00006330       ?statEvent@PAUtils@shdfnd@physx@@QEAAXGI@Z 0000000180007330 f   PsWindowsPAEventSrc.obj
 0001:00006390       ?statEvent@PAUtils@shdfnd@physx@@QEAAXGII@Z 0000000180007390 f   PsWindowsPAEventSrc.obj
 0001:000063c0       ?debugEvent@PAUtils@shdfnd@physx@@QEAAXGII@Z 00000001800073c0 f   PsWindowsPAEventSrc.obj
 0001:000063f0       ?rawEvent@PAUtils@shdfnd@physx@@QEAAXGIIE@Z 00000001800073f0 f   PsWindowsPAEventSrc.obj
 0001:00006420       ?rawEventWithTimestamp@PAUtils@shdfnd@physx@@QEAA_NG_KIIE@Z 0000000180007420 f   PsWindowsPAEventSrc.obj
 0001:00006450       ?lock@PAUtils@shdfnd@physx@@QEAA_NXZ 0000000180007450 f   PsWindowsPAEventSrc.obj
 0001:000064c0       ?unlock@PAUtils@shdfnd@physx@@QEAA_NXZ 00000001800074c0 f   PsWindowsPAEventSrc.obj
 0001:000064e0       ??0ConnImpl@shdfnd@physx@@QEAA@XZ 00000001800074e0 f   PsWindowsPAEventSrc.obj
 0001:000066c0       ??1ConnImpl@shdfnd@physx@@QEAA@XZ 00000001800076c0 f   PsWindowsPAEventSrc.obj
 0001:00006710       ?printFormatted@shdfnd@physx@@YAXPEBDZZ 0000000180007710 f   PsWindowsPrintString.obj
 0001:00006790       ?printString@shdfnd@physx@@YAXPEBD@Z 0000000180007790 f   PsWindowsPrintString.obj
 0001:000067c0       ??$__vcrt_va_start_verify_argument_type@PEBD@@YAXXZ 00000001800077c0 f i PsWindowsPrintString.obj
 0001:000067d0       __local_stdio_printf_options 00000001800077d0 f i PsWindowsPrintString.obj
 0001:000067e0       ??0SListImpl@shdfnd@physx@@QEAA@XZ 00000001800077e0 f   PsWindowsSList.obj
 0001:00006800       ??1SListImpl@shdfnd@physx@@QEAA@XZ 0000000180007800 f   PsWindowsSList.obj
 0001:00006810       ?push@SListImpl@shdfnd@physx@@QEAAXPEAVSListEntry@23@@Z 0000000180007810 f   PsWindowsSList.obj
 0001:00006820       ?pop@SListImpl@shdfnd@physx@@QEAAPEAVSListEntry@23@XZ 0000000180007820 f   PsWindowsSList.obj
 0001:00006830       ?flush@SListImpl@shdfnd@physx@@QEAAPEAVSListEntry@23@XZ 0000000180007830 f   PsWindowsSList.obj
 0001:00006840       ?getSize@SListImpl@shdfnd@physx@@SAAEBIXZ 0000000180007840 f   PsWindowsSList.obj
 0001:00006850       ??4SListImpl@shdfnd@physx@@QEAAAEAU012@AEBU012@@Z 0000000180007850 f i PsWindowsSList.obj
 0001:00006860       ??0Socket@shdfnd@physx@@QEAA@_N@Z 0000000180007860 f   PsWindowsSocket.obj
 0001:00006920       ??1Socket@shdfnd@physx@@UEAA@XZ 0000000180007920 f   PsWindowsSocket.obj
 0001:00006970       ?connect@Socket@shdfnd@physx@@QEAA_NPEBDGI@Z 0000000180007970 f   PsWindowsSocket.obj
 0001:00006980       ?listen@Socket@shdfnd@physx@@QEAA_NGPEAVConnection@123@@Z 0000000180007980 f   PsWindowsSocket.obj
 0001:00006990       ?disconnect@Socket@shdfnd@physx@@QEAAXXZ 0000000180007990 f   PsWindowsSocket.obj
 0001:000069a0       ?isConnected@Socket@shdfnd@physx@@QEBA_NXZ 00000001800079a0 f   PsWindowsSocket.obj
 0001:000069b0       ?getHost@Socket@shdfnd@physx@@QEBAPEBDXZ 00000001800079b0 f   PsWindowsSocket.obj
 0001:000069c0       ?getPort@Socket@shdfnd@physx@@QEBAGXZ 00000001800079c0 f   PsWindowsSocket.obj
 0001:000069d0       ?flush@Socket@shdfnd@physx@@QEAA_NXZ 00000001800079d0 f   PsWindowsSocket.obj
 0001:000069f0       ?write@Socket@shdfnd@physx@@QEAAIPEBEI@Z 00000001800079f0 f   PsWindowsSocket.obj
 0001:00006a10       ?read@Socket@shdfnd@physx@@QEAAIPEAEI@Z 0000000180007a10 f   PsWindowsSocket.obj
 0001:00006a30       ?setBlocking@Socket@shdfnd@physx@@QEAAX_N@Z 0000000180007a30 f   PsWindowsSocket.obj
 0001:00006a70       ?isBlocking@Socket@shdfnd@physx@@QEBA_NXZ 0000000180007a70 f   PsWindowsSocket.obj
 0001:00006a90       ??0SocketImpl@shdfnd@physx@@QEAA@XZ 0000000180007a90 f   PsWindowsSocket.obj
 0001:00006bb0       ??1SocketImpl@shdfnd@physx@@UEAA@XZ 0000000180007bb0 f   PsWindowsSocket.obj
 0001:00006c20       ?connect@SocketImpl@shdfnd@physx@@QEAA_NPEBDGI@Z 0000000180007c20 f   PsWindowsSocket.obj
 0001:00006ea0       ?listen@SocketImpl@shdfnd@physx@@QEAA_NGPEAVConnection@Socket@23@@Z 0000000180007ea0 f   PsWindowsSocket.obj
 0001:00006fa0       ?disconnect@SocketImpl@shdfnd@physx@@QEAAXXZ 0000000180007fa0 f   PsWindowsSocket.obj
 0001:00007020       ?setBlocking@SocketImpl@shdfnd@physx@@QEAAX_N@Z 0000000180008020 f   PsWindowsSocket.obj
 0001:00007060       ?write@SocketImpl@shdfnd@physx@@UEAAIPEBEI@Z 0000000180008060 f   PsWindowsSocket.obj
 0001:000070f0       ?flush@SocketImpl@shdfnd@physx@@UEAA_NXZ 00000001800080f0 f   PsWindowsSocket.obj
 0001:00007100       ?read@SocketImpl@shdfnd@physx@@QEAAIPEAEI@Z 0000000180008100 f   PsWindowsSocket.obj
 0001:000071f0       ?execute@SocketImpl@shdfnd@physx@@UEAAXXZ 00000001800081f0 f   PsWindowsSocket.obj
 0001:00007250       ??0BufferedSocketImpl@shdfnd@physx@@QEAA@XZ 0000000180008250 f   PsWindowsSocket.obj
 0001:00007280       ?flush@BufferedSocketImpl@shdfnd@physx@@UEAA_NXZ 0000000180008280 f   PsWindowsSocket.obj
 0001:00007330       ?write@BufferedSocketImpl@shdfnd@physx@@UEAAIPEBEI@Z 0000000180008330 f   PsWindowsSocket.obj
 0001:00007410       ??0Socket@shdfnd@physx@@QEAA@AEBV012@@Z 0000000180008410 f i PsWindowsSocket.obj
 0001:00007430       ??1?$ThreadT@V?$ReflectionAllocator@VThreadImpl@shdfnd@physx@@@shdfnd@physx@@@shdfnd@physx@@UEAA@XZ 0000000180008430 f i PsWindowsSocket.obj
 0001:00007480       ??1BufferedSocketImpl@shdfnd@physx@@UEAA@XZ 0000000180008480 f i PsWindowsSocket.obj
 0001:00007490       ??1Runnable@shdfnd@physx@@UEAA@XZ 0000000180008490 f i PsWindowsSocket.obj
 0001:000074a0       ??4Socket@shdfnd@physx@@QEAAAEAV012@AEBV012@@Z 00000001800084a0 f i PsWindowsSocket.obj
 0001:000074b0       ??_ESocket@shdfnd@physx@@UEAAPEAXI@Z 00000001800084b0 f i PsWindowsSocket.obj
 0001:00007670       ??_FSocket@shdfnd@physx@@QEAAXXZ 0000000180008670 f i PsWindowsSocket.obj
 0001:000076f0       ??_G?$ThreadT@V?$ReflectionAllocator@VThreadImpl@shdfnd@physx@@@shdfnd@physx@@@shdfnd@physx@@UEAAPEAXI@Z 00000001800086f0 f i PsWindowsSocket.obj
 0001:000076f0       ??_E?$ThreadT@V?$ReflectionAllocator@VThreadImpl@shdfnd@physx@@@shdfnd@physx@@@shdfnd@physx@@UEAAPEAXI@Z 00000001800086f0 f i PsWindowsSocket.obj
 0001:00007790       ??_GBufferedSocketImpl@shdfnd@physx@@UEAAPEAXI@Z 0000000180008790 f i PsWindowsSocket.obj
 0001:00007790       ??_EBufferedSocketImpl@shdfnd@physx@@UEAAPEAXI@Z 0000000180008790 f i PsWindowsSocket.obj
 0001:000077f0       ??_GRunnable@shdfnd@physx@@UEAAPEAXI@Z 00000001800087f0 f i PsWindowsSocket.obj
 0001:000077f0       ??_ERunnable@shdfnd@physx@@UEAAPEAXI@Z 00000001800087f0 f i PsWindowsSocket.obj
 0001:00007820       ??_GSocket@shdfnd@physx@@UEAAPEAXI@Z 0000000180008820 f i PsWindowsSocket.obj
 0001:000078b0       ??_ESocketImpl@shdfnd@physx@@UEAAPEAXI@Z 00000001800088b0 f i PsWindowsSocket.obj
 0001:000078b0       ??_GSocketImpl@shdfnd@physx@@UEAAPEAXI@Z 00000001800088b0 f i PsWindowsSocket.obj
 0001:00007910       ?__global_array_delete@@YAXPEAX@Z 0000000180008910 f i PsWindowsSocket.obj
 0001:00007920       ?__global_array_delete@@YAXPEAX_K@Z 0000000180008920 f i PsWindowsSocket.obj
 0001:00007930       ?__global_delete@@YAXPEAX@Z 0000000180008930 f i PsWindowsSocket.obj
 0001:00007940       ?__global_delete@@YAXPEAX_K@Z 0000000180008940 f i PsWindowsSocket.obj
 0001:00007950       ?execute@?$ThreadT@V?$ReflectionAllocator@VThreadImpl@shdfnd@physx@@@shdfnd@physx@@@shdfnd@physx@@UEAAXXZ 0000000180008950 f i PsWindowsSocket.obj
 0001:00007960       ?execute@Runnable@shdfnd@physx@@UEAAXXZ 0000000180008960 f i PsWindowsSocket.obj
 0001:00007970       ??0SyncImpl@shdfnd@physx@@QEAA@XZ 0000000180008970 f   PsWindowsSync.obj
 0001:000079a0       ??1SyncImpl@shdfnd@physx@@QEAA@XZ 00000001800089a0 f   PsWindowsSync.obj
 0001:000079b0       ?wait@SyncImpl@shdfnd@physx@@QEAA_NI@Z 00000001800089b0 f   PsWindowsSync.obj
 0001:000079e0       ?set@SyncImpl@shdfnd@physx@@QEAAXXZ 00000001800089e0 f   PsWindowsSync.obj
 0001:000079f0       ?reset@SyncImpl@shdfnd@physx@@QEAAXXZ 00000001800089f0 f   PsWindowsSync.obj
 0001:00007a00       ?getSize@SyncImpl@shdfnd@physx@@SAAEBIXZ 0000000180008a00 f   PsWindowsSync.obj
 0001:00007a10       ??4SyncImpl@shdfnd@physx@@QEAAAEAV012@AEBV012@@Z 0000000180008a10 f i PsWindowsSync.obj
 0001:00007a20       ?getDefaultStackSize@ThreadImpl@shdfnd@physx@@SAIXZ 0000000180008a20 f   PsWindowsThread.obj
 0001:00007a30       ?getId@ThreadImpl@shdfnd@physx@@SA_KXZ 0000000180008a30 f   PsWindowsThread.obj
 0001:00007a50       ??0ThreadImpl@shdfnd@physx@@QEAA@XZ 0000000180008a50 f   PsWindowsThread.obj
 0001:00007a70       ??0ThreadImpl@shdfnd@physx@@QEAA@P6APEAXPEAX@Z0@Z 0000000180008a70 f   PsWindowsThread.obj
 0001:00007af0       ??1ThreadImpl@shdfnd@physx@@QEAA@XZ 0000000180008af0 f   PsWindowsThread.obj
 0001:00007b30       ?start@ThreadImpl@shdfnd@physx@@QEAAXIPEAVRunnable@23@@Z 0000000180008b30 f   PsWindowsThread.obj
 0001:00007bc0       ?kill@ThreadImpl@shdfnd@physx@@QEAAXXZ 0000000180008bc0 f   PsWindowsThread.obj
 0001:00007c00       ?signalQuit@ThreadImpl@shdfnd@physx@@QEAAXXZ 0000000180008c00 f   PsWindowsThread.obj
 0001:00007c10       ?waitForQuit@ThreadImpl@shdfnd@physx@@QEAA_NXZ 0000000180008c10 f   PsWindowsThread.obj
 0001:00007c40       ?quitIsSignalled@ThreadImpl@shdfnd@physx@@QEAA_NXZ 0000000180008c40 f   PsWindowsThread.obj
 0001:00007c60       ?quit@ThreadImpl@shdfnd@physx@@QEAAXXZ 0000000180008c60 f   PsWindowsThread.obj
 0001:00007c80       ?setAffinityMask@ThreadImpl@shdfnd@physx@@QEAAII@Z 0000000180008c80 f   PsWindowsThread.obj
 0001:00007cb0       ?getPriority@ThreadImpl@shdfnd@physx@@SA?AW4Enum@ThreadPriority@23@_K@Z 0000000180008cb0 f   PsWindowsThread.obj
 0001:00007d10       ?setPriority@ThreadImpl@shdfnd@physx@@QEAAXW4Enum@ThreadPriority@23@@Z 0000000180008d10 f   PsWindowsThread.obj
 0001:00007d80       ?setName@ThreadImpl@shdfnd@physx@@QEAAXPEBD@Z 0000000180008d80 f   PsWindowsThread.obj
 0001:00007dd0       ?sleep@ThreadImpl@shdfnd@physx@@SAXI@Z 0000000180008dd0 f   PsWindowsThread.obj
 0001:00007de0       ?yield@ThreadImpl@shdfnd@physx@@SAXXZ 0000000180008de0 f   PsWindowsThread.obj
 0001:00007df0       ?getNbPhysicalCores@ThreadImpl@shdfnd@physx@@SAIXZ 0000000180008df0 f   PsWindowsThread.obj
 0001:00007f30       ?getSize@ThreadImpl@shdfnd@physx@@SAAEBIXZ 0000000180008f30 f   PsWindowsThread.obj
 0001:00007f40       ?TlsAlloc@shdfnd@physx@@YAIXZ 0000000180008f40 f   PsWindowsThread.obj
 0001:00007f50       ?TlsFree@shdfnd@physx@@YAXI@Z 0000000180008f50 f   PsWindowsThread.obj
 0001:00007f60       ?TlsGet@shdfnd@physx@@YAPEAXI@Z 0000000180008f60 f   PsWindowsThread.obj
 0001:00007f70       ?TlsSet@shdfnd@physx@@YAIIPEAX@Z 0000000180008f70 f   PsWindowsThread.obj
 0001:00007fb0       ?getBootCounterFrequency@Time@shdfnd@physx@@SAAEBUCounterFrequencyToTensOfNanos@23@XZ 0000000180008fb0 f   PsWindowsTime.obj
 0001:00007fc0       ?getCounterFrequency@Time@shdfnd@physx@@SA?AUCounterFrequencyToTensOfNanos@23@XZ 0000000180008fc0 f   PsWindowsTime.obj
 0001:00008000       ?getCurrentCounterValue@Time@shdfnd@physx@@SA_KXZ 0000000180009000 f   PsWindowsTime.obj
 0001:00008020       ??0Time@shdfnd@physx@@QEAA@XZ 0000000180009020 f   PsWindowsTime.obj
 0001:00008060       ?getElapsedSeconds@Time@shdfnd@physx@@QEAANXZ 0000000180009060 f   PsWindowsTime.obj
 0001:000080b0       ?peekElapsedSeconds@Time@shdfnd@physx@@QEAANXZ 00000001800090b0 f   PsWindowsTime.obj
 0001:000080f0       ?getLastTime@Time@shdfnd@physx@@QEBANXZ 00000001800090f0 f   PsWindowsTime.obj
 0001:00008110       ??4Time@shdfnd@physx@@QEAAAEAV012@$$QEAV012@@Z 0000000180009110 f i PsWindowsTime.obj
 0001:00008120       ??4Time@shdfnd@physx@@QEAAAEAV012@AEBV012@@Z 0000000180009120 f i PsWindowsTime.obj
 0001:00008130       ?getCurrentTimeInTensOfNanoSeconds@Time@shdfnd@physx@@SA_KXZ 0000000180009130 f i PsWindowsTime.obj
 0001:00008160       ?allocate@Allocator@shdfnd@physx@@QEAAPEAX_KPEBDH@Z 0000000180009160 f   PsAllocator.obj
 0001:000081d0       ?deallocate@Allocator@shdfnd@physx@@QEAAXPEAX@Z 00000001800091d0 f   PsAllocator.obj
 0001:00008200       ?PxGetAssertHandler@physx@@YAAEAVPxAssertHandler@1@XZ 0000000180009200 f   PsAssert.obj
 0001:00008210       ?PxSetAssertHandler@physx@@YAXAEAVPxAssertHandler@1@@Z 0000000180009210 f   PsAssert.obj
 0001:00008220       ??$__vcrt_va_start_verify_argument_type@QEBD@@YAXXZ 0000000180009220 f i PsAssert.obj
 0001:00008230       ??1PxAssertHandler@physx@@UEAA@XZ 0000000180009230 f i PsAssert.obj
 0001:00008270       ??_GDefaultAssertHandler@?A0xaa21e783@@UEAAPEAXI@Z 0000000180009270 f i PsAssert.obj
 0001:00008270       ??_EDefaultAssertHandler@?A0xaa21e783@@UEAAPEAXI@Z 0000000180009270 f i PsAssert.obj
 0001:000082a0       ??_EPxAssertHandler@physx@@UEAAPEAXI@Z 00000001800092a0 f i PsAssert.obj
 0001:000082a0       ??_GPxAssertHandler@physx@@UEAAPEAXI@Z 00000001800092a0 f i PsAssert.obj
 0001:000082d0       sprintf                    00000001800092d0 f i PsAssert.obj
 0001:00008330       ??0ErrorHandler@shdfnd@physx@@QEAA@XZ 0000000180009330 f   PsErrorHandler.obj
 0001:00008350       ??1ErrorHandler@shdfnd@physx@@QEAA@XZ 0000000180009350 f   PsErrorHandler.obj
 0001:000083a0       ?reportError@ErrorHandler@shdfnd@physx@@QEAAXW4Enum@PxErrorCode@3@PEBD1H@Z 00000001800093a0 f   PsErrorHandler.obj
 0001:00008440       ?registerErrorCallback@ErrorHandler@shdfnd@physx@@QEAAHAEAVPxErrorCallback@3@@Z 0000000180009440 f   PsErrorHandler.obj
 0001:000084c0       ?unRegisterErrorCallback@ErrorHandler@shdfnd@physx@@QEAAXAEAVPxErrorCallback@3@@Z 00000001800094c0 f   PsErrorHandler.obj
 0001:00008560       ?unRegisterErrorCallback@ErrorHandler@shdfnd@physx@@QEAAXH@Z 0000000180009560 f   PsErrorHandler.obj
 0001:000085d0       ?createFastIPC@shdfnd@physx@@YAPEAVPxIPC@12@AEAW4ErrorCode@312@W4ConnectionType@312@PEBDII_N3I@Z 00000001800095d0 f   PsFastIPC.obj
 0001:000086d0       ??0FastIPC@shdfnd@physx@@QEAA@AEAW4ErrorCode@PxIPC@12@W4ConnectionType@412@PEBDII_N3I@Z 00000001800096d0 f i PsFastIPC.obj
 0001:00008ab0       ??0MultiPartPacket@PxRingBuffer@shdfnd@physx@@QEAA@W4MessageType@123@PEBXIIPEAV123@@Z 0000000180009ab0 f i PsFastIPC.obj
 0001:00008b50       ??1FastIPC@shdfnd@physx@@UEAA@XZ 0000000180009b50 f i PsFastIPC.obj
 0001:00008c70       ??1PxIPC@shdfnd@physx@@MEAA@XZ 0000000180009c70 f i PsFastIPC.obj
 0001:00008c80       ??_GFastIPC@shdfnd@physx@@UEAAPEAXI@Z 0000000180009c80 f i PsFastIPC.obj
 0001:00008c80       ??_EFastIPC@shdfnd@physx@@UEAAPEAXI@Z 0000000180009c80 f i PsFastIPC.obj
 0001:00008ce0       ??_EPxIPC@shdfnd@physx@@MEAAPEAXI@Z 0000000180009ce0 f i PsFastIPC.obj
 0001:00008ce0       ??_GPxIPC@shdfnd@physx@@MEAAPEAXI@Z 0000000180009ce0 f i PsFastIPC.obj
 0001:00008d10       ?canSend@FastIPC@shdfnd@physx@@UEAA_NI@Z 0000000180009d10 f i PsFastIPC.obj
 0001:00008d80       ?canSend@PxRingBuffer@shdfnd@physx@@QEBA?AW4ErrorCode@123@I@Z 0000000180009d80 f i PsFastIPC.obj
 0001:00008e00       ?haveConnection@FastIPC@shdfnd@physx@@UEBA_NXZ 0000000180009e00 f i PsFastIPC.obj
 0001:00008e20       ?init@PxRingBuffer@shdfnd@physx@@QEAAXPEAXI_N1IPEAI2@Z 0000000180009e20 f i PsFastIPC.obj
 0001:00008ed0       ?isServer@FastIPC@shdfnd@physx@@UEBA_NXZ 0000000180009ed0 f i PsFastIPC.obj
 0001:00008ee0       ?process@MultiPartPacket@PxRingBuffer@shdfnd@physx@@QEAA?AW4ErrorCode@234@XZ 0000000180009ee0 f i PsFastIPC.obj
 0001:00008f70       ?pumpPendingSends@FastIPC@shdfnd@physx@@UEAA_NXZ 0000000180009f70 f i PsFastIPC.obj
 0001:00008f90       ?pumpPendingSends@PxRingBuffer@shdfnd@physx@@QEAA_NXZ 0000000180009f90 f i PsFastIPC.obj
 0001:00009000       ?receiveAcknowledge@FastIPC@shdfnd@physx@@UEAA?AW4ErrorCode@PxIPC@23@XZ 000000018000a000 f i PsFastIPC.obj
 0001:00009030       ?receiveAcknowledge@PxRingBuffer@shdfnd@physx@@QEAA?AW4ErrorCode@123@XZ 000000018000a030 f i PsFastIPC.obj
 0001:000090f0       ?receiveData@FastIPC@shdfnd@physx@@UEAAPEBXAEAI@Z 000000018000a0f0 f i PsFastIPC.obj
 0001:00009120       ?receiveData@PxRingBuffer@shdfnd@physx@@QEAA?AW4MessageType@123@AEAPEBXAEAI@Z 000000018000a120 f i PsFastIPC.obj
 0001:00009390       ?release@FastIPC@shdfnd@physx@@UEAAXXZ 000000018000a390 f i PsFastIPC.obj
 0001:000093b0       ?sendData@FastIPC@shdfnd@physx@@UEAA?AW4ErrorCode@PxIPC@23@PEBXI_N@Z 000000018000a3b0 f i PsFastIPC.obj
 0001:000093f0       ?sendData@PxRingBuffer@shdfnd@physx@@QEAA?AW4ErrorCode@123@W4MessageType@123@PEBXI_N@Z 000000018000a3f0 f i PsFastIPC.obj
 0001:00009560       ?sendDataInternal@PxRingBuffer@shdfnd@physx@@AEAA?AW4ErrorCode@123@W4MessageType@123@PEBXI@Z 000000018000a560 f i PsFastIPC.obj
 0001:000095d0       ?sendHeader@MultiPartPacket@PxRingBuffer@shdfnd@physx@@QEAA?AW4ErrorCode@234@XZ 000000018000a5d0 f i PsFastIPC.obj
 0001:00009660       ?writeData@PxRingBuffer@shdfnd@physx@@AEAAXW4MessageType@123@PEBXI@Z 000000018000a660 f i PsFastIPC.obj
 0001:00009740       ?createFastXml@shdfnd@physx@@YAPEAVFastXml@12@PEAVCallback@312@@Z 000000018000a740 f   PsFastXml.obj
 0001:00009880       ??1FastXml@shdfnd@physx@@MEAA@XZ 000000018000a880 f i PsFastXml.obj
 0001:000098c0       ??_EFastXml@shdfnd@physx@@MEAAPEAXI@Z 000000018000a8c0 f i PsFastXml.obj
 0001:000098c0       ??_GFastXml@shdfnd@physx@@MEAAPEAXI@Z 000000018000a8c0 f i PsFastXml.obj
 0001:000098f0       ??_EMyFastXml@?A0xa1444207@@EEAAPEAXI@Z 000000018000a8f0 f i PsFastXml.obj
 0001:000098f0       ??_GMyFastXml@?A0xa1444207@@EEAAPEAXI@Z 000000018000a8f0 f i PsFastXml.obj
 0001:0000a920       PxCreateFoundation         000000018000b920 f   PsFoundation.obj
 0001:0000a940       PxGetFoundation            000000018000b940 f   PsFoundation.obj
 0001:0000a950       ?getAllocator@shdfnd@physx@@YAAEAVPxAllocatorCallback@2@XZ 000000018000b950 f   PsFoundation.obj
 0001:0000a970       ??0Foundation@shdfnd@physx@@AEAA@AEAVPxErrorCallback@2@AEAVPxAllocatorCallback@2@@Z 000000018000b970 f   PsFoundation.obj
 0001:0000aba0       ??1Foundation@shdfnd@physx@@EEAA@XZ 000000018000bba0 f   PsFoundation.obj
 0001:0000ad20       ?release@Foundation@shdfnd@physx@@UEAAXXZ 000000018000bd20 f   PsFoundation.obj
 0001:0000ad30       ?createInstance@Foundation@shdfnd@physx@@SAPEAV123@IAEAVPxErrorCallback@3@AEAVPxAllocatorCallback@3@@Z 000000018000bd30 f   PsFoundation.obj
 0001:0000ae90       ?destroyInstance@Foundation@shdfnd@physx@@SAXXZ 000000018000be90 f   PsFoundation.obj
 0001:0000af10       ?getInstance@Foundation@shdfnd@physx@@SAAEAV123@XZ 000000018000bf10 f   PsFoundation.obj
 0001:0000af20       ?incRefCount@Foundation@shdfnd@physx@@SAXXZ 000000018000bf20 f   PsFoundation.obj
 0001:0000af70       ?decRefCount@Foundation@shdfnd@physx@@SAXXZ 000000018000bf70 f   PsFoundation.obj
 0001:0000afc0       ?getErrorCallback@Foundation@shdfnd@physx@@UEBAAEAVPxErrorCallback@3@XZ 000000018000bfc0 f   PsFoundation.obj
 0001:0000afd0       ?setErrorLevel@Foundation@shdfnd@physx@@UEAAXW4Enum@PxErrorCode@3@@Z 000000018000bfd0 f   PsFoundation.obj
 0001:0000afe0       ?getErrorLevel@Foundation@shdfnd@physx@@UEBA?AW4Enum@PxErrorCode@3@XZ 000000018000bfe0 f   PsFoundation.obj
 0001:0000aff0       ?getAllocatorCallback@Foundation@shdfnd@physx@@UEBAAEAVPxAllocatorCallback@3@XZ 000000018000bff0 f   PsFoundation.obj
 0001:0000b000       ?error@Foundation@shdfnd@physx@@QEAAXW4Enum@PxErrorCode@3@PEBDH1ZZ 000000018000c000 f   PsFoundation.obj
 0001:0000b030       ?errorImpl@Foundation@shdfnd@physx@@QEAAXW4Enum@PxErrorCode@3@PEBDH1PEAD@Z 000000018000c030 f   PsFoundation.obj
 0001:0000b0e0       ?getWarnOnceTimestamp@Foundation@shdfnd@physx@@SAIXZ 000000018000c0e0 f   PsFoundation.obj
 0001:0000b0f0       ?allocate@AlignCheckAllocator@Foundation@shdfnd@physx@@UEAAPEAX_KPEBD1H@Z 000000018000c0f0 f   PsFoundation.obj
 0001:0000b1f0       ??0TempAllocator@shdfnd@physx@@QEAA@PEBD@Z 000000018000c1f0 f i PsFoundation.obj
 0001:0000b200       ??1PxAllocatorCallback@physx@@UEAA@XZ 000000018000c200 f i PsFoundation.obj
 0001:0000b210       ??1PxBroadcastingAllocator@physx@@MEAA@XZ 000000018000c210 f i PsFoundation.obj
 0001:0000b220       ??4TempAllocator@shdfnd@physx@@QEAAAEAV012@$$QEAV012@@Z 000000018000c220 f i PsFoundation.obj
 0001:0000b230       ??4TempAllocator@shdfnd@physx@@QEAAAEAV012@AEBV012@@Z 000000018000c230 f i PsFoundation.obj
 0001:0000b240       ??_EFoundation@shdfnd@physx@@EEAAPEAXI@Z 000000018000c240 f i PsFoundation.obj
 0001:0000b300       ??_FTempAllocator@shdfnd@physx@@QEAAXXZ 000000018000c300 f i PsFoundation.obj
 0001:0000b310       ??_GAlignCheckAllocator@Foundation@shdfnd@physx@@UEAAPEAXI@Z 000000018000c310 f i PsFoundation.obj
 0001:0000b310       ??_EAlignCheckAllocator@Foundation@shdfnd@physx@@UEAAPEAXI@Z 000000018000c310 f i PsFoundation.obj
 0001:0000b340       ??_GFoundation@shdfnd@physx@@EEAAPEAXI@Z 000000018000c340 f i PsFoundation.obj
 0001:0000b380       ??_GPxAllocatorCallback@physx@@UEAAPEAXI@Z 000000018000c380 f i PsFoundation.obj
 0001:0000b380       ??_EPxAllocatorCallback@physx@@UEAAPEAXI@Z 000000018000c380 f i PsFoundation.obj
 0001:0000b3b0       ??_GPxBroadcastingAllocator@physx@@MEAAPEAXI@Z 000000018000c3b0 f i PsFoundation.obj
 0001:0000b3b0       ??_EPxBroadcastingAllocator@physx@@MEAAPEAXI@Z 000000018000c3b0 f i PsFoundation.obj
 0001:0000b3e0       ?deallocate@AlignCheckAllocator@Foundation@shdfnd@physx@@UEAAXPEAX@Z 000000018000c3e0 f i PsFoundation.obj
 0001:0000b450       ?deregisterAllocationListener@AlignCheckAllocator@Foundation@shdfnd@physx@@UEAAXAEAVPxAllocationListener@4@@Z 000000018000c450 f i PsFoundation.obj
 0001:0000b490       ?recreate@?$Array@PEATTempAllocatorChunk@shdfnd@physx@@VAllocator@23@@shdfnd@physx@@IEAAXI@Z 000000018000c490 f i PsFoundation.obj
 0001:0000b530       ?registerAllocationListener@AlignCheckAllocator@Foundation@shdfnd@physx@@UEAAXAEAVPxAllocationListener@4@@Z 000000018000c530 f i PsFoundation.obj
 0001:0000b550       ?reserveInternal@?$HashBase@V?$Pair@QEBVNamedAllocator@shdfnd@physx@@PEBD@shdfnd@physx@@PEBVNamedAllocator@23@U?$Hash@PEBVNamedAllocator@shdfnd@physx@@@23@UGetKey@?$HashMapBase@PEBVNamedAllocator@shdfnd@physx@@PEBDU?$Hash@PEBVNamedAllocator@shdfnd@physx@@@23@VNonTrackingAllocator@23@@internal@23@VNonTrackingAllocator@23@$00@internal@shdfnd@physx@@AEAAXI@Z 000000018000c550 f i PsFoundation.obj
 0001:0000b740       ?resize@?$Array@PEATTempAllocatorChunk@shdfnd@physx@@VAllocator@23@@shdfnd@physx@@QEAAXIAEBQEATTempAllocatorChunk@23@@Z 000000018000c740 f i PsFoundation.obj
 0001:0000b7b0       ?sprintf_s@string@physx@@YAHPEAD_KPEBDZZ 000000018000c7b0 f i PsFoundation.obj
 0001:0000b810       ?computeQuatFromNormal@shdfnd@physx@@YA?AVPxQuat@2@AEBVPxVec3@2@@Z 000000018000c810 f   PsMathUtils.obj
 0001:0000b9b0       ?optimizeBoundingBox@shdfnd@physx@@YA?AVPxVec3@2@AEAVPxMat33@2@@Z 000000018000c9b0 f   PsMathUtils.obj
 0001:0000bd60       ?slerp@shdfnd@physx@@YA?AVPxQuat@2@MAEBV32@0@Z 000000018000cd60 f   PsMathUtils.obj
 0001:0000bf80       ?integrateTransform@shdfnd@physx@@YAXAEBVPxTransform@2@AEBVPxVec3@2@1MAEAV32@@Z 000000018000cf80 f   PsMathUtils.obj
 0001:0000c150       ??DPxQuat@physx@@QEBA?AV01@AEBV01@@Z 000000018000d150 f i PsMathUtils.obj
 0001:0000c290       ?allocate@TempAllocator@shdfnd@physx@@QEAAPEAX_KPEBDH@Z 000000018000d290 f   PsTempAllocator.obj
 0001:0000c3d0       ?deallocate@TempAllocator@shdfnd@physx@@QEAAXPEAX@Z 000000018000d3d0 f   PsTempAllocator.obj
 0001:0000c4a0       ?checkValid@shdfnd@physx@@YA_NAEBM@Z 000000018000d4a0 f   PsUtilities.obj
 0001:0000c4d0       ?checkValid@shdfnd@physx@@YA_NAEBVPxVec3@2@@Z 000000018000d4d0 f   PsUtilities.obj
 0001:0000c530       ?checkValid@shdfnd@physx@@YA_NAEBVPxQuat@2@@Z 000000018000d530 f   PsUtilities.obj
 0001:0000c5a0       ?checkValid@shdfnd@physx@@YA_NAEBVPxMat33@2@@Z 000000018000d5a0 f   PsUtilities.obj
 0001:0000c680       ?checkValid@shdfnd@physx@@YA_NAEBVPxTransform@2@@Z 000000018000d680 f   PsUtilities.obj
 0001:0000c6f0       ?checkValid@shdfnd@physx@@YA_NPEBD@Z 000000018000d6f0 f   PsUtilities.obj
 0001:0000c710       ?PxCreateCollection@@YAPEAVPxCollection@physx@@XZ 000000018000d710 f   CmCollection.obj
 0001:0000c790       ?add@Collection@Cm@physx@@UEAAXAEAVPxBase@3@_K@Z 000000018000d790 f   CmCollection.obj
 0001:0000c890       ?remove@Collection@Cm@physx@@UEAAXAEAVPxBase@3@@Z 000000018000d890 f   CmCollection.obj
 0001:0000c990       ?contains@Collection@Cm@physx@@UEBA_NAEAVPxBase@3@@Z 000000018000d990 f   CmCollection.obj
 0001:0000ca60       ?addId@Collection@Cm@physx@@UEAAXAEAVPxBase@3@_K@Z 000000018000da60 f   CmCollection.obj
 0001:0000cba0       ?removeId@Collection@Cm@physx@@UEAAX_K@Z 000000018000dba0 f   CmCollection.obj
 0001:0000cc20       ?find@Collection@Cm@physx@@UEBAPEAVPxBase@3@_K@Z 000000018000dc20 f   CmCollection.obj
 0001:0000cc50       ?add@Collection@Cm@physx@@UEAAXAEAVPxCollection@3@@Z 000000018000dc50 f   CmCollection.obj
 0001:0000ce00       ?remove@Collection@Cm@physx@@UEAAXAEAVPxCollection@3@@Z 000000018000de00 f   CmCollection.obj
 0001:0000ce90       ?getNbObjects@Collection@Cm@physx@@UEBAIXZ 000000018000de90 f   CmCollection.obj
 0001:0000cea0       ?getObject@Collection@Cm@physx@@UEBAAEAVPxBase@3@I@Z 000000018000dea0 f   CmCollection.obj
 0001:0000cec0       ?getObjects@Collection@Cm@physx@@UEBAIPEAPEAVPxBase@3@II@Z 000000018000dec0 f   CmCollection.obj
 0001:0000cf20       ?getNbIds@Collection@Cm@physx@@UEBAIXZ 000000018000df20 f   CmCollection.obj
 0001:0000cf30       ?getId@Collection@Cm@physx@@UEBA_KAEBVPxBase@3@@Z 000000018000df30 f   CmCollection.obj
 0001:0000cff0       ?getIds@Collection@Cm@physx@@UEBAIPEA_KII@Z 000000018000dff0 f   CmCollection.obj
 0001:0000d0b0       ??0Collection@Cm@physx@@QEAA@XZ 000000018000e0b0 f i CmCollection.obj
 0001:0000d140       ??1PxCollection@physx@@MEAA@XZ 000000018000e140 f i CmCollection.obj
 0001:0000d150       ??_GCollection@Cm@physx@@UEAAPEAXI@Z 000000018000e150 f i CmCollection.obj
 0001:0000d150       ??_ECollection@Cm@physx@@UEAAPEAXI@Z 000000018000e150 f i CmCollection.obj
 0001:0000d1d0       ??_EPxCollection@physx@@MEAAPEAXI@Z 000000018000e1d0 f i CmCollection.obj
 0001:0000d1d0       ??_GPxCollection@physx@@MEAAPEAXI@Z 000000018000e1d0 f i CmCollection.obj
 0001:0000d200       ?create@?$HashBase@V?$Pair@$$CB_KPEAVPxBase@physx@@@shdfnd@physx@@_KU?$Hash@_K@23@UGetKey@?$HashMapBase@_KPEAVPxBase@physx@@U?$Hash@_K@shdfnd@2@VAllocator@42@@internal@23@VAllocator@23@$00@internal@shdfnd@physx@@QEAAPEAV?$Pair@$$CB_KPEAVPxBase@physx@@@34@AEB_KAEA_N@Z 000000018000e200 f i CmCollection.obj
 0001:0000d390       ?create@?$HashBase@V?$Pair@QEAVPxBase@physx@@_K@shdfnd@physx@@PEAVPxBase@3@U?$Hash@PEAVPxBase@physx@@@23@UGetKey@?$HashMapBase@PEAVPxBase@physx@@_KU?$Hash@PEAVPxBase@physx@@@shdfnd@2@VAllocator@42@@internal@23@VAllocator@23@$00@internal@shdfnd@physx@@QEAAPEAV?$Pair@QEAVPxBase@physx@@_K@34@AEBQEAVPxBase@4@AEA_N@Z 000000018000e390 f i CmCollection.obj
 0001:0000d520       ?erase@?$HashBase@V?$Pair@$$CB_KPEAVPxBase@physx@@@shdfnd@physx@@_KU?$Hash@_K@23@UGetKey@?$HashMapBase@_KPEAVPxBase@physx@@U?$Hash@_K@shdfnd@2@VAllocator@42@@internal@23@VAllocator@23@$00@internal@shdfnd@physx@@QEAA_NAEB_K@Z 000000018000e520 f i CmCollection.obj
 0001:0000d610       ?erase@?$HashBase@V?$Pair@QEAVPxBase@physx@@_K@shdfnd@physx@@PEAVPxBase@3@U?$Hash@PEAVPxBase@physx@@@23@UGetKey@?$HashMapBase@PEAVPxBase@physx@@_KU?$Hash@PEAVPxBase@physx@@@shdfnd@2@VAllocator@42@@internal@23@VAllocator@23@$00@internal@shdfnd@physx@@QEAA_NAEBQEAVPxBase@4@@Z 000000018000e610 f i CmCollection.obj
 0001:0000d700       ?find@?$HashBase@V?$Pair@$$CB_KPEAVPxBase@physx@@@shdfnd@physx@@_KU?$Hash@_K@23@UGetKey@?$HashMapBase@_KPEAVPxBase@physx@@U?$Hash@_K@shdfnd@2@VAllocator@42@@internal@23@VAllocator@23@$00@internal@shdfnd@physx@@QEBAPEBV?$Pair@$$CB_KPEAVPxBase@physx@@@34@AEB_K@Z 000000018000e700 f i CmCollection.obj
 0001:0000d7b0       ?find@?$HashBase@V?$Pair@QEAVPxBase@physx@@_K@shdfnd@physx@@PEAVPxBase@3@U?$Hash@PEAVPxBase@physx@@@23@UGetKey@?$HashMapBase@PEAVPxBase@physx@@_KU?$Hash@PEAVPxBase@physx@@@shdfnd@2@VAllocator@42@@internal@23@VAllocator@23@$00@internal@shdfnd@physx@@QEBAPEBV?$Pair@QEAVPxBase@physx@@_K@34@AEBQEAVPxBase@4@@Z 000000018000e7b0 f i CmCollection.obj
 0001:0000d860       ?release@Collection@Cm@physx@@UEAAXXZ 000000018000e860 f i CmCollection.obj
 0001:0000d880       ?replaceWithLast@?$HashBase@V?$Pair@$$CB_KPEAVPxBase@physx@@@shdfnd@physx@@_KU?$Hash@_K@23@UGetKey@?$HashMapBase@_KPEAVPxBase@physx@@U?$Hash@_K@shdfnd@2@VAllocator@42@@internal@23@VAllocator@23@$00@internal@shdfnd@physx@@AEAAXI@Z 000000018000e880 f i CmCollection.obj
 0001:0000d980       ?replaceWithLast@?$HashBase@V?$Pair@QEAVPxBase@physx@@_K@shdfnd@physx@@PEAVPxBase@3@U?$Hash@PEAVPxBase@physx@@@23@UGetKey@?$HashMapBase@PEAVPxBase@physx@@_KU?$Hash@PEAVPxBase@physx@@@shdfnd@2@VAllocator@42@@internal@23@VAllocator@23@$00@internal@shdfnd@physx@@AEAAXI@Z 000000018000e980 f i CmCollection.obj
 0001:0000da80       ?reserveInternal@?$HashBase@V?$Pair@$$CB_KPEAVPxBase@physx@@@shdfnd@physx@@_KU?$Hash@_K@23@UGetKey@?$HashMapBase@_KPEAVPxBase@physx@@U?$Hash@_K@shdfnd@2@VAllocator@42@@internal@23@VAllocator@23@$00@internal@shdfnd@physx@@AEAAXI@Z 000000018000ea80 f i CmCollection.obj
 0001:0000dc40       ?reserveInternal@?$HashBase@V?$Pair@QEAVPxBase@physx@@_K@shdfnd@physx@@PEAVPxBase@3@U?$Hash@PEAVPxBase@physx@@@23@UGetKey@?$HashMapBase@PEAVPxBase@physx@@_KU?$Hash@PEAVPxBase@physx@@@shdfnd@2@VAllocator@42@@internal@23@VAllocator@23@$00@internal@shdfnd@physx@@AEAAXI@Z 000000018000ec40 f i CmCollection.obj
 0001:0000de00       ?getProfileNames@CmEventNameProvider@Cm@physx@@UEBA?AUPxProfileNames@3@XZ 000000018000ee00 f   CmEventProfiler.obj
 0001:0000de20       ?enableNVTXSupport@Cm@physx@@YAX_N@Z 000000018000ee20 f   CmEventProfiler.obj
 0001:0000de30       ?isNVTXSupportEnabled@Cm@physx@@YA_NXZ 000000018000ee30 f   CmEventProfiler.obj
 0001:0000de40       ?GetMBPPostUpdate@BroadPhase@ProfileEventId@Cm@physx@@SAAEBUPxProfileEventId@4@XZ 000000018000ee40 f i CmEventProfiler.obj
 0001:0000de50       ?GetMBPPostUpdateSPU@BroadPhase@ProfileEventId@Cm@physx@@SAAEBUPxProfileEventId@4@XZ 000000018000ee50 f i CmEventProfiler.obj
 0001:0000de60       ?GetMBPUpdate@BroadPhase@ProfileEventId@Cm@physx@@SAAEBUPxProfileEventId@4@XZ 000000018000ee60 f i CmEventProfiler.obj
 0001:0000de70       ?GetMBPUpdateSPU@BroadPhase@ProfileEventId@Cm@physx@@SAAEBUPxProfileEventId@4@XZ 000000018000ee70 f i CmEventProfiler.obj
 0001:0000de80       ?GetSapPostUpdate@BroadPhase@ProfileEventId@Cm@physx@@SAAEBUPxProfileEventId@4@XZ 000000018000ee80 f i CmEventProfiler.obj
 0001:0000de90       ?GetSapPostUpdateSPU@BroadPhase@ProfileEventId@Cm@physx@@SAAEBUPxProfileEventId@4@XZ 000000018000ee90 f i CmEventProfiler.obj
 0001:0000dea0       ?GetSapUpdate@BroadPhase@ProfileEventId@Cm@physx@@SAAEBUPxProfileEventId@4@XZ 000000018000eea0 f i CmEventProfiler.obj
 0001:0000deb0       ?GetSapUpdateSPU@BroadPhase@ProfileEventId@Cm@physx@@SAAEBUPxProfileEventId@4@XZ 000000018000eeb0 f i CmEventProfiler.obj
 0001:0000dec0       ?GetaddActor@API@ProfileEventId@Cm@physx@@SAAEBUPxProfileEventId@4@XZ 000000018000eec0 f i CmEventProfiler.obj
 0001:0000ded0       ?GetaddActorToSim@API@ProfileEventId@Cm@physx@@SAAEBUPxProfileEventId@4@XZ 000000018000eed0 f i CmEventProfiler.obj
 0001:0000dee0       ?GetaddActors@API@ProfileEventId@Cm@physx@@SAAEBUPxProfileEventId@4@XZ 000000018000eee0 f i CmEventProfiler.obj
 0001:0000def0       ?GetaddAggregate@API@ProfileEventId@Cm@physx@@SAAEBUPxProfileEventId@4@XZ 000000018000eef0 f i CmEventProfiler.obj
 0001:0000df00       ?GetaddArticulation@API@ProfileEventId@Cm@physx@@SAAEBUPxProfileEventId@4@XZ 000000018000ef00 f i CmEventProfiler.obj
 0001:0000df10       ?GetaddCloth@API@ProfileEventId@Cm@physx@@SAAEBUPxProfileEventId@4@XZ 000000018000ef10 f i CmEventProfiler.obj
 0001:0000df20       ?GetaddCollection@API@ProfileEventId@Cm@physx@@SAAEBUPxProfileEventId@4@XZ 000000018000ef20 f i CmEventProfiler.obj
 0001:0000df30       ?GetaddParticleFluid@API@ProfileEventId@Cm@physx@@SAAEBUPxProfileEventId@4@XZ 000000018000ef30 f i CmEventProfiler.obj
 0001:0000df40       ?GetaddParticleSystem@API@ProfileEventId@Cm@physx@@SAAEBUPxProfileEventId@4@XZ 000000018000ef40 f i CmEventProfiler.obj
 0001:0000df50       ?GetaddShapesToSQ@API@ProfileEventId@Cm@physx@@SAAEBUPxProfileEventId@4@XZ 000000018000ef50 f i CmEventProfiler.obj
 0001:0000df60       ?GetaddShapesToSim@API@ProfileEventId@Cm@physx@@SAAEBUPxProfileEventId@4@XZ 000000018000ef60 f i CmEventProfiler.obj
 0001:0000df70       ?GetapplyExternalImpulses@Articulations@ProfileEventId@Cm@physx@@SAAEBUPxProfileEventId@4@XZ 000000018000ef70 f i CmEventProfiler.obj
 0001:0000df80       ?GetapplyJointDrives@Articulations@ProfileEventId@Cm@physx@@SAAEBUPxProfileEventId@4@XZ 000000018000ef80 f i CmEventProfiler.obj
 0001:0000df90       ?GetbroadPhase@Basic@ProfileEventId@Cm@physx@@SAAEBUPxProfileEventId@4@XZ 000000018000ef90 f i CmEventProfiler.obj
 0001:0000dfa0       ?GetbrokenEdgeIslands@IslandGen@ProfileEventId@Cm@physx@@SAAEBUPxProfileEventId@4@XZ 000000018000efa0 f i CmEventProfiler.obj
 0001:0000dfb0       ?GetbuildActiveTransforms@Sim@ProfileEventId@Cm@physx@@SAAEBUPxProfileEventId@4@XZ 000000018000efb0 f i CmEventProfiler.obj
 0001:0000dfc0       ?GetccdBroadPhase@Sim@ProfileEventId@Cm@physx@@SAAEBUPxProfileEventId@4@XZ 000000018000efc0 f i CmEventProfiler.obj
 0001:0000dfd0       ?GetccdBroadPhaseComplete@Sim@ProfileEventId@Cm@physx@@SAAEBUPxProfileEventId@4@XZ 000000018000efd0 f i CmEventProfiler.obj
 0001:0000dfe0       ?GetccdIsland@Sim@ProfileEventId@Cm@physx@@SAAEBUPxProfileEventId@4@XZ 000000018000efe0 f i CmEventProfiler.obj
 0001:0000dff0       ?GetccdPair@Sim@ProfileEventId@Cm@physx@@SAAEBUPxProfileEventId@4@XZ 000000018000eff0 f i CmEventProfiler.obj
 0001:0000e000       ?GetccdSweep@Sim@ProfileEventId@Cm@physx@@SAAEBUPxProfileEventId@4@XZ 000000018000f000 f i CmEventProfiler.obj
 0001:0000e010       ?GetccdSweepMerge@Sim@ProfileEventId@Cm@physx@@SAAEBUPxProfileEventId@4@XZ 000000018000f010 f i CmEventProfiler.obj
 0001:0000e020       ?GetcheckCollision@Basic@ProfileEventId@Cm@physx@@SAAEBUPxProfileEventId@4@XZ 000000018000f020 f i CmEventProfiler.obj
 0001:0000e030       ?GetcheckConstraintBreakage@Sim@ProfileEventId@Cm@physx@@SAAEBUPxProfileEventId@4@XZ 000000018000f030 f i CmEventProfiler.obj
 0001:0000e040       ?GetcheckResults@Basic@ProfileEventId@Cm@physx@@SAAEBUPxProfileEventId@4@XZ 000000018000f040 f i CmEventProfiler.obj
 0001:0000e050       ?GetcleanupEdgeEvents@IslandGen@ProfileEventId@Cm@physx@@SAAEBUPxProfileEventId@4@XZ 000000018000f050 f i CmEventProfiler.obj
 0001:0000e060       ?GetcollideQueueTasks@Sim@ProfileEventId@Cm@physx@@SAAEBUPxProfileEventId@4@XZ 000000018000f060 f i CmEventProfiler.obj
 0001:0000e070       ?Getcollision@Basic@ProfileEventId@Cm@physx@@SAAEBUPxProfileEventId@4@XZ 000000018000f070 f i CmEventProfiler.obj
 0001:0000e080       ?GetcomputeAABBUpdateLists@BroadPhase@ProfileEventId@Cm@physx@@SAAEBUPxProfileEventId@4@XZ 000000018000f080 f i CmEventProfiler.obj
 0001:0000e090       ?GetcomputeAggAggShapePairs@BroadPhase@ProfileEventId@Cm@physx@@SAAEBUPxProfileEventId@4@XZ 000000018000f090 f i CmEventProfiler.obj
 0001:0000e0a0       ?GetcomputeJointDrives@Articulations@ProfileEventId@Cm@physx@@SAAEBUPxProfileEventId@4@XZ 000000018000f0a0 f i CmEventProfiler.obj
 0001:0000e0b0       ?GetcorrelatePatches@Dynamics@ProfileEventId@Cm@physx@@SAAEBUPxProfileEventId@4@XZ 000000018000f0b0 f i CmEventProfiler.obj
 0001:0000e0c0       ?GetcreateBatchQuery@API@ProfileEventId@Cm@physx@@SAAEBUPxProfileEventId@4@XZ 000000018000f0c0 f i CmEventProfiler.obj
 0001:0000e0d0       ?GetcreateContactPatches@Dynamics@ProfileEventId@Cm@physx@@SAAEBUPxProfileEventId@4@XZ 000000018000f0d0 f i CmEventProfiler.obj
 0001:0000e0e0       ?GetcreateFinalize@Dynamics@ProfileEventId@Cm@physx@@SAAEBUPxProfileEventId@4@XZ 000000018000f0e0 f i CmEventProfiler.obj
 0001:0000e0f0       ?GetcreatePVDInstance@PVD@ProfileEventId@Cm@physx@@SAAEBUPxProfileEventId@4@XZ 000000018000f0f0 f i CmEventProfiler.obj
 0001:0000e100       ?GetcreatedNodes@IslandGen@ProfileEventId@Cm@physx@@SAAEBUPxProfileEventId@4@XZ 000000018000f100 f i CmEventProfiler.obj
 0001:0000e110       ?GetdeletedNodesEdges@IslandGen@ProfileEventId@Cm@physx@@SAAEBUPxProfileEventId@4@XZ 000000018000f110 f i CmEventProfiler.obj
 0001:0000e120       ?GetduplicateKinematicNodes@IslandGen@ProfileEventId@Cm@physx@@SAAEBUPxProfileEventId@4@XZ 000000018000f120 f i CmEventProfiler.obj
 0001:0000e130       ?Getdynamics@Basic@ProfileEventId@Cm@physx@@SAAEBUPxProfileEventId@4@XZ 000000018000f130 f i CmEventProfiler.obj
 0001:0000e140       ?GetemptyIslands@IslandGen@ProfileEventId@Cm@physx@@SAAEBUPxProfileEventId@4@XZ 000000018000f140 f i CmEventProfiler.obj
 0001:0000e150       ?GetendStep@ParticleSim@ProfileEventId@Cm@physx@@SAAEBUPxProfileEventId@4@XZ 000000018000f150 f i CmEventProfiler.obj
 0001:0000e160       ?Getexecute@BatchedSceneQuery@ProfileEventId@Cm@physx@@SAAEBUPxProfileEventId@4@XZ 000000018000f160 f i CmEventProfiler.obj
 0001:0000e170       ?GetfetchResults@Basic@ProfileEventId@Cm@physx@@SAAEBUPxProfileEventId@4@XZ 000000018000f170 f i CmEventProfiler.obj
 0001:0000e180       ?GetfetchResults@Sim@ProfileEventId@Cm@physx@@SAAEBUPxProfileEventId@4@XZ 000000018000f180 f i CmEventProfiler.obj
 0001:0000e190       ?GetfindAndReplaceWithLast@API@ProfileEventId@Cm@physx@@SAAEBUPxProfileEventId@4@XZ 000000018000f190 f i CmEventProfiler.obj
 0001:0000e1a0       ?Getfinish@BroadPhase@ProfileEventId@Cm@physx@@SAAEBUPxProfileEventId@4@XZ 000000018000f1a0 f i CmEventProfiler.obj
 0001:0000e1b0       ?GetfinishModifiablePairs@Sim@ProfileEventId@Cm@physx@@SAAEBUPxProfileEventId@4@XZ 000000018000f1b0 f i CmEventProfiler.obj
 0001:0000e1c0       ?GetfireCallBacksPostSync@Sim@ProfileEventId@Cm@physx@@SAAEBUPxProfileEventId@4@XZ 000000018000f1c0 f i CmEventProfiler.obj
 0001:0000e1d0       ?GetfireCallBacksPreSync@Sim@ProfileEventId@Cm@physx@@SAAEBUPxProfileEventId@4@XZ 000000018000f1d0 f i CmEventProfiler.obj
 0001:0000e1e0       ?GetfireCustomFilteringCallbacks@Sim@ProfileEventId@Cm@physx@@SAAEBUPxProfileEventId@4@XZ 000000018000f1e0 f i CmEventProfiler.obj
 0001:0000e1f0       ?GetflushQueryUpdates@API@ProfileEventId@Cm@physx@@SAAEBUPxProfileEventId@4@XZ 000000018000f1f0 f i CmEventProfiler.obj
 0001:0000e200       ?GetflushSimulation@API@ProfileEventId@Cm@physx@@SAAEBUPxProfileEventId@4@XZ 000000018000f200 f i CmEventProfiler.obj
 0001:0000e210       ?GetflushUpdates@SceneQuery@ProfileEventId@Cm@physx@@SAAEBUPxProfileEventId@4@XZ 000000018000f210 f i CmEventProfiler.obj
 0001:0000e220       ?GetforceDynamicTreeRebuild@API@ProfileEventId@Cm@physx@@SAAEBUPxProfileEventId@4@XZ 000000018000f220 f i CmEventProfiler.obj
 0001:0000e230       ?GetfreeBuffers@IslandGen@ProfileEventId@Cm@physx@@SAAEBUPxProfileEventId@4@XZ 000000018000f230 f i CmEventProfiler.obj
 0001:0000e240       ?GetgetFrictionPatch@Dynamics@ProfileEventId@Cm@physx@@SAAEBUPxProfileEventId@4@XZ 000000018000f240 f i CmEventProfiler.obj
 0001:0000e250       ?GetgetSimEvents@Sim@ProfileEventId@Cm@physx@@SAAEBUPxProfileEventId@4@XZ 000000018000f250 f i CmEventProfiler.obj
 0001:0000e260       ?GetgrowPatches@Dynamics@ProfileEventId@Cm@physx@@SAAEBUPxProfileEventId@4@XZ 000000018000f260 f i CmEventProfiler.obj
 0001:0000e270       ?Getintegrate@Articulations@ProfileEventId@Cm@physx@@SAAEBUPxProfileEventId@4@XZ 000000018000f270 f i CmEventProfiler.obj
 0001:0000e280       ?GetislandGen@Basic@ProfileEventId@Cm@physx@@SAAEBUPxProfileEventId@4@XZ 000000018000f280 f i CmEventProfiler.obj
 0001:0000e290       ?GetjoinedEdges@IslandGen@ProfileEventId@Cm@physx@@SAAEBUPxProfileEventId@4@XZ 000000018000f290 f i CmEventProfiler.obj
 0001:0000e2a0       ?GetjointLoads@Articulations@ProfileEventId@Cm@physx@@SAAEBUPxProfileEventId@4@XZ 000000018000f2a0 f i CmEventProfiler.obj
 0001:0000e2b0       ?GetnarrowPhase@Basic@ProfileEventId@Cm@physx@@SAAEBUPxProfileEventId@4@XZ 000000018000f2b0 f i CmEventProfiler.obj
 0001:0000e2c0       ?GetnarrowPhase@Sim@ProfileEventId@Cm@physx@@SAAEBUPxProfileEventId@4@XZ 000000018000f2c0 f i CmEventProfiler.obj
 0001:0000e2d0       ?GetnarrowPhaseMerge@Sim@ProfileEventId@Cm@physx@@SAAEBUPxProfileEventId@4@XZ 000000018000f2d0 f i CmEventProfiler.obj
 0001:0000e2e0       ?GetoriginShift@PVD@ProfileEventId@Cm@physx@@SAAEBUPxProfileEventId@4@XZ 000000018000f2e0 f i CmEventProfiler.obj
 0001:0000e2f0       ?GetoverlapMultiple@BatchedSceneQuery@ProfileEventId@Cm@physx@@SAAEBUPxProfileEventId@4@XZ 000000018000f2f0 f i CmEventProfiler.obj
 0001:0000e300       ?GetoverlapMultiple@SceneQuery@ProfileEventId@Cm@physx@@SAAEBUPxProfileEventId@4@XZ 000000018000f300 f i CmEventProfiler.obj
 0001:0000e310       ?GetparallelSolve@Dynamics@ProfileEventId@Cm@physx@@SAAEBUPxProfileEventId@4@XZ 000000018000f310 f i CmEventProfiler.obj
 0001:0000e320       ?GetpostIslandGenSecondPass@Sim@ProfileEventId@Cm@physx@@SAAEBUPxProfileEventId@4@XZ 000000018000f320 f i CmEventProfiler.obj
 0001:0000e330       ?GetpreIslandGen@Sim@ProfileEventId@Cm@physx@@SAAEBUPxProfileEventId@4@XZ 000000018000f330 f i CmEventProfiler.obj
 0001:0000e340       ?GetpreIslandGenSecondPass@Sim@ProfileEventId@Cm@physx@@SAAEBUPxProfileEventId@4@XZ 000000018000f340 f i CmEventProfiler.obj
 0001:0000e350       ?GetprepareDataBlock@Articulations@ProfileEventId@Cm@physx@@SAAEBUPxProfileEventId@4@XZ 000000018000f350 f i CmEventProfiler.obj
 0001:0000e360       ?GetprepareFsData@Articulations@ProfileEventId@Cm@physx@@SAAEBUPxProfileEventId@4@XZ 000000018000f360 f i CmEventProfiler.obj
 0001:0000e370       ?GetprocessBPResults@BroadPhase@ProfileEventId@Cm@physx@@SAAEBUPxProfileEventId@4@XZ 000000018000f370 f i CmEventProfiler.obj
 0001:0000e380       ?GetprocessLostOverlaps@Sim@ProfileEventId@Cm@physx@@SAAEBUPxProfileEventId@4@XZ 000000018000f380 f i CmEventProfiler.obj
 0001:0000e390       ?GetprocessNewOverlaps@Sim@ProfileEventId@Cm@physx@@SAAEBUPxProfileEventId@4@XZ 000000018000f390 f i CmEventProfiler.obj
 0001:0000e3a0       ?GetprocessSleepingIslands@IslandGen@ProfileEventId@Cm@physx@@SAAEBUPxProfileEventId@4@XZ 000000018000f3a0 f i CmEventProfiler.obj
 0001:0000e3b0       ?GetprocessTriggers@Sim@ProfileEventId@Cm@physx@@SAAEBUPxProfileEventId@4@XZ 000000018000f3b0 f i CmEventProfiler.obj
 0001:0000e3c0       ?GetprojectConstraints@Sim@ProfileEventId@Cm@physx@@SAAEBUPxProfileEventId@4@XZ 000000018000f3c0 f i CmEventProfiler.obj
 0001:0000e3d0       ?GetprojectContacts@Sim@ProfileEventId@Cm@physx@@SAAEBUPxProfileEventId@4@XZ 000000018000f3d0 f i CmEventProfiler.obj
 0001:0000e3e0       ?GetprojectionTreeUpdates@Sim@ProfileEventId@Cm@physx@@SAAEBUPxProfileEventId@4@XZ 000000018000f3e0 f i CmEventProfiler.obj
 0001:0000e3f0       ?GetpropagateDrivenInertia@Articulations@ProfileEventId@Cm@physx@@SAAEBUPxProfileEventId@4@XZ 000000018000f3f0 f i CmEventProfiler.obj
 0001:0000e400       ?GetpvdFrameStart@Basic@ProfileEventId@Cm@physx@@SAAEBUPxProfileEventId@4@XZ 000000018000f400 f i CmEventProfiler.obj
 0001:0000e410       ?GetqueueNarrowPhase@Sim@ProfileEventId@Cm@physx@@SAAEBUPxProfileEventId@4@XZ 000000018000f410 f i CmEventProfiler.obj
 0001:0000e420       ?GetraycastAny@BatchedSceneQuery@ProfileEventId@Cm@physx@@SAAEBUPxProfileEventId@4@XZ 000000018000f420 f i CmEventProfiler.obj
 0001:0000e430       ?GetraycastAny@SceneQuery@ProfileEventId@Cm@physx@@SAAEBUPxProfileEventId@4@XZ 000000018000f430 f i CmEventProfiler.obj
 0001:0000e440       ?GetraycastMultiple@BatchedSceneQuery@ProfileEventId@Cm@physx@@SAAEBUPxProfileEventId@4@XZ 000000018000f440 f i CmEventProfiler.obj
 0001:0000e450       ?GetraycastMultiple@SceneQuery@ProfileEventId@Cm@physx@@SAAEBUPxProfileEventId@4@XZ 000000018000f450 f i CmEventProfiler.obj
 0001:0000e460       ?GetraycastSingle@BatchedSceneQuery@ProfileEventId@Cm@physx@@SAAEBUPxProfileEventId@4@XZ 000000018000f460 f i CmEventProfiler.obj
 0001:0000e470       ?GetraycastSingle@SceneQuery@ProfileEventId@Cm@physx@@SAAEBUPxProfileEventId@4@XZ 000000018000f470 f i CmEventProfiler.obj
 0001:0000e480       ?GetreleaseBatchQuery@API@ProfileEventId@Cm@physx@@SAAEBUPxProfileEventId@4@XZ 000000018000f480 f i CmEventProfiler.obj
 0001:0000e490       ?GetreleasePVDInstance@PVD@ProfileEventId@Cm@physx@@SAAEBUPxProfileEventId@4@XZ 000000018000f490 f i CmEventProfiler.obj
 0001:0000e4a0       ?GetremoveActor@API@ProfileEventId@Cm@physx@@SAAEBUPxProfileEventId@4@XZ 000000018000f4a0 f i CmEventProfiler.obj
 0001:0000e4b0       ?GetremoveActorFromSim@API@ProfileEventId@Cm@physx@@SAAEBUPxProfileEventId@4@XZ 000000018000f4b0 f i CmEventProfiler.obj
 0001:0000e4c0       ?GetremoveActors@API@ProfileEventId@Cm@physx@@SAAEBUPxProfileEventId@4@XZ 000000018000f4c0 f i CmEventProfiler.obj
 0001:0000e4d0       ?GetremoveAggregate@API@ProfileEventId@Cm@physx@@SAAEBUPxProfileEventId@4@XZ 000000018000f4d0 f i CmEventProfiler.obj
 0001:0000e4e0       ?GetremoveArticulation@API@ProfileEventId@Cm@physx@@SAAEBUPxProfileEventId@4@XZ 000000018000f4e0 f i CmEventProfiler.obj
 0001:0000e4f0       ?GetremoveCloth@API@ProfileEventId@Cm@physx@@SAAEBUPxProfileEventId@4@XZ 000000018000f4f0 f i CmEventProfiler.obj
 0001:0000e500       ?GetremoveParticleFluid@API@ProfileEventId@Cm@physx@@SAAEBUPxProfileEventId@4@XZ 000000018000f500 f i CmEventProfiler.obj
 0001:0000e510       ?GetremoveParticleSystem@API@ProfileEventId@Cm@physx@@SAAEBUPxProfileEventId@4@XZ 000000018000f510 f i CmEventProfiler.obj
 0001:0000e520       ?GetremoveShapesFromSQ@API@ProfileEventId@Cm@physx@@SAAEBUPxProfileEventId@4@XZ 000000018000f520 f i CmEventProfiler.obj
 0001:0000e530       ?GetremoveShapesFromSim@API@ProfileEventId@Cm@physx@@SAAEBUPxProfileEventId@4@XZ 000000018000f530 f i CmEventProfiler.obj
 0001:0000e540       ?GetresetDependencies@Sim@ProfileEventId@Cm@physx@@SAAEBUPxProfileEventId@4@XZ 000000018000f540 f i CmEventProfiler.obj
 0001:0000e550       ?GetresizeArrays@IslandGen@ProfileEventId@Cm@physx@@SAAEBUPxProfileEventId@4@XZ 000000018000f550 f i CmEventProfiler.obj
 0001:0000e560       ?GetresizeForKinematics@IslandGen@ProfileEventId@Cm@physx@@SAAEBUPxProfileEventId@4@XZ 000000018000f560 f i CmEventProfiler.obj
 0001:0000e570       ?GetrigidBodySolver@Basic@ProfileEventId@Cm@physx@@SAAEBUPxProfileEventId@4@XZ 000000018000f570 f i CmEventProfiler.obj
 0001:0000e580       ?GetsceneFinalization@Sim@ProfileEventId@Cm@physx@@SAAEBUPxProfileEventId@4@XZ 000000018000f580 f i CmEventProfiler.obj
 0001:0000e590       ?GetsceneUpdate@PVD@ProfileEventId@Cm@physx@@SAAEBUPxProfileEventId@4@XZ 000000018000f590 f i CmEventProfiler.obj
 0001:0000e5a0       ?GetsendPVDArrays@PVD@ProfileEventId@Cm@physx@@SAAEBUPxProfileEventId@4@XZ 000000018000f5a0 f i CmEventProfiler.obj
 0001:0000e5b0       ?GetsetupConstraints@Articulations@ProfileEventId@Cm@physx@@SAAEBUPxProfileEventId@4@XZ 000000018000f5b0 f i CmEventProfiler.obj
 0001:0000e5c0       ?GetsetupDrives@Articulations@ProfileEventId@Cm@physx@@SAAEBUPxProfileEventId@4@XZ 000000018000f5c0 f i CmEventProfiler.obj
 0001:0000e5d0       ?GetsetupFinalize@Dynamics@ProfileEventId@Cm@physx@@SAAEBUPxProfileEventId@4@XZ 000000018000f5d0 f i CmEventProfiler.obj
 0001:0000e5e0       ?GetsetupProject@Articulations@ProfileEventId@Cm@physx@@SAAEBUPxProfileEventId@4@XZ 000000018000f5e0 f i CmEventProfiler.obj
 0001:0000e5f0       ?GetshapesUpdateProcessing@ParticleSim@ProfileEventId@Cm@physx@@SAAEBUPxProfileEventId@4@XZ 000000018000f5f0 f i CmEventProfiler.obj
 0001:0000e600       ?GetshiftOrigin@API@ProfileEventId@Cm@physx@@SAAEBUPxProfileEventId@4@XZ 000000018000f600 f i CmEventProfiler.obj
 0001:0000e610       ?GetsimAddShapeToBroadPhase@API@ProfileEventId@Cm@physx@@SAAEBUPxProfileEventId@4@XZ 000000018000f610 f i CmEventProfiler.obj
 0001:0000e620       ?Getsimulate@Basic@ProfileEventId@Cm@physx@@SAAEBUPxProfileEventId@4@XZ 000000018000f620 f i CmEventProfiler.obj
 0001:0000e630       ?GetsolveGroup@Dynamics@ProfileEventId@Cm@physx@@SAAEBUPxProfileEventId@4@XZ 000000018000f630 f i CmEventProfiler.obj
 0001:0000e640       ?GetsolveQueueTasks@Sim@ProfileEventId@Cm@physx@@SAAEBUPxProfileEventId@4@XZ 000000018000f640 f i CmEventProfiler.obj
 0001:0000e650       ?Getsolver@Dynamics@ProfileEventId@Cm@physx@@SAAEBUPxProfileEventId@4@XZ 000000018000f650 f i CmEventProfiler.obj
 0001:0000e660       ?GetsolverMergeResults@Dynamics@ProfileEventId@Cm@physx@@SAAEBUPxProfileEventId@4@XZ 000000018000f660 f i CmEventProfiler.obj
 0001:0000e670       ?GetsolverQueueTasks@Dynamics@ProfileEventId@Cm@physx@@SAAEBUPxProfileEventId@4@XZ 000000018000f670 f i CmEventProfiler.obj
 0001:0000e680       ?GetstartStep@ParticleSim@ProfileEventId@Cm@physx@@SAAEBUPxProfileEventId@4@XZ 000000018000f680 f i CmEventProfiler.obj
 0001:0000e690       ?GetstepSetupCollide@Sim@ProfileEventId@Cm@physx@@SAAEBUPxProfileEventId@4@XZ 000000018000f690 f i CmEventProfiler.obj
 0001:0000e6a0       ?GetstepSetupSimulate@Sim@ProfileEventId@Cm@physx@@SAAEBUPxProfileEventId@4@XZ 000000018000f6a0 f i CmEventProfiler.obj
 0001:0000e6b0       ?GetstepSetupSolve@Sim@ProfileEventId@Cm@physx@@SAAEBUPxProfileEventId@4@XZ 000000018000f6b0 f i CmEventProfiler.obj
 0001:0000e6c0       ?GetsweepAny@SceneQuery@ProfileEventId@Cm@physx@@SAAEBUPxProfileEventId@4@XZ 000000018000f6c0 f i CmEventProfiler.obj
 0001:0000e6d0       ?GetsweepAnyList@SceneQuery@ProfileEventId@Cm@physx@@SAAEBUPxProfileEventId@4@XZ 000000018000f6d0 f i CmEventProfiler.obj
 0001:0000e6e0       ?GetsweepMultiple@BatchedSceneQuery@ProfileEventId@Cm@physx@@SAAEBUPxProfileEventId@4@XZ 000000018000f6e0 f i CmEventProfiler.obj
 0001:0000e6f0       ?GetsweepMultiple@SceneQuery@ProfileEventId@Cm@physx@@SAAEBUPxProfileEventId@4@XZ 000000018000f6f0 f i CmEventProfiler.obj
 0001:0000e700       ?GetsweepMultipleList@SceneQuery@ProfileEventId@Cm@physx@@SAAEBUPxProfileEventId@4@XZ 000000018000f700 f i CmEventProfiler.obj
 0001:0000e710       ?GetsweepSingle@BatchedSceneQuery@ProfileEventId@Cm@physx@@SAAEBUPxProfileEventId@4@XZ 000000018000f710 f i CmEventProfiler.obj
 0001:0000e720       ?GetsweepSingle@SceneQuery@ProfileEventId@Cm@physx@@SAAEBUPxProfileEventId@4@XZ 000000018000f720 f i CmEventProfiler.obj
 0001:0000e730       ?GetsweepSingleList@SceneQuery@ProfileEventId@Cm@physx@@SAAEBUPxProfileEventId@4@XZ 000000018000f730 f i CmEventProfiler.obj
 0001:0000e740       ?GetsyncBodiesAfterIntegration@Sim@ProfileEventId@Cm@physx@@SAAEBUPxProfileEventId@4@XZ 000000018000f740 f i CmEventProfiler.obj
 0001:0000e750       ?GetsyncBodiesAfterSolver@Sim@ProfileEventId@Cm@physx@@SAAEBUPxProfileEventId@4@XZ 000000018000f750 f i CmEventProfiler.obj
 0001:0000e760       ?GetsyncState@Sim@ProfileEventId@Cm@physx@@SAAEBUPxProfileEventId@4@XZ 000000018000f760 f i CmEventProfiler.obj
 0001:0000e770       ?GettaskFrameworkSetup@Sim@ProfileEventId@Cm@physx@@SAAEBUPxProfileEventId@4@XZ 000000018000f770 f i CmEventProfiler.obj
 0001:0000e780       ?GetupdateAggAABBs@BroadPhase@ProfileEventId@Cm@physx@@SAAEBUPxProfileEventId@4@XZ 000000018000f780 f i CmEventProfiler.obj
 0001:0000e790       ?GetupdateAggLocalSpaceBounds@BroadPhase@ProfileEventId@Cm@physx@@SAAEBUPxProfileEventId@4@XZ 000000018000f790 f i CmEventProfiler.obj
 0001:0000e7a0       ?GetupdateBroadphase@BroadPhase@ProfileEventId@Cm@physx@@SAAEBUPxProfileEventId@4@XZ 000000018000f7a0 f i CmEventProfiler.obj
 0001:0000e7b0       ?GetupdateCCDMultiPass@Sim@ProfileEventId@Cm@physx@@SAAEBUPxProfileEventId@4@XZ 000000018000f7b0 f i CmEventProfiler.obj
 0001:0000e7c0       ?GetupdateCCDSinglePass@Sim@ProfileEventId@Cm@physx@@SAAEBUPxProfileEventId@4@XZ 000000018000f7c0 f i CmEventProfiler.obj
 0001:0000e7d0       ?GetupdateCloths@PVD@ProfileEventId@Cm@physx@@SAAEBUPxProfileEventId@4@XZ 000000018000f7d0 f i CmEventProfiler.obj
 0001:0000e7e0       ?GetupdateCollision@ParticleSim@ProfileEventId@Cm@physx@@SAAEBUPxProfileEventId@4@XZ 000000018000f7e0 f i CmEventProfiler.obj
 0001:0000e7f0       ?GetupdateContacts@PVD@ProfileEventId@Cm@physx@@SAAEBUPxProfileEventId@4@XZ 000000018000f7f0 f i CmEventProfiler.obj
 0001:0000e800       ?GetupdateDirtyShaders@Sim@ProfileEventId@Cm@physx@@SAAEBUPxProfileEventId@4@XZ 000000018000f800 f i CmEventProfiler.obj
 0001:0000e810       ?GetupdateDynamicBodies@PVD@ProfileEventId@Cm@physx@@SAAEBUPxProfileEventId@4@XZ 000000018000f810 f i CmEventProfiler.obj
 0001:0000e820       ?GetupdateForces@Sim@ProfileEventId@Cm@physx@@SAAEBUPxProfileEventId@4@XZ 000000018000f820 f i CmEventProfiler.obj
 0001:0000e830       ?GetupdateIslands@Sim@ProfileEventId@Cm@physx@@SAAEBUPxProfileEventId@4@XZ 000000018000f830 f i CmEventProfiler.obj
 0001:0000e840       ?GetupdateIslandsSecondPass@Sim@ProfileEventId@Cm@physx@@SAAEBUPxProfileEventId@4@XZ 000000018000f840 f i CmEventProfiler.obj
 0001:0000e850       ?GetupdateJoints@PVD@ProfileEventId@Cm@physx@@SAAEBUPxProfileEventId@4@XZ 000000018000f850 f i CmEventProfiler.obj
 0001:0000e860       ?GetupdateKinematics@Dynamics@ProfileEventId@Cm@physx@@SAAEBUPxProfileEventId@4@XZ 000000018000f860 f i CmEventProfiler.obj
 0001:0000e870       ?GetupdateLazyAggShapeAABBs@BroadPhase@ProfileEventId@Cm@physx@@SAAEBUPxProfileEventId@4@XZ 000000018000f870 f i CmEventProfiler.obj
 0001:0000e880       ?GetupdatePVDProperties@PVD@ProfileEventId@Cm@physx@@SAAEBUPxProfileEventId@4@XZ 000000018000f880 f i CmEventProfiler.obj
 0001:0000e890       ?GetupdatePariclesAndFluids@PVD@ProfileEventId@Cm@physx@@SAAEBUPxProfileEventId@4@XZ 000000018000f890 f i CmEventProfiler.obj
 0001:0000e8a0       ?GetupdatePositions@Dynamics@ProfileEventId@Cm@physx@@SAAEBUPxProfileEventId@4@XZ 000000018000f8a0 f i CmEventProfiler.obj
 0001:0000e8b0       ?GetupdatePruningTrees@Sim@ProfileEventId@Cm@physx@@SAAEBUPxProfileEventId@4@XZ 000000018000f8b0 f i CmEventProfiler.obj
 0001:0000e8c0       ?GetupdateShapeAABBs@BroadPhase@ProfileEventId@Cm@physx@@SAAEBUPxProfileEventId@4@XZ 000000018000f8c0 f i CmEventProfiler.obj
 0001:0000e8d0       ?GetupdateSleeping@PVD@ProfileEventId@Cm@physx@@SAAEBUPxProfileEventId@4@XZ 000000018000f8d0 f i CmEventProfiler.obj
 0001:0000e8e0       ?GetupdateVelocities@Dynamics@ProfileEventId@Cm@physx@@SAAEBUPxProfileEventId@4@XZ 000000018000f8e0 f i CmEventProfiler.obj
 0001:0000e8f0       ?GetvisualizeEndStep@Sim@ProfileEventId@Cm@physx@@SAAEBUPxProfileEventId@4@XZ 000000018000f8f0 f i CmEventProfiler.obj
 0001:0000e900       ?GetvisualizeStartStep@Sim@ProfileEventId@Cm@physx@@SAAEBUPxProfileEventId@4@XZ 000000018000f900 f i CmEventProfiler.obj
 0001:0000e910       ?dumpFreeListAllocatorState@Cm@physx@@YAXAEAVFreeListAllocator@12@@Z 000000018000f910 f   CmFreeListAllocator.obj
 0001:0000ea50       ??0FreeListAllocator@Cm@physx@@QEAA@AEAVPxAllocatorCallback@2@@Z 000000018000fa50 f   CmFreeListAllocator.obj
 0001:0000eb30       ??1FreeListAllocator@Cm@physx@@UEAA@XZ 000000018000fb30 f   CmFreeListAllocator.obj
 0001:0000ebe0       ?getQWSize@FreeListAllocator@Cm@physx@@SAI_K@Z 000000018000fbe0 f   CmFreeListAllocator.obj
 0001:0000ec00       ?allocate@FreeListAllocator@Cm@physx@@UEAAPEAX_KPEBD1H@Z 000000018000fc00 f   CmFreeListAllocator.obj
 0001:0000ecc0       ?deallocate@FreeListAllocator@Cm@physx@@UEAAXPEAX@Z 000000018000fcc0 f   CmFreeListAllocator.obj
 0001:0000ed30       ?findBestFit@FreeListAllocator@Cm@physx@@AEAAPEAVChunk@23@IAEAI@Z 000000018000fd30 f   CmFreeListAllocator.obj
 0001:0000edb0       ?pushOnFreeList@FreeListAllocator@Cm@physx@@AEAAXPEAVChunk@23@I@Z 000000018000fdb0 f   CmFreeListAllocator.obj
 0001:0000ee20       ?popFromFreeList@FreeListAllocator@Cm@physx@@AEAAPEAVChunk@23@I@Z 000000018000fe20 f   CmFreeListAllocator.obj
 0001:0000eec0       ?unlinkFromFreeList@FreeListAllocator@Cm@physx@@AEAAXPEAVChunk@23@@Z 000000018000fec0 f   CmFreeListAllocator.obj
 0001:0000ef50       ?allocChunk@FreeListAllocator@Cm@physx@@AEAAPEAXI@Z 000000018000ff50 f   CmFreeListAllocator.obj
 0001:0000f0c0       ?freeChunk@FreeListAllocator@Cm@physx@@AEAAXPEAVChunk@23@@Z 00000001800100c0 f   CmFreeListAllocator.obj
 0001:0000f2b0       ?directAlloc@FreeListAllocator@Cm@physx@@AEAAPEAX_K@Z 00000001800102b0 f   CmFreeListAllocator.obj
 0001:0000f300       ?directFree@FreeListAllocator@Cm@physx@@AEAAXPEAX@Z 0000000180010300 f   CmFreeListAllocator.obj
 0001:0000f320       ?createFreeListAllocator@Cm@physx@@YAPEAVFreeListAllocator@12@AEAVPxAllocatorCallback@2@@Z 0000000180010320 f   CmFreeListAllocator.obj
 0001:0000f370       ?destroyFreeListAllocator@Cm@physx@@YAXAEAVFreeListAllocator@12@@Z 0000000180010370 f   CmFreeListAllocator.obj
 0001:0000f3a0       ??$addAddr@VBlock@Cm@physx@@@Cm@physx@@YAPEAVBlock@01@PEAV201@H@Z 00000001800103a0 f i CmFreeListAllocator.obj
 0001:0000f3b0       ??$addAddr@VChunk@Cm@physx@@@Cm@physx@@YAPEAVChunk@01@PEAV201@H@Z 00000001800103b0 f i CmFreeListAllocator.obj
 0001:0000f3c0       ??$addAddr@X@Cm@physx@@YAPEAXPEAXH@Z 00000001800103c0 f i CmFreeListAllocator.obj
 0001:0000f3d0       ??_EFreeListAllocator@Cm@physx@@UEAAPEAXI@Z 00000001800103d0 f i CmFreeListAllocator.obj
 0001:0000f3d0       ??_GFreeListAllocator@Cm@physx@@UEAAPEAXI@Z 00000001800103d0 f i CmFreeListAllocator.obj
 0001:0000f410       ?split@Chunk@Cm@physx@@QEAAPEAV123@I@Z 0000000180010410 f i CmFreeListAllocator.obj
 0001:0000f480       printf                     0000000180010480 f i CmFreeListAllocator.obj
 0001:0000f4e0       ?PxShortestRotation@physx@@YA?AVPxQuat@1@AEBVPxVec3@1@0@Z 00000001800104e0 f   CmMathUtils.obj
 0001:0000f690       ?PxTransformFromPlaneEquation@physx@@YA?AVPxTransform@1@AEBVPxPlane@1@@Z 0000000180010690 f   CmMathUtils.obj
 0001:0000f860       ?PxTransformFromSegment@physx@@YA?AVPxTransform@1@AEBVPxVec3@1@0PEAM@Z 0000000180010860 f   CmMathUtils.obj
 0001:0000f9d0       ?PxDiagonalize@physx@@YA?AVPxVec3@1@AEBVPxMat33@1@AEAVPxQuat@1@@Z 00000001800109d0 f   CmMathUtils.obj
 0001:00010240       ??0PtrTable@Cm@physx@@QEAA@XZ 0000000180011240 f   CmPtrTable.obj
 0001:00010260       ??1PtrTable@Cm@physx@@QEAA@XZ 0000000180011260 f   CmPtrTable.obj
 0001:00010270       ?add@PtrTable@Cm@physx@@QEAAXPEAXAEAVPtrTableStorageManager@23@@Z 0000000180011270 f   CmPtrTable.obj
 0001:00010350       ?replaceWithLast@PtrTable@Cm@physx@@QEAAXIAEAVPtrTableStorageManager@23@@Z 0000000180011350 f   CmPtrTable.obj
 0001:00010450       ?clear@PtrTable@Cm@physx@@QEAAXAEAVPtrTableStorageManager@23@@Z 0000000180011450 f   CmPtrTable.obj
 0001:000104d0       ?find@PtrTable@Cm@physx@@QEBAIPEBX@Z 00000001800114d0 f   CmPtrTable.obj
 0001:00010500       ?exportExtraData@PtrTable@Cm@physx@@QEAAXAEAVPxSerializationContext@3@@Z 0000000180011500 f   CmPtrTable.obj
 0001:00010550       ?importExtraData@PtrTable@Cm@physx@@QEAAXAEAVPxDeserializationContext@3@@Z 0000000180011550 f   CmPtrTable.obj
 0001:00010580       ?getBinaryMetaData@PtrTable@Cm@physx@@SAXAEAVPxOutputStream@3@@Z 0000000180011580 f   CmPtrTable.obj
 0001:00010740       ?realloc@PtrTable@Cm@physx@@AEAAXIIAEAVPtrTableStorageManager@23@@Z 0000000180011740 f   CmPtrTable.obj
 0001:000107d0       ??0PtrTable@Cm@physx@@QEAA@AEBW4PxEMPTY@2@@Z 00000001800117d0 f i CmPtrTable.obj
 0001:000107f0       ??4PtrTable@Cm@physx@@QEAAAEAU012@AEBU012@@Z 00000001800117f0 f i CmPtrTable.obj
 0001:00010800       ?getCount@PtrTable@Cm@physx@@QEBAIXZ 0000000180011800 f i CmPtrTable.obj
 0001:00010810       ?getPtrs@PtrTable@Cm@physx@@QEAAPEAPEAXXZ 0000000180011810 f i CmPtrTable.obj
 0001:00010820       ?getPtrs@PtrTable@Cm@physx@@QEBAPEBQEAXXZ 0000000180011820 f i CmPtrTable.obj
 0001:00010830       ??6RenderOutput@Cm@physx@@QEAAAEAV012@W4Primitive@012@@Z 0000000180011830 f   CmRenderOutput.obj
 0001:00010850       ??6RenderOutput@Cm@physx@@QEAAAEAV012@I@Z 0000000180011850 f   CmRenderOutput.obj
 0001:00010860       ??6RenderOutput@Cm@physx@@QEAAAEAV012@AEBVPxMat44@2@@Z 0000000180011860 f   CmRenderOutput.obj
 0001:000108d0       ??6RenderOutput@Cm@physx@@QEAAAEAV012@AEBVPxTransform@2@@Z 00000001800118d0 f   CmRenderOutput.obj
 0001:00010960       ??6RenderOutput@Cm@physx@@QEAAAEAV012@VPxVec3@2@@Z 0000000180011960 f   CmRenderOutput.obj
 0001:00010e20       ??6RenderOutput@Cm@physx@@QEAAAEAV012@AEBUDebugText@12@@Z 0000000180011e20 f   CmRenderOutput.obj
 0001:00010ff0       ?outputCapsule@RenderOutput@Cm@physx@@QEAAAEAV123@MMAEBVMatrix34@23@@Z 0000000180011ff0 f   CmRenderOutput.obj
 0001:00011bf0       ??0DebugText@Cm@physx@@QEAA@AEBVPxVec3@2@MPEBDZZ 0000000180012bf0 f   CmRenderOutput.obj
 0001:00011c80       ??6Cm@physx@@YAAEAVRenderOutput@01@AEAV201@AEBUDebugBox@01@@Z 0000000180012c80 f   CmRenderOutput.obj
 0001:00012180       ??6Cm@physx@@YAAEAVRenderOutput@01@AEAV201@AEBUDebugArrow@01@@Z 0000000180013180 f   CmRenderOutput.obj
 0001:00012570       ??6Cm@physx@@YAAEAVRenderOutput@01@AEAV201@AEBUDebugBasis@01@@Z 0000000180013570 f   CmRenderOutput.obj
 0001:00012670       ??6Cm@physx@@YAAEAVRenderOutput@01@AEAV201@AEBUDebugCircle@01@@Z 0000000180013670 f   CmRenderOutput.obj
 0001:00012760       ??6Cm@physx@@YAAEAVRenderOutput@01@AEAV201@AEBUDebugArc@01@@Z 0000000180013760 f   CmRenderOutput.obj
 0001:00012860       ??0DebugText@Cm@physx@@QEAA@$$QEAU012@@Z 0000000180013860 f i CmRenderOutput.obj
 0001:00012940       ??0DebugText@Cm@physx@@QEAA@AEBU012@@Z 0000000180013940 f i CmRenderOutput.obj
 0001:00012a20       ??0PxMat44@physx@@QEAA@AEBVPxTransform@1@@Z 0000000180013a20 f i CmRenderOutput.obj
 0001:00012bd0       ??0RenderOutput@Cm@physx@@QEAA@AEAVRenderBuffer@12@@Z 0000000180013bd0 f i CmRenderOutput.obj
 0001:00012c20       ??0RenderOutput@Cm@physx@@QEAA@AEBV012@@Z 0000000180013c20 f i CmRenderOutput.obj
 0001:00012cc0       ??4DebugText@Cm@physx@@QEAAAEAU012@$$QEAU012@@Z 0000000180013cc0 f i CmRenderOutput.obj
 0001:00012d30       ??4DebugText@Cm@physx@@QEAAAEAU012@AEBU012@@Z 0000000180013d30 f i CmRenderOutput.obj
 0001:00012da0       ?allocate@?$ReflectionAllocator@D@shdfnd@physx@@QEAAPEAX_KPEBDH@Z 0000000180013da0 f i CmRenderOutput.obj
 0001:00012e40       ?allocate@?$ReflectionAllocator@UPxDebugLine@physx@@@shdfnd@physx@@QEAAPEAX_KPEBDH@Z 0000000180013e40 f i CmRenderOutput.obj
 0001:00012ee0       ?allocate@?$ReflectionAllocator@UPxDebugPoint@physx@@@shdfnd@physx@@QEAAPEAX_KPEBDH@Z 0000000180013ee0 f i CmRenderOutput.obj
 0001:00012f80       ?allocate@?$ReflectionAllocator@UPxDebugText@physx@@@shdfnd@physx@@QEAAPEAX_KPEBDH@Z 0000000180013f80 f i CmRenderOutput.obj
 0001:00013020       ?allocate@?$ReflectionAllocator@UPxDebugTriangle@physx@@@shdfnd@physx@@QEAAPEAX_KPEBDH@Z 0000000180014020 f i CmRenderOutput.obj
 0001:000130c0       ?copy@?$Array@UPxDebugLine@physx@@V?$ReflectionAllocator@UPxDebugLine@physx@@@shdfnd@2@@shdfnd@physx@@KAXPEAUPxDebugLine@3@0PEBU43@@Z 00000001800140c0 f i CmRenderOutput.obj
 0001:00013260       ?copy@?$Array@UPxDebugPoint@physx@@V?$ReflectionAllocator@UPxDebugPoint@physx@@@shdfnd@2@@shdfnd@physx@@KAXPEAUPxDebugPoint@3@0PEBU43@@Z 0000000180014260 f i CmRenderOutput.obj
 0001:00013390       ?copy@?$Array@UPxDebugText@physx@@V?$ReflectionAllocator@UPxDebugText@physx@@@shdfnd@2@@shdfnd@physx@@KAXPEAUPxDebugText@3@0PEBU43@@Z 0000000180014390 f i CmRenderOutput.obj
 0001:00013500       ?copy@?$Array@UPxDebugTriangle@physx@@V?$ReflectionAllocator@UPxDebugTriangle@physx@@@shdfnd@2@@shdfnd@physx@@KAXPEAUPxDebugTriangle@3@0PEBU43@@Z 0000000180014500 f i CmRenderOutput.obj
 0001:00013750       ?growAndPushBack@?$Array@DV?$ReflectionAllocator@D@shdfnd@physx@@@shdfnd@physx@@IEAAAEADAEBD@Z 0000000180014750 f i CmRenderOutput.obj
 0001:00013820       ?growAndPushBack@?$Array@UPxDebugLine@physx@@V?$ReflectionAllocator@UPxDebugLine@physx@@@shdfnd@2@@shdfnd@physx@@IEAAAEAUPxDebugLine@3@AEBU43@@Z 0000000180014820 f i CmRenderOutput.obj
 0001:00013930       ?growAndPushBack@?$Array@UPxDebugPoint@physx@@V?$ReflectionAllocator@UPxDebugPoint@physx@@@shdfnd@2@@shdfnd@physx@@IEAAAEAUPxDebugPoint@3@AEBU43@@Z 0000000180014930 f i CmRenderOutput.obj
 0001:00013a20       ?growAndPushBack@?$Array@UPxDebugText@physx@@V?$ReflectionAllocator@UPxDebugText@physx@@@shdfnd@2@@shdfnd@physx@@IEAAAEAUPxDebugText@3@AEBU43@@Z 0000000180014a20 f i CmRenderOutput.obj
 0001:00013b20       ?growAndPushBack@?$Array@UPxDebugTriangle@physx@@V?$ReflectionAllocator@UPxDebugTriangle@physx@@@shdfnd@2@@shdfnd@physx@@IEAAAEAUPxDebugTriangle@3@AEBU43@@Z 0000000180014b20 f i CmRenderOutput.obj
 0001:00013c50       ?outputSegment@RenderOutput@Cm@physx@@QEAAXAEBVPxVec3@3@0@Z 0000000180014c50 f i CmRenderOutput.obj
 0001:00013d00       ?recreate@?$Array@DV?$ReflectionAllocator@D@shdfnd@physx@@@shdfnd@physx@@IEAAXI@Z 0000000180014d00 f i CmRenderOutput.obj
 0001:00013db0       ?recreate@?$Array@UPxDebugLine@physx@@V?$ReflectionAllocator@UPxDebugLine@physx@@@shdfnd@2@@shdfnd@physx@@IEAAXI@Z 0000000180014db0 f i CmRenderOutput.obj
 0001:00013e40       ?reserveSegments@RenderOutput@Cm@physx@@QEAAPEAUPxDebugLine@3@I@Z 0000000180014e40 f i CmRenderOutput.obj
 0001:00013e80       ?resizeUninitialized@?$Array@UPxDebugLine@physx@@V?$ReflectionAllocator@UPxDebugLine@physx@@@shdfnd@2@@shdfnd@physx@@QEAAXI@Z 0000000180014e80 f i CmRenderOutput.obj
 0001:00013ec0       ?transform@PxMat44@physx@@QEBA?AVPxVec4@2@AEBV32@@Z 0000000180014ec0 f i CmRenderOutput.obj
 0001:00014020       ?visualizeJointFrames@Cm@physx@@YAXAEAVRenderOutput@12@MAEBVPxTransform@2@1@Z 0000000180015020 f   CmVisualization.obj
 0001:000140e0       ?visualizeLinearLimit@Cm@physx@@YAXAEAVRenderOutput@12@MAEBVPxTransform@2@1M_N@Z 00000001800150e0 f   CmVisualization.obj
 0001:00014320       ?visualizeAngularLimit@Cm@physx@@YAXAEAVRenderOutput@12@MAEBVPxTransform@2@MM_N@Z 0000000180015320 f   CmVisualization.obj
 0001:000144f0       ?visualizeLimitCone@Cm@physx@@YAXAEAVRenderOutput@12@MAEBVPxTransform@2@MM_N@Z 00000001800154f0 f   CmVisualization.obj
 0001:000147e0       ?visualizeDoubleCone@Cm@physx@@YAXAEAVRenderOutput@12@MAEBVPxTransform@2@M_N@Z 00000001800157e0 f   CmVisualization.obj
 0001:00014a30       ?contactCapsuleMesh@Gu@physx@@YA_NAEBVGeometryUnion@12@0AEBVPxTransform@2@1AEBMAEAUCache@12@AEAVContactBuffer@12@@Z 0000000180015a30 f   GuContactCapsuleMesh.obj
 0001:00014c10       ?contactCapsuleHeightfield@Gu@physx@@YA_NAEBVGeometryUnion@12@0AEBVPxTransform@2@1AEBMAEAUCache@12@AEAVContactBuffer@12@@Z 0000000180015c10 f   GuContactCapsuleMesh.obj
 0001:00014f60       ??0Box@Gu@physx@@QEAA@AEBV012@@Z 0000000180015f60 f i GuContactCapsuleMesh.obj
 0001:00014fc0       ??0Box@Gu@physx@@QEAA@AEBVPxVec3@2@0AEBVPxMat33@2@@Z 0000000180015fc0 f i GuContactCapsuleMesh.obj
 0001:00015030       ??0Box@Gu@physx@@QEAA@XZ   0000000180016030 f i GuContactCapsuleMesh.obj
 0001:00015280       ??0GeometryUnion@Gu@physx@@QEAA@AEBW4PxEMPTY@2@@Z 0000000180016280 f i GuContactCapsuleMesh.obj
 0001:00015290       ??0GeometryUnion@Gu@physx@@QEAA@XZ 0000000180016290 f i GuContactCapsuleMesh.obj
 0001:000152a0       ??0HeightFieldData@Gu@physx@@QEAA@$$QEAU012@@Z 00000001800162a0 f i GuContactCapsuleMesh.obj
 0001:00015320       ??0HeightFieldData@Gu@physx@@QEAA@AEBU012@@Z 0000000180016320 f i GuContactCapsuleMesh.obj
 0001:000153a0       ??0HeightFieldData@Gu@physx@@QEAA@AEBW4PxEMPTY@2@@Z 00000001800163a0 f i GuContactCapsuleMesh.obj
 0001:000153b0       ??0HeightFieldData@Gu@physx@@QEAA@XZ 00000001800163b0 f i GuContactCapsuleMesh.obj
 0001:000153c0       ??0HeightFieldUtil@Gu@physx@@QEAA@AEBVPxHeightFieldGeometry@2@@Z 00000001800163c0 f i GuContactCapsuleMesh.obj
 0001:00015400       ??0HeightFieldUtil@Gu@physx@@QEAA@AEBVPxHeightFieldGeometry@2@AEBVHeightField@12@@Z 0000000180016400 f i GuContactCapsuleMesh.obj
 0001:00015440       ??0HeightFieldUtil@Gu@physx@@QEAA@XZ 0000000180016440 f i GuContactCapsuleMesh.obj
 0001:00015450       ??0MaterialIndicesStruct@physx@@QEAA@AEBW4PxEMPTY@1@@Z 0000000180016450 f i GuContactCapsuleMesh.obj
 0001:00015460       ??0MaterialIndicesStruct@physx@@QEAA@XZ 0000000180016460 f i GuContactCapsuleMesh.obj
 0001:00015470       ??0PxQuat@physx@@QEAA@AEBVPxMat33@1@@Z 0000000180016470 f i GuContactCapsuleMesh.obj
 0001:00015680       ??0PxVec3@physx@@QEAA@XZ   0000000180016680 f i GuContactCapsuleMesh.obj
 0001:00015690       ??0RTree@Gu@physx@@QEAA@AEBU012@@Z 0000000180016690 f i GuContactCapsuleMesh.obj
 0001:00015730       ??0RTreeMidphase@Gu@physx@@QEAA@AEBV012@@Z 0000000180016730 f i GuContactCapsuleMesh.obj
 0001:000157e0       ??0RTreeMidphase@Gu@physx@@QEAA@AEBW4PxEMPTY@2@@Z 00000001800167e0 f i GuContactCapsuleMesh.obj
 0001:00015810       ??1?$EntityReport@I@Gu@physx@@UEAA@XZ 0000000180016810 f i GuContactCapsuleMesh.obj
 0001:00015820       ??1?$MeshHitCallback@UPxRaycastHit@physx@@@Gu@physx@@UEAA@XZ 0000000180016820 f i GuContactCapsuleMesh.obj
 0001:00015830       ??1Box@Gu@physx@@QEAA@XZ   0000000180016830 f i GuContactCapsuleMesh.obj
 0001:00015840       ??1MaterialIndicesStruct@physx@@QEAA@XZ 0000000180016840 f i GuContactCapsuleMesh.obj
 0001:00015850       ??1PxBase@physx@@MEAA@XZ   0000000180016850 f i GuContactCapsuleMesh.obj
 0001:00015860       ??1PxHeightField@physx@@MEAA@XZ 0000000180016860 f i GuContactCapsuleMesh.obj
 0001:00015870       ??1PxTriangleMesh@physx@@MEAA@XZ 0000000180016870 f i GuContactCapsuleMesh.obj
 0001:00015880       ??1RTree@Gu@physx@@QEAA@XZ 0000000180016880 f i GuContactCapsuleMesh.obj
 0001:00015890       ??4Box@Gu@physx@@QEAAAEBV012@AEBV012@@Z 0000000180016890 f i GuContactCapsuleMesh.obj
 0001:000158f0       ??4GeometryUnion@Gu@physx@@QEAAAEAV012@$$QEAV012@@Z 00000001800168f0 f i GuContactCapsuleMesh.obj
 0001:00015920       ??4GeometryUnion@Gu@physx@@QEAAAEAV012@AEBV012@@Z 0000000180016920 f i GuContactCapsuleMesh.obj
 0001:00015950       ??4HeightFieldData@Gu@physx@@QEAAAEAU012@$$QEAU012@@Z 0000000180016950 f i GuContactCapsuleMesh.obj
 0001:000159d0       ??4HeightFieldData@Gu@physx@@QEAAAEAU012@AEBU012@@Z 00000001800169d0 f i GuContactCapsuleMesh.obj
 0001:00015a50       ??4HeightFieldUtil@Gu@physx@@QEAAAEAV012@$$QEAV012@@Z 0000000180016a50 f i GuContactCapsuleMesh.obj
 0001:00015a80       ??4HeightFieldUtil@Gu@physx@@QEAAAEAV012@AEBV012@@Z 0000000180016a80 f i GuContactCapsuleMesh.obj
 0001:00015aa0       ??4MaterialIndicesStruct@physx@@QEAAAEAU01@AEBU01@@Z 0000000180016aa0 f i GuContactCapsuleMesh.obj
 0001:00015ab0       ??4MeshInterface@Gu@physx@@QEAAAEAV012@AEBV012@@Z 0000000180016ab0 f i GuContactCapsuleMesh.obj
 0001:00015ad0       ??4RTree@Gu@physx@@QEAAAEAU012@AEBU012@@Z 0000000180016ad0 f i GuContactCapsuleMesh.obj
 0001:00015b70       ??4RTreeMidphase@Gu@physx@@QEAAAEAV012@AEBV012@@Z 0000000180016b70 f i GuContactCapsuleMesh.obj
 0001:00015c20       ??_G?$EntityReport@I@Gu@physx@@UEAAPEAXI@Z 0000000180016c20 f i GuContactCapsuleMesh.obj
 0001:00015c20       ??_E?$EntityReport@I@Gu@physx@@UEAAPEAXI@Z 0000000180016c20 f i GuContactCapsuleMesh.obj
 0001:00015c50       ??_G?$MeshHitCallback@UPxRaycastHit@physx@@@Gu@physx@@UEAAPEAXI@Z 0000000180016c50 f i GuContactCapsuleMesh.obj
 0001:00015c50       ??_E?$MeshHitCallback@UPxRaycastHit@physx@@@Gu@physx@@UEAAPEAXI@Z 0000000180016c50 f i GuContactCapsuleMesh.obj
 0001:00015c80       ??_GCapsuleHeightfieldContactGenerationCallback@?A0x8019ab57@@UEAAPEAXI@Z 0000000180016c80 f i GuContactCapsuleMesh.obj
 0001:00015c80       ??_ECapsuleHeightfieldContactGenerationCallback@?A0x8019ab57@@UEAAPEAXI@Z 0000000180016c80 f i GuContactCapsuleMesh.obj
 0001:00015cb0       ??_GCapsuleMeshContactGenerationCallback@?A0x8019ab57@@UEAAPEAXI@Z 0000000180016cb0 f i GuContactCapsuleMesh.obj
 0001:00015cb0       ??_ECapsuleMeshContactGenerationCallback@?A0x8019ab57@@UEAAPEAXI@Z 0000000180016cb0 f i GuContactCapsuleMesh.obj
 0001:00015ce0       ??_EPxBase@physx@@MEAAPEAXI@Z 0000000180016ce0 f i GuContactCapsuleMesh.obj
 0001:00015ce0       ??_GPxBase@physx@@MEAAPEAXI@Z 0000000180016ce0 f i GuContactCapsuleMesh.obj
 0001:00015d10       ??_H@YAXPEAX_K1P6APEAX0@Z@Z 0000000180016d10 f i GuContactCapsuleMesh.obj
 0001:00015d60       ?GetMeshInterface@RTreeMidphase@Gu@physx@@QEBAPEBVMeshInterface@23@XZ 0000000180016d60 f i GuContactCapsuleMesh.obj
 0001:00015d70       ?GetNbTriangles@MeshInterface@Gu@physx@@QEBAIXZ 0000000180016d70 f i GuContactCapsuleMesh.obj
 0001:00015d80       ?GetNbVertices@MeshInterface@Gu@physx@@QEBAIXZ 0000000180016d80 f i GuContactCapsuleMesh.obj
 0001:00015d90       ?GetTriangle@MeshInterface@Gu@physx@@QEBAXAEAUVertexPointers@23@I@Z 0000000180016d90 f i GuContactCapsuleMesh.obj
 0001:00015e30       ?GetTriangleVerts@MeshInterface@Gu@physx@@SAXI_K0IAEAVPxVec3@3@11@Z 0000000180016e30 f i GuContactCapsuleMesh.obj
 0001:00015ed0       ?GetTriangleVerts@MeshInterface@Gu@physx@@SAXI_K0IAEAVPxVec3@3@11AEAI22@Z 0000000180016ed0 f i GuContactCapsuleMesh.obj
 0001:00015f90       ?GetTris@MeshInterface@Gu@physx@@QEBAPEBXXZ 0000000180016f90 f i GuContactCapsuleMesh.obj
 0001:00015fa0       ?GetVerts@MeshInterface@Gu@physx@@QEBAPEBVPxVec3@3@XZ 0000000180016fa0 f i GuContactCapsuleMesh.obj
 0001:00017150       ?SetMeshInterface@RTreeMidphase@Gu@physx@@QEAAXPEBVMeshInterface@23@@Z 0000000180018150 f i GuContactCapsuleMesh.obj
 0001:00017160       ?SetNbTriangles@MeshInterface@Gu@physx@@QEAAXI@Z 0000000180018160 f i GuContactCapsuleMesh.obj
 0001:00017170       ?SetNbVertices@MeshInterface@Gu@physx@@QEAAXI@Z 0000000180018170 f i GuContactCapsuleMesh.obj
 0001:00017180       ?allocate@MaterialIndicesStruct@physx@@QEAAXG@Z 0000000180018180 f i GuContactCapsuleMesh.obj
 0001:000171c0       ?ceilUp@HeightFieldUtil@Gu@physx@@SAMM@Z 00000001800181c0 f i GuContactCapsuleMesh.obj
 0001:00017200       ?clipShapeNormalToVertexVoronoi@HeightFieldUtil@Gu@physx@@QEBA_NAEAVPxVec3@3@III@Z 0000000180018200 f i GuContactCapsuleMesh.obj
 0001:000175b0       ?computeAABBExtent@Box@Gu@physx@@QEBA?AVPxVec3@3@XZ 00000001800185b0 f i GuContactCapsuleMesh.obj
 0001:00017670       ?computeBounds@GeometryUnion@Gu@physx@@QEBA?AVPxBounds3@3@AEBVPxTransform@3@@Z 0000000180018670 f i GuContactCapsuleMesh.obj
 0001:000176a0       ?computeBoxPoints@Box@Gu@physx@@QEBAXPEIAVPxVec3@3@@Z 00000001800186a0 f i GuContactCapsuleMesh.obj
 0001:00017a20       ?computePointNormal@HeightFieldUtil@Gu@physx@@QEBA?AVPxVec3@3@IAEBV43@AEBVPxTransform@3@MMMMAEAM@Z 0000000180018a20 f i GuContactCapsuleMesh.obj
 0001:00017e90       ?deallocate@MaterialIndicesStruct@physx@@QEAAXXZ 0000000180018e90 f i GuContactCapsuleMesh.obj
 0001:00017ec0       ?floorDown@HeightFieldUtil@Gu@physx@@SAMM@Z 0000000180018ec0 f i GuContactCapsuleMesh.obj
 0001:00017f00       ?get64BitBasePage@RTree@Gu@physx@@IEBAPEAURTreePage@23@XZ 0000000180018f00 f i GuContactCapsuleMesh.obj
 0001:00017f20       ?getConcreteTypeName@PxBase@physx@@UEBAPEBDXZ 0000000180018f20 f i GuContactCapsuleMesh.obj
 0001:00017f30       ?getConcreteTypeName@PxHeightField@physx@@UEBAPEBDXZ 0000000180018f30 f i GuContactCapsuleMesh.obj
 0001:00017f40       ?getConcreteTypeName@PxTriangleMesh@physx@@UEBAPEBDXZ 0000000180018f40 f i GuContactCapsuleMesh.obj
 0001:00017f50       ?getConvexEdgeThreshold@HeightField@Gu@physx@@UEBAMXZ 0000000180018f50 f i GuContactCapsuleMesh.obj
 0001:00017f60       ?getEdgeDirection@HeightFieldUtil@Gu@physx@@QEBA?AVPxVec3@3@II@Z 0000000180018f60 f i GuContactCapsuleMesh.obj
 0001:000180d0       ?getFeatureIndex@HeightFieldUtil@Gu@physx@@SAII@Z 00000001800190d0 f i GuContactCapsuleMesh.obj
 0001:000180e0       ?getFeatureType@HeightFieldUtil@Gu@physx@@SA?AW4Feature@123@I@Z 00000001800190e0 f i GuContactCapsuleMesh.obj
 0001:000180f0       ?getFlags@HeightField@Gu@physx@@UEBA?AV?$PxFlags@W4Enum@PxHeightFieldFlag@physx@@G@3@XZ 00000001800190f0 f i GuContactCapsuleMesh.obj
 0001:00018100       ?getFormat@HeightField@Gu@physx@@UEBA?AW4Enum@PxHeightFieldFormat@3@XZ 0000000180019100 f i GuContactCapsuleMesh.obj
 0001:00018110       ?getGeometry@GeometryUnion@Gu@physx@@QEBAAEBVPxGeometry@3@XZ 0000000180019110 f i GuContactCapsuleMesh.obj
 0001:00018120       ?getHeight@HeightField@Gu@physx@@UEBAMMM@Z 0000000180019120 f i GuContactCapsuleMesh.obj
 0001:00018160       ?getHeightAtShapePoint2@HeightFieldUtil@Gu@physx@@QEBAMIMM@Z 0000000180019160 f i GuContactCapsuleMesh.obj
 0001:00018190       ?getHeightAtShapePoint@HeightFieldUtil@Gu@physx@@QEBAMMM@Z 0000000180019190 f i GuContactCapsuleMesh.obj
 0001:000181f0       ?getHeightField@HeightFieldUtil@Gu@physx@@QEBAAEBVHeightField@23@XZ 00000001800191f0 f i GuContactCapsuleMesh.obj
 0001:00018200       ?getHeightFieldGeometry@HeightFieldUtil@Gu@physx@@QEBAAEBVPxHeightFieldGeometry@3@XZ 0000000180019200 f i GuContactCapsuleMesh.obj
 0001:00018210       ?getHeightInternal2@HeightField@Gu@physx@@QEBAMIMM@Z 0000000180019210 f i GuContactCapsuleMesh.obj
 0001:00018380       ?getInverse@PxMat33@physx@@QEBA?AV12@XZ 0000000180019380 f i GuContactCapsuleMesh.obj
 0001:00018610       ?getNbColumns@HeightField@Gu@physx@@UEBAIXZ 0000000180019610 f i GuContactCapsuleMesh.obj
 0001:00018620       ?getNbRows@HeightField@Gu@physx@@UEBAIXZ 0000000180019620 f i GuContactCapsuleMesh.obj
 0001:00018630       ?getNodeIdxFromNodeHandle@RTree@Gu@physx@@IEBAII@Z 0000000180019630 f i GuContactCapsuleMesh.obj
 0001:00018640       ?getNormalAtShapePoint2@HeightFieldUtil@Gu@physx@@QEBA?AVPxVec3@3@IMM@Z 0000000180019640 f i GuContactCapsuleMesh.obj
 0001:00018690       ?getNormalAtShapePoint@HeightFieldUtil@Gu@physx@@QEBA?AVPxVec3@3@MM@Z 0000000180019690 f i GuContactCapsuleMesh.obj
 0001:00018750       ?getNormal_2@HeightField@Gu@physx@@QEBA?AVPxVec3@3@IMMMMM@Z 0000000180019750 f i GuContactCapsuleMesh.obj
 0001:00018880       ?getOneOverColumnScale@HeightFieldUtil@Gu@physx@@QEBAMXZ 0000000180019880 f i GuContactCapsuleMesh.obj
 0001:00018890       ?getOneOverHeightScale@HeightFieldUtil@Gu@physx@@QEBAMXZ 0000000180019890 f i GuContactCapsuleMesh.obj
 0001:000188a0       ?getOneOverRowScale@HeightFieldUtil@Gu@physx@@QEBAMXZ 00000001800198a0 f i GuContactCapsuleMesh.obj
 0001:000188b0       ?getPageFromNodeHandle@RTree@Gu@physx@@IEBAPEAURTreePage@23@I@Z 00000001800198b0 f i GuContactCapsuleMesh.obj
 0001:000188d0       ?getRTreeMidphaseData@RTreeMidphase@Gu@physx@@QEBAXAEAURTreeMidphaseData@23@@Z 00000001800198d0 f i GuContactCapsuleMesh.obj
 0001:000188f0       ?getSampleStride@HeightField@Gu@physx@@UEBAIXZ 00000001800198f0 f i GuContactCapsuleMesh.obj
 0001:00018900       ?getThickness@HeightField@Gu@physx@@UEBAMXZ 0000000180019900 f i GuContactCapsuleMesh.obj
 0001:00018910       ?getTransform@Box@Gu@physx@@QEBA?AVPxTransform@3@XZ 0000000180019910 f i GuContactCapsuleMesh.obj
 0001:00018970       ?getTriangleMaterialIndex@HeightField@Gu@physx@@UEBAGI@Z 0000000180019970 f i GuContactCapsuleMesh.obj
 0001:000189b0       ?getTriangleNormal@HeightField@Gu@physx@@UEBA?AVPxVec3@3@I@Z 00000001800199b0 f i GuContactCapsuleMesh.obj
 0001:000189d0       ?getTriangleNormalInternal@HeightField@Gu@physx@@QEBA?AVPxVec3@3@I@Z 00000001800199d0 f i GuContactCapsuleMesh.obj
 0001:00018b20       ?getType@GeometryUnion@Gu@physx@@QEBA?AW4Enum@PxGeometryType@3@XZ 0000000180019b20 f i GuContactCapsuleMesh.obj
 0001:00018b30       ?getVertexNormal@HeightFieldUtil@Gu@physx@@QEBA?AVPxVec3@3@I@Z 0000000180019b30 f i GuContactCapsuleMesh.obj
 0001:00018b70       ?has16BitIndices@MeshInterface@Gu@physx@@QEBAIXZ 0000000180019b70 f i GuContactCapsuleMesh.obj
 0001:00018b80       ?hf2shapen@HeightFieldUtil@Gu@physx@@QEBA?AVPxVec3@3@AEBV43@@Z 0000000180019b80 f i GuContactCapsuleMesh.obj
 0001:00018bc0       ?hf2shapep@HeightFieldUtil@Gu@physx@@QEBA?AVPxVec3@3@AEBV43@@Z 0000000180019bc0 f i GuContactCapsuleMesh.obj
 0001:00018c00       ?hf2worldn@HeightFieldUtil@Gu@physx@@QEBA?AVPxVec3@3@AEBVPxTransform@3@AEBV43@@Z 0000000180019c00 f i GuContactCapsuleMesh.obj
 0001:00018d70       ?hf2worldp@HeightFieldUtil@Gu@physx@@QEBA?AVPxVec3@3@AEBVPxTransform@3@AEBV43@@Z 0000000180019d70 f i GuContactCapsuleMesh.obj
 0001:00018f00       ?init@FastVertex2ShapeScaling@Cm@physx@@QEAAXAEBVPxVec3@3@AEBVPxQuat@3@@Z 0000000180019f00 f i GuContactCapsuleMesh.obj
 0001:00019480       ?initialize@HeightFieldUtil@Gu@physx@@AEAAXXZ 000000018001a480 f i GuContactCapsuleMesh.obj
 0001:000194b0       ?initialize@HeightFieldUtil@Gu@physx@@QEAAXAEBVPxHeightFieldGeometry@3@AEBVHeightField@23@@Z 000000018001a4b0 f i GuContactCapsuleMesh.obj
 0001:000194f0       ?isCollisionVertex@HeightFieldUtil@Gu@physx@@QEBA_NIII@Z 000000018001a4f0 f i GuContactCapsuleMesh.obj
 0001:00019510       ?isKindOf@PxBase@physx@@MEBA_NPEBD@Z 000000018001a510 f i GuContactCapsuleMesh.obj
 0001:00019540       ?isKindOf@PxHeightField@physx@@MEBA_NPEBD@Z 000000018001a540 f i GuContactCapsuleMesh.obj
 0001:00019590       ?isKindOf@PxTriangleMesh@physx@@MEBA_NPEBD@Z 000000018001a590 f i GuContactCapsuleMesh.obj
 0001:000195e0       ?isQueryVertex@HeightFieldUtil@Gu@physx@@QEBA_NIII@Z 000000018001a5e0 f i GuContactCapsuleMesh.obj
 0001:000196a0       ?isReleasable@PxBase@physx@@UEBA_NXZ 000000018001a6a0 f i GuContactCapsuleMesh.obj
 0001:000196b0       ?isShapePointOnHeightField@HeightFieldUtil@Gu@physx@@QEBA_NMM@Z 000000018001a6b0 f i GuContactCapsuleMesh.obj
 0001:00019700       ?isValid@Box@Gu@physx@@QEBA_NXZ 000000018001a700 f i GuContactCapsuleMesh.obj
 0001:00019720       ?makeFeatureCode@HeightFieldUtil@Gu@physx@@SAIIW4Feature@123@@Z 000000018001a720 f i GuContactCapsuleMesh.obj
 0001:00019b30       ?pagePtrFrom32Bits@RTree@Gu@physx@@KAPEAURTreePage@23@I@Z 000000018001ab30 f i GuContactCapsuleMesh.obj
 0001:00019b40       ?pagePtrTo32Bits@RTree@Gu@physx@@KAIPEBURTreePage@23@@Z 000000018001ab40 f i GuContactCapsuleMesh.obj
 0001:0001a2e0       ?rotate@Box@Gu@physx@@QEBA?AVPxVec3@3@AEBV43@@Z 000000018001b2e0 f i GuContactCapsuleMesh.obj
 0001:0001a390       ?rotateInv@Box@Gu@physx@@QEBA?AVPxVec3@3@AEBV43@@Z 000000018001b390 f i GuContactCapsuleMesh.obj
 0001:0001a420       ?setAxes@Box@Gu@physx@@QEAAXAEBVPxVec3@3@00@Z 000000018001b420 f i GuContactCapsuleMesh.obj
 0001:0001a460       ?setEmpty@Box@Gu@physx@@QEAAXXZ 000000018001b460 f i GuContactCapsuleMesh.obj
 0001:0001a4a0       ?shape2hfp@HeightFieldUtil@Gu@physx@@QEBA?AVPxVec3@3@AEBV43@@Z 000000018001b4a0 f i GuContactCapsuleMesh.obj
 0001:0001a4e0       ?transform@Box@Gu@physx@@QEBA?AVPxVec3@3@AEBV43@@Z 000000018001b4e0 f i GuContactCapsuleMesh.obj
 0001:0001a5a0       ?transformFast@PxBounds3@physx@@SA?AV12@AEBVPxTransform@2@AEBV12@@Z 000000018001b5a0 f i GuContactCapsuleMesh.obj
 0001:0001a9d0       ?transformQueryBounds@FastVertex2ShapeScaling@Cm@physx@@QEBAXAEAVPxVec3@3@0AEAVPxMat33@3@@Z 000000018001b9d0 f i GuContactCapsuleMesh.obj
 0001:0001ac40       ?contactConvexMesh@Gu@physx@@YA_NAEBVGeometryUnion@12@0AEBVPxTransform@2@1AEBMAEAUCache@12@AEAVContactBuffer@12@@Z 000000018001bc40 f   GuContactConvexMesh.obj
 0001:0001ade0       ?contactBoxMesh@Gu@physx@@YA_NAEBVGeometryUnion@12@0AEBVPxTransform@2@1AEBMAEAUCache@12@AEAVContactBuffer@12@@Z 000000018001bde0 f   GuContactConvexMesh.obj
 0001:0001afa0       ?contactConvexHeightfield@Gu@physx@@YA_NAEBVGeometryUnion@12@0AEBVPxTransform@2@1AEBMAEAUCache@12@AEAVContactBuffer@12@@Z 000000018001bfa0 f   GuContactConvexMesh.obj
 0001:0001b0e0       ?contactBoxHeightfield@Gu@physx@@YA_NAEBVGeometryUnion@12@0AEBVPxTransform@2@1AEBMAEAUCache@12@AEAVContactBuffer@12@@Z 000000018001c0e0 f   GuContactConvexMesh.obj
 0001:0001b250       ??0CachedEdge@Gu@physx@@QEAA@XZ 000000018001c250 f i GuContactConvexMesh.obj
 0001:0001b260       ??0CachedVertex@Gu@physx@@QEAA@XZ 000000018001c260 f i GuContactConvexMesh.obj
 0001:0001b7a0       ??0HullPolygonData@Gu@physx@@QEAA@AEBU012@@Z 000000018001c7a0 f i GuContactConvexMesh.obj
 0001:0001b7d0       ??0PolygonalBox@Gu@physx@@QEAA@AEBV012@@Z 000000018001c7d0 f i GuContactConvexMesh.obj
 0001:0001b8b0       ??0PxVec3@physx@@QEAA@AEBV01@@Z 000000018001c8b0 f i GuContactConvexMesh.obj
 0001:0001b8d0       ??0SeparatingAxes@Gu@physx@@QEAA@$$QEAV012@@Z 000000018001c8d0 f i GuContactConvexMesh.obj
 0001:0001b920       ??0SeparatingAxes@Gu@physx@@QEAA@AEBV012@@Z 000000018001c920 f i GuContactConvexMesh.obj
 0001:0001b970       ??0SeparatingAxes@Gu@physx@@QEAA@XZ 000000018001c970 f i GuContactConvexMesh.obj
 0001:0001b980       ??4SeparatingAxes@Gu@physx@@QEAAAEAV012@$$QEAV012@@Z 000000018001c980 f i GuContactConvexMesh.obj
 0001:0001ba80       ??4SeparatingAxes@Gu@physx@@QEAAAEAV012@AEBV012@@Z 000000018001ca80 f i GuContactConvexMesh.obj
 0001:0001bb80       ??AContainer@Gu@physx@@QEAAAEAII@Z 000000018001cb80 f i GuContactConvexMesh.obj
 0001:0001bb90       ??AContainer@Gu@physx@@QEBAII@Z 000000018001cb90 f i GuContactConvexMesh.obj
 0001:0001bba0       ??_GConvexMeshContactGenerationCallback@@UEAAPEAXI@Z 000000018001cba0 f i GuContactConvexMesh.obj
 0001:0001bba0       ??_EConvexMeshContactGenerationCallback@@UEAAPEAXI@Z 000000018001cba0 f i GuContactConvexMesh.obj
 0001:0001bbd0       ??_EConvexVsHeightfieldContactGenerationCallback@?A0x142c522b@@UEAAPEAXI@Z 000000018001cbd0 f i GuContactConvexMesh.obj
 0001:0001bbd0       ??_GConvexVsHeightfieldContactGenerationCallback@?A0x142c522b@@UEAAPEAXI@Z 000000018001cbd0 f i GuContactConvexMesh.obj
 0001:0001bc00       ??__G@YAXPEAX0_K1P6APEAX00@Z@Z 000000018001cc00 f i GuContactConvexMesh.obj
 0001:0001bc60       ?Add@Container@Gu@physx@@QEAAAEAV123@AEBV123@@Z 000000018001cc60 f i GuContactConvexMesh.obj
 0001:0001bcd0       ?Add@Container@Gu@physx@@QEAAAEAV123@I@Z 000000018001ccd0 f i GuContactConvexMesh.obj
 0001:0001bd10       ?Add@Container@Gu@physx@@QEAAAEAV123@M@Z 000000018001cd10 f i GuContactConvexMesh.obj
 0001:0001bd60       ?Add@Container@Gu@physx@@QEAAAEAV123@PEBII@Z 000000018001cd60 f i GuContactConvexMesh.obj
 0001:0001bdd0       ?Add@Container@Gu@physx@@QEAAAEAV123@PEBMI@Z 000000018001cdd0 f i GuContactConvexMesh.obj
 0001:0001be30       ?AddUnique@Container@Gu@physx@@QEAAAEAV123@I@Z 000000018001ce30 f i GuContactConvexMesh.obj
 0001:0001be80       ?DeleteIndex@Container@Gu@physx@@QEAAXI@Z 000000018001ce80 f i GuContactConvexMesh.obj
 0001:0001bea0       ?DeleteLastEntry@Container@Gu@physx@@QEAAXXZ 000000018001cea0 f i GuContactConvexMesh.obj
 0001:0001beb0       ?ForceSize@Container@Gu@physx@@QEAAXI@Z 000000018001ceb0 f i GuContactConvexMesh.obj
 0001:0001bec0       ?GetEntries@Container@Gu@physx@@QEBAPEAIXZ 000000018001cec0 f i GuContactConvexMesh.obj
 0001:0001bed0       ?GetEntry@Container@Gu@physx@@QEBAII@Z 000000018001ced0 f i GuContactConvexMesh.obj
 0001:0001bee0       ?GetFirst@Container@Gu@physx@@QEBAIXZ 000000018001cee0 f i GuContactConvexMesh.obj
 0001:0001bef0       ?GetGrowthFactor@Container@Gu@physx@@QEBAMXZ 000000018001cef0 f i GuContactConvexMesh.obj
 0001:0001bf00       ?GetLast@Container@Gu@physx@@QEBAIXZ 000000018001cf00 f i GuContactConvexMesh.obj
 0001:0001bf10       ?GetMaxNbEntries@Container@Gu@physx@@QEBAIXZ 000000018001cf10 f i GuContactConvexMesh.obj
 0001:0001bf20       ?GetNbEntries@Container@Gu@physx@@QEBAIXZ 000000018001cf20 f i GuContactConvexMesh.obj
 0001:0001bf30       ?IsFull@Container@Gu@physx@@QEBA_NXZ 000000018001cf30 f i GuContactConvexMesh.obj
 0001:0001bf40       ?IsNotEmpty@Container@Gu@physx@@QEBAHXZ 000000018001cf40 f i GuContactConvexMesh.obj
 0001:0001bf50       ?Reserve@Container@Gu@physx@@QEAAPEAII@Z 000000018001cf50 f i GuContactConvexMesh.obj
 0001:0001bf90       ?Reset@Container@Gu@physx@@QEAAXXZ 000000018001cf90 f i GuContactConvexMesh.obj
 0001:0001bfa0       ?SetGrowthFactor@Container@Gu@physx@@QEAAXM@Z 000000018001cfa0 f i GuContactConvexMesh.obj
 0001:0001bfc0       ?addData@?$CacheMap@UCachedEdge@Gu@physx@@$0IA@@Gu@physx@@QEAA_NAEBUCachedEdge@23@@Z 000000018001cfc0 f i GuContactConvexMesh.obj
 0001:0001c0b0       ?addData@?$CacheMap@UCachedVertex@Gu@physx@@$0IA@@Gu@physx@@QEAA_NAEBUCachedVertex@23@@Z 000000018001d0b0 f i GuContactConvexMesh.obj
 0001:0001e760       ?getAxes@SeparatingAxes@Gu@physx@@QEBAPEBVPxVec3@3@XZ 000000018001f760 f i GuContactConvexMesh.obj
 0001:0001e770       ?getNumAxes@SeparatingAxes@Gu@physx@@QEBAIXZ 000000018001f770 f i GuContactConvexMesh.obj
 0001:0001f950       ?processHit@ConvexMeshContactGenerationCallback@@UEAA_NAEBUPxRaycastHit@physx@@AEBVPxVec3@3@11AEAMPEBI@Z 0000000180020950 f i GuContactConvexMesh.obj
 0001:00020080       ?reset@SeparatingAxes@Gu@physx@@QEAAXXZ 0000000180021080 f i GuContactConvexMesh.obj
 0001:000210b0       ?findRotationMatrixFromZ@Gu@physx@@YA?AVPxMat33@2@AEBVPxVec3@2@@Z 00000001800220b0 f   GuContactPolygonPolygon.obj
 0001:00021390       ?contactPolygonPolygonExt@Gu@physx@@YA_NIPEBVPxVec3@2@PEBEAEBVMatrix34@Cm@2@AEBVPxPlane@2@AEBVPxMat33@2@I01234AEBV32@22IIAEAVContactBuffer@12@_N5M@Z 0000000180022390 f   GuContactPolygonPolygon.obj
 0001:00024470       ?contactSphereMesh@Gu@physx@@YA_NAEBVGeometryUnion@12@0AEBVPxTransform@2@1AEBMAEAUCache@12@AEAVContactBuffer@12@@Z 0000000180025470 f   GuContactSphereMesh.obj
 0001:00024890       ?contactSphereHeightField@Gu@physx@@YA_NAEBVGeometryUnion@12@0AEBVPxTransform@2@1AEBMAEAUCache@12@AEAVContactBuffer@12@@Z 0000000180025890 f   GuContactSphereMesh.obj
 0001:00024b40       ??$smallSort@USortKey@@$$CBU?$Less@USortKey@@@shdfnd@physx@@@internal@shdfnd@physx@@YAXPEAUSortKey@@HHAEBU?$Less@USortKey@@@12@@Z 0000000180025b40 f i GuContactSphereMesh.obj
 0001:00024d20       ??$sort@USortKey@@U?$Less@USortKey@@@shdfnd@physx@@VNullAllocator@?A0xee967e3f@@@shdfnd@physx@@YAXPEAUSortKey@@IAEBU?$Less@USortKey@@@01@AEBVNullAllocator@?A0xee967e3f@@I@Z 0000000180025d20 f i GuContactSphereMesh.obj
 0001:00024fd0       ??0TriangleData@@QEAA@XZ   0000000180025fd0 f i GuContactSphereMesh.obj
 0001:00025040       ??_ESphereHeightfieldContactGenerationCallback@?A0xee967e3f@@UEAAPEAXI@Z 0000000180026040 f i GuContactSphereMesh.obj
 0001:00025040       ??_GSphereHeightfieldContactGenerationCallback@?A0xee967e3f@@UEAAPEAXI@Z 0000000180026040 f i GuContactSphereMesh.obj
 0001:00025070       ??_ESphereMeshContactGenerationCallback_NoScale@?A0xee967e3f@@UEAAPEAXI@Z 0000000180026070 f i GuContactSphereMesh.obj
 0001:00025070       ??_GSphereMeshContactGenerationCallback_NoScale@?A0xee967e3f@@UEAAPEAXI@Z 0000000180026070 f i GuContactSphereMesh.obj
 0001:000250c0       ??_ESphereMeshContactGenerationCallback_Scale@?A0xee967e3f@@UEAAPEAXI@Z 00000001800260c0 f i GuContactSphereMesh.obj
 0001:000250c0       ??_GSphereMeshContactGenerationCallback_Scale@?A0xee967e3f@@UEAAPEAXI@Z 00000001800260c0 f i GuContactSphereMesh.obj
 0001:00026720       ?selectNormal@Gu@physx@@YA_NEMM@Z 0000000180027720 f   GuFeatureCode.obj
 0001:000267f0       ?barycentricCoordinates@Gu@physx@@YAXAEBT__m128@@00AEAT3@@Z 00000001800277f0 f   GuBarycentricCoordinates.obj
 0001:00026850       ?barycentricCoordinates@Gu@physx@@YAXAEBT__m128@@000AEAT3@1@Z 0000000180027850 f   GuBarycentricCoordinates.obj
 0001:000269e0       ?barycentricCoordinates@Gu@physx@@YAXAEBT__m128@@00AEAT3@1@Z 00000001800279e0 f   GuBarycentricCoordinates.obj
 0001:00026af0       ?addAxis@SeparatingAxes@Gu@physx@@QEAA_NAEBVPxVec3@3@@Z 0000000180027af0 f   GuSeparatingAxes.obj
 0001:00026bb0       ??0BigConvexData@physx@@QEAA@XZ 0000000180027bb0 f   GuBigConvexData.obj
 0001:00026be0       ??1BigConvexData@physx@@QEAA@XZ 0000000180027be0 f   GuBigConvexData.obj
 0001:00026c30       ?Load@BigConvexData@physx@@QEAA_NAEAVPxInputStream@2@@Z 0000000180027c30 f   GuBigConvexData.obj
 0001:00026d20       ?ComputeOffset@BigConvexData@physx@@QEBAIAEBVPxVec3@2@@Z 0000000180027d20 f   GuBigConvexData.obj
 0001:00026d40       ?ComputeNearestOffset@BigConvexData@physx@@QEBAIAEBVPxVec3@2@@Z 0000000180027d40 f   GuBigConvexData.obj
 0001:00026d60       ?exportExtraData@BigConvexData@physx@@QEAAXAEAVPxSerializationContext@2@@Z 0000000180027d60 f   GuBigConvexData.obj
 0001:00026de0       ?importExtraData@BigConvexData@physx@@QEAAXAEAVPxDeserializationContext@2@@Z 0000000180027de0 f   GuBigConvexData.obj
 0001:00026e60       ?CreateOffsets@BigConvexData@physx@@IEAAXXZ 0000000180027e60 f   GuBigConvexData.obj
 0001:00026eb0       ?VLoad@BigConvexData@physx@@IEAA_NAEAVPxInputStream@2@@Z 0000000180027eb0 f   GuBigConvexData.obj
 0001:00027030       ??0BigConvexData@physx@@QEAA@AEBW4PxEMPTY@1@@Z 0000000180028030 f i GuBigConvexData.obj
 0001:00027040       ??4BigConvexData@physx@@QEAAAEAV01@AEBV01@@Z 0000000180028040 f i GuBigConvexData.obj
 0001:00027060       ?ComputeCubemapNearestOffset@physx@@YAIAEBVPxVec3@1@I@Z 0000000180028060 f i GuBigConvexData.obj
 0001:000270e0       ?ComputeCubemapOffset@physx@@YAIAEBVPxVec3@1@I@Z 00000001800280e0 f i GuBigConvexData.obj
 0001:00027150       ?GetAdjacentVerts@BigConvexData@physx@@QEBAPEBEXZ 0000000180028150 f i GuBigConvexData.obj
 0001:00027160       ?GetNbNeighbors@BigConvexData@physx@@QEBAGI@Z 0000000180028160 f i GuBigConvexData.obj
 0001:00027170       ?GetNbSamples@BigConvexData@physx@@QEBAIXZ 0000000180028170 f i GuBigConvexData.obj
 0001:00027180       ?GetNbVerts@BigConvexData@physx@@QEBAIXZ 0000000180028180 f i GuBigConvexData.obj
 0001:00027190       ?GetNeighbors@BigConvexData@physx@@QEBAPEBEI@Z 0000000180028190 f i GuBigConvexData.obj
 0001:000271a0       ?GetOffset@BigConvexData@physx@@QEBAGI@Z 00000001800281a0 f i GuBigConvexData.obj
 0001:000271b0       ?GetSubdiv@BigConvexData@physx@@QEBAIXZ 00000001800281b0 f i GuBigConvexData.obj
 0001:000271c0       ?GetValencies@BigConvexData@physx@@QEBAPEBUValency@Gu@2@XZ 00000001800281c0 f i GuBigConvexData.obj
 0001:000271d0       ?GetValency@BigConvexData@physx@@QEBAGI@Z 00000001800281d0 f i GuBigConvexData.obj
 0001:000271e0       ?getScaledConvex@Gu@physx@@YAXAEAPEAVPxVec3@2@AEAPEAEPEAV32@PEAE_NPEBV32@PEBEIAEBVFastVertex2ShapeScaling@Cm@2@@Z 00000001800281e0 f   GuConvexHelper.obj
 0001:00027340       ?getConvexData@Gu@physx@@YA_NAEBVGeometryUnion@12@AEAVFastVertex2ShapeScaling@Cm@2@AEAVPxBounds3@2@AEAUPolygonalData@12@@Z 0000000180028340 f   GuConvexHelper.obj
 0001:00027420       ?findUniqueConvexEdges@Gu@physx@@YAIIPEIAUConvexEdge@12@IPEIBUHullPolygonData@12@PEIBE@Z 0000000180028420 f   GuConvexHelper.obj
 0001:00027560       ?transformFast@PxBounds3@physx@@SA?AV12@AEBVPxMat33@2@AEBV12@@Z 0000000180028560 f i GuConvexHelper.obj
 0001:00027780       ?exportExtraData@ConvexMesh@Gu@physx@@UEAAXAEAVPxSerializationContext@3@@Z 0000000180028780 f   GuConvexMesh.obj
 0001:00027830       ?importExtraData@ConvexMesh@Gu@physx@@QEAAXAEAVPxDeserializationContext@3@@Z 0000000180028830 f   GuConvexMesh.obj
 0001:000278d0       ?onRefCountZero@ConvexMesh@Gu@physx@@UEAAXXZ 00000001800288d0 f   GuConvexMesh.obj
 0001:000279b0       ?createObject@ConvexMesh@Gu@physx@@SAPEAV123@AEAPEAEAEAVPxDeserializationContext@3@@Z 00000001800289b0 f   GuConvexMesh.obj
 0001:00027a30       ??0ConvexMesh@Gu@physx@@QEAA@XZ 0000000180028a30 f   GuConvexMesh.obj
 0001:00027b00       ?load@ConvexMesh@Gu@physx@@QEAA_NAEAVPxInputStream@3@@Z 0000000180028b00 f   GuConvexMesh.obj
 0001:00027d70       ?release@ConvexMesh@Gu@physx@@UEAAXXZ 0000000180028d70 f   GuConvexMesh.obj
 0001:00027dd0       ?getPolygonData@ConvexMesh@Gu@physx@@UEBA_NIAEAUPxHullPolygon@3@@Z 0000000180028dd0 f   GuConvexMesh.obj
 0001:00027e20       ?getReferenceCount@ConvexMesh@Gu@physx@@UEBAIXZ 0000000180028e20 f   GuConvexMesh.obj
 0001:00027e30       ?getMassInformation@ConvexMesh@Gu@physx@@UEBAXAEAMAEAVPxMat33@3@AEAVPxVec3@3@@Z 0000000180028e30 f   GuConvexMesh.obj
 0001:00027eb0       ??1ConvexMesh@Gu@physx@@UEAA@XZ 0000000180028eb0 f   GuConvexMesh.obj
 0001:00027f40       ?debugVisualize@ConvexMesh@Gu@physx@@QEBAXAEAVRenderOutput@Cm@3@AEBVMatrix34@53@AEBVPxBounds3@3@_KMI@Z 0000000180028f40 f   GuConvexMesh.obj
 0001:00028570       ??0ConvexMesh@Gu@physx@@QEAA@V?$PxFlags@W4Enum@PxBaseFlag@physx@@G@2@@Z 0000000180029570 f i GuConvexMesh.obj
 0001:000285c0       ??0GuMeshFactory@physx@@QEAA@XZ 00000001800295c0 f i GuConvexMesh.obj
 0001:00028720       ??1PxConvexMesh@physx@@MEAA@XZ 0000000180029720 f i GuConvexMesh.obj
 0001:00028730       ??1RefCountable@Cm@physx@@UEAA@XZ 0000000180029730 f i GuConvexMesh.obj
 0001:00028740       ??_EConvexMesh@Gu@physx@@UEAAPEAXI@Z 0000000180029740 f i GuConvexMesh.obj
 0001:000288b8       ??_EConvexMesh@Gu@physx@@WBA@EAAPEAXI@Z 00000001800298b8 f i GuConvexMesh.obj
 0001:000288d0       ??_EGuMeshFactory@physx@@MEAAPEAXI@Z 00000001800298d0 f i GuConvexMesh.obj
 0001:000289c0       ??_EPxConvexMesh@physx@@MEAAPEAXI@Z 00000001800299c0 f i GuConvexMesh.obj
 0001:00028a50       ??_GGuMeshFactory@physx@@MEAAPEAXI@Z 0000000180029a50 f i GuConvexMesh.obj
 0001:00028ab0       ??_GRefCountable@Cm@physx@@UEAAPEAXI@Z 0000000180029ab0 f i GuConvexMesh.obj
 0001:00028ab0       ??_ERefCountable@Cm@physx@@UEAAPEAXI@Z 0000000180029ab0 f i GuConvexMesh.obj
 0001:00028de0       ?getConcreteTypeName@PxConvexMesh@physx@@UEBAPEBDXZ 0000000180029de0 f i GuConvexMesh.obj
 0001:00028df0       ?getIndexBuffer@ConvexMesh@Gu@physx@@UEBAPEBEXZ 0000000180029df0 f i GuConvexMesh.obj
 0001:00028e20       ?getLocalBounds@ConvexMesh@Gu@physx@@UEBA?AVPxBounds3@3@XZ 0000000180029e20 f i GuConvexMesh.obj
 0001:00028e50       ?getNbPolygons@ConvexMesh@Gu@physx@@UEBAIXZ 0000000180029e50 f i GuConvexMesh.obj
 0001:00028e60       ?getNbVertices@ConvexMesh@Gu@physx@@UEBAIXZ 0000000180029e60 f i GuConvexMesh.obj
 0001:00028e70       ?getVertices@ConvexMesh@Gu@physx@@UEBAPEBVPxVec3@3@XZ 0000000180029e70 f i GuConvexMesh.obj
 0001:00028e90       ?isKindOf@PxConvexMesh@physx@@MEBA_NPEBD@Z 0000000180029e90 f i GuConvexMesh.obj
 0001:00028ee0       ?onRefCountZero@RefCountable@Cm@physx@@UEAAXXZ 0000000180029ee0 f i GuConvexMesh.obj
 0001:00028f00       ?requires@ConvexMesh@Gu@physx@@UEAAXAEAVPxProcessPxBaseCallback@3@@Z 0000000180029f00 f i GuConvexMesh.obj
 0001:00028f10       ?reserveInternal@?$HashBase@PEAVConvexMesh@Gu@physx@@PEAV123@U?$Hash@PEAVConvexMesh@Gu@physx@@@shdfnd@3@UGetKey@?$HashSetBase@PEAVConvexMesh@Gu@physx@@U?$Hash@PEAVConvexMesh@Gu@physx@@@shdfnd@3@VAllocator@53@$00@internal@53@VAllocator@53@$00@internal@shdfnd@physx@@AEAAXI@Z 0000000180029f10 f i GuConvexMesh.obj
 0001:000290c0       ?reserveInternal@?$HashBase@PEAVHeightField@Gu@physx@@PEAV123@U?$Hash@PEAVHeightField@Gu@physx@@@shdfnd@3@UGetKey@?$HashSetBase@PEAVHeightField@Gu@physx@@U?$Hash@PEAVHeightField@Gu@physx@@@shdfnd@3@VAllocator@53@$00@internal@53@VAllocator@53@$00@internal@shdfnd@physx@@AEAAXI@Z 000000018002a0c0 f i GuConvexMesh.obj
 0001:00029270       ?reserveInternal@?$HashBase@PEAVTriangleMesh@Gu@physx@@PEAV123@U?$Hash@PEAVTriangleMesh@Gu@physx@@@shdfnd@3@UGetKey@?$HashSetBase@PEAVTriangleMesh@Gu@physx@@U?$Hash@PEAVTriangleMesh@Gu@physx@@@shdfnd@3@VAllocator@53@$00@internal@53@VAllocator@53@$00@internal@shdfnd@physx@@AEAAXI@Z 000000018002a270 f i GuConvexMesh.obj
 0001:00029420       ?computeHullOBB@Gu@physx@@YAXAEAVBox@12@AEBVPxBounds3@2@MAEBVPxTransform@2@AEBVMatrix34@Cm@2@3AEBVFastVertex2ShapeScaling@72@_N@Z 000000018002a420 f   GuConvexUtilsInternal.obj
 0001:00029a50       ?computeVertexSpaceOBB@Gu@physx@@YAXAEAVBox@12@AEBV312@AEBVPxTransform@2@AEBVPxMeshScale@2@@Z 000000018002aa50 f   GuConvexUtilsInternal.obj
 0001:0002a230       ?computeOBBAroundConvex@Gu@physx@@YAXAEAVBox@12@AEBVPxConvexMeshGeometry@2@PEBVPxConvexMesh@2@AEBVPxTransform@2@@Z 000000018002b230 f   GuConvexUtilsInternal.obj
 0001:0002ab40       ?rotate@physx@@YAXAEBVBox@Gu@1@AEBVMatrix34@Cm@1@AEAV231@@Z 000000018002bb40 f i GuConvexUtilsInternal.obj
 0001:0002ae60       ?transform@physx@@YA?AVBox@Gu@1@AEBVMatrix34@Cm@1@AEBV231@@Z 000000018002be60 f i GuConvexUtilsInternal.obj
 0001:0002b0e0       ?CubemapLookup@physx@@YA?AW4CubeIndex@1@AEBVPxVec3@1@AEAM1@Z 000000018002c0e0 f   GuCubeIndex.obj
 0001:0002b1a0       ?localSearch@physx@@YAXAEAIAEBVPxVec3@1@PEBV21@PEBUBigConvexRawData@Gu@1@@Z 000000018002c1a0 f   GuHillClimbing.obj
 0001:0002b2d0       ??0PolygonalBox@Gu@physx@@QEAA@AEBVPxVec3@2@@Z 000000018002c2d0 f   GuShapeConvex.obj
 0001:0002b4d0       ?getPolygonalData@PolygonalBox@Gu@physx@@QEBAXPEIAUPolygonalData@23@@Z 000000018002c4d0 f   GuShapeConvex.obj
 0001:0002b540       ?getPolygonalData_Convex@Gu@physx@@YAXPEIAUPolygonalData@12@PEIBUConvexHullData@12@AEBVFastVertex2ShapeScaling@Cm@2@@Z 000000018002c540 f   GuShapeConvex.obj
 0001:0002c540       ??0HullPolygonData@Gu@physx@@QEAA@XZ 000000018002d540 f i GuShapeConvex.obj
 0001:0002c670       ?distancePointBoxSquared@Gu@physx@@YAMAEBVPxVec3@2@00AEBVPxMat33@2@PEAV32@@Z 000000018002d670 f   GuDistancePointBox.obj
 0001:0002c7c0       ?distancePointSegmentSquared@Gu@physx@@YAMAEBVPxVec3@2@00PEAM@Z 000000018002d7c0 f   GuDistancePointSegment.obj
 0001:0002c8d0       ?closestPtPointTriangle@Gu@physx@@YA?AVPxVec3@2@AEBV32@000AEAM1@Z 000000018002d8d0 f   GuDistancePointTriangle.obj
 0001:0002cde0       ?distancePointTriangleSquared@Gu@physx@@YA?AT__m128@@AEBT3@000AEAT3@11@Z 000000018002dde0 f   GuDistancePointTriangle.obj
 0001:0002d260       ?distanceSegmentBoxSquared@Gu@physx@@YAMAEBVPxVec3@2@000AEBVPxMat33@2@PEAMPEAV32@@Z 000000018002e260 f   GuDistanceSegmentBox.obj
 0001:0002e4f0       ?distanceSegmentSegmentSquaredOLD@Gu@physx@@YAMAEBVPxVec3@2@000PEAM1@Z 000000018002f4f0 f   GuDistanceSegmentSegment.obj
 0001:0002e5b0       ?distanceSegmentSegmentSquared2@Gu@physx@@YAMAEBVSegment@12@0PEAM1@Z 000000018002f5b0 f   GuDistanceSegmentSegment.obj
 0001:0002e8b0       ?distanceSegmentSegmentSquared@Gu@physx@@YA?AT__m128@@AEBT3@000AEAT3@1@Z 000000018002f8b0 f   GuDistanceSegmentSegment.obj
 0001:0002ead0       ?distanceSegmentSegmentSquared4@Gu@physx@@YA?AT__m128@@AEBT3@000000000AEAT3@1@Z 000000018002fad0 f   GuDistanceSegmentSegment.obj
 0001:0002ee70       ?distanceSegmentSegmentSquared4@Gu@physx@@YA?AT__m128@@AEBT3@000000AEAT3@1PEAT3@@Z 000000018002fe70 f   GuDistanceSegmentSegment.obj
 0001:0002faa0       ?distanceSegmentTriangleSquared@Gu@physx@@YAMAEBVPxVec3@2@0000PEAM11@Z 0000000180030aa0 f   GuDistanceSegmentTriangle.obj
 0001:000314b0       ?distanceSegmentTriangleSquared@Gu@physx@@YA?AT__m128@@AEBT3@0000AEAT3@1@Z 00000001800324b0 f   GuDistanceSegmentTriangle.obj
 0001:00031c40       ?sweepBoxBox@Gu@physx@@YA_NAEBVBox@12@0AEBVPxVec3@2@MAEAV42@2AEAMV?$PxFlags@W4Enum@PxHitFlag@physx@@G@2@@Z 0000000180032c40 f   GuSweepBoxBox.obj
 0001:00033350       ??0InternalTriangleMesh@physx@@QEAA@AEBV01@@Z 0000000180034350 f i GuSweepBoxBox.obj
 0001:000333e0       ??0InternalTriangleMesh@physx@@QEAA@AEBW4PxEMPTY@1@@Z 00000001800343e0 f i GuSweepBoxBox.obj
 0001:00033420       ??0InternalTriangleMeshData@Gu@physx@@QEAA@AEBU012@@Z 0000000180034420 f i GuSweepBoxBox.obj
 0001:00033560       ??0TriangleMesh@Gu@physx@@QEAA@V?$PxFlags@W4Enum@PxBaseFlag@physx@@G@2@@Z 0000000180034560 f i GuSweepBoxBox.obj
 0001:000335e0       ??4InternalTriangleMesh@physx@@QEAAAEAV01@AEBV01@@Z 00000001800345e0 f i GuSweepBoxBox.obj
 0001:00033670       ??4InternalTriangleMeshData@Gu@physx@@QEAAAEAU012@AEBU012@@Z 0000000180034670 f i GuSweepBoxBox.obj
 0001:000337b0       ??_EPxTriangleMesh@physx@@MEAAPEAXI@Z 00000001800347b0 f i GuSweepBoxBox.obj
 0001:00033840       ??_ETriangleMesh@Gu@physx@@UEAAPEAXI@Z 0000000180034840 f i GuSweepBoxBox.obj
 0001:00033930       ??_ETriangleMesh@Gu@physx@@WBA@EAAPEAXI@Z 0000000180034930 f i GuSweepBoxBox.obj
 0001:00033940       ?getAdjacencies@InternalTriangleMesh@physx@@QEBAPEBIXZ 0000000180034940 f i GuSweepBoxBox.obj
 0001:00033950       ?getCollisionModel@InternalTriangleMesh@physx@@QEBAAEBVRTreeMidphase@Gu@2@XZ 0000000180034950 f i GuSweepBoxBox.obj
 0001:00033960       ?getConvexEdgeThreshold@InternalTriangleMesh@physx@@QEBAMXZ 0000000180034960 f i GuSweepBoxBox.obj
 0001:00033970       ?getFaceRemap@InternalTriangleMesh@physx@@QEBAPEBIXZ 0000000180034970 f i GuSweepBoxBox.obj
 0001:00033980       ?getLocalBounds@TriangleMesh@Gu@physx@@UEBA?AVPxBounds3@3@XZ 0000000180034980 f i GuSweepBoxBox.obj
 0001:000339c0       ?getMaterials@InternalTriangleMesh@physx@@QEBAPEBGXZ 00000001800349c0 f i GuSweepBoxBox.obj
 0001:000339d0       ?getMeshInterface@InternalTriangleMesh@physx@@QEBAAEBVMeshInterface@Gu@2@XZ 00000001800349d0 f i GuSweepBoxBox.obj
 0001:000339e0       ?getNbTriangles@TriangleMesh@Gu@physx@@UEBAIXZ 00000001800349e0 f i GuSweepBoxBox.obj
 0001:000339f0       ?getNbVertices@TriangleMesh@Gu@physx@@UEBAIXZ 00000001800349f0 f i GuSweepBoxBox.obj
 0001:00033a00       ?getNumTriangles@InternalTriangleMesh@physx@@QEBAIXZ 0000000180034a00 f i GuSweepBoxBox.obj
 0001:00033a10       ?getNumVertices@InternalTriangleMesh@physx@@QEBAIXZ 0000000180034a10 f i GuSweepBoxBox.obj
 0001:00033a20       ?getTriangleMaterialIndex@TriangleMesh@Gu@physx@@UEBAGI@Z 0000000180034a20 f i GuSweepBoxBox.obj
 0001:00033a40       ?getTriangleMeshFlags@InternalTriangleMesh@physx@@QEBA?AV?$PxFlags@W4Enum@PxTriangleMeshFlag@physx@@E@2@XZ 0000000180034a40 f i GuSweepBoxBox.obj
 0001:00033a50       ?getTriangleMeshFlags@TriangleMesh@Gu@physx@@UEBA?AV?$PxFlags@W4Enum@PxTriangleMeshFlag@physx@@E@3@XZ 0000000180034a50 f i GuSweepBoxBox.obj
 0001:00033a60       ?getTriangles@InternalTriangleMesh@physx@@QEBAPEBXXZ 0000000180034a60 f i GuSweepBoxBox.obj
 0001:00033a70       ?getTriangles@TriangleMesh@Gu@physx@@UEBAPEBXXZ 0000000180034a70 f i GuSweepBoxBox.obj
 0001:00033a80       ?getTrianglesRemap@TriangleMesh@Gu@physx@@UEBAPEBIXZ 0000000180034a80 f i GuSweepBoxBox.obj
 0001:00033a90       ?getTrigSharedEdgeFlagsFromData@InternalTriangleMesh@physx@@QEBAII@Z 0000000180034a90 f i GuSweepBoxBox.obj
 0001:00033aa0       ?getVertices@InternalTriangleMesh@physx@@QEBAPEBVPxVec3@2@XZ 0000000180034aa0 f i GuSweepBoxBox.obj
 0001:00033ab0       ?getVertices@TriangleMesh@Gu@physx@@UEBAPEBVPxVec3@3@XZ 0000000180034ab0 f i GuSweepBoxBox.obj
 0001:00033ac0       ?has16BitIndices@InternalTriangleMesh@physx@@QEBA_NXZ 0000000180034ac0 f i GuSweepBoxBox.obj
 0001:00033ad0       ?requires@TriangleMesh@Gu@physx@@UEAAXAEAVPxProcessPxBaseCallback@3@@Z 0000000180034ad0 f i GuSweepBoxBox.obj
 0001:00033ae0       ?setTriangleAdjacency@InternalTriangleMesh@physx@@QEAAXIII@Z 0000000180034ae0 f i GuSweepBoxBox.obj
 0001:00033b00       ?setTrigSharedEdgeFlag@InternalTriangleMesh@physx@@QEAAXII@Z 0000000180034b00 f i GuSweepBoxBox.obj
 0001:00033b20       ?sweepBoxSphere@Gu@physx@@YA_NAEBVBox@12@MAEBVPxVec3@2@1MAEAMAEAV42@V?$PxFlags@W4Enum@PxHitFlag@physx@@G@2@@Z 0000000180034b20 f   GuSweepBoxSphere.obj
 0001:00034410       ?sweepBoxTriangle@Gu@physx@@YA_NAEBVPxTriangle@2@AEBVPxBounds3@2@AEBVPxVec3@2@2AEAV52@3AEAM@Z 0000000180035410 f   GuSweepBoxTriangle_FeatureBased.obj
 0001:000355f0       ?triBoxSweepTestBoxSpace@Gu@physx@@YAHAEBVPxTriangle@2@AEBVPxVec3@2@11MAEAM_N@Z 00000001800365f0 f   GuSweepBoxTriangle_SAT.obj
 0001:000360f0       ?sweepCapsuleBox@Gu@physx@@YA_NAEBVCapsule@12@AEBVPxTransform@2@AEBVPxVec3@2@2MAEAV52@AEAM3V?$PxFlags@W4Enum@PxHitFlag@physx@@G@2@@Z 00000001800370f0 f   GuSweepCapsuleBox.obj
 0001:00036500       ??0PxTriangle@physx@@QEAA@XZ 0000000180037500 f i GuSweepCapsuleBox.obj
 0001:00036510       ??1PxTriangle@physx@@QEAA@XZ 0000000180037510 f i GuSweepCapsuleBox.obj
 0001:00037800       ?sweepCapsuleCapsule@Gu@physx@@YA_NAEBVCapsule@12@0AEBVPxVec3@2@MAEAMAEAV42@3IAEAG@Z 0000000180038800 f   GuSweepCapsuleCapsule.obj
 0001:00038440       ??0Capsule@Gu@physx@@QEAA@XZ 0000000180039440 f i GuSweepCapsuleCapsule.obj
 0001:00038450       ??1Capsule@Gu@physx@@QEAA@XZ 0000000180039450 f i GuSweepCapsuleCapsule.obj
 0001:00038710       ?sweepCapsuleTriangles@Gu@physx@@YA_NIPEIBVPxTriangle@2@AEBVCapsule@12@AEBVPxVec3@2@MPEIBIAEAV?$PxFlags@W4Enum@PxHitFlag@physx@@G@2@AEAMAEAV52@6AEAI6V62@_NPEBVBox@12@@Z 0000000180039710 f   GuSweepCapsuleTriangle.obj
 0001:0003a270       ?sweepSphereCapsule@Gu@physx@@YA_NAEBVSphere@12@AEBVCapsule@12@AEBVPxVec3@2@MAEAMAEAV52@4V?$PxFlags@W4Enum@PxHitFlag@physx@@G@2@@Z 000000018003b270 f   GuSweepSphereCapsule.obj
 0001:0003a620       ?sweepSphereSphere@Gu@physx@@YA_NAEBVPxVec3@2@M0M0AEAMAEAV32@@Z 000000018003b620 f   GuSweepSphereSphere.obj
 0001:0003a9d0       ?sweepTriSphere@Gu@physx@@YA_NAEBVPxTriangle@2@AEBVPxVec3@2@1M1AEAM@Z 000000018003b9d0 f   GuSweepSphereTriangle.obj
 0001:0003b3d0       ?sweepSphereTriangles@Gu@physx@@YA_NIPEIBVPxTriangle@2@AEBVPxVec3@2@M1MPEIBIAEAV42@3AEAMAEAIAEAV?$PxFlags@W4Enum@PxHitFlag@physx@@G@2@3_N7@Z 000000018003c3d0 f   GuSweepSphereTriangle.obj
 0001:0003bbc0       ?computeSphereTriImpactData@Gu@physx@@YAXAEAVPxVec3@2@0AEBV32@1MAEBVPxTriangle@2@@Z 000000018003cbc0 f   GuSweepTriangleUtils.obj
 0001:0003be60       ?computeBoxTriImpactData@Gu@physx@@YAXAEAVPxVec3@2@0AEBV32@111AEBVPxTriangle@2@@Z 000000018003ce60 f   GuSweepTriangleUtils.obj
 0001:0003c0d0       ?computeEdgeEdgeNormal@Gu@physx@@YAXAEAVPxVec3@2@AEBV32@1111M@Z 000000018003d0d0 f   GuSweepTriangleUtils.obj
 0001:0003c610       ?epaPenetration@Gu@physx@@YAIAEBVConvexV@12@0PEAVEPASupportMapPair@12@PEIAE2EAEAT__m128@@333_N@Z 000000018003d610 f   GuEPA.obj
 0001:0003d730       ?silhouette@Facet@Gu@physx@@QEAAXAEBT__m128@@PEIBT4@1AEAVEdgeBuffer@23@AEAV?$InlineDeferredIDPool@$0EA@@Cm@3@@Z 000000018003e730 f   GuEPA.obj
 0001:0003d8e0       ?PenetrationDepth@EPA@Gu@physx@@QEAAIAEBVConvexV@23@0PEAVEPASupportMapPair@23@PEIBT__m128@@22HAEAT6@333_N@Z 000000018003e8e0 f   GuEPA.obj
 0001:0003e2b0       ?expandPoint@EPA@Gu@physx@@QEAA_NPEAVEPASupportMapPair@23@AEAHAEBT__m128@@2@Z 000000018003f2b0 f   GuEPA.obj
 0001:0003e340       ?expandSegment@EPA@Gu@physx@@QEAA_NPEAVEPASupportMapPair@23@AEAHAEBT__m128@@2@Z 000000018003f340 f   GuEPA.obj
 0001:0003e6c0       ?expandTriangle@EPA@Gu@physx@@QEAA_NAEAHAEBT__m128@@1@Z 000000018003f6c0 f   GuEPA.obj
 0001:0003e780       ?addFacet@EPA@Gu@physx@@QEAAPEAVFacet@23@IIIAEBT__m128@@0@Z 000000018003f780 f   GuEPA.obj
 0001:0003ea10       ??0Edge@Gu@physx@@QEAA@XZ  000000018003fa10 f i GuEPA.obj
 0001:0003ea20       ??0Facet@Gu@physx@@QEAA@XZ 000000018003fa20 f i GuEPA.obj
 0001:0003edf0       ?EPALocalPenetration@Gu@physx@@YAIAEBVCapsuleV@12@AEBVBoxV@12@AEAT__m128@@222PEIAE3AEAE_N@Z 000000018003fdf0 f   GuEPAPenetrationWrapper.obj
 0001:0003ee80       ?EPALocalPenetration@Gu@physx@@YAIAEBVCapsuleV@12@AEBVConvexHullV@12@AEAT__m128@@222PEIAE3AEAE_N@Z 000000018003fe80 f   GuEPAPenetrationWrapper.obj
 0001:0003ef10       ?EPALocalPenetration@Gu@physx@@YAIAEBVTriangleV@12@AEBVBoxV@12@AEAT__m128@@222PEIAE3AEAE_N@Z 000000018003ff10 f   GuEPAPenetrationWrapper.obj
 0001:0003efa0       ?EPALocalPenetration@Gu@physx@@YAIAEBVTriangleV@12@AEBVConvexHullV@12@AEAT__m128@@222PEIAE3AEAE_N@Z 000000018003ffa0 f   GuEPAPenetrationWrapper.obj
 0001:0003f030       ?EPARelativePenetration@Gu@physx@@YAIAEBVBoxV@12@0AEBVPsMatTransformV@aos@shdfnd@2@AEAT__m128@@222PEIAE3AEAE_N@Z 0000000180040030 f   GuEPAPenetrationWrapper.obj
 0001:0003f0d0       ?EPARelativePenetration@Gu@physx@@YAIAEBVBoxV@12@AEBVConvexHullV@12@AEBVPsMatTransformV@aos@shdfnd@2@AEAT__m128@@333PEIAE4AEAE_N@Z 00000001800400d0 f   GuEPAPenetrationWrapper.obj
 0001:0003f170       ?EPARelativePenetration@Gu@physx@@YAIAEBVConvexHullV@12@0AEBVPsMatTransformV@aos@shdfnd@2@AEAT__m128@@222PEIAE3AEAE_N@Z 0000000180040170 f   GuEPAPenetrationWrapper.obj
 0001:0003f210       ?EPARelativePenetration@Gu@physx@@YAIAEBVConvexHullNoScaleV@12@0AEBVPsMatTransformV@aos@shdfnd@2@AEAT__m128@@222PEIAE3AEAE_N@Z 0000000180040210 f   GuEPAPenetrationWrapper.obj
 0001:0003f2b0       ?EPARelativePenetration@Gu@physx@@YAIAEBVConvexHullNoScaleV@12@AEBVConvexHullV@12@AEBVPsMatTransformV@aos@shdfnd@2@AEAT__m128@@333PEIAE4AEAE_N@Z 00000001800402b0 f   GuEPAPenetrationWrapper.obj
 0001:0003f350       ?EPARelativePenetration@Gu@physx@@YAIAEBVConvexHullV@12@AEBVConvexHullNoScaleV@12@AEBVPsMatTransformV@aos@shdfnd@2@AEAT__m128@@333PEIAE4AEAE_N@Z 0000000180040350 f   GuEPAPenetrationWrapper.obj
 0001:0003f3e0       ??1EPASupportMapPair@Gu@physx@@UEAA@XZ 00000001800403e0 f i GuEPAPenetrationWrapper.obj
 0001:0003f3f0       ??_G?$EPASupportMapPairLocalImpl@VCapsuleV@Gu@physx@@VBoxV@23@@Gu@physx@@UEAAPEAXI@Z 00000001800403f0 f i GuEPAPenetrationWrapper.obj
 0001:0003f3f0       ??_E?$EPASupportMapPairLocalImpl@VCapsuleV@Gu@physx@@VBoxV@23@@Gu@physx@@UEAAPEAXI@Z 00000001800403f0 f i GuEPAPenetrationWrapper.obj
 0001:0003f420       ??_G?$EPASupportMapPairLocalImpl@VCapsuleV@Gu@physx@@VConvexHullV@23@@Gu@physx@@UEAAPEAXI@Z 0000000180040420 f i GuEPAPenetrationWrapper.obj
 0001:0003f420       ??_E?$EPASupportMapPairLocalImpl@VCapsuleV@Gu@physx@@VConvexHullV@23@@Gu@physx@@UEAAPEAXI@Z 0000000180040420 f i GuEPAPenetrationWrapper.obj
 0001:0003f450       ??_E?$EPASupportMapPairLocalImpl@VTriangleV@Gu@physx@@VBoxV@23@@Gu@physx@@UEAAPEAXI@Z 0000000180040450 f i GuEPAPenetrationWrapper.obj
 0001:0003f450       ??_G?$EPASupportMapPairLocalImpl@VTriangleV@Gu@physx@@VBoxV@23@@Gu@physx@@UEAAPEAXI@Z 0000000180040450 f i GuEPAPenetrationWrapper.obj
 0001:0003f480       ??_G?$EPASupportMapPairLocalImpl@VTriangleV@Gu@physx@@VConvexHullV@23@@Gu@physx@@UEAAPEAXI@Z 0000000180040480 f i GuEPAPenetrationWrapper.obj
 0001:0003f480       ??_E?$EPASupportMapPairLocalImpl@VTriangleV@Gu@physx@@VConvexHullV@23@@Gu@physx@@UEAAPEAXI@Z 0000000180040480 f i GuEPAPenetrationWrapper.obj
 0001:0003f4b0       ??_E?$EPASupportMapPairRelativeImpl@VBoxV@Gu@physx@@V123@@Gu@physx@@UEAAPEAXI@Z 00000001800404b0 f i GuEPAPenetrationWrapper.obj
 0001:0003f4b0       ??_G?$EPASupportMapPairRelativeImpl@VBoxV@Gu@physx@@V123@@Gu@physx@@UEAAPEAXI@Z 00000001800404b0 f i GuEPAPenetrationWrapper.obj
 0001:0003f4e0       ??_E?$EPASupportMapPairRelativeImpl@VBoxV@Gu@physx@@VConvexHullV@23@@Gu@physx@@UEAAPEAXI@Z 00000001800404e0 f i GuEPAPenetrationWrapper.obj
 0001:0003f4e0       ??_G?$EPASupportMapPairRelativeImpl@VBoxV@Gu@physx@@VConvexHullV@23@@Gu@physx@@UEAAPEAXI@Z 00000001800404e0 f i GuEPAPenetrationWrapper.obj
 0001:0003f510       ??_E?$EPASupportMapPairRelativeImpl@VConvexHullNoScaleV@Gu@physx@@V123@@Gu@physx@@UEAAPEAXI@Z 0000000180040510 f i GuEPAPenetrationWrapper.obj
 0001:0003f510       ??_G?$EPASupportMapPairRelativeImpl@VConvexHullNoScaleV@Gu@physx@@V123@@Gu@physx@@UEAAPEAXI@Z 0000000180040510 f i GuEPAPenetrationWrapper.obj
 0001:0003f540       ??_G?$EPASupportMapPairRelativeImpl@VConvexHullNoScaleV@Gu@physx@@VConvexHullV@23@@Gu@physx@@UEAAPEAXI@Z 0000000180040540 f i GuEPAPenetrationWrapper.obj
 0001:0003f540       ??_E?$EPASupportMapPairRelativeImpl@VConvexHullNoScaleV@Gu@physx@@VConvexHullV@23@@Gu@physx@@UEAAPEAXI@Z 0000000180040540 f i GuEPAPenetrationWrapper.obj
 0001:0003f570       ??_G?$EPASupportMapPairRelativeImpl@VConvexHullV@Gu@physx@@V123@@Gu@physx@@UEAAPEAXI@Z 0000000180040570 f i GuEPAPenetrationWrapper.obj
 0001:0003f570       ??_E?$EPASupportMapPairRelativeImpl@VConvexHullV@Gu@physx@@V123@@Gu@physx@@UEAAPEAXI@Z 0000000180040570 f i GuEPAPenetrationWrapper.obj
 0001:0003f5a0       ??_E?$EPASupportMapPairRelativeImpl@VConvexHullV@Gu@physx@@VConvexHullNoScaleV@23@@Gu@physx@@UEAAPEAXI@Z 00000001800405a0 f i GuEPAPenetrationWrapper.obj
 0001:0003f5a0       ??_G?$EPASupportMapPairRelativeImpl@VConvexHullV@Gu@physx@@VConvexHullNoScaleV@23@@Gu@physx@@UEAAPEAXI@Z 00000001800405a0 f i GuEPAPenetrationWrapper.obj
 0001:0003f5d0       ??_GEPASupportMapPair@Gu@physx@@UEAAPEAXI@Z 00000001800405d0 f i GuEPAPenetrationWrapper.obj
 0001:0003f5d0       ??_EEPASupportMapPair@Gu@physx@@UEAAPEAXI@Z 00000001800405d0 f i GuEPAPenetrationWrapper.obj
 0001:0003f600       ?doSupport@?$EPASupportMapPairLocalImpl@VCapsuleV@Gu@physx@@VBoxV@23@@Gu@physx@@UEBAXAEBT__m128@@AEAT4@11@Z 0000000180040600 f i GuEPAPenetrationWrapper.obj
 0001:0003f6c0       ?doSupport@?$EPASupportMapPairLocalImpl@VCapsuleV@Gu@physx@@VConvexHullV@23@@Gu@physx@@UEBAXAEBT__m128@@AEAT4@11@Z 00000001800406c0 f i GuEPAPenetrationWrapper.obj
 0001:0003faf0       ?doSupport@?$EPASupportMapPairLocalImpl@VTriangleV@Gu@physx@@VBoxV@23@@Gu@physx@@UEBAXAEBT__m128@@AEAT4@11@Z 0000000180040af0 f i GuEPAPenetrationWrapper.obj
 0001:0003fbf0       ?doSupport@?$EPASupportMapPairLocalImpl@VTriangleV@Gu@physx@@VConvexHullV@23@@Gu@physx@@UEBAXAEBT__m128@@AEAT4@11@Z 0000000180040bf0 f i GuEPAPenetrationWrapper.obj
 0001:00040080       ?doSupport@?$EPASupportMapPairRelativeImpl@VBoxV@Gu@physx@@V123@@Gu@physx@@UEBAXAEBT__m128@@AEAT4@11@Z 0000000180041080 f i GuEPAPenetrationWrapper.obj
 0001:00040190       ?doSupport@?$EPASupportMapPairRelativeImpl@VBoxV@Gu@physx@@VConvexHullV@23@@Gu@physx@@UEBAXAEBT__m128@@AEAT4@11@Z 0000000180041190 f i GuEPAPenetrationWrapper.obj
 0001:00040630       ?doSupport@?$EPASupportMapPairRelativeImpl@VConvexHullNoScaleV@Gu@physx@@V123@@Gu@physx@@UEBAXAEBT__m128@@AEAT4@11@Z 0000000180041630 f i GuEPAPenetrationWrapper.obj
 0001:00040c70       ?doSupport@?$EPASupportMapPairRelativeImpl@VConvexHullNoScaleV@Gu@physx@@VConvexHullV@23@@Gu@physx@@UEBAXAEBT__m128@@AEAT4@11@Z 0000000180041c70 f i GuEPAPenetrationWrapper.obj
 0001:00041350       ?doSupport@?$EPASupportMapPairRelativeImpl@VConvexHullV@Gu@physx@@V123@@Gu@physx@@UEBAXAEBT__m128@@AEAT4@11@Z 0000000180042350 f i GuEPAPenetrationWrapper.obj
 0001:00041ab0       ?doSupport@?$EPASupportMapPairRelativeImpl@VConvexHullV@Gu@physx@@VConvexHullNoScaleV@23@@Gu@physx@@UEBAXAEBT__m128@@AEAT4@11@Z 0000000180042ab0 f i GuEPAPenetrationWrapper.obj
 0001:00042170       ?doWarmStartSupport@?$EPASupportMapPairLocalImpl@VCapsuleV@Gu@physx@@VBoxV@23@@Gu@physx@@UEBAXHHAEAT__m128@@00@Z 0000000180043170 f i GuEPAPenetrationWrapper.obj
 0001:000421d0       ?doWarmStartSupport@?$EPASupportMapPairLocalImpl@VCapsuleV@Gu@physx@@VConvexHullV@23@@Gu@physx@@UEBAXHHAEAT__m128@@00@Z 00000001800431d0 f i GuEPAPenetrationWrapper.obj
 0001:00042260       ?doWarmStartSupport@?$EPASupportMapPairLocalImpl@VTriangleV@Gu@physx@@VBoxV@23@@Gu@physx@@UEBAXHHAEAT__m128@@00@Z 0000000180043260 f i GuEPAPenetrationWrapper.obj
 0001:000422c0       ?doWarmStartSupport@?$EPASupportMapPairLocalImpl@VTriangleV@Gu@physx@@VConvexHullV@23@@Gu@physx@@UEBAXHHAEAT__m128@@00@Z 00000001800432c0 f i GuEPAPenetrationWrapper.obj
 0001:00042350       ?doWarmStartSupport@?$EPASupportMapPairRelativeImpl@VBoxV@Gu@physx@@V123@@Gu@physx@@UEBAXHHAEAT__m128@@00@Z 0000000180043350 f i GuEPAPenetrationWrapper.obj
 0001:000423f0       ?doWarmStartSupport@?$EPASupportMapPairRelativeImpl@VBoxV@Gu@physx@@VConvexHullV@23@@Gu@physx@@UEBAXHHAEAT__m128@@00@Z 00000001800433f0 f i GuEPAPenetrationWrapper.obj
 0001:000424c0       ?doWarmStartSupport@?$EPASupportMapPairRelativeImpl@VConvexHullNoScaleV@Gu@physx@@V123@@Gu@physx@@UEBAXHHAEAT__m128@@00@Z 00000001800434c0 f i GuEPAPenetrationWrapper.obj
 0001:00042570       ?doWarmStartSupport@?$EPASupportMapPairRelativeImpl@VConvexHullNoScaleV@Gu@physx@@VConvexHullV@23@@Gu@physx@@UEBAXHHAEAT__m128@@00@Z 0000000180043570 f i GuEPAPenetrationWrapper.obj
 0001:00042640       ?doWarmStartSupport@?$EPASupportMapPairRelativeImpl@VConvexHullV@Gu@physx@@V123@@Gu@physx@@UEBAXHHAEAT__m128@@00@Z 0000000180043640 f i GuEPAPenetrationWrapper.obj
 0001:00042740       ?doWarmStartSupport@?$EPASupportMapPairRelativeImpl@VConvexHullV@Gu@physx@@VConvexHullNoScaleV@23@@Gu@physx@@UEBAXHHAEAT__m128@@00@Z 0000000180043740 f i GuEPAPenetrationWrapper.obj
 0001:00042810       ?getDir@?$EPASupportMapPairLocalImpl@VCapsuleV@Gu@physx@@VBoxV@23@@Gu@physx@@UEBA?AT__m128@@XZ 0000000180043810 f i GuEPAPenetrationWrapper.obj
 0001:00042830       ?getDir@?$EPASupportMapPairLocalImpl@VCapsuleV@Gu@physx@@VConvexHullV@23@@Gu@physx@@UEBA?AT__m128@@XZ 0000000180043830 f i GuEPAPenetrationWrapper.obj
 0001:00042850       ?getDir@?$EPASupportMapPairLocalImpl@VTriangleV@Gu@physx@@VBoxV@23@@Gu@physx@@UEBA?AT__m128@@XZ 0000000180043850 f i GuEPAPenetrationWrapper.obj
 0001:00042870       ?getDir@?$EPASupportMapPairLocalImpl@VTriangleV@Gu@physx@@VConvexHullV@23@@Gu@physx@@UEBA?AT__m128@@XZ 0000000180043870 f i GuEPAPenetrationWrapper.obj
 0001:00042890       ?getDir@?$EPASupportMapPairRelativeImpl@VBoxV@Gu@physx@@V123@@Gu@physx@@UEBA?AT__m128@@XZ 0000000180043890 f i GuEPAPenetrationWrapper.obj
 0001:000428a0       ?getDir@?$EPASupportMapPairRelativeImpl@VBoxV@Gu@physx@@VConvexHullV@23@@Gu@physx@@UEBA?AT__m128@@XZ 00000001800438a0 f i GuEPAPenetrationWrapper.obj
 0001:000428b0       ?getDir@?$EPASupportMapPairRelativeImpl@VConvexHullNoScaleV@Gu@physx@@V123@@Gu@physx@@UEBA?AT__m128@@XZ 00000001800438b0 f i GuEPAPenetrationWrapper.obj
 0001:000428c0       ?getDir@?$EPASupportMapPairRelativeImpl@VConvexHullNoScaleV@Gu@physx@@VConvexHullV@23@@Gu@physx@@UEBA?AT__m128@@XZ 00000001800438c0 f i GuEPAPenetrationWrapper.obj
 0001:000428d0       ?getDir@?$EPASupportMapPairRelativeImpl@VConvexHullV@Gu@physx@@V123@@Gu@physx@@UEBA?AT__m128@@XZ 00000001800438d0 f i GuEPAPenetrationWrapper.obj
 0001:000428e0       ?getDir@?$EPASupportMapPairRelativeImpl@VConvexHullV@Gu@physx@@VConvexHullNoScaleV@23@@Gu@physx@@UEBA?AT__m128@@XZ 00000001800438e0 f i GuEPAPenetrationWrapper.obj
 0001:000428f0       ?gjkRelativeFallback@Gu@physx@@YAIAEBVConvexV@12@0PEAVSupportMap@12@1AEBT__m128@@AEAT5@333@Z 00000001800438f0 f   GuGJKFallBack.obj
 0001:00042d60       ?doSupportMappingPair@Gu@physx@@YA?AT__m128@@AEBVConvexV@12@0PEAVSupportMap@12@1T3@PEAT3@33IAEAUSimplexStack@12@@Z 0000000180043d60 f   GuGJKFallBack.obj
 0001:00043010       ?pushSimplex@SimplexStack@Gu@physx@@QEAAXPEAT__m128@@00I@Z 0000000180044010 f i GuGJKFallBack.obj
 0001:000430d0       ?GJKLocalPenetration@Gu@physx@@YAIAEBVCapsuleV@12@AEBVBoxV@12@AEBT__m128@@AEAT5@333PEIAE4AEAE_N@Z 00000001800440d0 f   GuGJKPenetrationWrapper.obj
 0001:00044930       ?GJKLocalPenetration@Gu@physx@@YAIAEBVCapsuleV@12@AEBVShrunkBoxV@12@AEBT__m128@@AEAT5@333PEIAE4AEAE_N@Z 0000000180045930 f   GuGJKPenetrationWrapper.obj
 0001:00046170       ?GJKLocalPenetration@Gu@physx@@YAIAEBVCapsuleV@12@AEBVConvexHullV@12@AEBT__m128@@AEAT5@333PEIAE4AEAE_N@Z 0000000180047170 f   GuGJKPenetrationWrapper.obj
 0001:00047d60       ?GJKLocalPenetration@Gu@physx@@YAIAEBVCapsuleV@12@AEBVConvexHullNoScaleV@12@AEBT__m128@@AEAT5@333PEIAE4AEAE_N@Z 0000000180048d60 f   GuGJKPenetrationWrapper.obj
 0001:000498c0       ?GJKLocalPenetration@Gu@physx@@YAIAEBVCapsuleV@12@AEBVShrunkConvexHullV@12@AEBT__m128@@AEAT5@333PEIAE4AEAE_N@Z 000000018004a8c0 f   GuGJKPenetrationWrapper.obj
 0001:0004bae0       ?GJKLocalPenetration@Gu@physx@@YAIAEBVCapsuleV@12@AEBVShrunkConvexHullNoScaleV@12@AEBT__m128@@AEAT5@333PEIAE4AEAE_N@Z 000000018004cae0 f   GuGJKPenetrationWrapper.obj
 0001:0004db00       ?GJKLocalPenetration@Gu@physx@@YAIAEBVTriangleV@12@AEBVBoxV@12@AEBT__m128@@AEAT5@333PEIAE4AEAE_N@Z 000000018004eb00 f   GuGJKPenetrationWrapper.obj
 0001:0004f360       ?GJKLocalPenetration@Gu@physx@@YAIAEBVTriangleV@12@AEBVConvexHullV@12@AEBT__m128@@AEAT5@333PEIAE4AEAE_N@Z 0000000180050360 f   GuGJKPenetrationWrapper.obj
 0001:00050f90       ?GJKLocalPenetration@Gu@physx@@YAIAEBVTriangleV@12@AEBVConvexHullNoScaleV@12@AEBT__m128@@AEAT5@333PEIAE4AEAE_N@Z 0000000180051f90 f   GuGJKPenetrationWrapper.obj
 0001:00052b80       ?GJKLocalPenetration@Gu@physx@@YAIAEBVTriangleV@12@0AEBT__m128@@AEAT4@222PEIAE3AEAE_N@Z 0000000180053b80 f   GuGJKPenetrationWrapper.obj
 0001:00054440       ?GJKRelativePenetration@Gu@physx@@YAIAEBVBoxV@12@0AEBVPsMatTransformV@aos@shdfnd@2@AEBT__m128@@AEAT7@333PEIAE4AEAE@Z 0000000180055440 f   GuGJKPenetrationWrapper.obj
 0001:00055be0       ?GJKRelativePenetration@Gu@physx@@YAIAEBVBoxV@12@AEBVConvexHullV@12@AEBVPsMatTransformV@aos@shdfnd@2@AEBT__m128@@AEAT8@444PEIAE5AEAE@Z 0000000180056be0 f   GuGJKPenetrationWrapper.obj
 0001:00057780       ?GJKRelativePenetration@Gu@physx@@YAIAEBVShrunkBoxV@12@0AEBVPsMatTransformV@aos@shdfnd@2@AEBT__m128@@AEAT7@333PEIAE4AEAE@Z 0000000180058780 f   GuGJKPenetrationWrapper.obj
 0001:00058f40       ?GJKRelativePenetration@Gu@physx@@YAIAEBVShrunkBoxV@12@AEBVShrunkConvexHullV@12@AEBVPsMatTransformV@aos@shdfnd@2@AEBT__m128@@AEAT8@444PEIAE5AEAE@Z 0000000180059f40 f   GuGJKPenetrationWrapper.obj
 0001:0005b110       ?GJKRelativePenetration@Gu@physx@@YAIAEBVShrunkBoxV@12@AEBVShrunkConvexHullNoScaleV@12@AEBVPsMatTransformV@aos@shdfnd@2@AEBT__m128@@AEAT8@444PEIAE5AEAE@Z 000000018005c110 f   GuGJKPenetrationWrapper.obj
 0001:0005d0a0       ?GJKRelativePenetration@Gu@physx@@YAIAEBVConvexHullV@12@0AEBVPsMatTransformV@aos@shdfnd@2@AEBT__m128@@AEAT7@333PEIAE4AEAE@Z 000000018005e0a0 f   GuGJKPenetrationWrapper.obj
 0001:0005ef90       ?GJKRelativePenetration@Gu@physx@@YAIAEBVShrunkConvexHullV@12@0AEBVPsMatTransformV@aos@shdfnd@2@AEBT__m128@@AEAT7@333PEIAE4AEAE@Z 000000018005ff90 f   GuGJKPenetrationWrapper.obj
 0001:00061980       ?GJKRelativePenetration@Gu@physx@@YAIAEBVShrunkConvexHullNoScaleV@12@0AEBVPsMatTransformV@aos@shdfnd@2@AEBT__m128@@AEAT7@333PEIAE4AEAE@Z 0000000180062980 f   GuGJKPenetrationWrapper.obj
 0001:00063fe0       ?GJKRelativePenetration@Gu@physx@@YAIAEBVShrunkConvexHullNoScaleV@12@AEBVShrunkConvexHullV@12@AEBVPsMatTransformV@aos@shdfnd@2@AEBT__m128@@AEAT8@444PEIAE5AEAE@Z 0000000180064fe0 f   GuGJKPenetrationWrapper.obj
 0001:00066860       ?GJKRelativePenetration@Gu@physx@@YAIAEBVShrunkConvexHullV@12@AEBVShrunkConvexHullNoScaleV@12@AEBVPsMatTransformV@aos@shdfnd@2@AEBT__m128@@AEAT8@444PEIAE5AEAE@Z 0000000180067860 f   GuGJKPenetrationWrapper.obj
 0001:00069010       ?GJKRelativePenetration@Gu@physx@@YAIAEBVTriangleV@12@AEBVBoxV@12@AEBVPsMatTransformV@aos@shdfnd@2@AEBT__m128@@AEAT8@444@Z 000000018006a010 f   GuGJKPenetrationWrapper.obj
 0001:00069e90       ?GJKRelativePenetration@Gu@physx@@YAIAEBVTriangleV@12@AEBVCapsuleV@12@AEBVPsMatTransformV@aos@shdfnd@2@AEBT__m128@@AEAT8@444@Z 000000018006ae90 f   GuGJKPenetrationWrapper.obj
 0001:0006ad80       ?GJKRelativePenetration@Gu@physx@@YAIAEBVTriangleV@12@AEBVConvexHullV@12@AEBVPsMatTransformV@aos@shdfnd@2@AEBT__m128@@AEAT8@444@Z 000000018006bd80 f   GuGJKPenetrationWrapper.obj
 0001:0006bfc0       ?GJKRelativePenetration@Gu@physx@@YAIAEBVCapsuleV@12@0AEBVPsMatTransformV@aos@shdfnd@2@AEBT__m128@@AEAT7@333@Z 000000018006cfc0 f   GuGJKPenetrationWrapper.obj
 0001:0006ce10       ?GJKRelativePenetration@Gu@physx@@YAIAEBVCapsuleV@12@AEBVBoxV@12@AEBVPsMatTransformV@aos@shdfnd@2@AEBT__m128@@AEAT8@444@Z 000000018006de10 f   GuGJKPenetrationWrapper.obj
 0001:0006dc40       ?GJKRelativePenetration@Gu@physx@@YAIAEBVCapsuleV@12@AEBVConvexHullV@12@AEBVPsMatTransformV@aos@shdfnd@2@AEBT__m128@@AEAT8@444@Z 000000018006ec40 f   GuGJKPenetrationWrapper.obj
 0001:0006ede0       ?GJKRelativePenetration@Gu@physx@@YAIAEBVBoxV@12@0AEBVPsMatTransformV@aos@shdfnd@2@AEBT__m128@@AEAT7@333@Z 000000018006fde0 f   GuGJKPenetrationWrapper.obj
 0001:0006fbc0       ?GJKRelativePenetration@Gu@physx@@YAIAEBVBoxV@12@AEBVConvexHullV@12@AEBVPsMatTransformV@aos@shdfnd@2@AEBT__m128@@AEAT8@444@Z 0000000180070bc0 f   GuGJKPenetrationWrapper.obj
 0001:00070d10       ?GJKRelativePenetration@Gu@physx@@YAIAEBVConvexHullV@12@0AEBVPsMatTransformV@aos@shdfnd@2@AEBT__m128@@AEAT7@333@Z 0000000180071d10 f   GuGJKPenetrationWrapper.obj
 0001:000721a0       ?GJKRelativePenetration@Gu@physx@@YAIAEBVShrunkConvexHullV@12@0AEBVPsMatTransformV@aos@shdfnd@2@AEBT__m128@@AEAT7@333@Z 00000001800731a0 f   GuGJKPenetrationWrapper.obj
 0001:00073b80       ?closestPtPointTetrahedron@Gu@physx@@YA?AT__m128@@PEIAT3@00AEAI@Z 0000000180074b80 f   GuGJKSimplex.obj
 0001:000744f0       ?closestPtPointTetrahedron@Gu@physx@@YA?AT__m128@@PEIAT3@00PEIAH1AEAI@Z 00000001800754f0 f   GuGJKSimplex.obj
 0001:00076280       ?closestPtPointSegmentTesselation@Gu@physx@@YA?AT__m128@@AEBT3@00000AEAIAEAT3@2@Z 0000000180077280 f   GuGJKSimplexTesselation.obj
 0001:00076690       ?closestPtPointTetrahedronTesselation@Gu@physx@@YA?AT__m128@@PEIAT3@00AEAIAEAT3@2@Z 0000000180077690 f   GuGJKSimplexTesselation.obj
 0001:00076e90       ?closestPtPointTriangleTesselation@Gu@physx@@YA?AT__m128@@PEIAT3@00PEIAIAEAIAEAT3@3@Z 0000000180077e90 f   GuGJKSimplexTesselation.obj
 0001:000779e0       ?GJKRelative@Gu@physx@@YAIAEBVCapsuleV@12@AEBVConvexHullV@12@AEBVPsMatTransformV@aos@shdfnd@2@AEAT__m128@@333@Z 00000001800789e0 f   GuGJKWrapper.obj
 0001:000779f0       ?GJKRelative@Gu@physx@@YAIAEBVCapsuleV@12@AEBVBoxV@12@AEBVPsMatTransformV@aos@shdfnd@2@AEAT__m128@@333@Z 00000001800789f0 f   GuGJKWrapper.obj
 0001:00077a00       ?GJKRelative@Gu@physx@@YAIAEBVBoxV@12@0AEBVPsMatTransformV@aos@shdfnd@2@AEAT__m128@@222@Z 0000000180078a00 f   GuGJKWrapper.obj
 0001:00077a10       ?GJKRelative@Gu@physx@@YAIAEBVBoxV@12@AEBVConvexHullV@12@AEBVPsMatTransformV@aos@shdfnd@2@AEAT__m128@@333@Z 0000000180078a10 f   GuGJKWrapper.obj
 0001:00077a20       ?GJKRelative@Gu@physx@@YAIAEBVConvexHullV@12@0AEBVPsMatTransformV@aos@shdfnd@2@AEAT__m128@@222@Z 0000000180078a20 f   GuGJKWrapper.obj
 0001:00077a30       ?GJKRelative@Gu@physx@@YAIAEBVTriangleV@12@AEBVBoxV@12@AEBVPsMatTransformV@aos@shdfnd@2@AEAT__m128@@333@Z 0000000180078a30 f   GuGJKWrapper.obj
 0001:00077a40       ?GJKRelative@Gu@physx@@YAIAEBVTriangleV@12@AEBVConvexHullV@12@AEBVPsMatTransformV@aos@shdfnd@2@AEAT__m128@@333@Z 0000000180078a40 f   GuGJKWrapper.obj
 0001:00077a50       ?GJKLocal@Gu@physx@@YAIAEBVCapsuleV@12@AEBVConvexHullV@12@AEAT__m128@@222@Z 0000000180078a50 f   GuGJKWrapper.obj
 0001:00077a60       ?GJKLocal@Gu@physx@@YAIAEBVTriangleV@12@AEBVBoxV@12@AEAT__m128@@222@Z 0000000180078a60 f   GuGJKWrapper.obj
 0001:00077a70       ?GJKLocal@Gu@physx@@YAIAEBVTriangleV@12@AEBVConvexHullV@12@AEAT__m128@@222@Z 0000000180078a70 f   GuGJKWrapper.obj
 0001:00077a80       ?GJKRelativeTesselation@Gu@physx@@YAIAEBVBoxV@12@AEBVConvexHullV@12@AEBVPsMatTransformV@aos@shdfnd@2@AEBT__m128@@AEAT8@444@Z 0000000180078a80 f   GuGJKWrapper.obj
 0001:00077a90       ?GJKRelativeTesselation@Gu@physx@@YAIAEBVConvexHullV@12@0AEBVPsMatTransformV@aos@shdfnd@2@AEBT__m128@@AEAT7@333@Z 0000000180078a90 f   GuGJKWrapper.obj
 0001:00077aa0       ?GJKLocalRayCast@Gu@physx@@YA_NAEAVTriangleV@12@AEAVCapsuleV@12@AEBT__m128@@22AEAT5@33M_N@Z 0000000180078aa0 f   GuGJKWrapper.obj
 0001:00077ac0       ?GJKLocalRayCast@Gu@physx@@YA_NAEAVTriangleV@12@AEAVBoxV@12@AEBT__m128@@22AEAT5@33M_N@Z 0000000180078ac0 f   GuGJKWrapper.obj
 0001:00077ae0       ?GJKLocalRayCast@Gu@physx@@YA_NAEAVTriangleV@12@AEAVConvexHullV@12@AEBT__m128@@22AEAT5@33M_N@Z 0000000180078ae0 f   GuGJKWrapper.obj
 0001:00077b00       ?GJKLocalRayCast@Gu@physx@@YA_NAEAVCapsuleV@12@AEAVBoxV@12@AEBT__m128@@22AEAT5@33M_N@Z 0000000180078b00 f   GuGJKWrapper.obj
 0001:00077b20       ?GJKLocalRayCast@Gu@physx@@YA_NAEAVCapsuleV@12@AEAVConvexHullV@12@AEBT__m128@@22AEAT5@33M_N@Z 0000000180078b20 f   GuGJKWrapper.obj
 0001:00077b40       ?GJKRelativeRayCast@Gu@physx@@YA_NAEAVTriangleV@12@AEAVBoxV@12@AEBVPsMatTransformV@aos@shdfnd@2@AEBT__m128@@33AEAT8@44M_N@Z 0000000180078b40 f   GuGJKWrapper.obj
 0001:00077b60       ?GJKRelativeRayCast@Gu@physx@@YA_NAEAVTriangleV@12@AEAVCapsuleV@12@AEBVPsMatTransformV@aos@shdfnd@2@AEBT__m128@@33AEAT8@44M_N@Z 0000000180078b60 f   GuGJKWrapper.obj
 0001:00077b80       ?GJKRelativeRayCast@Gu@physx@@YA_NAEAVTriangleV@12@AEAVConvexHullV@12@AEBVPsMatTransformV@aos@shdfnd@2@AEBT__m128@@33AEAT8@44M_N@Z 0000000180078b80 f   GuGJKWrapper.obj
 0001:00077ba0       ?GJKRelativeRayCast@Gu@physx@@YA_NAEAVCapsuleV@12@0AEBVPsMatTransformV@aos@shdfnd@2@AEBT__m128@@22AEAT7@33M_N@Z 0000000180078ba0 f   GuGJKWrapper.obj
 0001:00077bc0       ?GJKRelativeRayCast@Gu@physx@@YA_NAEAVCapsuleV@12@AEAVBoxV@12@AEBVPsMatTransformV@aos@shdfnd@2@AEBT__m128@@33AEAT8@44M_N@Z 0000000180078bc0 f   GuGJKWrapper.obj
 0001:00077be0       ?GJKRelativeRayCast@Gu@physx@@YA_NAEAVCapsuleV@12@AEAVConvexHullV@12@AEBVPsMatTransformV@aos@shdfnd@2@AEBT__m128@@33AEAT8@44M_N@Z 0000000180078be0 f   GuGJKWrapper.obj
 0001:00077c00       ?GJKRelativeRayCast@Gu@physx@@YA_NAEAVBoxV@12@0AEBVPsMatTransformV@aos@shdfnd@2@AEBT__m128@@22AEAT7@33M_N@Z 0000000180078c00 f   GuGJKWrapper.obj
 0001:00077c20       ?GJKRelativeRayCast@Gu@physx@@YA_NAEAVBoxV@12@AEAVConvexHullV@12@AEBVPsMatTransformV@aos@shdfnd@2@AEBT__m128@@33AEAT8@44M_N@Z 0000000180078c20 f   GuGJKWrapper.obj
 0001:00077c40       ?GJKRelativeRayCast@Gu@physx@@YA_NAEAVConvexHullV@12@0AEBVPsMatTransformV@aos@shdfnd@2@AEBT__m128@@22AEAT7@33M_N@Z 0000000180078c40 f   GuGJKWrapper.obj
 0001:00077c50       ??$_gjkLocalRayCast@VCapsuleV@Gu@physx@@VBoxV@23@@Gu@physx@@YA_NAEAVCapsuleV@01@AEAVBoxV@01@AEBT__m128@@22AEAT4@33M@Z 0000000180078c50 f i GuGJKWrapper.obj
 0001:00078990       ??$_gjkLocalRayCast@VCapsuleV@Gu@physx@@VConvexHullV@23@@Gu@physx@@YA_NAEAVCapsuleV@01@AEAVConvexHullV@01@AEBT__m128@@22AEAT4@33M@Z 0000000180079990 f i GuGJKWrapper.obj
 0001:0007a140       ??$_gjkLocalRayCast@VTriangleV@Gu@physx@@VBoxV@23@@Gu@physx@@YA_NAEAVTriangleV@01@AEAVBoxV@01@AEBT__m128@@22AEAT4@33M@Z 000000018007b140 f i GuGJKWrapper.obj
 0001:0007af40       ??$_gjkLocalRayCast@VTriangleV@Gu@physx@@VCapsuleV@23@@Gu@physx@@YA_NAEAVTriangleV@01@AEAVCapsuleV@01@AEBT__m128@@22AEAT4@33M@Z 000000018007bf40 f i GuGJKWrapper.obj
 0001:0007bdd0       ??$_gjkLocalRayCast@VTriangleV@Gu@physx@@VConvexHullV@23@@Gu@physx@@YA_NAEAVTriangleV@01@AEAVConvexHullV@01@AEBT__m128@@22AEAT4@33M@Z 000000018007cdd0 f i GuGJKWrapper.obj
 0001:0007d620       ??$_gjkRelativeRayCast@VBoxV@Gu@physx@@V123@@Gu@physx@@YA_NAEAVBoxV@01@0AEBVPsMatTransformV@aos@shdfnd@1@AEBT__m128@@22AEAT6@33M@Z 000000018007e620 f i GuGJKWrapper.obj
 0001:0007e400       ??$_gjkRelativeRayCast@VBoxV@Gu@physx@@VConvexHullV@23@@Gu@physx@@YA_NAEAVBoxV@01@AEAVConvexHullV@01@AEBVPsMatTransformV@aos@shdfnd@1@AEBT__m128@@33AEAT7@44M@Z 000000018007f400 f i GuGJKWrapper.obj
 0001:0007fc60       ??$_gjkRelativeRayCast@VCapsuleV@Gu@physx@@V123@@Gu@physx@@YA_NAEAVCapsuleV@01@0AEBVPsMatTransformV@aos@shdfnd@1@AEBT__m128@@22AEAT6@33M@Z 0000000180080c60 f i GuGJKWrapper.obj
 0001:00080b60       ??$_gjkRelativeRayCast@VCapsuleV@Gu@physx@@VBoxV@23@@Gu@physx@@YA_NAEAVCapsuleV@01@AEAVBoxV@01@AEBVPsMatTransformV@aos@shdfnd@1@AEBT__m128@@33AEAT7@44M@Z 0000000180081b60 f i GuGJKWrapper.obj
 0001:00081990       ??$_gjkRelativeRayCast@VCapsuleV@Gu@physx@@VConvexHullV@23@@Gu@physx@@YA_NAEAVCapsuleV@01@AEAVConvexHullV@01@AEBVPsMatTransformV@aos@shdfnd@1@AEBT__m128@@33AEAT7@44M@Z 0000000180082990 f i GuGJKWrapper.obj
 0001:00083200       ??$_gjkRelativeRayCast@VConvexHullV@Gu@physx@@V123@@Gu@physx@@YA_NAEAVConvexHullV@01@0AEBVPsMatTransformV@aos@shdfnd@1@AEBT__m128@@22AEAT6@33M@Z 0000000180084200 f i GuGJKWrapper.obj
 0001:00084ff0       ??$_gjkRelativeRayCast@VTriangleV@Gu@physx@@VBoxV@23@@Gu@physx@@YA_NAEAVTriangleV@01@AEAVBoxV@01@AEBVPsMatTransformV@aos@shdfnd@1@AEBT__m128@@33AEAT7@44M@Z 0000000180085ff0 f i GuGJKWrapper.obj
 0001:00085ed0       ??$_gjkRelativeRayCast@VTriangleV@Gu@physx@@VCapsuleV@23@@Gu@physx@@YA_NAEAVTriangleV@01@AEAVCapsuleV@01@AEBVPsMatTransformV@aos@shdfnd@1@AEBT__m128@@33AEAT7@44M@Z 0000000180086ed0 f i GuGJKWrapper.obj
 0001:00086e60       ??$_gjkRelativeRayCast@VTriangleV@Gu@physx@@VConvexHullV@23@@Gu@physx@@YA_NAEAVTriangleV@01@AEAVConvexHullV@01@AEBVPsMatTransformV@aos@shdfnd@1@AEBT__m128@@33AEAT7@44M@Z 0000000180087e60 f i GuGJKWrapper.obj
 0001:00088700       ??$gjkLocal@VCapsuleV@Gu@physx@@VConvexHullV@23@@Gu@physx@@YAIAEBVCapsuleV@01@AEBVConvexHullV@01@AEAT__m128@@222@Z 0000000180089700 f i GuGJKWrapper.obj
 0001:00089780       ??$gjkLocal@VTriangleV@Gu@physx@@VBoxV@23@@Gu@physx@@YAIAEBVTriangleV@01@AEBVBoxV@01@AEAT__m128@@222@Z 000000018008a780 f i GuGJKWrapper.obj
 0001:0008a4e0       ??$gjkLocal@VTriangleV@Gu@physx@@VConvexHullV@23@@Gu@physx@@YAIAEBVTriangleV@01@AEBVConvexHullV@01@AEAT__m128@@222@Z 000000018008b4e0 f i GuGJKWrapper.obj
 0001:0008b580       ??$gjkLocalRayCast@VCapsuleV@Gu@physx@@VBoxV@23@V123@VShrunkBoxV@23@@Gu@physx@@YA_NAEAVCapsuleV@01@AEAVBoxV@01@AEBT__m128@@22AEAT4@33M_N@Z 000000018008c580 f i GuGJKWrapper.obj
 0001:0008c570       ??$gjkLocalRayCast@VCapsuleV@Gu@physx@@VConvexHullV@23@V123@VShrunkConvexHullV@23@@Gu@physx@@YA_NAEAVCapsuleV@01@AEAVConvexHullV@01@AEBT__m128@@22AEAT4@33M_N@Z 000000018008d570 f i GuGJKWrapper.obj
 0001:0008dbd0       ??$gjkLocalRayCast@VTriangleV@Gu@physx@@VBoxV@23@V123@VShrunkBoxV@23@@Gu@physx@@YA_NAEAVTriangleV@01@AEAVBoxV@01@AEBT__m128@@22AEAT4@33M_N@Z 000000018008ebd0 f i GuGJKWrapper.obj
 0001:0008ec10       ??$gjkLocalRayCast@VTriangleV@Gu@physx@@VCapsuleV@23@V123@V423@@Gu@physx@@YA_NAEAVTriangleV@01@AEAVCapsuleV@01@AEBT__m128@@22AEAT4@33M_N@Z 000000018008fc10 f i GuGJKWrapper.obj
 0001:0008fcc0       ??$gjkLocalRayCast@VTriangleV@Gu@physx@@VConvexHullV@23@V123@VShrunkConvexHullV@23@@Gu@physx@@YA_NAEAVTriangleV@01@AEAVConvexHullV@01@AEBT__m128@@22AEAT4@33M_N@Z 0000000180090cc0 f i GuGJKWrapper.obj
 0001:000913f0       ??$gjkRelative@VBoxV@Gu@physx@@V123@@Gu@physx@@YAIAEBVBoxV@01@0AEBVPsMatTransformV@aos@shdfnd@1@AEAT__m128@@222@Z 00000001800923f0 f i GuGJKWrapper.obj
 0001:00092170       ??$gjkRelative@VBoxV@Gu@physx@@VConvexHullV@23@@Gu@physx@@YAIAEBVBoxV@01@AEBVConvexHullV@01@AEBVPsMatTransformV@aos@shdfnd@1@AEAT__m128@@333@Z 0000000180093170 f i GuGJKWrapper.obj
 0001:00093210       ??$gjkRelative@VCapsuleV@Gu@physx@@VBoxV@23@@Gu@physx@@YAIAEBVCapsuleV@01@AEBVBoxV@01@AEBVPsMatTransformV@aos@shdfnd@1@AEAT__m128@@333@Z 0000000180094210 f i GuGJKWrapper.obj
 0001:00093fd0       ??$gjkRelative@VCapsuleV@Gu@physx@@VConvexHullV@23@@Gu@physx@@YAIAEBVCapsuleV@01@AEBVConvexHullV@01@AEBVPsMatTransformV@aos@shdfnd@1@AEAT__m128@@333@Z 0000000180094fd0 f i GuGJKWrapper.obj
 0001:000950a0       ??$gjkRelative@VConvexHullV@Gu@physx@@V123@@Gu@physx@@YAIAEBVConvexHullV@01@0AEBVPsMatTransformV@aos@shdfnd@1@AEAT__m128@@222@Z 00000001800960a0 f i GuGJKWrapper.obj
 0001:00096480       ??$gjkRelative@VTriangleV@Gu@physx@@VBoxV@23@@Gu@physx@@YAIAEBVTriangleV@01@AEBVBoxV@01@AEBVPsMatTransformV@aos@shdfnd@1@AEAT__m128@@333@Z 0000000180097480 f i GuGJKWrapper.obj
 0001:00097290       ??$gjkRelative@VTriangleV@Gu@physx@@VConvexHullV@23@@Gu@physx@@YAIAEBVTriangleV@01@AEBVConvexHullV@01@AEBVPsMatTransformV@aos@shdfnd@1@AEAT__m128@@333@Z 0000000180098290 f i GuGJKWrapper.obj
 0001:00098390       ??$gjkRelativeRayCast@VBoxV@Gu@physx@@V123@VShrunkBoxV@23@V423@@Gu@physx@@YA_NAEAVBoxV@01@0AEBVPsMatTransformV@aos@shdfnd@1@AEBT__m128@@22AEAT6@33M_N@Z 0000000180099390 f i GuGJKWrapper.obj
 0001:00099370       ??$gjkRelativeRayCast@VBoxV@Gu@physx@@VConvexHullV@23@VShrunkBoxV@23@VShrunkConvexHullV@23@@Gu@physx@@YA_NAEAVBoxV@01@AEAVConvexHullV@01@AEBVPsMatTransformV@aos@shdfnd@1@AEBT__m128@@33AEAT7@44M_N@Z 000000018009a370 f i GuGJKWrapper.obj
 0001:0009a9b0       ??$gjkRelativeRayCast@VCapsuleV@Gu@physx@@V123@V123@V123@@Gu@physx@@YA_NAEAVCapsuleV@01@0AEBVPsMatTransformV@aos@shdfnd@1@AEBT__m128@@22AEAT6@33M_N@Z 000000018009b9b0 f i GuGJKWrapper.obj
 0001:0009b9e0       ??$gjkRelativeRayCast@VCapsuleV@Gu@physx@@VBoxV@23@V123@VShrunkBoxV@23@@Gu@physx@@YA_NAEAVCapsuleV@01@AEAVBoxV@01@AEBVPsMatTransformV@aos@shdfnd@1@AEBT__m128@@33AEAT7@44M_N@Z 000000018009c9e0 f i GuGJKWrapper.obj
 0001:0009c9f0       ??$gjkRelativeRayCast@VCapsuleV@Gu@physx@@VConvexHullV@23@V123@VShrunkConvexHullV@23@@Gu@physx@@YA_NAEAVCapsuleV@01@AEAVConvexHullV@01@AEBVPsMatTransformV@aos@shdfnd@1@AEBT__m128@@33AEAT7@44M_N@Z 000000018009d9f0 f i GuGJKWrapper.obj
 0001:0009e060       ??$gjkRelativeRayCast@VConvexHullV@Gu@physx@@V123@VShrunkConvexHullV@23@V423@@Gu@physx@@YA_NAEAVConvexHullV@01@0AEBVPsMatTransformV@aos@shdfnd@1@AEBT__m128@@22AEAT6@33M_N@Z 000000018009f060 f i GuGJKWrapper.obj
 0001:0009fb10       ??$gjkRelativeRayCast@VTriangleV@Gu@physx@@VBoxV@23@V123@VShrunkBoxV@23@@Gu@physx@@YA_NAEAVTriangleV@01@AEAVBoxV@01@AEBVPsMatTransformV@aos@shdfnd@1@AEBT__m128@@33AEAT7@44M_N@Z 00000001800a0b10 f i GuGJKWrapper.obj
 0001:000a0b90       ??$gjkRelativeRayCast@VTriangleV@Gu@physx@@VCapsuleV@23@V123@V423@@Gu@physx@@YA_NAEAVTriangleV@01@AEAVCapsuleV@01@AEBVPsMatTransformV@aos@shdfnd@1@AEBT__m128@@33AEAT7@44M_N@Z 00000001800a1b90 f i GuGJKWrapper.obj
 0001:000a1c60       ??$gjkRelativeRayCast@VTriangleV@Gu@physx@@VConvexHullV@23@V123@VShrunkConvexHullV@23@@Gu@physx@@YA_NAEAVTriangleV@01@AEAVConvexHullV@01@AEBVPsMatTransformV@aos@shdfnd@1@AEBT__m128@@33AEAT7@44M_N@Z 00000001800a2c60 f i GuGJKWrapper.obj
 0001:000a3380       ??$gjkRelativeTesselation@VBoxV@Gu@physx@@VConvexHullV@23@@Gu@physx@@YAIAEBVBoxV@01@AEBVConvexHullV@01@AEBVPsMatTransformV@aos@shdfnd@1@AEBT__m128@@AEAT7@444@Z 00000001800a4380 f i GuGJKWrapper.obj
 0001:000a34b0       ??$gjkRelativeTesselation@VConvexHullV@Gu@physx@@V123@@Gu@physx@@YAIAEBVConvexHullV@01@0AEBVPsMatTransformV@aos@shdfnd@1@AEBT__m128@@AEAT6@333@Z 00000001800a44b0 f i GuGJKWrapper.obj
 0001:000a35e0       ??1SupportMap@Gu@physx@@UEAA@XZ 00000001800a45e0 f i GuGJKWrapper.obj
 0001:000a35f0       ??_G?$EPASupportMapPairLocalImpl@VTriangleV@Gu@physx@@VCapsuleV@23@@Gu@physx@@UEAAPEAXI@Z 00000001800a45f0 f i GuGJKWrapper.obj
 0001:000a35f0       ??_E?$EPASupportMapPairLocalImpl@VTriangleV@Gu@physx@@VCapsuleV@23@@Gu@physx@@UEAAPEAXI@Z 00000001800a45f0 f i GuGJKWrapper.obj
 0001:000a3620       ??_G?$EPASupportMapPairRelativeImpl@VCapsuleV@Gu@physx@@V123@@Gu@physx@@UEAAPEAXI@Z 00000001800a4620 f i GuGJKWrapper.obj
 0001:000a3620       ??_E?$EPASupportMapPairRelativeImpl@VCapsuleV@Gu@physx@@V123@@Gu@physx@@UEAAPEAXI@Z 00000001800a4620 f i GuGJKWrapper.obj
 0001:000a3650       ??_G?$EPASupportMapPairRelativeImpl@VCapsuleV@Gu@physx@@VBoxV@23@@Gu@physx@@UEAAPEAXI@Z 00000001800a4650 f i GuGJKWrapper.obj
 0001:000a3650       ??_E?$EPASupportMapPairRelativeImpl@VCapsuleV@Gu@physx@@VBoxV@23@@Gu@physx@@UEAAPEAXI@Z 00000001800a4650 f i GuGJKWrapper.obj
 0001:000a3680       ??_E?$EPASupportMapPairRelativeImpl@VCapsuleV@Gu@physx@@VConvexHullV@23@@Gu@physx@@UEAAPEAXI@Z 00000001800a4680 f i GuGJKWrapper.obj
 0001:000a3680       ??_G?$EPASupportMapPairRelativeImpl@VCapsuleV@Gu@physx@@VConvexHullV@23@@Gu@physx@@UEAAPEAXI@Z 00000001800a4680 f i GuGJKWrapper.obj
 0001:000a36b0       ??_G?$EPASupportMapPairRelativeImpl@VTriangleV@Gu@physx@@VBoxV@23@@Gu@physx@@UEAAPEAXI@Z 00000001800a46b0 f i GuGJKWrapper.obj
 0001:000a36b0       ??_E?$EPASupportMapPairRelativeImpl@VTriangleV@Gu@physx@@VBoxV@23@@Gu@physx@@UEAAPEAXI@Z 00000001800a46b0 f i GuGJKWrapper.obj
 0001:000a36e0       ??_E?$EPASupportMapPairRelativeImpl@VTriangleV@Gu@physx@@VCapsuleV@23@@Gu@physx@@UEAAPEAXI@Z 00000001800a46e0 f i GuGJKWrapper.obj
 0001:000a36e0       ??_G?$EPASupportMapPairRelativeImpl@VTriangleV@Gu@physx@@VCapsuleV@23@@Gu@physx@@UEAAPEAXI@Z 00000001800a46e0 f i GuGJKWrapper.obj
 0001:000a3710       ??_G?$EPASupportMapPairRelativeImpl@VTriangleV@Gu@physx@@VConvexHullV@23@@Gu@physx@@UEAAPEAXI@Z 00000001800a4710 f i GuGJKWrapper.obj
 0001:000a3710       ??_E?$EPASupportMapPairRelativeImpl@VTriangleV@Gu@physx@@VConvexHullV@23@@Gu@physx@@UEAAPEAXI@Z 00000001800a4710 f i GuGJKWrapper.obj
 0001:000a3740       ??_G?$SupportMapLocalImpl@VConvexHullV@Gu@physx@@@Gu@physx@@UEAAPEAXI@Z 00000001800a4740 f i GuGJKWrapper.obj
 0001:000a3740       ??_E?$SupportMapLocalImpl@VConvexHullV@Gu@physx@@@Gu@physx@@UEAAPEAXI@Z 00000001800a4740 f i GuGJKWrapper.obj
 0001:000a3770       ??_G?$SupportMapRelativeImpl@VBoxV@Gu@physx@@@Gu@physx@@UEAAPEAXI@Z 00000001800a4770 f i GuGJKWrapper.obj
 0001:000a3770       ??_E?$SupportMapRelativeImpl@VBoxV@Gu@physx@@@Gu@physx@@UEAAPEAXI@Z 00000001800a4770 f i GuGJKWrapper.obj
 0001:000a37a0       ??_G?$SupportMapRelativeImpl@VConvexHullV@Gu@physx@@@Gu@physx@@UEAAPEAXI@Z 00000001800a47a0 f i GuGJKWrapper.obj
 0001:000a37a0       ??_E?$SupportMapRelativeImpl@VConvexHullV@Gu@physx@@@Gu@physx@@UEAAPEAXI@Z 00000001800a47a0 f i GuGJKWrapper.obj
 0001:000a37d0       ??_ESupportMap@Gu@physx@@UEAAPEAXI@Z 00000001800a47d0 f i GuGJKWrapper.obj
 0001:000a37d0       ??_GSupportMap@Gu@physx@@UEAAPEAXI@Z 00000001800a47d0 f i GuGJKWrapper.obj
 0001:000a3800       ?doSupport@?$EPASupportMapPairLocalImpl@VTriangleV@Gu@physx@@VCapsuleV@23@@Gu@physx@@UEBAXAEBT__m128@@AEAT4@11@Z 00000001800a4800 f i GuGJKWrapper.obj
 0001:000a3920       ?doSupport@?$EPASupportMapPairRelativeImpl@VCapsuleV@Gu@physx@@V123@@Gu@physx@@UEBAXAEBT__m128@@AEAT4@11@Z 00000001800a4920 f i GuGJKWrapper.obj
 0001:000a3a90       ?doSupport@?$EPASupportMapPairRelativeImpl@VCapsuleV@Gu@physx@@VBoxV@23@@Gu@physx@@UEBAXAEBT__m128@@AEAT4@11@Z 00000001800a4a90 f i GuGJKWrapper.obj
 0001:000a3bd0       ?doSupport@?$EPASupportMapPairRelativeImpl@VCapsuleV@Gu@physx@@VConvexHullV@23@@Gu@physx@@UEBAXAEBT__m128@@AEAT4@11@Z 00000001800a4bd0 f i GuGJKWrapper.obj
 0001:000a40a0       ?doSupport@?$EPASupportMapPairRelativeImpl@VTriangleV@Gu@physx@@VBoxV@23@@Gu@physx@@UEBAXAEBT__m128@@AEAT4@11@Z 00000001800a50a0 f i GuGJKWrapper.obj
 0001:000a4240       ?doSupport@?$EPASupportMapPairRelativeImpl@VTriangleV@Gu@physx@@VCapsuleV@23@@Gu@physx@@UEBAXAEBT__m128@@AEAT4@11@Z 00000001800a5240 f i GuGJKWrapper.obj
 0001:000a4400       ?doSupport@?$EPASupportMapPairRelativeImpl@VTriangleV@Gu@physx@@VConvexHullV@23@@Gu@physx@@UEBAXAEBT__m128@@AEAT4@11@Z 00000001800a5400 f i GuGJKWrapper.obj
 0001:000a4930       ?doSupport@?$SupportMapLocalImpl@VConvexHullV@Gu@physx@@@Gu@physx@@UEBA?AT__m128@@AEBT4@@Z 00000001800a5930 f i GuGJKWrapper.obj
 0001:000a4cd0       ?doSupport@?$SupportMapRelativeImpl@VBoxV@Gu@physx@@@Gu@physx@@UEBA?AT__m128@@AEBT4@@Z 00000001800a5cd0 f i GuGJKWrapper.obj
 0001:000a4da0       ?doSupport@?$SupportMapRelativeImpl@VConvexHullV@Gu@physx@@@Gu@physx@@UEBA?AT__m128@@AEBT4@@Z 00000001800a5da0 f i GuGJKWrapper.obj
 0001:000a51d0       ?doSupportSweep@?$SupportMapLocalImpl@VConvexHullV@Gu@physx@@@Gu@physx@@UEBA?AT__m128@@AEBT4@@Z 00000001800a61d0 f i GuGJKWrapper.obj
 0001:000a5570       ?doSupportSweep@?$SupportMapRelativeImpl@VBoxV@Gu@physx@@@Gu@physx@@UEBA?AT__m128@@AEBT4@@Z 00000001800a6570 f i GuGJKWrapper.obj
 0001:000a5640       ?doSupportSweep@?$SupportMapRelativeImpl@VConvexHullV@Gu@physx@@@Gu@physx@@UEBA?AT__m128@@AEBT4@@Z 00000001800a6640 f i GuGJKWrapper.obj
 0001:000a5a70       ?doWarmStartSupport@?$EPASupportMapPairLocalImpl@VTriangleV@Gu@physx@@VCapsuleV@23@@Gu@physx@@UEBAXHHAEAT__m128@@00@Z 00000001800a6a70 f i GuGJKWrapper.obj
 0001:000a5ac0       ?doWarmStartSupport@?$EPASupportMapPairRelativeImpl@VCapsuleV@Gu@physx@@V123@@Gu@physx@@UEBAXHHAEAT__m128@@00@Z 00000001800a6ac0 f i GuGJKWrapper.obj
 0001:000a5b40       ?doWarmStartSupport@?$EPASupportMapPairRelativeImpl@VCapsuleV@Gu@physx@@VBoxV@23@@Gu@physx@@UEBAXHHAEAT__m128@@00@Z 00000001800a6b40 f i GuGJKWrapper.obj
 0001:000a5bd0       ?doWarmStartSupport@?$EPASupportMapPairRelativeImpl@VCapsuleV@Gu@physx@@VConvexHullV@23@@Gu@physx@@UEBAXHHAEAT__m128@@00@Z 00000001800a6bd0 f i GuGJKWrapper.obj
 0001:000a5c90       ?doWarmStartSupport@?$EPASupportMapPairRelativeImpl@VTriangleV@Gu@physx@@VBoxV@23@@Gu@physx@@UEBAXHHAEAT__m128@@00@Z 00000001800a6c90 f i GuGJKWrapper.obj
 0001:000a5d20       ?doWarmStartSupport@?$EPASupportMapPairRelativeImpl@VTriangleV@Gu@physx@@VCapsuleV@23@@Gu@physx@@UEBAXHHAEAT__m128@@00@Z 00000001800a6d20 f i GuGJKWrapper.obj
 0001:000a5da0       ?doWarmStartSupport@?$EPASupportMapPairRelativeImpl@VTriangleV@Gu@physx@@VConvexHullV@23@@Gu@physx@@UEBAXHHAEAT__m128@@00@Z 00000001800a6da0 f i GuGJKWrapper.obj
 0001:000a5e50       ?doWarmStartSupport@?$SupportMapLocalImpl@VConvexHullV@Gu@physx@@@Gu@physx@@UEBAXHAEAT__m128@@@Z 00000001800a6e50 f i GuGJKWrapper.obj
 0001:000a5eb0       ?doWarmStartSupport@?$SupportMapRelativeImpl@VBoxV@Gu@physx@@@Gu@physx@@UEBAXHAEAT__m128@@@Z 00000001800a6eb0 f i GuGJKWrapper.obj
 0001:000a5f10       ?doWarmStartSupport@?$SupportMapRelativeImpl@VConvexHullV@Gu@physx@@@Gu@physx@@UEBAXHAEAT__m128@@@Z 00000001800a6f10 f i GuGJKWrapper.obj
 0001:000a5fa0       ?getDir@?$EPASupportMapPairLocalImpl@VTriangleV@Gu@physx@@VCapsuleV@23@@Gu@physx@@UEBA?AT__m128@@XZ 00000001800a6fa0 f i GuGJKWrapper.obj
 0001:000a5fc0       ?getDir@?$EPASupportMapPairRelativeImpl@VCapsuleV@Gu@physx@@V123@@Gu@physx@@UEBA?AT__m128@@XZ 00000001800a6fc0 f i GuGJKWrapper.obj
 0001:000a5fd0       ?getDir@?$EPASupportMapPairRelativeImpl@VCapsuleV@Gu@physx@@VBoxV@23@@Gu@physx@@UEBA?AT__m128@@XZ 00000001800a6fd0 f i GuGJKWrapper.obj
 0001:000a5fe0       ?getDir@?$EPASupportMapPairRelativeImpl@VCapsuleV@Gu@physx@@VConvexHullV@23@@Gu@physx@@UEBA?AT__m128@@XZ 00000001800a6fe0 f i GuGJKWrapper.obj
 0001:000a5ff0       ?getDir@?$EPASupportMapPairRelativeImpl@VTriangleV@Gu@physx@@VBoxV@23@@Gu@physx@@UEBA?AT__m128@@XZ 00000001800a6ff0 f i GuGJKWrapper.obj
 0001:000a6000       ?getDir@?$EPASupportMapPairRelativeImpl@VTriangleV@Gu@physx@@VCapsuleV@23@@Gu@physx@@UEBA?AT__m128@@XZ 00000001800a7000 f i GuGJKWrapper.obj
 0001:000a6010       ?getDir@?$EPASupportMapPairRelativeImpl@VTriangleV@Gu@physx@@VConvexHullV@23@@Gu@physx@@UEBA?AT__m128@@XZ 00000001800a7010 f i GuGJKWrapper.obj
 0001:000a6020       ?create@BoxV@Gu@physx@@QEAAXAEBVCapsuleV@23@@Z 00000001800a7020 f   GuVecBox.obj
 0001:000a61e0       ?isInside@BoxV@Gu@physx@@QEBAIAEBV123@@Z 00000001800a71e0 f   GuVecBox.obj
 0001:000a6420       ?intersectOBBOBB@Gu@physx@@YA_NAEBVPxVec3@2@0AEBVPxMat33@2@001_N@Z 00000001800a7420 f   GuIntersectionBoxBox.obj
 0001:000a6a90       ?intersectEdgeEdge@Gu@physx@@YA_NAEBVPxVec3@2@0000AEAMAEAV32@@Z 00000001800a7a90 f   GuIntersectionEdgeEdge.obj
 0001:000a6dc0       ?rayAABBIntersect@Gu@physx@@YA_NAEBVPxVec3@2@000AEAV32@@Z 00000001800a7dc0 f   GuIntersectionRayBox.obj
 0001:000a6fc0       ?rayAABBIntersect2@Gu@physx@@YAIAEBVPxVec3@2@000AEAV32@AEAM@Z 00000001800a7fc0 f   GuIntersectionRayBox.obj
 0001:000a71e0       ?intersectRayAABB@Gu@physx@@YAHAEBVPxVec3@2@000AEAM1@Z 00000001800a81e0 f   GuIntersectionRayBox.obj
 0001:000a7300       ?intersectRayAABB@Gu@physx@@YAHAEBVPxVec3@2@0000AEAM1@Z 00000001800a8300 f   GuIntersectionRayBox.obj
 0001:000a74d0       ?intersectRayAABB2@Gu@physx@@YA_NAEBVPxVec3@2@000MAEAM1@Z 00000001800a84d0 f   GuIntersectionRayBox.obj
 0001:000a76c0       ?intersectRayAABB@Gu@physx@@YAHAEBT__m128@@000AEAT3@1@Z 00000001800a86c0 f   GuIntersectionRayBox.obj
 0001:000a78e0       ?intersectRayAABB@Gu@physx@@YAHAEBT__m128@@0000AEAT3@1@Z 00000001800a88e0 f   GuIntersectionRayBox.obj
 0001:000a7af0       ?intersectRayAABB2@Gu@physx@@YA_NAEBT__m128@@0000AEAT3@1@Z 00000001800a8af0 f   GuIntersectionRayBox.obj
 0001:000a7bc0       ?intersectRayCapsule@Gu@physx@@YAIAEBVPxVec3@2@0AEBVCapsule@12@QEAM@Z 00000001800a8bc0 f   GuIntersectionRayCapsule.obj
 0001:000a8420       ?intersectRaySphereBasic@Gu@physx@@YA_NAEBVPxVec3@2@0M0MAEAMPEAV32@@Z 00000001800a9420 f   GuIntersectionRaySphere.obj
 0001:000a8580       ?intersectRaySphere@Gu@physx@@YA_NAEBVPxVec3@2@0M0MAEAMPEAV32@@Z 00000001800a9580 f   GuIntersectionRaySphere.obj
 0001:000a8690       ?intersectRayTriangleCulling@Gu@physx@@YA_NAEBVPxVec3@2@0000AEAM11M@Z 00000001800a9690 f   GuIntersectionRayTriangle.obj
 0001:000a8920       ?intersectRayTriangleNoCulling@Gu@physx@@YA_NAEBVPxVec3@2@0000AEAM11M@Z 00000001800a9920 f   GuIntersectionRayTriangle.obj
 0001:000a8bb0       ??0OBBTriangleTest@Gu@physx@@QEAA@AEBVBox@12@@Z 00000001800a9bb0 f   GuIntersectionTriangleBox.obj
 0001:000a8da0       ?obbTriTest@OBBTriangleTest@Gu@physx@@QEBAHAEBVPxVec3@3@00@Z 00000001800a9da0 f   GuIntersectionTriangleBox.obj
 0001:000a96a0       ?intersectTriangleBox@Gu@physx@@YAHAEBVPxVec3@2@0000@Z 00000001800aa6a0 f   GuIntersectionTriangleBox.obj
 0001:000a9f00       ?intersectTriangleBox@Gu@physx@@YA_NAEBT__m128@@0000@Z 00000001800aaf00 f   GuIntersectionTriangleBox.obj
 0001:000aa7f0       ??0RTreeMidphase@Gu@physx@@QEAA@XZ 00000001800ab7f0 f   GuHybridModel.obj
 0001:000aa820       ??1RTreeMidphase@Gu@physx@@QEAA@XZ 00000001800ab820 f   GuHybridModel.obj
 0001:000aa830       ?exportExtraData@RTreeMidphase@Gu@physx@@QEAAXAEAVPxSerializationContext@3@@Z 00000001800ab830 f   GuHybridModel.obj
 0001:000aa840       ?importExtraData@RTreeMidphase@Gu@physx@@QEAAXAEAVPxDeserializationContext@3@@Z 00000001800ab840 f   GuHybridModel.obj
 0001:000aa850       ?exportExtraData@InternalTriangleMesh@physx@@QEAAXAEAVPxSerializationContext@2@@Z 00000001800ab850 f   GuInternalTriangleMesh.obj
 0001:000aa9c0       ?importExtraData@InternalTriangleMesh@physx@@QEAAXAEAVPxDeserializationContext@2@@Z 00000001800ab9c0 f   GuInternalTriangleMesh.obj
 0001:000aab30       ??0InternalTriangleMesh@physx@@QEAA@XZ 00000001800abb30 f   GuInternalTriangleMesh.obj
 0001:000aabd0       ??1InternalTriangleMesh@physx@@QEAA@XZ 00000001800abbd0 f   GuInternalTriangleMesh.obj
 0001:000aac00       ?release@InternalTriangleMesh@physx@@QEAAXXZ 00000001800abc00 f   GuInternalTriangleMesh.obj
 0001:000aace0       ?allocateVertices@InternalTriangleMesh@physx@@QEAAPEAVPxVec3@2@I@Z 00000001800abce0 f   GuInternalTriangleMesh.obj
 0001:000aad20       ?allocateTriangles@InternalTriangleMesh@physx@@QEAAPEAXI_N@Z 00000001800abd20 f   GuInternalTriangleMesh.obj
 0001:000aadb0       ?allocateMaterials@InternalTriangleMesh@physx@@QEAAPEAGXZ 00000001800abdb0 f   GuInternalTriangleMesh.obj
 0001:000aae80       ?allocateFaceRemap@InternalTriangleMesh@physx@@QEAAPEAIXZ 00000001800abe80 f   GuInternalTriangleMesh.obj
 0001:000aaf50       ?allocateAdjacencies@InternalTriangleMesh@physx@@QEAAPEAIXZ 00000001800abf50 f   GuInternalTriangleMesh.obj
 0001:000ab020       ?loadRTree@InternalTriangleMesh@physx@@QEAA_NAEAVPxInputStream@2@I@Z 00000001800ac020 f   GuInternalTriangleMesh.obj
 0001:000ab0f0       ?setupMeshInterface@InternalTriangleMesh@physx@@QEAAXXZ 00000001800ac0f0 f   GuInternalTriangleMesh.obj
 0001:000ab130       ??0MeshInterface@Gu@physx@@QEAA@XZ 00000001800ac130 f   GuMeshInterface.obj
 0001:000ab150       ??1MeshInterface@Gu@physx@@QEAA@XZ 00000001800ac150 f   GuMeshInterface.obj
 0001:000ab160       ?SetPointers@MeshInterface@Gu@physx@@QEAA_NPEBX_NPEBVPxVec3@3@@Z 00000001800ac160 f   GuMeshInterface.obj
 0001:000ab1c0       ?IsValid@MeshInterface@Gu@physx@@QEBA_NXZ 00000001800ac1c0 f   GuMeshInterface.obj
 0001:000ab1f0       ?CheckTopology@MeshInterface@Gu@physx@@QEBAIXZ 00000001800ac1f0 f   GuMeshInterface.obj
 0001:000ab2a0       ?getTriangle@PxMeshQuery@physx@@SAXAEBVPxTriangleMeshGeometry@2@AEBVPxTransform@2@IAEAVPxTriangle@2@PEAI3@Z 00000001800ac2a0 f   GuMeshQuery.obj
 0001:000ab680       ?getTriangle@PxMeshQuery@physx@@SAXAEBVPxHeightFieldGeometry@2@AEBVPxTransform@2@IAEAVPxTriangle@2@PEAI3@Z 00000001800ac680 f   GuMeshQuery.obj
 0001:000ab700       ?findOverlapTriangleMesh@PxMeshQuery@physx@@SAIAEBVPxGeometry@2@AEBVPxTransform@2@AEBVPxTriangleMeshGeometry@2@1PEAIIIAEA_N@Z 00000001800ac700 f   GuMeshQuery.obj
 0001:000abb00       ?findOverlapHeightField@PxMeshQuery@physx@@SAIAEBVPxGeometry@2@AEBVPxTransform@2@AEBVPxHeightFieldGeometry@2@1PEAIIIAEA_N@Z 00000001800acb00 f   GuMeshQuery.obj
 0001:000abfe0       ?sweep@PxMeshQuery@physx@@SA_NAEBVPxVec3@2@MAEBVPxGeometry@2@AEBVPxTransform@2@IPEBVPxTriangle@2@AEAUPxSweepHit@2@V?$PxFlags@W4Enum@PxHitFlag@physx@@G@2@PEBIM_N@Z 00000001800acfe0 f   GuMeshQuery.obj
 0001:000ac270       ??Dphysx@@YA?AVMatrix34@Cm@0@AEBVPxTransform@0@AEBVPxMeshScale@0@@Z 00000001800ad270 f i GuMeshQuery.obj
 0001:000ac8c0       ??_GHfTrianglesEntityReport2@?A0x4b33f259@@UEAAPEAXI@Z 00000001800ad8c0 f i GuMeshQuery.obj
 0001:000ac8c0       ??_EHfTrianglesEntityReport2@?A0x4b33f259@@UEAAPEAXI@Z 00000001800ad8c0 f i GuMeshQuery.obj
 0001:000ac8f0       ?basisExtent@PxBounds3@physx@@SA?AV12@AEBVPxVec3@2@AEBVPxMat33@2@0@Z 00000001800ad8f0 f i GuMeshQuery.obj
 0001:000acf20       ?poseExtent@PxBounds3@physx@@SA?AV12@AEBVPxTransform@2@AEBVPxVec3@2@@Z 00000001800adf20 f i GuMeshQuery.obj
 0001:000ad0a0       ?collideOBB@MeshRayCollider@Gu@physx@@SAXAEBVBox@23@_NAEBURTreeMidphaseData@23@AEAU?$MeshHitCallback@UPxRaycastHit@physx@@@23@1@Z 00000001800ae0a0 f   GuMidphase.obj
 0001:000ad380       ??$collide@$00$00@MeshRayCollider@Gu@physx@@SAXAEBVPxVec3@2@0M_NAEBURTreeMidphaseData@12@AEAU?$MeshHitCallback@UPxRaycastHit@physx@@@12@PEBV32@@Z 00000001800ae380 f i GuMidphase.obj
 0001:000ad5b0       ??$collide@$00$0A@@MeshRayCollider@Gu@physx@@SAXAEBVPxVec3@2@0M_NAEBURTreeMidphaseData@12@AEAU?$MeshHitCallback@UPxRaycastHit@physx@@@12@PEBV32@@Z 00000001800ae5b0 f i GuMidphase.obj
 0001:000ad7e0       ??$collide@$0A@$00@MeshRayCollider@Gu@physx@@SAXAEBVPxVec3@2@0M_NAEBURTreeMidphaseData@12@AEAU?$MeshHitCallback@UPxRaycastHit@physx@@@12@PEBV32@@Z 00000001800ae7e0 f i GuMidphase.obj
 0001:000ada30       ??$collide@$0A@$0A@@MeshRayCollider@Gu@physx@@SAXAEBVPxVec3@2@0M_NAEBURTreeMidphaseData@12@AEAU?$MeshHitCallback@UPxRaycastHit@physx@@@12@PEBV32@@Z 00000001800aea30 f i GuMidphase.obj
 0001:000adc80       ??0?$RayRTreeCallback@$00$00@@QEAA@AEBURTreeMidphaseData@Gu@physx@@AEAU?$MeshHitCallback@UPxRaycastHit@physx@@@23@IPEA_K2AEBVPxVec3@3@3M_NPEBV53@@Z 00000001800aec80 f i GuMidphase.obj
 0001:000adde0       ??0?$RayRTreeCallback@$00$0A@@@QEAA@AEBURTreeMidphaseData@Gu@physx@@AEAU?$MeshHitCallback@UPxRaycastHit@physx@@@23@IPEA_K2AEBVPxVec3@3@3M_NPEBV53@@Z 00000001800aede0 f i GuMidphase.obj
 0001:000adf40       ??0?$RayRTreeCallback@$0A@$00@@QEAA@AEBURTreeMidphaseData@Gu@physx@@AEAU?$MeshHitCallback@UPxRaycastHit@physx@@@23@IPEA_K2AEBVPxVec3@3@3M_NPEBV53@@Z 00000001800aef40 f i GuMidphase.obj
 0001:000ae080       ??0?$RayRTreeCallback@$0A@$0A@@@QEAA@AEBURTreeMidphaseData@Gu@physx@@AEAU?$MeshHitCallback@UPxRaycastHit@physx@@@23@IPEA_K2AEBVPxVec3@3@3M_NPEBV53@@Z 00000001800af080 f i GuMidphase.obj
 0001:000ae1c0       ??1?$RayRTreeCallback@$00$00@@UEAA@XZ 00000001800af1c0 f i GuMidphase.obj
 0001:000ae250       ??1?$RayRTreeCallback@$00$0A@@@UEAA@XZ 00000001800af250 f i GuMidphase.obj
 0001:000ae2e0       ??1?$RayRTreeCallback@$0A@$00@@UEAA@XZ 00000001800af2e0 f i GuMidphase.obj
 0001:000ae370       ??1?$RayRTreeCallback@$0A@$0A@@@UEAA@XZ 00000001800af370 f i GuMidphase.obj
 0001:000ae400       ??1Callback@RTree@Gu@physx@@UEAA@XZ 00000001800af400 f i GuMidphase.obj
 0001:000ae410       ??1CallbackRaycast@RTree@Gu@physx@@UEAA@XZ 00000001800af410 f i GuMidphase.obj
 0001:000ae41c       ??_E?$RayRTreeCallback@$00$00@@W7EAAPEAXI@Z 00000001800af41c f i GuMidphase.obj
 0001:000ae428       ??_E?$RayRTreeCallback@$00$0A@@@W7EAAPEAXI@Z 00000001800af428 f i GuMidphase.obj
 0001:000ae434       ??_E?$RayRTreeCallback@$0A@$00@@W7EAAPEAXI@Z 00000001800af434 f i GuMidphase.obj
 0001:000ae440       ??_E?$RayRTreeCallback@$0A@$0A@@@W7EAAPEAXI@Z 00000001800af440 f i GuMidphase.obj
 0001:000ae450       ??_E?$RayRTreeCallback@$00$00@@UEAAPEAXI@Z 00000001800af450 f i GuMidphase.obj
 0001:000ae450       ??_G?$RayRTreeCallback@$00$00@@UEAAPEAXI@Z 00000001800af450 f i GuMidphase.obj
 0001:000ae490       ??_G?$RayRTreeCallback@$00$0A@@@UEAAPEAXI@Z 00000001800af490 f i GuMidphase.obj
 0001:000ae490       ??_E?$RayRTreeCallback@$00$0A@@@UEAAPEAXI@Z 00000001800af490 f i GuMidphase.obj
 0001:000ae4d0       ??_G?$RayRTreeCallback@$0A@$00@@UEAAPEAXI@Z 00000001800af4d0 f i GuMidphase.obj
 0001:000ae4d0       ??_E?$RayRTreeCallback@$0A@$00@@UEAAPEAXI@Z 00000001800af4d0 f i GuMidphase.obj
 0001:000ae510       ??_E?$RayRTreeCallback@$0A@$0A@@@UEAAPEAXI@Z 00000001800af510 f i GuMidphase.obj
 0001:000ae510       ??_G?$RayRTreeCallback@$0A@$0A@@@UEAAPEAXI@Z 00000001800af510 f i GuMidphase.obj
 0001:000ae550       ??_GCallback@RTree@Gu@physx@@UEAAPEAXI@Z 00000001800af550 f i GuMidphase.obj
 0001:000ae550       ??_ECallback@RTree@Gu@physx@@UEAAPEAXI@Z 00000001800af550 f i GuMidphase.obj
 0001:000ae580       ??_GCallbackRaycast@RTree@Gu@physx@@UEAAPEAXI@Z 00000001800af580 f i GuMidphase.obj
 0001:000ae580       ??_ECallbackRaycast@RTree@Gu@physx@@UEAAPEAXI@Z 00000001800af580 f i GuMidphase.obj
 0001:000ae5b0       ?processResults@?$RayRTreeCallback@$00$00@@UEAA_NIPEAI@Z 00000001800af5b0 f i GuMidphase.obj
 0001:000ae9a0       ?processResults@?$RayRTreeCallback@$00$00@@UEAA_NIPEAIAEAM@Z 00000001800af9a0 f i GuMidphase.obj
 0001:000aeda0       ?processResults@?$RayRTreeCallback@$00$0A@@@UEAA_NIPEAI@Z 00000001800afda0 f i GuMidphase.obj
 0001:000af050       ?processResults@?$RayRTreeCallback@$00$0A@@@UEAA_NIPEAIAEAM@Z 00000001800b0050 f i GuMidphase.obj
 0001:000af310       ?processResults@?$RayRTreeCallback@$0A@$00@@UEAA_NIPEAI@Z 00000001800b0310 f i GuMidphase.obj
 0001:000af9b0       ?processResults@?$RayRTreeCallback@$0A@$00@@UEAA_NIPEAIAEAM@Z 00000001800b09b0 f i GuMidphase.obj
 0001:000b0040       ?processResults@?$RayRTreeCallback@$0A@$0A@@@UEAA_NIPEAI@Z 00000001800b1040 f i GuMidphase.obj
 0001:000b02f0       ?processResults@?$RayRTreeCallback@$0A@$0A@@@UEAA_NIPEAIAEAM@Z 00000001800b12f0 f i GuMidphase.obj
 0001:000b05b0       ?profile@Callback@RTree@Gu@physx@@UEAAXXZ 00000001800b15b0 f i GuMidphase.obj
 0001:000b05c0       ?findOverlapSphereMesh@Gu@physx@@YAIAEBVSphere@12@AEBVRTreeMidphase@12@AEBVPxTransform@2@AEBVPxMeshScale@2@PEIAIIIAEA_N@Z 00000001800b15c0 f   GuOverlapTestsMesh.obj
 0001:000b0690       ?findOverlapCapsuleMesh@Gu@physx@@YAIAEBVCapsule@12@AEBVRTreeMidphase@12@AEBVPxTransform@2@AEBVPxMeshScale@2@PEIAIIIAEA_N@Z 00000001800b1690 f   GuOverlapTestsMesh.obj
 0001:000b0760       ?findOverlapOBBMesh@Gu@physx@@YAIAEBVBox@12@AEBVRTreeMidphase@12@AEBVPxTransform@2@AEBVPxMeshScale@2@PEIAIIIAEA_N@Z 00000001800b1760 f   GuOverlapTestsMesh.obj
 0001:000b0830       ?checkOverlapOBB_triangleGeom@Gu@physx@@YA_NAEBVPxGeometry@2@AEBVPxTransform@2@AEBVBox@12@@Z 00000001800b1830 f   GuOverlapTestsMesh.obj
 0001:000b08b0       ?checkOverlapSphere_triangleGeom@@YA_NAEBVPxGeometry@physx@@AEBVPxTransform@2@AEBVSphere@Gu@2@@Z 00000001800b18b0 f   GuOverlapTestsMesh.obj
 0001:000b0930       ?checkOverlapCapsule_triangleGeom@@YA_NAEBVPxGeometry@physx@@AEBVPxTransform@2@AEBVCapsule@Gu@2@@Z 00000001800b1930 f   GuOverlapTestsMesh.obj
 0001:000b09b0       ?GeomOverlapCallback_SphereMesh@@YA_NAEBVPxGeometry@physx@@AEBVPxTransform@2@01PEAUTriggerCache@Gu@2@@Z 00000001800b19b0 f   GuOverlapTestsMesh.obj
 0001:000b0a60       ?GeomOverlapCallback_CapsuleMesh@@YA_NAEBVPxGeometry@physx@@AEBVPxTransform@2@01PEAUTriggerCache@Gu@2@@Z 00000001800b1a60 f   GuOverlapTestsMesh.obj
 0001:000b0be0       ?GeomOverlapCallback_BoxMesh@@YA_NAEBVPxGeometry@physx@@AEBVPxTransform@2@01PEAUTriggerCache@Gu@2@@Z 00000001800b1be0 f   GuOverlapTestsMesh.obj
 0001:000b0e10       ?GeomOverlapCallback_ConvexMesh@@YA_NAEBVPxGeometry@physx@@AEBVPxTransform@2@01PEAUTriggerCache@Gu@2@@Z 00000001800b1e10 f   GuOverlapTestsMesh.obj
 0001:000b33c0       ??0ConvexVsMeshOverlapCallback@@QEAA@AEBVConvexMesh@Gu@physx@@AEBVPxMeshScale@3@AEBVFastVertex2ShapeScaling@Cm@3@AEBVPxTransform@3@3_NAEBVBox@23@@Z 00000001800b43c0 f i GuOverlapTestsMesh.obj
 0001:000b3ea0       ??1?$IntersectAnyVsMeshCallback@$00$00@@UEAA@XZ 00000001800b4ea0 f i GuOverlapTestsMesh.obj
 0001:000b3eb0       ??1?$IntersectAnyVsMeshCallback@$00$0A@@@UEAA@XZ 00000001800b4eb0 f i GuOverlapTestsMesh.obj
 0001:000b3ec0       ??1?$IntersectAnyVsMeshCallback@$01$00@@UEAA@XZ 00000001800b4ec0 f i GuOverlapTestsMesh.obj
 0001:000b3ed0       ??1?$IntersectAnyVsMeshCallback@$01$0A@@@UEAA@XZ 00000001800b4ed0 f i GuOverlapTestsMesh.obj
 0001:000b3ee0       ??1?$IntersectAnyVsMeshCallback@$0A@$00@@UEAA@XZ 00000001800b4ee0 f i GuOverlapTestsMesh.obj
 0001:000b3ef0       ??1?$IntersectAnyVsMeshCallback@$0A@$0A@@@UEAA@XZ 00000001800b4ef0 f i GuOverlapTestsMesh.obj
 0001:000b3f00       ??1ConvexVsMeshOverlapCallback@@UEAA@XZ 00000001800b4f00 f i GuOverlapTestsMesh.obj
 0001:000b3f10       ??_G?$IntersectAnyVsMeshCallback@$00$00@@UEAAPEAXI@Z 00000001800b4f10 f i GuOverlapTestsMesh.obj
 0001:000b3f10       ??_E?$IntersectAnyVsMeshCallback@$00$00@@UEAAPEAXI@Z 00000001800b4f10 f i GuOverlapTestsMesh.obj
 0001:000b3f40       ??_E?$IntersectAnyVsMeshCallback@$00$0A@@@UEAAPEAXI@Z 00000001800b4f40 f i GuOverlapTestsMesh.obj
 0001:000b3f40       ??_G?$IntersectAnyVsMeshCallback@$00$0A@@@UEAAPEAXI@Z 00000001800b4f40 f i GuOverlapTestsMesh.obj
 0001:000b3f70       ??_G?$IntersectAnyVsMeshCallback@$01$00@@UEAAPEAXI@Z 00000001800b4f70 f i GuOverlapTestsMesh.obj
 0001:000b3f70       ??_E?$IntersectAnyVsMeshCallback@$01$00@@UEAAPEAXI@Z 00000001800b4f70 f i GuOverlapTestsMesh.obj
 0001:000b3fa0       ??_E?$IntersectAnyVsMeshCallback@$01$0A@@@UEAAPEAXI@Z 00000001800b4fa0 f i GuOverlapTestsMesh.obj
 0001:000b3fa0       ??_G?$IntersectAnyVsMeshCallback@$01$0A@@@UEAAPEAXI@Z 00000001800b4fa0 f i GuOverlapTestsMesh.obj
 0001:000b3fd0       ??_E?$IntersectAnyVsMeshCallback@$0A@$00@@UEAAPEAXI@Z 00000001800b4fd0 f i GuOverlapTestsMesh.obj
 0001:000b3fd0       ??_G?$IntersectAnyVsMeshCallback@$0A@$00@@UEAAPEAXI@Z 00000001800b4fd0 f i GuOverlapTestsMesh.obj
 0001:000b4000       ??_E?$IntersectAnyVsMeshCallback@$0A@$0A@@@UEAAPEAXI@Z 00000001800b5000 f i GuOverlapTestsMesh.obj
 0001:000b4000       ??_G?$IntersectAnyVsMeshCallback@$0A@$0A@@@UEAAPEAXI@Z 00000001800b5000 f i GuOverlapTestsMesh.obj
 0001:000b4030       ??_GConvexVsMeshOverlapCallback@@UEAAPEAXI@Z 00000001800b5030 f i GuOverlapTestsMesh.obj
 0001:000b4030       ??_EConvexVsMeshOverlapCallback@@UEAAPEAXI@Z 00000001800b5030 f i GuOverlapTestsMesh.obj
 0001:000b4060       ?computeSweptAABBAroundOBB@Gu@physx@@YAXAEBVBox@12@AEAVPxVec3@2@11AEAM@Z 00000001800b5060 f i GuOverlapTestsMesh.obj
 0001:000b4220       ?processHit@?$IntersectAnyVsMeshCallback@$00$00@@UEAA_NAEBUPxRaycastHit@physx@@AEBVPxVec3@3@11AEAMPEBI@Z 00000001800b5220 f i GuOverlapTestsMesh.obj
 0001:000b43b0       ?processHit@?$IntersectAnyVsMeshCallback@$00$0A@@@UEAA_NAEBUPxRaycastHit@physx@@AEBVPxVec3@3@11AEAMPEBI@Z 00000001800b53b0 f i GuOverlapTestsMesh.obj
 0001:000b4670       ?processHit@?$IntersectAnyVsMeshCallback@$01$00@@UEAA_NAEBUPxRaycastHit@physx@@AEBVPxVec3@3@11AEAMPEBI@Z 00000001800b5670 f i GuOverlapTestsMesh.obj
 0001:000b48d0       ?processHit@?$IntersectAnyVsMeshCallback@$01$0A@@@UEAA_NAEBUPxRaycastHit@physx@@AEBVPxVec3@3@11AEAMPEBI@Z 00000001800b58d0 f i GuOverlapTestsMesh.obj
 0001:000b4b40       ?processHit@?$IntersectAnyVsMeshCallback@$0A@$00@@UEAA_NAEBUPxRaycastHit@physx@@AEBVPxVec3@3@11AEAMPEBI@Z 00000001800b5b40 f i GuOverlapTestsMesh.obj
 0001:000b4cb0       ?processHit@?$IntersectAnyVsMeshCallback@$0A@$0A@@@UEAA_NAEBUPxRaycastHit@physx@@AEBVPxVec3@3@11AEAMPEBI@Z 00000001800b5cb0 f i GuOverlapTestsMesh.obj
 0001:000b4f50       ?processHit@ConvexVsMeshOverlapCallback@@UEAA_NAEBUPxRaycastHit@physx@@AEBVPxVec3@3@11AEAMPEBI@Z 00000001800b5f50 f i GuOverlapTestsMesh.obj
 0001:000b52d0       ?transformBoxOrthonormal@physx@@YA?AVBox@Gu@1@AEBV231@AEBVPxTransform@1@@Z 00000001800b62d0 f i GuOverlapTestsMesh.obj
 0001:000b5780       ??0RTree@Gu@physx@@QEAA@AEBW4PxEMPTY@2@@Z 00000001800b6780 f   GuRTree.obj
 0001:000b5790       ?exportExtraData@RTree@Gu@physx@@QEAAXAEAVPxSerializationContext@3@@Z 00000001800b6790 f   GuRTree.obj
 0001:000b57e0       ?importExtraData@RTree@Gu@physx@@QEAAXAEAVPxDeserializationContext@3@@Z 00000001800b67e0 f   GuRTree.obj
 0001:000b5810       ??0RTree@Gu@physx@@QEAA@XZ 00000001800b6810 f   GuRTree.obj
 0001:000b5830       ?release@RTree@Gu@physx@@QEAAXXZ 00000001800b6830 f   GuRTree.obj
 0001:000b5870       ?save@RTree@Gu@physx@@QEBA_NAEAVPxOutputStream@3@@Z 00000001800b6870 f   GuRTree.obj
 0001:000b5a50       ?load@RTree@Gu@physx@@QEAA_NAEAVPxInputStream@3@I@Z 00000001800b6a50 f   GuRTree.obj
 0001:000b5cd0       ?validate@RTree@Gu@physx@@QEAAXXZ 00000001800b6cd0 f   GuRTree.obj
 0001:000b5d30       ?computeBottomLevelCount@RTree@Gu@physx@@QEBAII@Z 00000001800b6d30 f   GuRTree.obj
 0001:000b5e20       ?validateRecursive@RTree@Gu@physx@@IEAAXIURTreeNodeQ@23@PEAURTreePage@23@@Z 00000001800b6e20 f   GuRTree.obj
 0001:000b5f40       ?traverseAABB@RTree@Gu@physx@@QEBAXAEBVPxVec3@3@0IPEAIPEAUCallback@123@@Z 00000001800b6f40 f   GuRTreeQueries.obj
 0001:000b6170       ?traverseOBB@RTree@Gu@physx@@QEBAXAEBVBox@23@IPEAIPEAUCallback@123@@Z 00000001800b7170 f   GuRTreeQueries.obj
 0001:000b6b10       ??$traverseRay@$00@RTree@Gu@physx@@QEBAXAEBVPxVec3@2@0IPEAIPEAUCallbackRaycast@012@PEBV32@M@Z 00000001800b7b10 f i GuRTreeQueries.obj
 0001:000b6f00       ??$traverseRay@$0A@@RTree@Gu@physx@@QEBAXAEBVPxVec3@2@0IPEAIPEAUCallbackRaycast@012@PEBV32@M@Z 00000001800b7f00 f i GuRTreeQueries.obj
 0001:000b7290       ?sweepCapsule_MeshGeom@@YA_NAEBVPxGeometry@physx@@AEBVPxTransform@2@AEBVCapsule@Gu@2@AEBVPxVec3@2@MAEAUPxSweepHit@2@V?$PxFlags@W4Enum@PxHitFlag@physx@@G@2@M@Z 00000001800b8290 f   GuSweepsMesh.obj
 0001:000b7cd0       ?sweepBox_MeshGeom@@YA_NAEBVPxGeometry@physx@@AEBVPxTransform@2@AEBVBox@Gu@2@AEBVPxVec3@2@MAEAUPxSweepHit@2@V?$PxFlags@W4Enum@PxHitFlag@physx@@G@2@M@Z 00000001800b8cd0 f   GuSweepsMesh.obj
 0001:000b9780       ?sweepConvex_MeshGeom@@YA_NAEBVPxGeometry@physx@@AEBVPxTransform@2@AEBVPxConvexMeshGeometry@2@1AEBVPxVec3@2@MAEAUPxSweepHit@2@V?$PxFlags@W4Enum@PxHitFlag@physx@@G@2@M@Z 00000001800ba780 f   GuSweepsMesh.obj
 0001:000ba030       ??0ConvexVsMeshSweepCallback@@QEAA@AEBUConvexHullData@Gu@physx@@AEBVPxMeshScale@3@AEBVFastVertex2ShapeScaling@Cm@3@AEBVPxTransform@3@3AEBVPxVec3@3@MV?$PxFlags@W4Enum@PxHitFlag@physx@@G@3@_NM6@Z 00000001800bb030 f i GuSweepsMesh.obj
 0001:000bab30       ??0SweepBoxMeshHitCallback@@QEAA@W4Enum@CallbackMode@Gu@physx@@AEBVMatrix34Padded@@MM_NAEBVBox@34@AEBVPxVec3@4@44AEBV?$PxFlags@W4Enum@PxHitFlag@physx@@G@4@M@Z 00000001800bbb30 f i GuSweepsMesh.obj
 0001:000bac60       ??1ConvexVsMeshSweepCallback@@UEAA@XZ 00000001800bbc60 f i GuSweepsMesh.obj
 0001:000bac70       ??1SweepBoxMeshHitCallback@@UEAA@XZ 00000001800bbc70 f i GuSweepsMesh.obj
 0001:000bac80       ??_EConvexVsMeshSweepCallback@@UEAAPEAXI@Z 00000001800bbc80 f i GuSweepsMesh.obj
 0001:000bac80       ??_GConvexVsMeshSweepCallback@@UEAAPEAXI@Z 00000001800bbc80 f i GuSweepsMesh.obj
 0001:000bacb0       ??_GSweepBoxMeshHitCallback@@UEAAPEAXI@Z 00000001800bbcb0 f i GuSweepsMesh.obj
 0001:000bacb0       ??_ESweepBoxMeshHitCallback@@UEAAPEAXI@Z 00000001800bbcb0 f i GuSweepsMesh.obj
 0001:000bace0       ??_ESweepCapsuleCallback@@UEAAPEAXI@Z 00000001800bbce0 f i GuSweepsMesh.obj
 0001:000bace0       ??_GSweepCapsuleCallback@@UEAAPEAXI@Z 00000001800bbce0 f i GuSweepsMesh.obj
 0001:000bad10       ?finalize@SweepCapsuleCallback@@QEAA_NAEAUPxSweepHit@physx@@AEBVCapsule@Gu@3@AEBVPxTriangleMeshGeometry@3@AEBVPxTransform@3@_NM@Z 00000001800bbd10 f i GuSweepsMesh.obj
 0001:000baf20       ?processHit@ConvexVsMeshSweepCallback@@UEAA_NAEBUPxRaycastHit@physx@@AEBVPxVec3@3@11AEAMPEBI@Z 00000001800bbf20 f i GuSweepsMesh.obj
 0001:000bb640       ?processHit@SweepBoxMeshHitCallback@@UEAA_NAEBUPxRaycastHit@physx@@AEBVPxVec3@3@11AEAMPEBI@Z 00000001800bc640 f i GuSweepsMesh.obj
 0001:000bbd70       ?processHit@SweepCapsuleCallback@@UEAA_NAEBUPxRaycastHit@physx@@AEBVPxVec3@3@11AEAMPEBI@Z 00000001800bcd70 f i GuSweepsMesh.obj
 0001:000bc5a0       ?onRefCountZero@TriangleMesh@Gu@physx@@UEAAXXZ 00000001800bd5a0 f   GuTriangleMesh.obj
 0001:000bc640       ?exportExtraData@TriangleMesh@Gu@physx@@UEAAXAEAVPxSerializationContext@3@@Z 00000001800bd640 f   GuTriangleMesh.obj
 0001:000bc650       ?importExtraData@TriangleMesh@Gu@physx@@QEAAXAEAVPxDeserializationContext@3@@Z 00000001800bd650 f   GuTriangleMesh.obj
 0001:000bc660       ?createObject@TriangleMesh@Gu@physx@@SAPEAV123@AEAPEAEAEAVPxDeserializationContext@3@@Z 00000001800bd660 f   GuTriangleMesh.obj
 0001:000bc6d0       ??0TriangleMesh@Gu@physx@@QEAA@XZ 00000001800bd6d0 f   GuTriangleMesh.obj
 0001:000bc780       ?load@TriangleMesh@Gu@physx@@QEAA_NAEAVPxInputStream@3@@Z 00000001800bd780 f   GuTriangleMesh.obj
 0001:000bcd60       ?setupMeshInterface@TriangleMesh@Gu@physx@@QEAAXXZ 00000001800bdd60 f   GuTriangleMesh.obj
 0001:000bcd90       ?checkMeshIndicesSize@TriangleMesh@Gu@physx@@QEAAXXZ 00000001800bdd90 f   GuTriangleMesh.obj
 0001:000bce40       ?release@TriangleMesh@Gu@physx@@UEAAXXZ 00000001800bde40 f   GuTriangleMesh.obj
 0001:000bcea0       ?getReferenceCount@TriangleMesh@Gu@physx@@UEBAIXZ 00000001800bdea0 f   GuTriangleMesh.obj
 0001:000bceb0       ??1TriangleMesh@Gu@physx@@UEAA@XZ 00000001800bdeb0 f   GuTriangleMesh.obj
 0001:000bcf10       ?debugVisualize@TriangleMesh@Gu@physx@@QEBAXAEAVRenderOutput@Cm@3@AEBVMatrix34@53@AEBVPxMeshScale@3@AEBVPxBounds3@3@_KMI@Z 00000001800bdf10 f   GuTriangleMesh.obj
 0001:000be430       ?exportExtraData@HeightField@Gu@physx@@UEAAXAEAVPxSerializationContext@3@@Z 00000001800bf430 f   GuHeightField.obj
 0001:000be490       ?importExtraData@HeightField@Gu@physx@@QEAAXAEAVPxDeserializationContext@3@@Z 00000001800bf490 f   GuHeightField.obj
 0001:000be4c0       ?createObject@HeightField@Gu@physx@@SAPEAV123@AEAPEAEAEAVPxDeserializationContext@3@@Z 00000001800bf4c0 f   GuHeightField.obj
 0001:000be550       ??0HeightField@Gu@physx@@QEAA@PEAVGuMeshFactory@2@@Z 00000001800bf550 f   GuHeightField.obj
 0001:000be5d0       ?release@HeightField@Gu@physx@@UEAAXXZ 00000001800bf5d0 f   GuHeightField.obj
 0001:000be630       ?saveCells@HeightField@Gu@physx@@UEBAIPEAXI@Z 00000001800bf630 f   GuHeightField.obj
 0001:000be670       ?modifySamples@HeightField@Gu@physx@@UEAA_NHHAEBVPxHeightFieldDesc@3@_N@Z 00000001800bf670 f   GuHeightField.obj
 0001:000be9e0       ?getReferenceCount@HeightField@Gu@physx@@UEBAIXZ 00000001800bf9e0 f   GuHeightField.obj
 0001:000be9f0       ?onRefCountZero@HeightField@Gu@physx@@UEAAXXZ 00000001800bf9f0 f   GuHeightField.obj
 0001:000bea90       ?loadFromDesc@HeightField@Gu@physx@@QEAA_NAEBVPxHeightFieldDesc@3@_N@Z 00000001800bfa90 f   GuHeightField.obj
 0001:000beca0       ?load@HeightField@Gu@physx@@QEAA_NAEAVPxInputStream@3@@Z 00000001800bfca0 f   GuHeightField.obj
 0001:000bef50       ?computeCellCoordinates@HeightField@Gu@physx@@QEBAIMMAEAM0@Z 00000001800bff50 f   GuHeightField.obj
 0001:000bf060       ?isSolidVertex@HeightField@Gu@physx@@QEBA_NIIIGAEA_N@Z 00000001800c0060 f   GuHeightField.obj
 0001:000bf1e0       ?isCollisionVertexPreca@HeightField@Gu@physx@@QEBA_NIIIG@Z 00000001800c01e0 f   GuHeightField.obj
 0001:000bf290       ?parseTrianglesForCollisionVertices@HeightField@Gu@physx@@QEAAXG@Z 00000001800c0290 f   GuHeightField.obj
 0001:000bf6e0       ?computeExtreme@HeightField@Gu@physx@@QEBAMIIII@Z 00000001800c06e0 f   GuHeightField.obj
 0001:000bf7e0       ?releaseMemory@HeightField@Gu@physx@@QEAAX_N@Z 00000001800c07e0 f   GuHeightField.obj
 0001:000bf820       ??1HeightField@Gu@physx@@UEAA@XZ 00000001800c0820 f   GuHeightField.obj
 0001:000bf880       ?getVertexEdgeIndices@physx@@YAIAEBVHeightField@Gu@1@IIIQEAUEdgeData@1@@Z 00000001800c0880 f   GuHeightField.obj
 0001:000bfa60       ?getEdgeTriangleIndices@physx@@YAIAEBVHeightField@Gu@1@AEBUEdgeData@1@PEIAI@Z 00000001800c0a60 f   GuHeightField.obj
 0001:000bfb90       ??0?$BitMapBase@VAllocator@shdfnd@physx@@@Cm@physx@@QEAA@XZ 00000001800c0b90 f i GuHeightField.obj
 0001:000bfba0       ??1?$BitMapBase@VAllocator@shdfnd@physx@@@Cm@physx@@QEAA@XZ 00000001800c0ba0 f i GuHeightField.obj
 0001:000bfbc0       ??_EHeightField@Gu@physx@@UEAAPEAXI@Z 00000001800c0bc0 f i GuHeightField.obj
 0001:000bfd58       ??_EHeightField@Gu@physx@@WBA@EAAPEAXI@Z 00000001800c0d58 f i GuHeightField.obj
 0001:000bfd70       ??_EPxHeightField@physx@@MEAAPEAXI@Z 00000001800c0d70 f i GuHeightField.obj
 0001:000bfe00       ?clear@?$BitMapBase@VAllocator@shdfnd@physx@@@Cm@physx@@QEAAXI@Z 00000001800c0e00 f i GuHeightField.obj
 0001:000bfe80       ?isConvexVertex@HeightField@Gu@physx@@QEBA_NIII@Z 00000001800c0e80 f i GuHeightField.obj
 0001:000bff90       ?requires@HeightField@Gu@physx@@UEAAXAEAVPxProcessPxBaseCallback@3@@Z 00000001800c0f90 f i GuHeightField.obj
 0001:000bffa0       ?computeLocalBounds@HeightFieldUtil@Gu@physx@@QEBAXAEAVPxBounds3@3@@Z 00000001800c0fa0 f   GuHeightFieldUtil.obj
 0001:000c02b0       ?isCollisionEdge@HeightFieldUtil@Gu@physx@@QEBA_NI@Z 00000001800c12b0 f   GuHeightFieldUtil.obj
 0001:000c03e0       ?isCollisionEdge@HeightFieldUtil@Gu@physx@@QEBA_NIIPEIBIIII@Z 00000001800c13e0 f   GuHeightFieldUtil.obj
 0001:000c04c0       ?isBoundaryEdge@HeightFieldUtil@Gu@physx@@QEBA_NI@Z 00000001800c14c0 f   GuHeightFieldUtil.obj
 0001:000c0580       ?getFaceIndexAtShapePoint@HeightFieldUtil@Gu@physx@@QEBAIMM@Z 00000001800c1580 f   GuHeightFieldUtil.obj
 0001:000c0680       ?getFaceIndexAtShapePointNoTest@HeightFieldUtil@Gu@physx@@QEBAIMM@Z 00000001800c1680 f   GuHeightFieldUtil.obj
 0001:000c0730       ?getFaceIndexAtShapePointNoTest2@HeightFieldUtil@Gu@physx@@QEBAIIMM@Z 00000001800c1730 f   GuHeightFieldUtil.obj
 0001:000c07b0       ?getFaceIndexAtTriangleIndex@HeightFieldUtil@Gu@physx@@QEBAII@Z 00000001800c17b0 f   GuHeightFieldUtil.obj
 0001:000c0800       ?getSmoothNormalAtShapePoint@HeightFieldUtil@Gu@physx@@QEBA?AVPxVec3@3@MM@Z 00000001800c1800 f   GuHeightFieldUtil.obj
 0001:000c0c90       ?getVertexNormal@HeightFieldUtil@Gu@physx@@QEBA?AVPxVec3@3@III@Z 00000001800c1c90 f   GuHeightFieldUtil.obj
 0001:000c1010       ?getVertexFaceIndex@HeightFieldUtil@Gu@physx@@QEBAIIII@Z 00000001800c2010 f   GuHeightFieldUtil.obj
 0001:000c1150       ?getEdge@HeightFieldUtil@Gu@physx@@QEBAXIIIIAEAVPxVec3@3@0@Z 00000001800c2150 f   GuHeightFieldUtil.obj
 0001:000c13a0       ?getEdgeFaceIndex@HeightFieldUtil@Gu@physx@@QEBAII@Z 00000001800c23a0 f   GuHeightFieldUtil.obj
 0001:000c1470       ?getEdgeFaceIndex@HeightFieldUtil@Gu@physx@@QEBAIIIII@Z 00000001800c2470 f   GuHeightFieldUtil.obj
 0001:000c1550       ?getEdgeFaceIndex@HeightFieldUtil@Gu@physx@@QEBAIIIPEIBI@Z 00000001800c2550 f   GuHeightFieldUtil.obj
 0001:000c1630       ?findClosestPointsOnCell@HeightFieldUtil@Gu@physx@@QEBAIIIVPxVec3@3@PEIAV43@PEIAI_N33@Z 00000001800c2630 f   GuHeightFieldUtil.obj
 0001:000c1e00       ?findProjectionOnTriangle@HeightFieldUtil@Gu@physx@@QEBA_NIIIAEBVPxVec3@3@AEAV43@@Z 00000001800c2e00 f   GuHeightFieldUtil.obj
 0001:000c20c0       ?findClosestPointOnEdge@HeightFieldUtil@Gu@physx@@QEBAMIIIIAEBVPxVec3@3@AEAV43@@Z 00000001800c30c0 f   GuHeightFieldUtil.obj
 0001:000c23c0       ?getTriangle@HeightFieldUtil@Gu@physx@@QEBAIAEBVPxTransform@3@AEAVPxTriangle@3@PEAI2I_N3@Z 00000001800c33c0 f   GuHeightFieldUtil.obj
 0001:000c2c10       ?overlapAABBTriangles@HeightFieldUtil@Gu@physx@@QEBA_NAEBVPxTransform@3@AEBVPxBounds3@3@IPEAV?$EntityReport@I@23@@Z 00000001800c3c10 f   GuHeightFieldUtil.obj
 0001:000c32c0       ?getEdgeTriangleIndices@HeightField@Gu@physx@@QEBAIIQEAI@Z 00000001800c42c0 f i GuHeightFieldUtil.obj
 0001:000c33f0       ?getEdgeTriangleIndices@HeightField@Gu@physx@@QEBAIIQEAIIII@Z 00000001800c43f0 f i GuHeightFieldUtil.obj
 0001:000c3510       ?getTriangleAdjacencyIndices@HeightField@Gu@physx@@QEBAXIIIIAEAI00@Z 00000001800c4510 f i GuHeightFieldUtil.obj
 0001:000c3690       ?getTriangleVertexIndices@HeightField@Gu@physx@@QEBAXIAEAI00@Z 00000001800c4690 f i GuHeightFieldUtil.obj
 0001:000c3740       ?isConvexEdge@HeightField@Gu@physx@@QEBA_NIIII@Z 00000001800c4740 f i GuHeightFieldUtil.obj
 0001:000c38f0       ?intersectHeightFieldSphere@Gu@physx@@YA_NAEBVHeightFieldUtil@12@AEBVSphere@12@@Z 00000001800c48f0 f   GuOverlapTestsHF.obj
 0001:000c3ca0       ?intersectHeightFieldCapsule@Gu@physx@@YA_NAEBVHeightFieldUtil@12@AEBVCapsule@12@@Z 00000001800c4ca0 f   GuOverlapTestsHF.obj
 0001:000c4350       ?intersectHeightFieldBox@Gu@physx@@YA_NAEBVHeightFieldUtil@12@AEBVBox@12@@Z 00000001800c5350 f   GuOverlapTestsHF.obj
 0001:000c4f90       ?intersectHeightFieldConvex@Gu@physx@@YA_NAEBVHeightFieldUtil@12@AEBVPxTransform@2@AEBVConvexMesh@12@1AEBVPxMeshScale@2@@Z 00000001800c5f90 f   GuOverlapTestsHF.obj
 0001:000c64e0       ?checkOverlapSphere_heightFieldGeom@Gu@physx@@YA_NAEBVPxGeometry@2@AEBVPxTransform@2@AEBVSphere@12@@Z 00000001800c74e0 f   GuOverlapTestsHF.obj
 0001:000c6850       ?checkOverlapOBB_heightFieldGeom@Gu@physx@@YA_NAEBVPxGeometry@2@AEBVPxTransform@2@AEBVBox@12@@Z 00000001800c7850 f   GuOverlapTestsHF.obj
 0001:000c6e40       ?checkOverlapCapsule_heightFieldGeom@Gu@physx@@YA_NAEBVPxGeometry@2@AEBVPxTransform@2@AEBVCapsule@12@@Z 00000001800c7e40 f   GuOverlapTestsHF.obj
 0001:000c7290       ?GeomOverlapCallback_SphereHeightfield@@YA_NAEBVPxGeometry@physx@@AEBVPxTransform@2@01PEAUTriggerCache@Gu@2@@Z 00000001800c8290 f   GuOverlapTestsHF.obj
 0001:000c7470       ?GeomOverlapCallback_PlaneHeightfield@@YA_NAEBVPxGeometry@physx@@AEBVPxTransform@2@01PEAUTriggerCache@Gu@2@@Z 00000001800c8470 f   GuOverlapTestsHF.obj
 0001:000c7480       ?GeomOverlapCallback_CapsuleHeightfield@@YA_NAEBVPxGeometry@physx@@AEBVPxTransform@2@01PEAUTriggerCache@Gu@2@@Z 00000001800c8480 f   GuOverlapTestsHF.obj
 0001:000c7750       ?GeomOverlapCallback_BoxHeightfield@@YA_NAEBVPxGeometry@physx@@AEBVPxTransform@2@01PEAUTriggerCache@Gu@2@@Z 00000001800c8750 f   GuOverlapTestsHF.obj
 0001:000c7ac0       ?GeomOverlapCallback_ConvexHeightfield@@YA_NAEBVPxGeometry@physx@@AEBVPxTransform@2@01PEAUTriggerCache@Gu@2@@Z 00000001800c8ac0 f   GuOverlapTestsHF.obj
 0001:000c7b30       ??$traceSegment@UTriggerTraceSegmentCallback@Gu@physx@@$0A@$0A@$0A@@HeightFieldUtil@Gu@physx@@QEBAXAEBVPxVec3@2@0PEAUTriggerTraceSegmentCallback@12@PEBV32@@Z 00000001800c8b30 f i GuOverlapTestsHF.obj
 0001:000c88d0       ?sweepCapsule_HeightFieldGeom@@YA_NAEBVPxGeometry@physx@@AEBVPxTransform@2@AEBVCapsule@Gu@2@AEBVPxVec3@2@MAEAUPxSweepHit@2@V?$PxFlags@W4Enum@PxHitFlag@physx@@G@2@M@Z 00000001800c98d0 f   GuSweepsHF.obj
 0001:000c9220       ?sweepConvex_HeightFieldGeom@@YA_NAEBVPxGeometry@physx@@AEBVPxTransform@2@AEBVPxConvexMeshGeometry@2@1AEBVPxVec3@2@MAEAUPxSweepHit@2@V?$PxFlags@W4Enum@PxHitFlag@physx@@G@2@M@Z 00000001800ca220 f   GuSweepsHF.obj
 0001:000c9d30       ?sweepBox_HeightFieldGeom@@YA_NAEBVPxGeometry@physx@@AEBVPxTransform@2@AEBVBox@Gu@2@AEBVPxVec3@2@MAEAUPxSweepHit@2@V?$PxFlags@W4Enum@PxHitFlag@physx@@G@2@M@Z 00000001800cad30 f   GuSweepsHF.obj
 0001:000cab00       ??$traceSegment@UBoxTraceSegmentReport@@$0A@$0A@$00@HeightFieldUtil@Gu@physx@@QEBAXAEBVPxVec3@2@0PEAUBoxTraceSegmentReport@@PEBV32@@Z 00000001800cbb00 f i GuSweepsHF.obj
 0001:000cb2d0       ??$traceSegment@UCapsuleTraceSegmentReport@@$0A@$0A@$00@HeightFieldUtil@Gu@physx@@QEBAXAEBVPxVec3@2@0PEAUCapsuleTraceSegmentReport@@PEBV32@@Z 00000001800cc2d0 f i GuSweepsHF.obj
 0001:000cbaa0       ??$traceSegment@VConvexVsHeightfieldSweep@@$0A@$0A@$00@HeightFieldUtil@Gu@physx@@QEBAXAEBVPxVec3@2@0PEAVConvexVsHeightfieldSweep@@PEBV32@@Z 00000001800ccaa0 f i GuSweepsHF.obj
 0001:000cc270       ??0ConvexVsHeightfieldSweep@@QEAA@AEAVHeightFieldUtil@Gu@physx@@AEBUConvexHullData@23@AEBVPxMeshScale@3@AEBVPxTransform@3@3AEBVPxVec3@3@MV?$PxFlags@W4Enum@PxHitFlag@physx@@G@3@M_N_N@Z 00000001800cd270 f i GuSweepsHF.obj
 0001:000ccd40       ??_GBoxTraceSegmentReport@@UEAAPEAXI@Z 00000001800cdd40 f i GuSweepsHF.obj
 0001:000ccd40       ??_EBoxTraceSegmentReport@@UEAAPEAXI@Z 00000001800cdd40 f i GuSweepsHF.obj
 0001:000ccd70       ??_ECapsuleTraceSegmentReport@@UEAAPEAXI@Z 00000001800cdd70 f i GuSweepsHF.obj
 0001:000ccd70       ??_GCapsuleTraceSegmentReport@@UEAAPEAXI@Z 00000001800cdd70 f i GuSweepsHF.obj
 0001:000ccda0       ??_EConvexVsHeightfieldSweep@@UEAAPEAXI@Z 00000001800cdda0 f i GuSweepsHF.obj
 0001:000ccda0       ??_GConvexVsHeightfieldSweep@@UEAAPEAXI@Z 00000001800cdda0 f i GuSweepsHF.obj
 0001:000ccdd0       ?addIndex@?$OverlapTraceSegment@UBoxTraceSegmentReport@@@HeightFieldUtil@Gu@physx@@QEAA_NI@Z 00000001800cddd0 f i GuSweepsHF.obj
 0001:000cce40       ?addIndex@?$OverlapTraceSegment@UCapsuleTraceSegmentReport@@@HeightFieldUtil@Gu@physx@@QEAA_NI@Z 00000001800cde40 f i GuSweepsHF.obj
 0001:000cceb0       ?addIndex@?$OverlapTraceSegment@VConvexVsHeightfieldSweep@@@HeightFieldUtil@Gu@physx@@QEAA_NI@Z 00000001800cdeb0 f i GuSweepsHF.obj
 0001:000ccf20       ?onEvent@BoxTraceSegmentReport@@UEAA_NIPEAI@Z 00000001800cdf20 f i GuSweepsHF.obj
 0001:000cd520       ?onEvent@CapsuleTraceSegmentReport@@UEAA_NIPEAI@Z 00000001800ce520 f i GuSweepsHF.obj
 0001:000cd760       ?onEvent@ConvexVsHeightfieldSweep@@UEAA_NIPEAI@Z 00000001800ce760 f i GuSweepsHF.obj
 0001:000cdd80       ?prepare@?$OverlapTraceSegment@UBoxTraceSegmentReport@@@HeightFieldUtil@Gu@physx@@QEAAXAEBVPxVec3@4@00AEAM1@Z 00000001800ced80 f i GuSweepsHF.obj
 0001:000ce020       ?prepare@?$OverlapTraceSegment@UCapsuleTraceSegmentReport@@@HeightFieldUtil@Gu@physx@@QEAAXAEBVPxVec3@4@00AEAM1@Z 00000001800cf020 f i GuSweepsHF.obj
 0001:000ce2c0       ?prepare@?$OverlapTraceSegment@VConvexVsHeightfieldSweep@@@HeightFieldUtil@Gu@physx@@QEAAXAEBVPxVec3@4@00AEAM1@Z 00000001800cf2c0 f i GuSweepsHF.obj
 0001:000ce560       ?step@?$OverlapTraceSegment@UBoxTraceSegmentReport@@@HeightFieldUtil@Gu@physx@@QEAA_NHH@Z 00000001800cf560 f i GuSweepsHF.obj
 0001:000ce630       ?step@?$OverlapTraceSegment@UCapsuleTraceSegmentReport@@@HeightFieldUtil@Gu@physx@@QEAA_NHH@Z 00000001800cf630 f i GuSweepsHF.obj
 0001:000ce700       ?step@?$OverlapTraceSegment@VConvexVsHeightfieldSweep@@@HeightFieldUtil@Gu@physx@@QEAA_NHH@Z 00000001800cf700 f i GuSweepsHF.obj
 0001:000ce7d0       ?testVertexIndex@?$OverlapTraceSegment@UBoxTraceSegmentReport@@@HeightFieldUtil@Gu@physx@@QEAA_NI@Z 00000001800cf7d0 f i GuSweepsHF.obj
 0001:000ce8c0       ?testVertexIndex@?$OverlapTraceSegment@UCapsuleTraceSegmentReport@@@HeightFieldUtil@Gu@physx@@QEAA_NI@Z 00000001800cf8c0 f i GuSweepsHF.obj
 0001:000ce9b0       ?testVertexIndex@?$OverlapTraceSegment@VConvexVsHeightfieldSweep@@@HeightFieldUtil@Gu@physx@@QEAA_NI@Z 00000001800cf9b0 f i GuSweepsHF.obj
 0001:000ceaa0       ?visitCells@?$OverlapTraceSegment@UBoxTraceSegmentReport@@@HeightFieldUtil@Gu@physx@@QEAA_NAEBUOverlapLine@1234@@Z 00000001800cfaa0 f i GuSweepsHF.obj
 0001:000ceb80       ?visitCells@?$OverlapTraceSegment@UBoxTraceSegmentReport@@@HeightFieldUtil@Gu@physx@@QEAA_NAEBUOverlapRectangle@1234@@Z 00000001800cfb80 f i GuSweepsHF.obj
 0001:000ced70       ?visitCells@?$OverlapTraceSegment@UCapsuleTraceSegmentReport@@@HeightFieldUtil@Gu@physx@@QEAA_NAEBUOverlapLine@1234@@Z 00000001800cfd70 f i GuSweepsHF.obj
 0001:000cee50       ?visitCells@?$OverlapTraceSegment@UCapsuleTraceSegmentReport@@@HeightFieldUtil@Gu@physx@@QEAA_NAEBUOverlapRectangle@1234@@Z 00000001800cfe50 f i GuSweepsHF.obj
 0001:000cf040       ?visitCells@?$OverlapTraceSegment@VConvexVsHeightfieldSweep@@@HeightFieldUtil@Gu@physx@@QEAA_NAEBUOverlapLine@1234@@Z 00000001800d0040 f i GuSweepsHF.obj
 0001:000cf120       ?visitCells@?$OverlapTraceSegment@VConvexVsHeightfieldSweep@@@HeightFieldUtil@Gu@physx@@QEAA_NAEBUOverlapRectangle@1234@@Z 00000001800d0120 f i GuSweepsHF.obj
 0001:000cf310       ?pcmContactBoxBox@Gu@physx@@YA_NAEBVGeometryUnion@12@0AEBVPxTransform@2@1AEBMAEAUCache@12@AEAVContactBuffer@12@@Z 00000001800d0310 f   GuPCMContactBoxBox.obj
 0001:000d2a40       ?pcmContactBoxConvex@Gu@physx@@YA_NAEBVGeometryUnion@12@0AEBVPxTransform@2@1AEBMAEAUCache@12@AEAVContactBuffer@12@@Z 00000001800d3a40 f   GuPCMContactBoxConvex.obj
 0001:000d7d40       ??1SupportLocal@Gu@physx@@UEAA@XZ 00000001800d8d40 f i GuPCMContactBoxConvex.obj
 0001:000d7d50       ??_G?$SupportLocalImpl@VBoxV@Gu@physx@@@Gu@physx@@UEAAPEAXI@Z 00000001800d8d50 f i GuPCMContactBoxConvex.obj
 0001:000d7d50       ??_E?$SupportLocalImpl@VBoxV@Gu@physx@@@Gu@physx@@UEAAPEAXI@Z 00000001800d8d50 f i GuPCMContactBoxConvex.obj
 0001:000d7d80       ??_G?$SupportLocalImpl@VConvexHullNoScaleV@Gu@physx@@@Gu@physx@@UEAAPEAXI@Z 00000001800d8d80 f i GuPCMContactBoxConvex.obj
 0001:000d7d80       ??_E?$SupportLocalImpl@VConvexHullNoScaleV@Gu@physx@@@Gu@physx@@UEAAPEAXI@Z 00000001800d8d80 f i GuPCMContactBoxConvex.obj
 0001:000d7db0       ??_E?$SupportLocalImpl@VConvexHullV@Gu@physx@@@Gu@physx@@UEAAPEAXI@Z 00000001800d8db0 f i GuPCMContactBoxConvex.obj
 0001:000d7db0       ??_G?$SupportLocalImpl@VConvexHullV@Gu@physx@@@Gu@physx@@UEAAPEAXI@Z 00000001800d8db0 f i GuPCMContactBoxConvex.obj
 0001:000d7de0       ??_ESupportLocal@Gu@physx@@UEAAPEAXI@Z 00000001800d8de0 f i GuPCMContactBoxConvex.obj
 0001:000d7de0       ??_GSupportLocal@Gu@physx@@UEAAPEAXI@Z 00000001800d8de0 f i GuPCMContactBoxConvex.obj
 0001:000d7e10       ?doSupport@?$SupportLocalImpl@VBoxV@Gu@physx@@@Gu@physx@@UEBA?AT__m128@@AEBT4@@Z 00000001800d8e10 f i GuPCMContactBoxConvex.obj
 0001:000d7e40       ?doSupport@?$SupportLocalImpl@VBoxV@Gu@physx@@@Gu@physx@@UEBAXAEBT__m128@@AEAT4@1@Z 00000001800d8e40 f i GuPCMContactBoxConvex.obj
 0001:000d7e90       ?doSupport@?$SupportLocalImpl@VConvexHullNoScaleV@Gu@physx@@@Gu@physx@@UEBA?AT__m128@@AEBT4@@Z 00000001800d8e90 f i GuPCMContactBoxConvex.obj
 0001:000d81b0       ?doSupport@?$SupportLocalImpl@VConvexHullNoScaleV@Gu@physx@@@Gu@physx@@UEBAXAEBT__m128@@AEAT4@1@Z 00000001800d91b0 f i GuPCMContactBoxConvex.obj
 0001:000d8730       ?doSupport@?$SupportLocalImpl@VConvexHullV@Gu@physx@@@Gu@physx@@UEBA?AT__m128@@AEBT4@@Z 00000001800d9730 f i GuPCMContactBoxConvex.obj
 0001:000d8ad0       ?doSupport@?$SupportLocalImpl@VConvexHullV@Gu@physx@@@Gu@physx@@UEBAXAEBT__m128@@AEAT4@1@Z 00000001800d9ad0 f i GuPCMContactBoxConvex.obj
 0001:000d9480       ?populateVerts@?$SupportLocalImpl@VBoxV@Gu@physx@@@Gu@physx@@UEBAXPEBEIPEBVPxVec3@3@PEAT__m128@@@Z 00000001800da480 f i GuPCMContactBoxConvex.obj
 0001:000d94d0       ?populateVerts@?$SupportLocalImpl@VConvexHullNoScaleV@Gu@physx@@@Gu@physx@@UEBAXPEBEIPEBVPxVec3@3@PEAT__m128@@@Z 00000001800da4d0 f i GuPCMContactBoxConvex.obj
 0001:000d9520       ?populateVerts@?$SupportLocalImpl@VConvexHullV@Gu@physx@@@Gu@physx@@UEBAXPEBEIPEBVPxVec3@3@PEAT__m128@@@Z 00000001800da520 f i GuPCMContactBoxConvex.obj
 0001:000d95a0       ?pcmContactCapsuleBox@Gu@physx@@YA_NAEBVGeometryUnion@12@0AEBVPxTransform@2@1AEBMAEAUCache@12@AEAVContactBuffer@12@@Z 00000001800da5a0 f   GuPCMContactCapsuleBox.obj
 0001:000da620       ?pcmContactCapsuleConvex@Gu@physx@@YA_NAEBVGeometryUnion@12@0AEBVPxTransform@2@1AEBMAEAUCache@12@AEAVContactBuffer@12@@Z 00000001800db620 f   GuPCMContactCapsuleConvex.obj
 0001:000dee40       ?pcmContactCapsuleHeightField@Gu@physx@@YA_NAEBVGeometryUnion@12@0AEBVPxTransform@2@1AEBMAEAUCache@12@AEAVContactBuffer@12@@Z 00000001800dfe40 f   GuPCMContactCapsuleHeightField.obj
 0001:000dfc90       ??0PCMContactPatch@Gu@physx@@QEAA@XZ 00000001800e0c90 f i GuPCMContactCapsuleHeightField.obj
 0001:000dfcc0       ??0PCMMeshContactGeneration@Gu@physx@@QEAA@AEBT__m128@@0AEBVPsTransformV@aos@shdfnd@2@1AEAVMultiplePersistentContactManifold@12@AEAVContactBuffer@12@@Z 00000001800e0cc0 f i GuPCMContactCapsuleHeightField.obj
 0001:000e0120       ??_E?$PCMHeightfieldContactGenerationCallback@UPCMCapsuleVsHeightfieldContactGenerationCallback@physx@@@Gu@physx@@UEAAPEAXI@Z 00000001800e1120 f i GuPCMContactCapsuleHeightField.obj
 0001:000e0120       ??_G?$PCMHeightfieldContactGenerationCallback@UPCMCapsuleVsHeightfieldContactGenerationCallback@physx@@@Gu@physx@@UEAAPEAXI@Z 00000001800e1120 f i GuPCMContactCapsuleHeightField.obj
 0001:000e0150       ??_GPCMCapsuleVsHeightfieldContactGenerationCallback@physx@@UEAAPEAXI@Z 00000001800e1150 f i GuPCMContactCapsuleHeightField.obj
 0001:000e0150       ??_EPCMCapsuleVsHeightfieldContactGenerationCallback@physx@@UEAAPEAXI@Z 00000001800e1150 f i GuPCMContactCapsuleHeightField.obj
 0001:000e0180       ?onEvent@?$PCMHeightfieldContactGenerationCallback@UPCMCapsuleVsHeightfieldContactGenerationCallback@physx@@@Gu@physx@@UEAA_NIPEAI@Z 00000001800e1180 f i GuPCMContactCapsuleHeightField.obj
 0001:000e0700       ?pcmContactCapsuleMesh@Gu@physx@@YA_NAEBVGeometryUnion@12@0AEBVPxTransform@2@1AEBMAEAUCache@12@AEAVContactBuffer@12@@Z 00000001800e1700 f   GuPCMContactCapsuleMesh.obj
 0001:000e1740       ??$processTriangleCache@$0BA@VPCMCapsuleVsMeshContactGeneration@Gu@physx@@@PCMMeshContactGeneration@Gu@physx@@QEAA_NAEAU?$TriangleCache@$0BA@@12@@Z 00000001800e2740 f i GuPCMContactCapsuleMesh.obj
 0001:000e17d0       ??_E?$PCMMeshContactGenerationCallback@UPCMCapsuleVsMeshContactGenerationCallback@physx@@@Gu@physx@@UEAAPEAXI@Z 00000001800e27d0 f i GuPCMContactCapsuleMesh.obj
 0001:000e17d0       ??_G?$PCMMeshContactGenerationCallback@UPCMCapsuleVsMeshContactGenerationCallback@physx@@@Gu@physx@@UEAAPEAXI@Z 00000001800e27d0 f i GuPCMContactCapsuleMesh.obj
 0001:000e1800       ??_GPCMCapsuleVsMeshContactGenerationCallback@physx@@UEAAPEAXI@Z 00000001800e2800 f i GuPCMContactCapsuleMesh.obj
 0001:000e1800       ??_EPCMCapsuleVsMeshContactGenerationCallback@physx@@UEAAPEAXI@Z 00000001800e2800 f i GuPCMContactCapsuleMesh.obj
 0001:000e1830       ?processHit@?$PCMMeshContactGenerationCallback@UPCMCapsuleVsMeshContactGenerationCallback@physx@@@Gu@physx@@UEAA_NAEBUPxRaycastHit@3@AEBVPxVec3@3@11AEAMPEBI@Z 00000001800e2830 f i GuPCMContactCapsuleMesh.obj
 0001:000e1b40       ?generateLastContacts@PCMConvexVsMeshContactGeneration@Gu@physx@@QEAAXXZ 00000001800e2b40 f   GuPCMContactConvexCommon.obj
 0001:000e1f20       ?addContactsToPatch@PCMConvexVsMeshContactGeneration@Gu@physx@@QEAAXAEBT__m128@@II@Z 00000001800e2f20 f   GuPCMContactConvexCommon.obj
 0001:000e26c0       ?processTriangle@PCMConvexVsMeshContactGeneration@Gu@physx@@QEAA_NPEBVPxVec3@3@IEPEBI@Z 00000001800e36c0 f   GuPCMContactConvexCommon.obj
 0001:000e2b00       ?processTriangle@PCMConvexVsMeshContactGeneration@Gu@physx@@SA_NAEBUPolygonalData@23@PEAVSupportLocal@23@PEBVPxVec3@3@IEAEBT__m128@@_NAEBVPsTransformV@aos@shdfnd@3@AEBVPsMatTransformV@9shdfnd@3@PEAVMeshPersistentContact@23@AEAI@Z 00000001800e3b00 f   GuPCMContactConvexCommon.obj
 0001:000e2e00       ?processTriangle@PCMSphereVsMeshContactGeneration@Gu@physx@@QEAA_NPEBVPxVec3@3@IEPEBI@Z 00000001800e3e00 f   GuPCMContactConvexCommon.obj
 0001:000e3500       ?generateEEContacts@PCMCapsuleVsMeshContactGeneration@Gu@physx@@QEAAXAEBT__m128@@000I000PEAVMeshPersistentContact@23@AEAI@Z 00000001800e4500 f   GuPCMContactConvexCommon.obj
 0001:000e3630       ?generateEE@PCMCapsuleVsMeshContactGeneration@Gu@physx@@QEAAXAEBT__m128@@000I00PEAVMeshPersistentContact@23@AEAI@Z 00000001800e4630 f   GuPCMContactConvexCommon.obj
 0001:000e38e0       ?generateContacts@PCMCapsuleVsMeshContactGeneration@Gu@physx@@SA_NAEBT__m128@@0000I000PEAVMeshPersistentContact@23@AEAI@Z 00000001800e48e0 f   GuPCMContactConvexCommon.obj
 0001:000e3d60       ?generateEEContactsMTD@PCMCapsuleVsMeshContactGeneration@Gu@physx@@SAXAEBT__m128@@000I000PEAVMeshPersistentContact@23@AEAI@Z 00000001800e4d60 f   GuPCMContactConvexCommon.obj
 0001:000e3e80       ?generateEEMTD@PCMCapsuleVsMeshContactGeneration@Gu@physx@@SAXAEBT__m128@@000I00PEAVMeshPersistentContact@23@AEAI@Z 00000001800e4e80 f   GuPCMContactConvexCommon.obj
 0001:000e40f0       ?processTriangle@PCMCapsuleVsMeshContactGeneration@Gu@physx@@QEAA_NPEBVPxVec3@3@IEPEBI@Z 00000001800e50f0 f   GuPCMContactConvexCommon.obj
 0001:000e4b30       ?processTriangle@PCMCapsuleVsMeshContactGeneration@Gu@physx@@SA_NAEBVTriangleV@23@IAEBVCapsuleV@23@AEBT__m128@@EPEAVMeshPersistentContact@23@AEAI@Z 00000001800e5b30 f   GuPCMContactConvexCommon.obj
 0001:000e4e60       ?pcmDistanceSegmentTriangleSquared@Gu@physx@@YA?AT__m128@@AEBT3@0000AEAT3@11@Z 00000001800e5e60 f   GuPCMContactConvexCommon.obj
 0001:000e5860       ??_G?$SupportLocalImpl@VTriangleV@Gu@physx@@@Gu@physx@@UEAAPEAXI@Z 00000001800e6860 f i GuPCMContactConvexCommon.obj
 0001:000e5860       ??_E?$SupportLocalImpl@VTriangleV@Gu@physx@@@Gu@physx@@UEAAPEAXI@Z 00000001800e6860 f i GuPCMContactConvexCommon.obj
 0001:000e5890       ?doSupport@?$SupportLocalImpl@VTriangleV@Gu@physx@@@Gu@physx@@UEBA?AT__m128@@AEBT4@@Z 00000001800e6890 f i GuPCMContactConvexCommon.obj
 0001:000e5930       ?doSupport@?$SupportLocalImpl@VTriangleV@Gu@physx@@@Gu@physx@@UEBAXAEBT__m128@@AEAT4@1@Z 00000001800e6930 f i GuPCMContactConvexCommon.obj
 0001:000e5fe0       ?populateVerts@?$SupportLocalImpl@VTriangleV@Gu@physx@@@Gu@physx@@UEBAXPEBEIPEBVPxVec3@3@PEAT__m128@@@Z 00000001800e6fe0 f i GuPCMContactConvexCommon.obj
 0001:000e6030       ?pcmContactConvexConvex@Gu@physx@@YA_NAEBVGeometryUnion@12@0AEBVPxTransform@2@1AEBMAEAUCache@12@AEAVContactBuffer@12@@Z 00000001800e7030 f   GuPCMContactConvexConvex.obj
 0001:000f1ae0       ?pcmContactBoxHeightField@Gu@physx@@YA_NAEBVGeometryUnion@12@0AEBVPxTransform@2@1AEBMAEAUCache@12@AEAVContactBuffer@12@@Z 00000001800f2ae0 f   GuPCMContactConvexHeightField.obj
 0001:000f1d90       ?pcmContactConvexHeightField@Gu@physx@@YA_NAEBVGeometryUnion@12@0AEBVPxTransform@2@1AEBMAEAUCache@12@AEAVContactBuffer@12@@Z 00000001800f2d90 f   GuPCMContactConvexHeightField.obj
 0001:000f24f0       ?PCMContactConvexHeightfield@Gu@physx@@YA_NAEBUPolygonalData@12@PEAVSupportLocal@12@AEBT__m128@@AEBVPxBounds3@2@AEBVPxHeightFieldGeometry@2@AEBVPxTransform@2@5MAEAVContactBuffer@12@AEBVFastVertex2ShapeScaling@Cm@2@_NAEAVMultiplePersistentContactManifold@12@@Z 00000001800f34f0 f   GuPCMContactConvexHeightField.obj
 0001:000f30f0       ??_E?$PCMHeightfieldContactGenerationCallback@UPCMConvexVsHeightfieldContactGenerationCallback@physx@@@Gu@physx@@UEAAPEAXI@Z 00000001800f40f0 f i GuPCMContactConvexHeightField.obj
 0001:000f30f0       ??_G?$PCMHeightfieldContactGenerationCallback@UPCMConvexVsHeightfieldContactGenerationCallback@physx@@@Gu@physx@@UEAAPEAXI@Z 00000001800f40f0 f i GuPCMContactConvexHeightField.obj
 0001:000f3120       ??_E?$SupportLocalShrunkImpl@VBoxV@Gu@physx@@VShrunkBoxV@23@@Gu@physx@@UEAAPEAXI@Z 00000001800f4120 f i GuPCMContactConvexHeightField.obj
 0001:000f3120       ??_G?$SupportLocalShrunkImpl@VBoxV@Gu@physx@@VShrunkBoxV@23@@Gu@physx@@UEAAPEAXI@Z 00000001800f4120 f i GuPCMContactConvexHeightField.obj
 0001:000f3150       ??_E?$SupportLocalShrunkImpl@VConvexHullNoScaleV@Gu@physx@@VShrunkConvexHullNoScaleV@23@@Gu@physx@@UEAAPEAXI@Z 00000001800f4150 f i GuPCMContactConvexHeightField.obj
 0001:000f3150       ??_G?$SupportLocalShrunkImpl@VConvexHullNoScaleV@Gu@physx@@VShrunkConvexHullNoScaleV@23@@Gu@physx@@UEAAPEAXI@Z 00000001800f4150 f i GuPCMContactConvexHeightField.obj
 0001:000f3180       ??_E?$SupportLocalShrunkImpl@VConvexHullV@Gu@physx@@VShrunkConvexHullV@23@@Gu@physx@@UEAAPEAXI@Z 00000001800f4180 f i GuPCMContactConvexHeightField.obj
 0001:000f3180       ??_G?$SupportLocalShrunkImpl@VConvexHullV@Gu@physx@@VShrunkConvexHullV@23@@Gu@physx@@UEAAPEAXI@Z 00000001800f4180 f i GuPCMContactConvexHeightField.obj
 0001:000f31b0       ??_GPCMConvexVsHeightfieldContactGenerationCallback@physx@@UEAAPEAXI@Z 00000001800f41b0 f i GuPCMContactConvexHeightField.obj
 0001:000f31b0       ??_EPCMConvexVsHeightfieldContactGenerationCallback@physx@@UEAAPEAXI@Z 00000001800f41b0 f i GuPCMContactConvexHeightField.obj
 0001:000f31e0       ?doSupport@?$SupportLocalShrunkImpl@VBoxV@Gu@physx@@VShrunkBoxV@23@@Gu@physx@@UEBA?AT__m128@@AEBT4@@Z 00000001800f41e0 f i GuPCMContactConvexHeightField.obj
 0001:000f3210       ?doSupport@?$SupportLocalShrunkImpl@VBoxV@Gu@physx@@VShrunkBoxV@23@@Gu@physx@@UEBAXAEBT__m128@@AEAT4@1@Z 00000001800f4210 f i GuPCMContactConvexHeightField.obj
 0001:000f3260       ?doSupport@?$SupportLocalShrunkImpl@VConvexHullNoScaleV@Gu@physx@@VShrunkConvexHullNoScaleV@23@@Gu@physx@@UEBA?AT__m128@@AEBT4@@Z 00000001800f4260 f i GuPCMContactConvexHeightField.obj
 0001:000f3580       ?doSupport@?$SupportLocalShrunkImpl@VConvexHullNoScaleV@Gu@physx@@VShrunkConvexHullNoScaleV@23@@Gu@physx@@UEBAXAEBT__m128@@AEAT4@1@Z 00000001800f4580 f i GuPCMContactConvexHeightField.obj
 0001:000f3b00       ?doSupport@?$SupportLocalShrunkImpl@VConvexHullV@Gu@physx@@VShrunkConvexHullV@23@@Gu@physx@@UEBA?AT__m128@@AEBT4@@Z 00000001800f4b00 f i GuPCMContactConvexHeightField.obj
 0001:000f3ea0       ?doSupport@?$SupportLocalShrunkImpl@VConvexHullV@Gu@physx@@VShrunkConvexHullV@23@@Gu@physx@@UEBAXAEBT__m128@@AEAT4@1@Z 00000001800f4ea0 f i GuPCMContactConvexHeightField.obj
 0001:000f4530       ?onEvent@?$PCMHeightfieldContactGenerationCallback@UPCMConvexVsHeightfieldContactGenerationCallback@physx@@@Gu@physx@@UEAA_NIPEAI@Z 00000001800f5530 f i GuPCMContactConvexHeightField.obj
 0001:000f4ab0       ?populateVerts@?$SupportLocalShrunkImpl@VBoxV@Gu@physx@@VShrunkBoxV@23@@Gu@physx@@UEBAXPEBEIPEBVPxVec3@3@PEAT__m128@@@Z 00000001800f5ab0 f i GuPCMContactConvexHeightField.obj
 0001:000f4b00       ?populateVerts@?$SupportLocalShrunkImpl@VConvexHullNoScaleV@Gu@physx@@VShrunkConvexHullNoScaleV@23@@Gu@physx@@UEBAXPEBEIPEBVPxVec3@3@PEAT__m128@@@Z 00000001800f5b00 f i GuPCMContactConvexHeightField.obj
 0001:000f4b50       ?populateVerts@?$SupportLocalShrunkImpl@VConvexHullV@Gu@physx@@VShrunkConvexHullV@23@@Gu@physx@@UEBAXPEBEIPEBVPxVec3@3@PEAT__m128@@@Z 00000001800f5b50 f i GuPCMContactConvexHeightField.obj
 0001:000f4bd0       ?pcmContactBoxMesh@Gu@physx@@YA_NAEBVGeometryUnion@12@0AEBVPxTransform@2@1AEBMAEAUCache@12@AEAVContactBuffer@12@@Z 00000001800f5bd0 f   GuPCMContactConvexMesh.obj
 0001:000f4ef0       ?pcmContactConvexMesh@Gu@physx@@YA_NAEBVGeometryUnion@12@0AEBVPxTransform@2@1AEBMAEAUCache@12@AEAVContactBuffer@12@@Z 00000001800f5ef0 f   GuPCMContactConvexMesh.obj
 0001:000f56d0       ?PCMContactConvexMesh@Gu@physx@@YA_NAEBUPolygonalData@12@PEAVSupportLocal@12@AEBT__m128@@AEBVPxBounds3@2@AEBUPxTriangleMeshGeometryLL@2@AEBVPxTransform@2@5MAEAVContactBuffer@12@AEBVFastVertex2ShapeScaling@Cm@2@7_N8AEAVMultiplePersistentContactManifold@12@@Z 00000001800f66d0 f   GuPCMContactConvexMesh.obj
 0001:000f6420       ??$processTriangleCache@$0BA@VPCMConvexVsMeshContactGeneration@Gu@physx@@@PCMMeshContactGeneration@Gu@physx@@QEAA_NAEAU?$TriangleCache@$0BA@@12@@Z 00000001800f7420 f i GuPCMContactConvexMesh.obj
 0001:000f64b0       ??_G?$PCMMeshContactGenerationCallback@UPCMConvexVsMeshContactGenerationCallback@physx@@@Gu@physx@@UEAAPEAXI@Z 00000001800f74b0 f i GuPCMContactConvexMesh.obj
 0001:000f64b0       ??_E?$PCMMeshContactGenerationCallback@UPCMConvexVsMeshContactGenerationCallback@physx@@@Gu@physx@@UEAAPEAXI@Z 00000001800f74b0 f i GuPCMContactConvexMesh.obj
 0001:000f64e0       ??_GPCMConvexVsMeshContactGenerationCallback@physx@@UEAAPEAXI@Z 00000001800f74e0 f i GuPCMContactConvexMesh.obj
 0001:000f64e0       ??_EPCMConvexVsMeshContactGenerationCallback@physx@@UEAAPEAXI@Z 00000001800f74e0 f i GuPCMContactConvexMesh.obj
 0001:000f6510       ?processHit@?$PCMMeshContactGenerationCallback@UPCMConvexVsMeshContactGenerationCallback@physx@@@Gu@physx@@UEAA_NAEBUPxRaycastHit@3@AEBVPxVec3@3@11AEAMPEBI@Z 00000001800f7510 f i GuPCMContactConvexMesh.obj
 0001:000f6870       ?generateFullContactManifold@Gu@physx@@YA_NAEAUPolygonalData@12@0PEAVSupportLocal@12@1PEAVPersistentContact@12@AEAIAEBT__m128@@4_N@Z 00000001800f7870 f   GuPCMContactGenBoxConvex.obj
 0001:000f8160       ?computeMTD@Gu@physx@@YA_NAEAUPolygonalData@12@0PEAVSupportLocal@12@1AEAT__m128@@2@Z 00000001800f9160 f   GuPCMContactGenBoxConvex.obj
 0001:000f8980       ?buildPartialHull@Gu@physx@@YAXAEBUPolygonalData@12@PEAVSupportLocal@12@AEAVSeparatingAxes@12@AEBT__m128@@3@Z 00000001800f9980 f   GuPCMContactGenBoxConvex.obj
 0001:000f8cb0       ?generatedContacts@Gu@physx@@YAXAEAUPolygonalData@12@0AEBUHullPolygonData@12@1PEAVSupportLocal@12@2AEBVPsMatTransformV@aos@shdfnd@2@PEAVPersistentContact@12@AEAIAEBT__m128@@@Z 00000001800f9cb0 f   GuPCMContactGenBoxConvex.obj
 0001:000fa4e0       ?generateFullContactManifold@Gu@physx@@YA_NAEBVCapsuleV@12@AEAUPolygonalData@12@PEAVSupportLocal@12@AEBVPsMatTransformV@aos@shdfnd@2@PEAVPersistentContact@12@AEAIAEBT__m128@@AEAT__m128@@_N@Z 00000001800fb4e0 f   GuPCMContactGenSphereCapsule.obj
 0001:000fa8a0       ?generateCapsuleBoxFullContactManifold@Gu@physx@@YA_NAEBVCapsuleV@12@AEAUPolygonalData@12@PEAVSupportLocal@12@AEBVPsMatTransformV@aos@shdfnd@2@PEAVPersistentContact@12@AEAIAEBT__m128@@AEAT__m128@@_N@Z 00000001800fb8a0 f   GuPCMContactGenSphereCapsule.obj
 0001:000fac70       ?computeMTD@Gu@physx@@YA_NAEBVCapsuleV@12@AEAUPolygonalData@12@PEAVSupportLocal@12@AEAT__m128@@3@Z 00000001800fbc70 f   GuPCMContactGenSphereCapsule.obj
 0001:000fada0       ?generateSphereFullContactManifold@Gu@physx@@YA_NAEBVCapsuleV@12@AEAUPolygonalData@12@PEAVSupportLocal@12@PEAVPersistentContact@12@AEAIAEBT__m128@@AEAT7@_N@Z 00000001800fbda0 f   GuPCMContactGenSphereCapsule.obj
 0001:000fb2d0       ?generatedCapsuleBoxFaceContacts@Gu@physx@@YAXAEBVCapsuleV@12@AEAUPolygonalData@12@AEBUHullPolygonData@12@PEAVSupportLocal@12@AEBVPsMatTransformV@aos@shdfnd@2@PEAVPersistentContact@12@AEAIAEBT__m128@@7@Z 00000001800fc2d0 f   GuPCMContactGenSphereCapsule.obj
 0001:000fbaa0       ?generatedContactsEEContacts@Gu@physx@@YAXAEBVCapsuleV@12@AEAUPolygonalData@12@AEBUHullPolygonData@12@PEAVSupportLocal@12@AEBVPsMatTransformV@aos@shdfnd@2@PEAVPersistentContact@12@AEAIAEBT__m128@@7@Z 00000001800fcaa0 f   GuPCMContactGenSphereCapsule.obj
 0001:000fc900       ?pcmContactPlaneBox@Gu@physx@@YA_NAEBVGeometryUnion@12@0AEBVPxTransform@2@1AEBMAEAUCache@12@AEAVContactBuffer@12@@Z 00000001800fd900 f   GuPCMContactPlaneBox.obj
 0001:000fd5d0       ?pcmContactPlaneCapsule@Gu@physx@@YA_NAEBVGeometryUnion@12@0AEBVPxTransform@2@1AEBMAEAUCache@12@AEAVContactBuffer@12@@Z 00000001800fe5d0 f   GuPCMContactPlaneCapsule.obj
 0001:000fdf80       ?pcmContactPlaneConvex@Gu@physx@@YA_NAEBVGeometryUnion@12@0AEBVPxTransform@2@1AEBMAEAUCache@12@AEAVContactBuffer@12@@Z 00000001800fef80 f   GuPCMContactPlaneConvex.obj
 0001:000fead0       ?pcmContactSphereConvex@Gu@physx@@YA_NAEBVGeometryUnion@12@0AEBVPxTransform@2@1AEBMAEAUCache@12@AEAVContactBuffer@12@@Z 00000001800ffad0 f   GuPCMContactSphereConvex.obj
 0001:00102df0       ??_E?$EPASupportMapPairLocalImpl@VCapsuleV@Gu@physx@@VConvexHullNoScaleV@23@@Gu@physx@@UEAAPEAXI@Z 0000000180103df0 f i GuPCMContactSphereConvex.obj
 0001:00102df0       ??_G?$EPASupportMapPairLocalImpl@VCapsuleV@Gu@physx@@VConvexHullNoScaleV@23@@Gu@physx@@UEAAPEAXI@Z 0000000180103df0 f i GuPCMContactSphereConvex.obj
 0001:00102e20       ?doSupport@?$EPASupportMapPairLocalImpl@VCapsuleV@Gu@physx@@VConvexHullNoScaleV@23@@Gu@physx@@UEBAXAEBT__m128@@AEAT4@11@Z 0000000180103e20 f i GuPCMContactSphereConvex.obj
 0001:001031c0       ?doWarmStartSupport@?$EPASupportMapPairLocalImpl@VCapsuleV@Gu@physx@@VConvexHullNoScaleV@23@@Gu@physx@@UEBAXHHAEAT__m128@@00@Z 00000001801041c0 f i GuPCMContactSphereConvex.obj
 0001:00103470       ?getDir@?$EPASupportMapPairLocalImpl@VCapsuleV@Gu@physx@@VConvexHullNoScaleV@23@@Gu@physx@@UEBA?AT__m128@@XZ 0000000180104470 f i GuPCMContactSphereConvex.obj
 0001:00103490       ?pcmContactSphereHeightField@Gu@physx@@YA_NAEBVGeometryUnion@12@0AEBVPxTransform@2@1AEBMAEAUCache@12@AEAVContactBuffer@12@@Z 0000000180104490 f   GuPCMContactSphereHeightField.obj
 0001:00103f90       ??_E?$PCMHeightfieldContactGenerationCallback@UPCMSphereVsHeightfieldContactGenerationCallback@physx@@@Gu@physx@@UEAAPEAXI@Z 0000000180104f90 f i GuPCMContactSphereHeightField.obj
 0001:00103f90       ??_G?$PCMHeightfieldContactGenerationCallback@UPCMSphereVsHeightfieldContactGenerationCallback@physx@@@Gu@physx@@UEAAPEAXI@Z 0000000180104f90 f i GuPCMContactSphereHeightField.obj
 0001:00103fc0       ??_GPCMSphereVsHeightfieldContactGenerationCallback@physx@@UEAAPEAXI@Z 0000000180104fc0 f i GuPCMContactSphereHeightField.obj
 0001:00103fc0       ??_EPCMSphereVsHeightfieldContactGenerationCallback@physx@@UEAAPEAXI@Z 0000000180104fc0 f i GuPCMContactSphereHeightField.obj
 0001:00103ff0       ?onEvent@?$PCMHeightfieldContactGenerationCallback@UPCMSphereVsHeightfieldContactGenerationCallback@physx@@@Gu@physx@@UEAA_NIPEAI@Z 0000000180104ff0 f i GuPCMContactSphereHeightField.obj
 0001:00104570       ?pcmContactSphereMesh@Gu@physx@@YA_NAEBVGeometryUnion@12@0AEBVPxTransform@2@1AEBMAEAUCache@12@AEAVContactBuffer@12@@Z 0000000180105570 f   GuPCMContactSphereMesh.obj
 0001:001051b0       ??$processTriangleCache@$0BA@VPCMSphereVsMeshContactGeneration@Gu@physx@@@PCMMeshContactGeneration@Gu@physx@@QEAA_NAEAU?$TriangleCache@$0BA@@12@@Z 00000001801061b0 f i GuPCMContactSphereMesh.obj
 0001:00105240       ??_E?$PCMMeshContactGenerationCallback@UPCMSphereVsMeshContactGenerationCallback@physx@@@Gu@physx@@UEAAPEAXI@Z 0000000180106240 f i GuPCMContactSphereMesh.obj
 0001:00105240       ??_G?$PCMMeshContactGenerationCallback@UPCMSphereVsMeshContactGenerationCallback@physx@@@Gu@physx@@UEAAPEAXI@Z 0000000180106240 f i GuPCMContactSphereMesh.obj
 0001:00105270       ??_GPCMSphereVsMeshContactGenerationCallback@physx@@UEAAPEAXI@Z 0000000180106270 f i GuPCMContactSphereMesh.obj
 0001:00105270       ??_EPCMSphereVsMeshContactGenerationCallback@physx@@UEAAPEAXI@Z 0000000180106270 f i GuPCMContactSphereMesh.obj
 0001:001052a0       ?processHit@?$PCMMeshContactGenerationCallback@UPCMSphereVsMeshContactGenerationCallback@physx@@@Gu@physx@@UEAA_NAEBUPxRaycastHit@3@AEBVPxVec3@3@11AEAMPEBI@Z 00000001801062a0 f i GuPCMContactSphereMesh.obj
 0001:001055b0       ??0PCMPolygonalBox@Gu@physx@@QEAA@AEBVPxVec3@2@@Z 00000001801065b0 f   GuPCMShapeConvex.obj
 0001:001057b0       ?getPolygonalData@PCMPolygonalBox@Gu@physx@@QEBAXPEIAUPolygonalData@23@@Z 00000001801067b0 f   GuPCMShapeConvex.obj
 0001:00105800       ?getPCMConvexData@Gu@physx@@YAXAEBVConvexHullV@12@_NAEAUPolygonalData@12@@Z 0000000180106800 f   GuPCMShapeConvex.obj
 0001:00105850       ?getPCMConvexData@Gu@physx@@YA_NAEBVGeometryUnion@12@AEAVFastVertex2ShapeScaling@Cm@2@AEAVPxBounds3@2@AEAUPolygonalData@12@@Z 0000000180106850 f   GuPCMShapeConvex.obj
 0001:00105b40       ?generateTriangleFullContactManifold@PCMConvexVsMeshContactGeneration@Gu@physx@@QEAA_NAEAVTriangleV@23@IPEBIEAEBUPolygonalData@23@PEAV?$SupportLocalImpl@VTriangleV@Gu@physx@@@23@PEAVSupportLocal@23@PEAVMeshPersistentContact@23@AEAIAEBT__m128@@AEAT9@@Z 0000000180106b40 f   GuPCMTriangleContactGen.obj
 0001:001065a0       ?generatePolyDataContactManifold@PCMConvexVsMeshContactGeneration@Gu@physx@@QEAA_NAEAVTriangleV@23@IIEPEAVMeshPersistentContact@23@AEAIAEBT__m128@@AEAT6@@Z 00000001801075a0 f   GuPCMTriangleContactGen.obj
 0001:001066d0       ?generateTriangleFullContactManifold@PCMConvexVsMeshContactGeneration@Gu@physx@@SA_NAEAVTriangleV@23@IEAEBUPolygonalData@23@PEAV?$SupportLocalImpl@VTriangleV@Gu@physx@@@23@PEAVSupportLocal@23@PEAVMeshPersistentContact@23@AEAIAEBT__m128@@AEAT9@@Z 00000001801076d0 f   GuPCMTriangleContactGen.obj
 0001:00109240       ?findRotationMatrixFromZAxis@Gu@physx@@YA?AUMat33V@aos@shdfnd@2@AEBT__m128@@@Z 000000018010a240 f   GuPersistentContactManifold.obj
 0001:00109520       ?replaceManifoldPoint@PersistentContactManifold@Gu@physx@@QEAA_NAEBT__m128@@000@Z 000000018010a520 f   GuPersistentContactManifold.obj
 0001:001095d0       ?addManifoldPoint@PersistentContactManifold@Gu@physx@@QEAAIAEBT__m128@@000@Z 000000018010a5d0 f   GuPersistentContactManifold.obj
 0001:00109690       ?addManifoldPoint2@PersistentContactManifold@Gu@physx@@QEAAIAEBT__m128@@000@Z 000000018010a690 f   GuPersistentContactManifold.obj
 0001:00109760       ?addBatchManifoldContactsCluster@PersistentContactManifold@Gu@physx@@QEAAXPEBVPersistentContact@23@I@Z 000000018010a760 f   GuPersistentContactManifold.obj
 0001:001097e0       ?addBatchManifoldContacts2@PersistentContactManifold@Gu@physx@@QEAAXPEBVPersistentContact@23@I@Z 000000018010a7e0 f   GuPersistentContactManifold.obj
 0001:00109860       ?addBatchManifoldContacts@PersistentContactManifold@Gu@physx@@QEAAXPEBVPersistentContact@23@I@Z 000000018010a860 f   GuPersistentContactManifold.obj
 0001:001098e0       ?reduceBatchContactsCluster@PersistentContactManifold@Gu@physx@@QEAAXPEBVPersistentContact@23@I@Z 000000018010a8e0 f   GuPersistentContactManifold.obj
 0001:00109d90       ?reduceBatchContacts2@PersistentContactManifold@Gu@physx@@QEAAXPEBVPersistentContact@23@I@Z 000000018010ad90 f   GuPersistentContactManifold.obj
 0001:00109fb0       ?reduceBatchContacts@PersistentContactManifold@Gu@physx@@QEAAXPEBVPersistentContact@23@I@Z 000000018010afb0 f   GuPersistentContactManifold.obj
 0001:0010a2d0       ?reduceContactsForPCM@PersistentContactManifold@Gu@physx@@QEAAIAEBT__m128@@00@Z 000000018010b2d0 f   GuPersistentContactManifold.obj
 0001:0010a740       ?reduceContactSegment@PersistentContactManifold@Gu@physx@@QEAAIAEBT__m128@@00@Z 000000018010b740 f   GuPersistentContactManifold.obj
 0001:0010a7e0       ?addManifoldContactsToContactBuffer@PersistentContactManifold@Gu@physx@@QEAAXAEAVContactBuffer@23@AEBT__m128@@AEBVPsMatTransformV@aos@shdfnd@3@@Z 000000018010b7e0 f   GuPersistentContactManifold.obj
 0001:0010a8a0       ?addManifoldContactsToContactBuffer@PersistentContactManifold@Gu@physx@@QEAAXAEAVContactBuffer@23@AEBT__m128@@AEBVPsTransformV@aos@shdfnd@3@@Z 000000018010b8a0 f   GuPersistentContactManifold.obj
 0001:0010aa20       ?addManifoldContactsToContactBuffer@PersistentContactManifold@Gu@physx@@QEAAXAEAVContactBuffer@23@AEBT__m128@@AEBVPsTransformV@aos@shdfnd@3@1@Z 000000018010ba20 f   GuPersistentContactManifold.obj
 0001:0010abe0       ?drawManifold@PersistentContactManifold@Gu@physx@@QEAAXAEAVRenderOutput@Cm@3@AEBVPsTransformV@aos@shdfnd@3@1@Z 000000018010bbe0 f   GuPersistentContactManifold.obj
 0001:0010ac60       ?drawManifold@PersistentContactManifold@Gu@physx@@QEAAXAEAVRenderOutput@Cm@3@AEBVPsTransformV@aos@shdfnd@3@1AEBT__m128@@@Z 000000018010bc60 f   GuPersistentContactManifold.obj
 0001:0010ad00       ?drawManifold@PersistentContactManifold@Gu@physx@@QEAAXAEBVPersistentContact@23@AEAVRenderOutput@Cm@3@AEBVPsTransformV@aos@shdfnd@3@2@Z 000000018010bd00 f   GuPersistentContactManifold.obj
 0001:0010ad30       ?drawPoint@PersistentContactManifold@Gu@physx@@SAXAEAVRenderOutput@Cm@3@AEBT__m128@@MI@Z 000000018010bd30 f   GuPersistentContactManifold.obj
 0001:0010af10       ?drawLine@PersistentContactManifold@Gu@physx@@SAXAEAVRenderOutput@Cm@3@AEBT__m128@@1I@Z 000000018010bf10 f   GuPersistentContactManifold.obj
 0001:0010afd0       ?drawTriangle@PersistentContactManifold@Gu@physx@@SAXAEAVRenderOutput@Cm@3@AEBT__m128@@11I@Z 000000018010bfd0 f   GuPersistentContactManifold.obj
 0001:0010b0c0       ?drawPolygon@PersistentContactManifold@Gu@physx@@SAXAEAVRenderOutput@Cm@3@AEBVPsTransformV@aos@shdfnd@3@PEAT__m128@@II@Z 000000018010c0c0 f   GuPersistentContactManifold.obj
 0001:0010b3e0       ?drawPolygon@PersistentContactManifold@Gu@physx@@SAXAEAVRenderOutput@Cm@3@AEBVPsMatTransformV@aos@shdfnd@3@PEAT__m128@@II@Z 000000018010c3e0 f   GuPersistentContactManifold.obj
 0001:0010b5a0       ?reduceBatchContactsConvex@SinglePersistentContactManifold@Gu@physx@@QEAA?AT__m128@@PEBVMeshPersistentContact@23@IAEAUPCMContactPatch@23@@Z 000000018010c5a0 f   GuPersistentContactManifold.obj
 0001:0010bb70       ?reduceBatchContactsSphere@SinglePersistentContactManifold@Gu@physx@@QEAA?AT__m128@@PEBVMeshPersistentContact@23@IAEAUPCMContactPatch@23@@Z 000000018010cb70 f   GuPersistentContactManifold.obj
 0001:0010bc40       ?reduceBatchContactsCapsule@SinglePersistentContactManifold@Gu@physx@@QEAA?AT__m128@@PEBVMeshPersistentContact@23@IAEAUPCMContactPatch@23@@Z 000000018010cc40 f   GuPersistentContactManifold.obj
 0001:0010bee0       ?addBatchManifoldContactsConvex@SinglePersistentContactManifold@Gu@physx@@QEAA?AT__m128@@PEBVMeshPersistentContact@23@IAEAUPCMContactPatch@23@AEBT4@@Z 000000018010cee0 f   GuPersistentContactManifold.obj
 0001:0010bfb0       ?addBatchManifoldContactsSphere@SinglePersistentContactManifold@Gu@physx@@QEAA?AT__m128@@PEBVMeshPersistentContact@23@IAEAUPCMContactPatch@23@AEBT4@@Z 000000018010cfb0 f   GuPersistentContactManifold.obj
 0001:0010c000       ?addBatchManifoldContactsCapsule@SinglePersistentContactManifold@Gu@physx@@QEAA?AT__m128@@PEBVMeshPersistentContact@23@IAEAUPCMContactPatch@23@AEBT4@@Z 000000018010d000 f   GuPersistentContactManifold.obj
 0001:0010c0d0       ?reduceContacts@SinglePersistentContactManifold@Gu@physx@@SAIPEAVMeshPersistentContact@23@I@Z 000000018010d0d0 f   GuPersistentContactManifold.obj
 0001:0010c4b0       ?refreshContactPoints@SinglePersistentContactManifold@Gu@physx@@QEAA?AT__m128@@AEBVPsMatTransformV@aos@shdfnd@3@AEBT4@1@Z 000000018010d4b0 f   GuPersistentContactManifold.obj
 0001:0010c630       ?drawManifold@SinglePersistentContactManifold@Gu@physx@@QEAAXAEAVRenderOutput@Cm@3@AEBVPsTransformV@aos@shdfnd@3@1@Z 000000018010d630 f   GuPersistentContactManifold.obj
 0001:0010c6c0       ?addManifoldContactPoints@MultiplePersistentContactManifold@Gu@physx@@QEAAXPEAVMeshPersistentContact@23@IPEAPEAUPCMContactPatch@23@IAEBT__m128@@2E@Z 000000018010d6c0 f   GuPersistentContactManifold.obj
 0001:0010cb10       ?addManifoldContactsToContactBuffer@MultiplePersistentContactManifold@Gu@physx@@QEAA_NAEAVContactBuffer@23@AEBVPsTransformV@aos@shdfnd@3@@Z 000000018010db10 f   GuPersistentContactManifold.obj
 0001:0010ce10       ?addManifoldContactsToContactBuffer@MultiplePersistentContactManifold@Gu@physx@@QEAA_NAEAVContactBuffer@23@AEBVPsTransformV@aos@shdfnd@3@1AEBT__m128@@@Z 000000018010de10 f   GuPersistentContactManifold.obj
 0001:0010d160       ?drawManifold@MultiplePersistentContactManifold@Gu@physx@@QEAAXAEAVRenderOutput@Cm@3@AEBVPsTransformV@aos@shdfnd@3@1@Z 000000018010e160 f   GuPersistentContactManifold.obj
 0001:0010d220       ?drawLine@MultiplePersistentContactManifold@Gu@physx@@SAXAEAVRenderOutput@Cm@3@AEBT__m128@@1I@Z 000000018010e220 f   GuPersistentContactManifold.obj
 0001:0010d2e0       ?drawLine@MultiplePersistentContactManifold@Gu@physx@@SAXAEAVRenderOutput@Cm@3@VPxVec3@3@1I@Z 000000018010e2e0 f   GuPersistentContactManifold.obj
 0001:0010d3a0       ?drawPoint@MultiplePersistentContactManifold@Gu@physx@@SAXAEAVRenderOutput@Cm@3@AEBT__m128@@MI@Z 000000018010e3a0 f   GuPersistentContactManifold.obj
 0001:0010d580       ?drawPolygon@MultiplePersistentContactManifold@Gu@physx@@SAXAEAVRenderOutput@Cm@3@AEBVPsTransformV@aos@shdfnd@3@PEAT__m128@@II@Z 000000018010e580 f   GuPersistentContactManifold.obj
 0001:0010d8a0       ??0MeshPersistentContact@Gu@physx@@QEAA@XZ 000000018010e8a0 f i GuPersistentContactManifold.obj
 0001:0010d8b0       ??0PersistentContact@Gu@physx@@QEAA@XZ 000000018010e8b0 f i GuPersistentContactManifold.obj
 0001:0010ebe0       ?computeOBBPoints@Gu@physx@@YAXPEIAVPxVec3@2@AEBV32@1111@Z 000000018010fbe0 f   GuBox.obj
 0001:0010eef0       ?create@Box@Gu@physx@@QEAAXAEBVCapsule@23@@Z 000000018010fef0 f   GuBox.obj
 0001:0010f190       ?getBoxEdges@Gu@physx@@YAPEBEXZ 0000000180110190 f   GuBox.obj
 0001:0010f1a0       ?CompleteBoxPruning@Gu@physx@@YA_NPEBVPxBounds3@2@IAEAV?$Array@IV?$ReflectionAllocator@I@shdfnd@physx@@@shdfnd@2@AEBVAxes@12@@Z 00000001801101a0 f   GuBoxPruning.obj
 0001:0010f490       ?BipartiteBoxPruning@Gu@physx@@YA_NPEBVPxBounds3@2@I0IAEAV?$Array@IV?$ReflectionAllocator@I@shdfnd@physx@@@shdfnd@2@AEBVAxes@12@@Z 0000000180110490 f   GuBoxPruning.obj
 0001:0010fa70       ?GetNbHits@RadixSort@Gu@physx@@QEBAIXZ 0000000180110a70 f i GuBoxPruning.obj
 0001:0010fa80       ?GetNbTotalCalls@RadixSort@Gu@physx@@QEBAIXZ 0000000180110a80 f i GuBoxPruning.obj
 0001:0010fa90       ?GetRanks@RadixSort@Gu@physx@@QEBAPEBIXZ 0000000180110a90 f i GuBoxPruning.obj
 0001:0010faa0       ?GetRecyclable@RadixSort@Gu@physx@@QEBAPEAIXZ 0000000180110aa0 f i GuBoxPruning.obj
 0001:0010fab0       ?allocate@?$ReflectionAllocator@I@shdfnd@physx@@QEAAPEAX_KPEBDH@Z 0000000180110ab0 f i GuBoxPruning.obj
 0001:0010fb50       ?growAndPushBack@?$Array@IV?$ReflectionAllocator@I@shdfnd@physx@@@shdfnd@physx@@IEAAAEAIAEBI@Z 0000000180110b50 f i GuBoxPruning.obj
 0001:0010fc30       ?computeBoxAroundCapsule@Gu@physx@@YAXAEBVCapsule@12@AEAVBox@12@@Z 0000000180110c30 f   GuCapsule.obj
 0001:0010fe90       ?sweepCCTBoxTriangles@Gu@physx@@YA_NIPEBVPxTriangle@2@_NAEBVPxBoxGeometry@2@AEBVPxTransform@2@AEBVPxVec3@2@MAEAV62@5AEAMAEAIPEBIMV?$PxFlags@W4Enum@PxHitFlag@physx@@G@2@@Z 0000000180110e90 f   GuCCTSweepTests.obj
 0001:00110150       ?sweepCCTCapsule_BoxGeom@@YA_NAEBVPxGeometry@physx@@AEBVPxTransform@2@AEBVCapsule@Gu@2@AEBVPxVec3@2@MAEAUPxSweepHit@2@V?$PxFlags@W4Enum@PxHitFlag@physx@@G@2@M@Z 0000000180111150 f   GuCCTSweepTests.obj
 0001:001108e0       ?sweepCCTBox_SphereGeom@@YA_NAEBVPxGeometry@physx@@AEBVPxTransform@2@AEBVBox@Gu@2@AEBVPxVec3@2@MAEAUPxSweepHit@2@V?$PxFlags@W4Enum@PxHitFlag@physx@@G@2@M@Z 00000001801118e0 f   GuCCTSweepTests.obj
 0001:00110bf0       ?sweepCCTBox_CapsuleGeom@@YA_NAEBVPxGeometry@physx@@AEBVPxTransform@2@AEBVBox@Gu@2@AEBVPxVec3@2@MAEAUPxSweepHit@2@V?$PxFlags@W4Enum@PxHitFlag@physx@@G@2@M@Z 0000000180111bf0 f   GuCCTSweepTests.obj
 0001:00111000       ?sweepCCTBox_BoxGeom@@YA_NAEBVPxGeometry@physx@@AEBVPxTransform@2@AEBVBox@Gu@2@AEBVPxVec3@2@MAEAUPxSweepHit@2@V?$PxFlags@W4Enum@PxHitFlag@physx@@G@2@M@Z 0000000180112000 f   GuCCTSweepTests.obj
 0001:001112c0       ?sweepCCTBox_HeightFieldGeom@@YA_NAEBVPxGeometry@physx@@AEBVPxTransform@2@AEBVBox@Gu@2@AEBVPxVec3@2@MAEAUPxSweepHit@2@V?$PxFlags@W4Enum@PxHitFlag@physx@@G@2@M@Z 00000001801122c0 f   GuCCTSweepTests.obj
 0001:001114a0       ??_GLocalReport@?1??sweepCCTBox_HeightFieldGeom@@YA_NAEBVPxGeometry@physx@@AEBVPxTransform@3@AEBVBox@Gu@3@AEBVPxVec3@3@MAEAUPxSweepHit@3@V?$PxFlags@W4Enum@PxHitFlag@physx@@G@3@M@Z@UEAAPEAXI@Z 00000001801124a0 f i GuCCTSweepTests.obj
 0001:001114a0       ??_ELocalReport@?1??sweepCCTBox_HeightFieldGeom@@YA_NAEBVPxGeometry@physx@@AEBVPxTransform@3@AEBVBox@Gu@3@AEBVPxVec3@3@MAEAUPxSweepHit@3@V?$PxFlags@W4Enum@PxHitFlag@physx@@G@3@M@Z@UEAAPEAXI@Z 00000001801124a0 f i GuCCTSweepTests.obj
 0001:00112380       ??0Container@Gu@physx@@QEAA@XZ 0000000180113380 f   GuContainer.obj
 0001:001123a0       ??0Container@Gu@physx@@QEAA@AEBV012@@Z 00000001801133a0 f   GuContainer.obj
 0001:00112400       ??0Container@Gu@physx@@QEAA@IM@Z 0000000180113400 f   GuContainer.obj
 0001:00112440       ??1Container@Gu@physx@@QEAA@XZ 0000000180113440 f   GuContainer.obj
 0001:00112450       ?Contains@Container@Gu@physx@@QEBA_NIPEAI@Z 0000000180113450 f   GuContainer.obj
 0001:00112490       ?Delete@Container@Gu@physx@@QEAA_NI@Z 0000000180113490 f   GuContainer.obj
 0001:001124d0       ?DeleteKeepingOrder@Container@Gu@physx@@QEAA_NI@Z 00000001801134d0 f   GuContainer.obj
 0001:00112530       ??4Container@Gu@physx@@QEAAXAEBV012@@Z 0000000180113530 f   GuContainer.obj
 0001:00112570       ?InitSharedBuffers@Container@Gu@physx@@QEAAXIPEAI_N@Z 0000000180113570 f   GuContainerMemoryMgmt.obj
 0001:00112600       ?Empty@Container@Gu@physx@@QEAAAEAV123@XZ 0000000180113600 f   GuContainerMemoryMgmt.obj
 0001:00112660       ?SetSize@Container@Gu@physx@@QEAA_NI@Z 0000000180113660 f   GuContainerMemoryMgmt.obj
 0001:00112750       ?Refit@Container@Gu@physx@@QEAA_NXZ 0000000180113750 f   GuContainerMemoryMgmt.obj
 0001:00112840       ?Resize@Container@Gu@physx@@AEAA_NI@Z 0000000180113840 f   GuContainerMemoryMgmt.obj
 0001:00112990       ?convertToPxMat44@Debug@Gu@physx@@SA?AVPxMat44@3@AEBVMatrix34@Cm@3@@Z 0000000180113990 f   GuDebug.obj
 0001:00112a20       ?convertToPxMat44@Debug@Gu@physx@@SA?AVPxMat44@3@AEBVPxTransform@3@@Z 0000000180113a20 f   GuDebug.obj
 0001:00112bc0       ?visualize@Debug@Gu@physx@@SAXAEBVPxBoxGeometry@3@AEAVRenderOutput@Cm@3@AEBVMatrix34@63@AEBVPxBounds3@3@_KMI@Z 0000000180113bc0 f   GuDebug.obj
 0001:00112d70       ?visualize@Debug@Gu@physx@@SAXAEBVPxSphereGeometry@3@AEAVRenderOutput@Cm@3@AEBVMatrix34@63@AEBVPxBounds3@3@_KMI@Z 0000000180113d70 f   GuDebug.obj
 0001:00112ff0       ?visualize@Debug@Gu@physx@@SAXAEBVPxPlaneGeometry@3@AEAVRenderOutput@Cm@3@AEBVMatrix34@63@AEBVPxBounds3@3@_KMI@Z 0000000180113ff0 f   GuDebug.obj
 0001:001131a0       ?visualize@Debug@Gu@physx@@SAXAEBVPxCapsuleGeometry@3@AEAVRenderOutput@Cm@3@AEBVMatrix34@63@AEBVPxBounds3@3@_KMI@Z 00000001801141a0 f   GuDebug.obj
 0001:00113280       ?visualize@Debug@Gu@physx@@SAXAEBVPxConvexMeshGeometry@3@AEAVRenderOutput@Cm@3@AEBVMatrix34@63@AEBVPxBounds3@3@_KMI@Z 0000000180114280 f   GuDebug.obj
 0001:00113290       ?visualize@Debug@Gu@physx@@SAXAEBVPxTriangleMeshGeometry@3@AEAVRenderOutput@Cm@3@AEBVMatrix34@63@AEBVPxBounds3@3@_KMI@Z 0000000180114290 f   GuDebug.obj
 0001:001132e0       ?visualize@Debug@Gu@physx@@SAXAEBVPxHeightFieldGeometry@3@AEAVRenderOutput@Cm@3@AEBVMatrix34@63@AEBVPxBounds3@3@_KMI@Z 00000001801142e0 f   GuDebug.obj
 0001:00113e20       ?sweep@PxGeometryQuery@physx@@SA_NAEBVPxVec3@2@MAEBVPxGeometry@2@AEBVPxTransform@2@12AEAUPxSweepHit@2@V?$PxFlags@W4Enum@PxHitFlag@physx@@G@2@M@Z 0000000180114e20 f   GuGeometryQuery.obj
 0001:001142f0       ?overlap@PxGeometryQuery@physx@@SA_NAEBVPxGeometry@2@AEBVPxTransform@2@01@Z 00000001801152f0 f   GuGeometryQuery.obj
 0001:00114390       ?raycast@PxGeometryQuery@physx@@SAIAEBVPxVec3@2@0AEBVPxGeometry@2@AEBVPxTransform@2@MV?$PxFlags@W4Enum@PxHitFlag@physx@@G@2@IPEIAUPxRaycastHit@2@_N@Z 0000000180115390 f   GuGeometryQuery.obj
 0001:00114470       ?computePenetration@PxGeometryQuery@physx@@SA_NAEAVPxVec3@2@AEAMAEBVPxGeometry@2@AEBVPxTransform@2@23@Z 0000000180115470 f   GuGeometryQuery.obj
 0001:00114550       ?pointDistance@PxGeometryQuery@physx@@SAMAEBVPxVec3@2@AEBVPxGeometry@2@AEBVPxTransform@2@PEAV32@@Z 0000000180115550 f   GuGeometryQuery.obj
 0001:00114bc0       ?getWorldBounds@PxGeometryQuery@physx@@SA?AVPxBounds3@2@AEBVPxGeometry@2@AEBVPxTransform@2@M@Z 0000000180115bc0 f   GuGeometryQuery.obj
 0001:00114d50       ?set@GeometryUnion@Gu@physx@@QEAAXAEBVPxGeometry@3@@Z 0000000180115d50 f   GuGeometryUnion.obj
 0001:00114f20       ?computeBoxPoints@Gu@physx@@YAXAEBVPxBounds3@2@PEIAVPxVec3@2@@Z 0000000180115f20 f   GuGeomUtilsInternal.obj
 0001:00114fc0       ?computeBoundsAroundVertices@Gu@physx@@YAXAEAVPxBounds3@2@IPEIBVPxVec3@2@@Z 0000000180115fc0 f   GuGeomUtilsInternal.obj
 0001:00115090       ?getPlane@Gu@physx@@YA?AVPxPlane@2@AEBVPxTransform@2@@Z 0000000180116090 f   GuGeomUtilsInternal.obj
 0001:00115140       ?getCapsuleTransform@Gu@physx@@YA?AVPxTransform@2@AEBVCapsule@12@AEAM@Z 0000000180116140 f   GuGeomUtilsInternal.obj
 0001:001153b0       ?computeSweptBox@Gu@physx@@YAXAEAVBox@12@AEBVPxVec3@2@1AEBVPxMat33@2@1M@Z 00000001801163b0 f   GuGeomUtilsInternal.obj
 0001:001158b0       ?computeBasis@shdfnd@physx@@YAXAEBVPxVec3@2@AEAV32@1@Z 00000001801168b0 f i GuGeomUtilsInternal.obj
 0001:001159d0       ??1GuMeshFactory@physx@@MEAA@XZ 00000001801169d0 f   GuMeshFactory.obj
 0001:00115a90       ?release@GuMeshFactory@physx@@QEAAXXZ 0000000180116a90 f   GuMeshFactory.obj
 0001:00115b20       ?addTriangleMesh@GuMeshFactory@physx@@QEAAXPEAVTriangleMesh@Gu@2@_N@Z 0000000180116b20 f   GuMeshFactory.obj
 0001:00115ba0       ?createTriangleMesh@GuMeshFactory@physx@@QEAAPEAVPxTriangleMesh@2@AEAVPxInputStream@2@@Z 0000000180116ba0 f   GuMeshFactory.obj
 0001:00115cc0       ?removeTriangleMesh@GuMeshFactory@physx@@QEAA_NAEAVPxTriangleMesh@2@@Z 0000000180116cc0 f   GuMeshFactory.obj
 0001:00115d10       ?getNbTriangleMeshes@GuMeshFactory@physx@@QEBAIXZ 0000000180116d10 f   GuMeshFactory.obj
 0001:00115d50       ?getTriangleMeshes@GuMeshFactory@physx@@QEBAIPEAPEAVPxTriangleMesh@2@II@Z 0000000180116d50 f   GuMeshFactory.obj
 0001:00115dd0       ?addConvexMesh@GuMeshFactory@physx@@QEAAXPEAVConvexMesh@Gu@2@_N@Z 0000000180116dd0 f   GuMeshFactory.obj
 0001:00115e50       ?createConvexMesh@GuMeshFactory@physx@@QEAAPEAVPxConvexMesh@2@AEAVPxInputStream@2@@Z 0000000180116e50 f   GuMeshFactory.obj
 0001:00115f70       ?removeConvexMesh@GuMeshFactory@physx@@QEAA_NAEAVPxConvexMesh@2@@Z 0000000180116f70 f   GuMeshFactory.obj
 0001:00115fc0       ?getNbConvexMeshes@GuMeshFactory@physx@@QEBAIXZ 0000000180116fc0 f   GuMeshFactory.obj
 0001:00116000       ?getConvexMeshes@GuMeshFactory@physx@@QEBAIPEAPEAVPxConvexMesh@2@II@Z 0000000180117000 f   GuMeshFactory.obj
 0001:00116080       ?addHeightField@GuMeshFactory@physx@@QEAAXPEAVHeightField@Gu@2@_N@Z 0000000180117080 f   GuMeshFactory.obj
 0001:00116110       ?createHeightField@GuMeshFactory@physx@@QEAAPEAVPxHeightField@2@AEBVPxHeightFieldDesc@2@@Z 0000000180117110 f   GuMeshFactory.obj
 0001:00116240       ?createHeightField@GuMeshFactory@physx@@QEAAPEAVPxHeightField@2@AEAVPxInputStream@2@@Z 0000000180117240 f   GuMeshFactory.obj
 0001:00116360       ?removeHeightField@GuMeshFactory@physx@@QEAA_NAEAVPxHeightField@2@@Z 0000000180117360 f   GuMeshFactory.obj
 0001:001163b0       ?getNbHeightFields@GuMeshFactory@physx@@QEBAIXZ 00000001801173b0 f   GuMeshFactory.obj
 0001:001163f0       ?getHeightFields@GuMeshFactory@physx@@QEBAIPEAPEAVPxHeightField@2@II@Z 00000001801173f0 f   GuMeshFactory.obj
 0001:00116480       ?addFactoryListener@GuMeshFactory@physx@@QEAAXAEAVGuMeshFactoryListener@2@@Z 0000000180117480 f   GuMeshFactory.obj
 0001:001164f0       ?removeFactoryListener@GuMeshFactory@physx@@QEAAXAEAVGuMeshFactoryListener@2@@Z 00000001801174f0 f   GuMeshFactory.obj
 0001:00116580       ?notifyFactoryListener@GuMeshFactory@physx@@QEAAXPEBVPxBase@2@G_N@Z 0000000180117580 f   GuMeshFactory.obj
 0001:00116600       ?allocate@?$ReflectionAllocator@PEAVGuMeshFactoryListener@physx@@@shdfnd@physx@@QEAAPEAX_KPEBDH@Z 0000000180117600 f i GuMeshFactory.obj
 0001:001166a0       ?create@?$HashBase@PEAVConvexMesh@Gu@physx@@PEAV123@U?$Hash@PEAVConvexMesh@Gu@physx@@@shdfnd@3@UGetKey@?$HashSetBase@PEAVConvexMesh@Gu@physx@@U?$Hash@PEAVConvexMesh@Gu@physx@@@shdfnd@3@VAllocator@53@$00@internal@53@VAllocator@53@$00@internal@shdfnd@physx@@QEAAPEAPEAVConvexMesh@Gu@4@AEBQEAV564@AEA_N@Z 00000001801176a0 f i GuMeshFactory.obj
 0001:00116830       ?create@?$HashBase@PEAVHeightField@Gu@physx@@PEAV123@U?$Hash@PEAVHeightField@Gu@physx@@@shdfnd@3@UGetKey@?$HashSetBase@PEAVHeightField@Gu@physx@@U?$Hash@PEAVHeightField@Gu@physx@@@shdfnd@3@VAllocator@53@$00@internal@53@VAllocator@53@$00@internal@shdfnd@physx@@QEAAPEAPEAVHeightField@Gu@4@AEBQEAV564@AEA_N@Z 0000000180117830 f i GuMeshFactory.obj
 0001:001169c0       ?create@?$HashBase@PEAVTriangleMesh@Gu@physx@@PEAV123@U?$Hash@PEAVTriangleMesh@Gu@physx@@@shdfnd@3@UGetKey@?$HashSetBase@PEAVTriangleMesh@Gu@physx@@U?$Hash@PEAVTriangleMesh@Gu@physx@@@shdfnd@3@VAllocator@53@$00@internal@53@VAllocator@53@$00@internal@shdfnd@physx@@QEAAPEAPEAVTriangleMesh@Gu@4@AEBQEAV564@AEA_N@Z 00000001801179c0 f i GuMeshFactory.obj
 0001:00116b50       ?erase@?$HashBase@PEAVConvexMesh@Gu@physx@@PEAV123@U?$Hash@PEAVConvexMesh@Gu@physx@@@shdfnd@3@UGetKey@?$HashSetBase@PEAVConvexMesh@Gu@physx@@U?$Hash@PEAVConvexMesh@Gu@physx@@@shdfnd@3@VAllocator@53@$00@internal@53@VAllocator@53@$00@internal@shdfnd@physx@@QEAA_NAEBQEAVConvexMesh@Gu@4@@Z 0000000180117b50 f i GuMeshFactory.obj
 0001:00116c30       ?erase@?$HashBase@PEAVHeightField@Gu@physx@@PEAV123@U?$Hash@PEAVHeightField@Gu@physx@@@shdfnd@3@UGetKey@?$HashSetBase@PEAVHeightField@Gu@physx@@U?$Hash@PEAVHeightField@Gu@physx@@@shdfnd@3@VAllocator@53@$00@internal@53@VAllocator@53@$00@internal@shdfnd@physx@@QEAA_NAEBQEAVHeightField@Gu@4@@Z 0000000180117c30 f i GuMeshFactory.obj
 0001:00116d10       ?erase@?$HashBase@PEAVTriangleMesh@Gu@physx@@PEAV123@U?$Hash@PEAVTriangleMesh@Gu@physx@@@shdfnd@3@UGetKey@?$HashSetBase@PEAVTriangleMesh@Gu@physx@@U?$Hash@PEAVTriangleMesh@Gu@physx@@@shdfnd@3@VAllocator@53@$00@internal@53@VAllocator@53@$00@internal@shdfnd@physx@@QEAA_NAEBQEAVTriangleMesh@Gu@4@@Z 0000000180117d10 f i GuMeshFactory.obj
 0001:00116df0       ?growAndPushBack@?$Array@PEAVGuMeshFactoryListener@physx@@V?$ReflectionAllocator@PEAVGuMeshFactoryListener@physx@@@shdfnd@2@@shdfnd@physx@@IEAAAEAPEAVGuMeshFactoryListener@3@AEBQEAV43@@Z 0000000180117df0 f i GuMeshFactory.obj
 0001:00116ed0       ?replaceWithLast@?$HashBase@PEAVConvexMesh@Gu@physx@@PEAV123@U?$Hash@PEAVConvexMesh@Gu@physx@@@shdfnd@3@UGetKey@?$HashSetBase@PEAVConvexMesh@Gu@physx@@U?$Hash@PEAVConvexMesh@Gu@physx@@@shdfnd@3@VAllocator@53@$00@internal@53@VAllocator@53@$00@internal@shdfnd@physx@@AEAAXI@Z 0000000180117ed0 f i GuMeshFactory.obj
 0001:00116fa0       ?replaceWithLast@?$HashBase@PEAVHeightField@Gu@physx@@PEAV123@U?$Hash@PEAVHeightField@Gu@physx@@@shdfnd@3@UGetKey@?$HashSetBase@PEAVHeightField@Gu@physx@@U?$Hash@PEAVHeightField@Gu@physx@@@shdfnd@3@VAllocator@53@$00@internal@53@VAllocator@53@$00@internal@shdfnd@physx@@AEAAXI@Z 0000000180117fa0 f i GuMeshFactory.obj
 0001:00117070       ?replaceWithLast@?$HashBase@PEAVTriangleMesh@Gu@physx@@PEAV123@U?$Hash@PEAVTriangleMesh@Gu@physx@@@shdfnd@3@UGetKey@?$HashSetBase@PEAVTriangleMesh@Gu@physx@@U?$Hash@PEAVTriangleMesh@Gu@physx@@@shdfnd@3@VAllocator@53@$00@internal@53@VAllocator@53@$00@internal@shdfnd@physx@@AEAAXI@Z 0000000180118070 f i GuMeshFactory.obj
 0001:00117140       ?getBinaryMetaData@HeightField@Gu@physx@@SAXAEAVPxOutputStream@3@@Z 0000000180118140 f   GuMetaData.obj
 0001:00117420       ?getBinaryMetaData@BigConvexData@physx@@SAXAEAVPxOutputStream@2@@Z 0000000180118420 f   GuMetaData.obj
 0001:00117640       ?getBinaryMetaData@ConvexMesh@Gu@physx@@SAXAEAVPxOutputStream@3@@Z 0000000180118640 f   GuMetaData.obj
 0001:00117b00       ?getBinaryMetaData@MeshInterface@Gu@physx@@SAXAEAVPxOutputStream@3@@Z 0000000180118b00 f   GuMetaData.obj
 0001:00117ca0       ?getBinaryMetaData@RTree@Gu@physx@@SAXAEAVPxOutputStream@3@@Z 0000000180118ca0 f   GuMetaData.obj
 0001:00118010       ?getBinaryMetaData@RTreeMidphase@Gu@physx@@SAXAEAVPxOutputStream@3@@Z 0000000180119010 f   GuMetaData.obj
 0001:00118140       ?getBinaryMetaData@InternalTriangleMesh@physx@@SAXAEAVPxOutputStream@2@@Z 0000000180119140 f   GuMetaData.obj
 0001:00118490       ?getBinaryMetaData@TriangleMesh@Gu@physx@@SAXAEAVPxOutputStream@3@@Z 0000000180119490 f   GuMetaData.obj
 0001:00118600       ?getBinaryMetaData@MaterialIndicesStruct@physx@@SAXAEAVPxOutputStream@2@@Z 0000000180119600 f   GuMetaData.obj
 0001:001187b0       ?getBinaryMetaData@GeometryUnion@Gu@physx@@SAXAEAVPxOutputStream@3@@Z 00000001801197b0 f   GuMetaData.obj
 0001:0011aa40       ?computeMTD_SphereSphere@Gu@physx@@YA_NAEAVPxVec3@2@AEAMAEBVSphere@12@2@Z 000000018011ba40 f   GuMTD.obj
 0001:0011ab30       ?computeMTD_SphereCapsule@Gu@physx@@YA_NAEAVPxVec3@2@AEAMAEBVSphere@12@AEBVCapsule@12@@Z 000000018011bb30 f   GuMTD.obj
 0001:0011ac90       ?computeMTD_SphereBox@Gu@physx@@YA_NAEAVPxVec3@2@AEAMAEBVSphere@12@AEBVBox@12@@Z 000000018011bc90 f   GuMTD.obj
 0001:0011b250       ?computeMTD_CapsuleCapsule@Gu@physx@@YA_NAEAVPxVec3@2@AEAMAEBVCapsule@12@2@Z 000000018011c250 f   GuMTD.obj
 0001:0011b420       ?computeMTD_CapsuleBox@Gu@physx@@YA_NAEAVPxVec3@2@AEAMAEBVCapsule@12@AEBVBox@12@@Z 000000018011c420 f   GuMTD.obj
 0001:0011b6c0       ?computeMTD_BoxBox@Gu@physx@@YA_NAEAVPxVec3@2@AEAMAEBVBox@12@2@Z 000000018011c6c0 f   GuMTD.obj
 0001:0011bb50       ?computeMTD_SphereConvex@Gu@physx@@YA_NAEAVPxVec3@2@AEAMAEBVSphere@12@AEBVPxConvexMeshGeometry@2@AEBVPxTransform@2@@Z 000000018011cb50 f   GuMTD.obj
 0001:0011bf70       ?computeMTD_BoxConvex@Gu@physx@@YA_NAEAVPxVec3@2@AEAMAEBVBox@12@AEBVPxConvexMeshGeometry@2@AEBVPxTransform@2@@Z 000000018011cf70 f   GuMTD.obj
 0001:0011c7c0       ?computeMTD_CapsuleConvex@Gu@physx@@YA_NAEAVPxVec3@2@AEAMAEBVCapsule@12@AEBVPxTransform@2@AEBVPxConvexMeshGeometry@2@3@Z 000000018011d7c0 f   GuMTD.obj
 0001:0011d190       ?computeMTD_ConvexConvex@Gu@physx@@YA_NAEAVPxVec3@2@AEAMAEBVPxConvexMeshGeometry@2@AEBVPxTransform@2@23@Z 000000018011e190 f   GuMTD.obj
 0001:0011dd20       ?computeMTD_SpherePlane@Gu@physx@@YA_NAEAVPxVec3@2@AEAMAEBVSphere@12@AEBVPxPlane@2@@Z 000000018011ed20 f   GuMTD.obj
 0001:0011dda0       ?computeMTD_PlaneBox@Gu@physx@@YA_NAEAVPxVec3@2@AEAMAEBVPxPlane@2@AEBVBox@12@@Z 000000018011eda0 f   GuMTD.obj
 0001:0011dfc0       ?computeMTD_PlaneCapsule@Gu@physx@@YA_NAEAVPxVec3@2@AEAMAEBVPxPlane@2@AEBVCapsule@12@@Z 000000018011efc0 f   GuMTD.obj
 0001:0011e0a0       ?computeMTD_PlaneConvex@Gu@physx@@YA_NAEAVPxVec3@2@AEAMAEBVPxPlane@2@AEBVPxConvexMeshGeometry@2@AEBVPxTransform@2@@Z 000000018011f0a0 f   GuMTD.obj
 0001:0011e910       ?computeMTD_SphereMesh@Gu@physx@@YA_NAEAVPxVec3@2@AEAMAEBVSphere@12@AEBVPxTriangleMeshGeometry@2@AEBVPxTransform@2@@Z 000000018011f910 f   GuMTD.obj
 0001:0011ea50       ?computeMTD_BoxMesh@Gu@physx@@YA_NAEAVPxVec3@2@AEAMAEBVBox@12@AEBVPxTriangleMeshGeometry@2@AEBVPxTransform@2@@Z 000000018011fa50 f   GuMTD.obj
 0001:0011ebc0       ?computeMTD_CapsuleMesh@Gu@physx@@YA_NAEAVPxVec3@2@AEAMAEBVCapsule@12@AEBVPxTriangleMeshGeometry@2@AEBVPxTransform@2@@Z 000000018011fbc0 f   GuMTD.obj
 0001:0011ecf0       ?computeMTD_ConvexMesh@Gu@physx@@YA_NAEAVPxVec3@2@AEAMAEBVPxConvexMeshGeometry@2@AEBVPxTransform@2@AEBVPxTriangleMeshGeometry@2@3@Z 000000018011fcf0 f   GuMTD.obj
 0001:0011edf0       ?computeMTD_SphereHeightField@Gu@physx@@YA_NAEAVPxVec3@2@AEAMAEBVSphere@12@AEBVPxHeightFieldGeometry@2@AEBVPxTransform@2@@Z 000000018011fdf0 f   GuMTD.obj
 0001:0011ef30       ?computeMTD_CapsuleHeightField@Gu@physx@@YA_NAEAVPxVec3@2@AEAMAEBVCapsule@12@AEBVPxHeightFieldGeometry@2@AEBVPxTransform@2@@Z 000000018011ff30 f   GuMTD.obj
 0001:0011f060       ?computeMTD_BoxHeightField@Gu@physx@@YA_NAEAVPxVec3@2@AEAMAEBVBox@12@AEBVPxHeightFieldGeometry@2@AEBVPxTransform@2@@Z 0000000180120060 f   GuMTD.obj
 0001:0011f1d0       ?computeMTD_ConvexHeightField@Gu@physx@@YA_NAEAVPxVec3@2@AEAMAEBVPxConvexMeshGeometry@2@AEBVPxTransform@2@AEBVPxHeightFieldGeometry@2@3@Z 00000001801201d0 f   GuMTD.obj
 0001:0011f2d0       ?pointConvexDistance@@YA_NAEAVPxVec3@physx@@0AEAMAEBV12@PEBVConvexMesh@Gu@2@AEBVPxMeshScale@2@AEBVPxTransform@2@@Z 00000001801202d0 f   GuMTD.obj
 0001:00121900       ??0ContactPoint@Gu@physx@@QEAA@XZ 0000000180122900 f i GuMTD.obj
 0001:001222b0       ?computeBounds@GeometryUnion@Gu@physx@@QEBAXAEAVPxBounds3@3@AEBVPxTransform@3@MPEIBV43@@Z 00000001801232b0 f   GuObjectBounds.obj
 0001:00122900       ?computeBoundsWithCCDThreshold@GeometryUnion@Gu@physx@@QEBAMAEAVPxVec3@3@0AEBVPxTransform@3@PEIBVPxBounds3@3@@Z 0000000180123900 f   GuObjectBounds.obj
 0001:00123ab0       ?intersectPlaneBox@Gu@physx@@YA_NAEBVPxPlane@2@AEBVBox@12@@Z 0000000180124ab0 f   GuOverlapTests.obj
 0001:00123b70       ?intersectPlaneCapsule@Gu@physx@@YA_NAEBVCapsule@12@AEBVPxPlane@2@@Z 0000000180124b70 f   GuOverlapTests.obj
 0001:00123bf0       ?intersectSphereSphere@Gu@physx@@YA_NAEBVSphere@12@0@Z 0000000180124bf0 f   GuOverlapTests.obj
 0001:00123c40       ?intersectSphereCapsule@Gu@physx@@YA_NAEBVSphere@12@AEBVCapsule@12@@Z 0000000180124c40 f   GuOverlapTests.obj
 0001:00123c90       ?intersectSphereBox@Gu@physx@@YA_NAEBVSphere@12@AEBVBox@12@@Z 0000000180124c90 f   GuOverlapTests.obj
 0001:00123e90       ?intersectBoxCapsule@Gu@physx@@YA_NAEBVBox@12@AEBVCapsule@12@@Z 0000000180124e90 f   GuOverlapTests.obj
 0001:00123ef0       ?intersectSphereConvex@Gu@physx@@YA_NAEBVSphere@12@AEBVConvexMesh@12@AEBVPxMeshScale@2@AEBVPxTransform@2@PEAVPxVec3@2@@Z 0000000180124ef0 f   GuOverlapTests.obj
 0001:001246a0       ?intersectCapsuleConvex@Gu@physx@@YA_NAEBVPxCapsuleGeometry@2@AEBVPxTransform@2@AEBVConvexMesh@12@AEBVPxMeshScale@2@1PEAVPxVec3@2@@Z 00000001801256a0 f   GuOverlapTests.obj
 0001:00124fb0       ?intersectBoxConvex@Gu@physx@@YA_NAEBVPxBoxGeometry@2@AEBVPxTransform@2@AEBVConvexMesh@12@AEBVPxMeshScale@2@1PEAVPxVec3@2@@Z 0000000180125fb0 f   GuOverlapTests.obj
 0001:00125900       ?checkOverlapSphere_boxGeom@Gu@physx@@YA_NAEBVPxGeometry@2@AEBVPxTransform@2@AEBVSphere@12@@Z 0000000180126900 f   GuOverlapTests.obj
 0001:00125ac0       ?checkOverlapSphere_sphereGeom@Gu@physx@@YA_NAEBVPxGeometry@2@AEBVPxTransform@2@AEBVSphere@12@@Z 0000000180126ac0 f   GuOverlapTests.obj
 0001:00125b10       ?checkOverlapSphere_capsuleGeom@Gu@physx@@YA_NAEBVPxGeometry@2@AEBVPxTransform@2@AEBVSphere@12@@Z 0000000180126b10 f   GuOverlapTests.obj
 0001:00125c30       ?checkOverlapSphere_planeGeom@Gu@physx@@YA_NAEBVPxGeometry@2@AEBVPxTransform@2@AEBVSphere@12@@Z 0000000180126c30 f   GuOverlapTests.obj
 0001:00125c90       ?checkOverlapSphere_convexGeom@Gu@physx@@YA_NAEBVPxGeometry@2@AEBVPxTransform@2@AEBVSphere@12@@Z 0000000180126c90 f   GuOverlapTests.obj
 0001:00125ea0       ?checkOverlapOBB_boxGeom@Gu@physx@@YA_NAEBVPxGeometry@2@AEBVPxTransform@2@AEBVBox@12@@Z 0000000180126ea0 f   GuOverlapTests.obj
 0001:00126040       ?checkOverlapOBB_sphereGeom@Gu@physx@@YA_NAEBVPxGeometry@2@AEBVPxTransform@2@AEBVBox@12@@Z 0000000180127040 f   GuOverlapTests.obj
 0001:00126090       ?checkOverlapOBB_capsuleGeom@Gu@physx@@YA_NAEBVPxGeometry@2@AEBVPxTransform@2@AEBVBox@12@@Z 0000000180127090 f   GuOverlapTests.obj
 0001:001261d0       ?checkOverlapOBB_planeGeom@Gu@physx@@YA_NAEBVPxGeometry@2@AEBVPxTransform@2@AEBVBox@12@@Z 00000001801271d0 f   GuOverlapTests.obj
 0001:00126200       ?checkOverlapOBB_convexGeom@Gu@physx@@YA_NAEBVPxGeometry@2@AEBVPxTransform@2@AEBVBox@12@@Z 0000000180127200 f   GuOverlapTests.obj
 0001:00126490       ?checkOverlapCapsule_boxGeom@Gu@physx@@YA_NAEBVPxGeometry@2@AEBVPxTransform@2@AEBVCapsule@12@@Z 0000000180127490 f   GuOverlapTests.obj
 0001:00126680       ?checkOverlapCapsule_sphereGeom@Gu@physx@@YA_NAEBVPxGeometry@2@AEBVPxTransform@2@AEBVCapsule@12@@Z 0000000180127680 f   GuOverlapTests.obj
 0001:001266f0       ?checkOverlapCapsule_capsuleGeom@Gu@physx@@YA_NAEBVPxGeometry@2@AEBVPxTransform@2@AEBVCapsule@12@@Z 00000001801276f0 f   GuOverlapTests.obj
 0001:00126890       ?checkOverlapCapsule_planeGeom@Gu@physx@@YA_NAEBVPxGeometry@2@AEBVPxTransform@2@AEBVCapsule@12@@Z 0000000180127890 f   GuOverlapTests.obj
 0001:00126930       ?checkOverlapCapsule_convexGeom@Gu@physx@@YA_NAEBVPxGeometry@2@AEBVPxTransform@2@AEBVCapsule@12@@Z 0000000180127930 f   GuOverlapTests.obj
 0001:00126bb0       ?GetGeomOverlapMethodTable@Gu@physx@@YAPEAY06P6A_NAEBVPxGeometry@2@AEBVPxTransform@2@01PEAUTriggerCache@12@@ZXZ 0000000180127bb0 f   GuOverlapTests.obj
 0001:00126bc0       ?registerHeightFields@Gu@physx@@YAXXZ 0000000180127bc0 f   GuOverlapTests.obj
 0001:00129780       ?GetRaycastFuncTable@Gu@physx@@YAAEAY06P6AIAEBVPxGeometry@2@AEBVPxTransform@2@AEBVPxVec3@2@2MV?$PxFlags@W4Enum@PxHitFlag@physx@@G@2@IPEIAUPxRaycastHit@2@_NP6A_NAEAU72@PEAX@Z7@ZXZ 000000018012a780 f   GuRaycastTests.obj
 0001:00129790       ?raycast_box@@YAIAEBVPxGeometry@physx@@AEBVPxTransform@2@AEBVPxVec3@2@2MV?$PxFlags@W4Enum@PxHitFlag@physx@@G@2@IPEIAUPxRaycastHit@2@_NP6A_NAEAU62@PEAX@Z7@Z 000000018012a790 f   GuRaycastTests.obj
 0001:00129dd0       ?raycast_sphere@@YAIAEBVPxGeometry@physx@@AEBVPxTransform@2@AEBVPxVec3@2@2MV?$PxFlags@W4Enum@PxHitFlag@physx@@G@2@IPEIAUPxRaycastHit@2@_NP6A_NAEAU62@PEAX@Z7@Z 000000018012add0 f   GuRaycastTests.obj
 0001:00129f70       ?raycast_capsule@@YAIAEBVPxGeometry@physx@@AEBVPxTransform@2@AEBVPxVec3@2@2MV?$PxFlags@W4Enum@PxHitFlag@physx@@G@2@IPEIAUPxRaycastHit@2@_NP6A_NAEAU62@PEAX@Z7@Z 000000018012af70 f   GuRaycastTests.obj
 0001:0012a2b0       ?raycast_plane@@YAIAEBVPxGeometry@physx@@AEBVPxTransform@2@AEBVPxVec3@2@2MV?$PxFlags@W4Enum@PxHitFlag@physx@@G@2@IPEIAUPxRaycastHit@2@_NP6A_NAEAU62@PEAX@Z7@Z 000000018012b2b0 f   GuRaycastTests.obj
 0001:0012a480       ?raycast_convexMesh@@YAIAEBVPxGeometry@physx@@AEBVPxTransform@2@AEBVPxVec3@2@2MV?$PxFlags@W4Enum@PxHitFlag@physx@@G@2@IPEIAUPxRaycastHit@2@_NP6A_NAEAU62@PEAX@Z7@Z 000000018012b480 f   GuRaycastTests.obj
 0001:0012afd0       ?raycast_triangleMesh@@YAIAEBVPxGeometry@physx@@AEBVPxTransform@2@AEBVPxVec3@2@2MV?$PxFlags@W4Enum@PxHitFlag@physx@@G@2@IPEIAUPxRaycastHit@2@_NP6A_NAEAU62@PEAX@Z7@Z 000000018012bfd0 f   GuRaycastTests.obj
 0001:0012b7f0       ?raycast_heightField@@YAIAEBVPxGeometry@physx@@AEBVPxTransform@2@AEBVPxVec3@2@2MV?$PxFlags@W4Enum@PxHitFlag@physx@@G@2@IPEIAUPxRaycastHit@2@_NP6A_NAEAU62@PEAX@Z7@Z 000000018012c7f0 f   GuRaycastTests.obj
 0001:0012c030       ??$traceSegment@VRayCastCallback@Gu@physx@@$0A@$0A@$0A@@HeightFieldUtil@Gu@physx@@QEBAXAEBVPxVec3@2@0PEAVRayCastCallback@12@PEBV32@@Z 000000018012d030 f i GuRaycastTests.obj
 0001:0012cb70       ??Dphysx@@YA?AVMatrix34@Cm@0@AEBVPxMeshScale@0@AEBVPxTransform@0@@Z 000000018012db70 f i GuRaycastTests.obj
 0001:0012d1d0       ??_ERayMeshColliderCallback@@UEAAPEAXI@Z 000000018012e1d0 f i GuRaycastTests.obj
 0001:0012d1d0       ??_GRayMeshColliderCallback@@UEAAPEAXI@Z 000000018012e1d0 f i GuRaycastTests.obj
 0001:0012d200       ?processHit@RayMeshColliderCallback@@UEAA_NAEBUPxRaycastHit@physx@@AEBVPxVec3@3@11AEAMPEBI@Z 000000018012e200 f i GuRaycastTests.obj
 0001:0012d8e0       ?transform@PxMeshScale@physx@@QEBA?AVPxVec3@2@AEBV32@@Z 000000018012e8e0 f i GuRaycastTests.obj
 0001:0012db40       ??0RadixSort@Gu@physx@@QEAA@XZ 000000018012eb40 f   GuRevisitedRadix.obj
 0001:0012db80       ??1RadixSort@Gu@physx@@UEAA@XZ 000000018012eb80 f   GuRevisitedRadix.obj
 0001:0012dba0       ?Sort@RadixSort@Gu@physx@@QEAAAEAV123@PEBIIW4RadixHint@23@@Z 000000018012eba0 f   GuRevisitedRadix.obj
 0001:0012e200       ?Sort@RadixSort@Gu@physx@@QEAAAEAV123@PEBMI@Z 000000018012f200 f   GuRevisitedRadix.obj
 0001:0012e8f0       ?SetBuffers@RadixSort@Gu@physx@@QEAA_NPEAI00PEAPEAI@Z 000000018012f8f0 f   GuRevisitedRadix.obj
 0001:0012e930       ??_ERadixSort@Gu@physx@@UEAAPEAXI@Z 000000018012f930 f i GuRevisitedRadix.obj
 0001:0012e9c0       ??_GRadixSort@Gu@physx@@UEAAPEAXI@Z 000000018012f9c0 f i GuRevisitedRadix.obj
 0001:0012e9f0       ??0RadixSortBuffered@Gu@physx@@QEAA@XZ 000000018012f9f0 f   GuRevisitedRadixBuffered.obj
 0001:0012ea20       ??1RadixSortBuffered@Gu@physx@@UEAA@XZ 000000018012fa20 f   GuRevisitedRadixBuffered.obj
 0001:0012ea80       ?Sort@RadixSortBuffered@Gu@physx@@QEAAAEAV123@PEBIIW4RadixHint@23@@Z 000000018012fa80 f   GuRevisitedRadixBuffered.obj
 0001:0012eb20       ?Sort@RadixSortBuffered@Gu@physx@@QEAAAEAV123@PEBMI@Z 000000018012fb20 f   GuRevisitedRadixBuffered.obj
 0001:0012ebb0       ?Resize@RadixSortBuffered@Gu@physx@@AEAA_NI@Z 000000018012fbb0 f   GuRevisitedRadixBuffered.obj
 0001:0012ec40       ??_ERadixSortBuffered@Gu@physx@@UEAAPEAXI@Z 000000018012fc40 f i GuRevisitedRadixBuffered.obj
 0001:0012ed70       ??_GRadixSortBuffered@Gu@physx@@UEAAPEAXI@Z 000000018012fd70 f i GuRevisitedRadixBuffered.obj
 0001:0012edf0       ?CheckResize@RadixSortBuffered@Gu@physx@@AEAAXI@Z 000000018012fdf0 f i GuRevisitedRadixBuffered.obj
 0001:0012ee30       ?writeChunk@physx@@YAXCCCCAEAVPxOutputStream@1@@Z 000000018012fe30 f   GuSerialize.obj
 0001:0012eeb0       ?readChunk@physx@@YAXAEAC000AEAVPxInputStream@1@@Z 000000018012feb0 f   GuSerialize.obj
 0001:0012ef40       ?readWord@physx@@YAG_NAEAVPxInputStream@1@@Z 000000018012ff40 f   GuSerialize.obj
 0001:0012ef90       ?readDword@physx@@YAI_NAEAVPxInputStream@1@@Z 000000018012ff90 f   GuSerialize.obj
 0001:0012eff0       ?readFloat@physx@@YAM_NAEAVPxInputStream@1@@Z 000000018012fff0 f   GuSerialize.obj
 0001:0012f050       ?writeWord@physx@@YAXG_NAEAVPxOutputStream@1@@Z 0000000180130050 f   GuSerialize.obj
 0001:0012f090       ?writeDword@physx@@YAXI_NAEAVPxOutputStream@1@@Z 0000000180130090 f   GuSerialize.obj
 0001:0012f0f0       ?writeFloat@physx@@YAXM_NAEAVPxOutputStream@1@@Z 00000001801300f0 f   GuSerialize.obj
 0001:0012f150       ?readFloatBuffer@physx@@YA_NPEAMI_NAEAVPxInputStream@1@@Z 0000000180130150 f   GuSerialize.obj
 0001:0012f1d0       ?writeWordBuffer@physx@@YAXPEBGI_NAEAVPxOutputStream@1@@Z 00000001801301d0 f   GuSerialize.obj
 0001:0012f260       ?writeFloatBuffer@physx@@YAXPEBMI_NAEAVPxOutputStream@1@@Z 0000000180130260 f   GuSerialize.obj
 0001:0012f300       ?writeHeader@physx@@YA_NCCCCI_NAEAVPxOutputStream@1@@Z 0000000180130300 f   GuSerialize.obj
 0001:0012f430       ?readHeader@physx@@YA_NCCCCAEAIAEA_NAEAVPxInputStream@1@@Z 0000000180130430 f   GuSerialize.obj
 0001:0012f590       ?computeMaxIndex@physx@@YAIPEBII@Z 0000000180130590 f   GuSerialize.obj
 0001:0012f5c0       ?computeMaxIndex@physx@@YAGPEBGI@Z 00000001801305c0 f   GuSerialize.obj
 0001:0012f5f0       ?storeIndices@physx@@YAXIIPEBIAEAVPxOutputStream@1@_N@Z 00000001801305f0 f   GuSerialize.obj
 0001:0012f6f0       ?readIndices@physx@@YAXIIPEAIAEAVPxInputStream@1@_N@Z 00000001801306f0 f   GuSerialize.obj
 0001:0012f7f0       ?WriteHeader@Gu@physx@@YA_NEEEEI_NAEAVPxOutputStream@2@@Z 00000001801307f0 f   GuSerialize.obj
 0001:0012f920       ?ReadHeader@Gu@physx@@YA_NEEEEAEAIAEA_NAEAVPxInputStream@2@@Z 0000000180130920 f   GuSerialize.obj
 0001:0012faa0       ?StoreIndices@Gu@physx@@YAXIIPEBIAEAVPxOutputStream@2@_N@Z 0000000180130aa0 f   GuSerialize.obj
 0001:0012fbe0       ?ReadIndices@Gu@physx@@YAXIIPEAIAEAVPxInputStream@2@_N@Z 0000000180130be0 f   GuSerialize.obj
 0001:0012fcf0       ?StoreIndices@Gu@physx@@YAXGIPEBGAEAVPxOutputStream@2@_N@Z 0000000180130cf0 f   GuSerialize.obj
 0001:0012fdd0       ?ReadIndices@Gu@physx@@YAXGIPEAGAEAVPxInputStream@2@_N@Z 0000000180130dd0 f   GuSerialize.obj
 0001:0012ff70       ?computeCapsule_TriangleMeshMTD@Gu@physx@@YA_NAEBVPxTriangleMeshGeometry@2@AEBVPxTransform@2@AEAVCapsuleV@12@MM_NAEAUPxSweepHit@2@@Z 0000000180130f70 f   GuSweepMTD.obj
 0001:00130880       ?computeCapsule_HeightFieldMTD@Gu@physx@@YA_NAEBVPxHeightFieldGeometry@2@AEBVPxTransform@2@AEAVCapsuleV@12@MM_NIAEAUPxSweepHit@2@@Z 0000000180131880 f   GuSweepMTD.obj
 0001:00130fe0       ?computeBox_TriangleMeshMTD@Gu@physx@@YA_NAEBVPxTriangleMeshGeometry@2@AEBVPxTransform@2@AEBVBox@12@1MM_NAEAUPxSweepHit@2@@Z 0000000180131fe0 f   GuSweepMTD.obj
 0001:00132010       ?computeBox_HeightFieldMTD@Gu@physx@@YA_NAEBVPxHeightFieldGeometry@2@AEBVPxTransform@2@AEBVBox@12@1MM_NIAEAUPxSweepHit@2@@Z 0000000180133010 f   GuSweepMTD.obj
 0001:00132f60       ?computeConvex_TriangleMeshMTD@Gu@physx@@YA_NAEBVPxTriangleMeshGeometry@2@AEBVPxTransform@2@AEBVPxConvexMeshGeometry@2@1MM_NAEAUPxSweepHit@2@@Z 0000000180133f60 f   GuSweepMTD.obj
 0001:001347d0       ?computeConvex_HeightFieldMTD@Gu@physx@@YA_NAEBVPxHeightFieldGeometry@2@AEBVPxTransform@2@AEBVPxConvexMeshGeometry@2@1MM_NIAEAUPxSweepHit@2@@Z 00000001801357d0 f   GuSweepMTD.obj
 0001:00135ed0       ?computeSphere_SphereMTD@Gu@physx@@YA_NAEBVSphere@12@0AEAUPxSweepHit@2@@Z 0000000180136ed0 f   GuSweepMTD.obj
 0001:00135fb0       ?computeSphere_CapsuleMTD@Gu@physx@@YA_NAEBVSphere@12@AEBVCapsule@12@AEAUPxSweepHit@2@@Z 0000000180136fb0 f   GuSweepMTD.obj
 0001:00136100       ?computeCapsule_CapsuleMTD@Gu@physx@@YA_NAEBVCapsule@12@0AEAUPxSweepHit@2@@Z 0000000180137100 f   GuSweepMTD.obj
 0001:001362c0       ?computePlane_CapsuleMTD@Gu@physx@@YA_NAEBVPxPlane@2@AEBVCapsule@12@AEAUPxSweepHit@2@@Z 00000001801372c0 f   GuSweepMTD.obj
 0001:001363d0       ?computePlane_BoxMTD@Gu@physx@@YA_NAEBVPxPlane@2@AEBVBox@12@AEAUPxSweepHit@2@@Z 00000001801373d0 f   GuSweepMTD.obj
 0001:00136630       ?computePlane_ConvexMTD@Gu@physx@@YA_NAEBVPxPlane@2@AEBVPxConvexMeshGeometry@2@AEBVPxTransform@2@AEAUPxSweepHit@2@@Z 0000000180137630 f   GuSweepMTD.obj
 0001:00136b30       ?calculateMTD@@YA_NAEBVCapsuleV@Gu@physx@@AEBT__m128@@_NPEBUMTDTriangle@@IIPEAVMeshPersistentContact@23@AEAIAEAT4@6656@Z 0000000180137b30 f   GuSweepMTD.obj
 0001:00136e30       ?calculateMTD@@YA_NAEBUPolygonalData@Gu@physx@@PEAVSupportLocal@23@AEAVPsTransformV@aos@shdfnd@3@AEBVPsMatTransformV@673@_NAEBT__m128@@PEBUMTDTriangle@@IIPEAVMeshPersistentContact@23@AEAIAEAT9@9989@Z 0000000180137e30 f   GuSweepMTD.obj
 0001:00137000       ??0MTDTriangle@@QEAA@XZ    0000000180138000 f i GuSweepMTD.obj
 0001:00137010       ??1MTDTriangle@@QEAA@XZ    0000000180138010 f i GuSweepMTD.obj
 0001:00137020       ??_GMeshMTDGenerationCallback@@UEAAPEAXI@Z 0000000180138020 f i GuSweepMTD.obj
 0001:00137020       ??_EMeshMTDGenerationCallback@@UEAAPEAXI@Z 0000000180138020 f i GuSweepMTD.obj
 0001:00137050       ??_GMidPhaseQueryLocalReport@@UEAAPEAXI@Z 0000000180138050 f i GuSweepMTD.obj
 0001:00137050       ??_EMidPhaseQueryLocalReport@@UEAAPEAXI@Z 0000000180138050 f i GuSweepMTD.obj
 0001:001371c0       ?onEvent@MidPhaseQueryLocalReport@@UEAA_NIPEAI@Z 00000001801381c0 f i GuSweepMTD.obj
 0001:00137240       ?processHit@MeshMTDGenerationCallback@@UEAA_NAEBUPxRaycastHit@physx@@AEBVPxVec3@3@11AEAMPEBI@Z 0000000180138240 f i GuSweepMTD.obj
 0001:00137280       ?SweepCapsuleTriangles@Gu@physx@@YA_NIPEBVPxTriangle@2@_NAEBVPxCapsuleGeometry@2@AEBVPxTransform@2@AEBVPxVec3@2@MPEBIAEAV62@6AEAMAEAIMV?$PxFlags@W4Enum@PxHitFlag@physx@@G@2@@Z 0000000180138280 f   GuSweepSharedTests.obj
 0001:001374e0       ?sweepCapsule_SphereGeom@@YA_NAEBVPxGeometry@physx@@AEBVPxTransform@2@AEBVCapsule@Gu@2@AEBVPxVec3@2@MAEAUPxSweepHit@2@V?$PxFlags@W4Enum@PxHitFlag@physx@@G@2@M@Z 00000001801384e0 f   GuSweepSharedTests.obj
 0001:00137670       ?sweepCapsule_PlaneGeom@@YA_NAEBVPxGeometry@physx@@AEBVPxTransform@2@AEBVCapsule@Gu@2@AEBVPxVec3@2@MAEAUPxSweepHit@2@V?$PxFlags@W4Enum@PxHitFlag@physx@@G@2@M@Z 0000000180138670 f   GuSweepSharedTests.obj
 0001:00137980       ?sweepCapsule_CapsuleGeom@@YA_NAEBVPxGeometry@physx@@AEBVPxTransform@2@AEBVCapsule@Gu@2@AEBVPxVec3@2@MAEAUPxSweepHit@2@V?$PxFlags@W4Enum@PxHitFlag@physx@@G@2@M@Z 0000000180138980 f   GuSweepSharedTests.obj
 0001:00137b70       ?sweepCapsule_ConvexGeom@@YA_NAEBVPxGeometry@physx@@AEBVPxTransform@2@AEBVCapsule@Gu@2@AEBVPxVec3@2@MAEAUPxSweepHit@2@V?$PxFlags@W4Enum@PxHitFlag@physx@@G@2@M@Z 0000000180138b70 f   GuSweepSharedTests.obj
 0001:00138960       ?sweepBox_PlaneGeom@@YA_NAEBVPxGeometry@physx@@AEBVPxTransform@2@AEBVBox@Gu@2@AEBVPxVec3@2@MAEAUPxSweepHit@2@V?$PxFlags@W4Enum@PxHitFlag@physx@@G@2@M@Z 0000000180139960 f   GuSweepSharedTests.obj
 0001:00138d50       ?sweepBox_ConvexGeom@@YA_NAEBVPxGeometry@physx@@AEBVPxTransform@2@AEBVBox@Gu@2@AEBVPxVec3@2@MAEAUPxSweepHit@2@V?$PxFlags@W4Enum@PxHitFlag@physx@@G@2@M@Z 0000000180139d50 f   GuSweepSharedTests.obj
 0001:00139ae0       ?sweepConvex_SphereGeom@@YA_NAEBVPxGeometry@physx@@AEBVPxTransform@2@AEBVPxConvexMeshGeometry@2@1AEBVPxVec3@2@MAEAUPxSweepHit@2@V?$PxFlags@W4Enum@PxHitFlag@physx@@G@2@M@Z 000000018013aae0 f   GuSweepSharedTests.obj
 0001:0013a6f0       ?sweepConvex_PlaneGeom@@YA_NAEBVPxGeometry@physx@@AEBVPxTransform@2@AEBVPxConvexMeshGeometry@2@1AEBVPxVec3@2@MAEAUPxSweepHit@2@V?$PxFlags@W4Enum@PxHitFlag@physx@@G@2@M@Z 000000018013b6f0 f   GuSweepSharedTests.obj
 0001:0013ab60       ?sweepConvex_CapsuleGeom@@YA_NAEBVPxGeometry@physx@@AEBVPxTransform@2@AEBVPxConvexMeshGeometry@2@1AEBVPxVec3@2@MAEAUPxSweepHit@2@V?$PxFlags@W4Enum@PxHitFlag@physx@@G@2@M@Z 000000018013bb60 f   GuSweepSharedTests.obj
 0001:0013ad70       ?sweepConvex_BoxGeom@@YA_NAEBVPxGeometry@physx@@AEBVPxTransform@2@AEBVPxConvexMeshGeometry@2@1AEBVPxVec3@2@MAEAUPxSweepHit@2@V?$PxFlags@W4Enum@PxHitFlag@physx@@G@2@M@Z 000000018013bd70 f   GuSweepSharedTests.obj
 0001:0013b050       ?sweepConvex_ConvexGeom@@YA_NAEBVPxGeometry@physx@@AEBVPxTransform@2@AEBVPxConvexMeshGeometry@2@1AEBVPxVec3@2@MAEAUPxSweepHit@2@V?$PxFlags@W4Enum@PxHitFlag@physx@@G@2@M@Z 000000018013c050 f   GuSweepSharedTests.obj
 0001:0013cc90       ?GetGeomSweepFuncs@Gu@physx@@YAAEBUGeomSweepFuncs@12@XZ 000000018013dc90 f   GuSweepTests.obj
 0001:0013cca0       ?SweepBoxTriangles@Gu@physx@@YA_NIPEBVPxTriangle@2@_NAEBVPxBoxGeometry@2@AEBVPxTransform@2@AEBVPxVec3@2@MAEAV62@5AEAMAEAIPEBIMV?$PxFlags@W4Enum@PxHitFlag@physx@@G@2@@Z 000000018013dca0 f   GuSweepTests.obj
 0001:0013d860       ?sweepCapsule_BoxGeom@@YA_NAEBVPxGeometry@physx@@AEBVPxTransform@2@AEBVCapsule@Gu@2@AEBVPxVec3@2@MAEAUPxSweepHit@2@V?$PxFlags@W4Enum@PxHitFlag@physx@@G@2@M@Z 000000018013e860 f   GuSweepTests.obj
 0001:0013e200       ?sweepBox_SphereGeom@@YA_NAEBVPxGeometry@physx@@AEBVPxTransform@2@AEBVBox@Gu@2@AEBVPxVec3@2@MAEAUPxSweepHit@2@V?$PxFlags@W4Enum@PxHitFlag@physx@@G@2@M@Z 000000018013f200 f   GuSweepTests.obj
 0001:0013e920       ?sweepBox_CapsuleGeom@@YA_NAEBVPxGeometry@physx@@AEBVPxTransform@2@AEBVBox@Gu@2@AEBVPxVec3@2@MAEAUPxSweepHit@2@V?$PxFlags@W4Enum@PxHitFlag@physx@@G@2@M@Z 000000018013f920 f   GuSweepTests.obj
 0001:0013f220       ?sweepBox_BoxGeom@@YA_NAEBVPxGeometry@physx@@AEBVPxTransform@2@AEBVBox@Gu@2@AEBVPxVec3@2@MAEAUPxSweepHit@2@V?$PxFlags@W4Enum@PxHitFlag@physx@@G@2@M@Z 0000000180140220 f   GuSweepTests.obj
 0001:0013fb28       CloseHandle                0000000180140b28 f   kernel32:KERNEL32.dll
 0001:0013fb2e       MapViewOfFile              0000000180140b2e f   kernel32:KERNEL32.dll
 0001:0013fb34       UnmapViewOfFile            0000000180140b34 f   kernel32:KERNEL32.dll
 0001:0013fb3a       CreateFileMappingA         0000000180140b3a f   kernel32:KERNEL32.dll
 0001:0013fb40       OpenFileMappingA           0000000180140b40 f   kernel32:KERNEL32.dll
 0001:0013fb46       FreeLibrary                0000000180140b46 f   kernel32:KERNEL32.dll
 0001:0013fb4c       GetProcAddress             0000000180140b4c f   kernel32:KERNEL32.dll
 0001:0013fb52       LoadLibraryA               0000000180140b52 f   kernel32:KERNEL32.dll
 0001:0013fb58       InitializeCriticalSection  0000000180140b58 f   kernel32:KERNEL32.dll
 0001:0013fb5e       EnterCriticalSection       0000000180140b5e f   kernel32:KERNEL32.dll
 0001:0013fb64       LeaveCriticalSection       0000000180140b64 f   kernel32:KERNEL32.dll
 0001:0013fb6a       TryEnterCriticalSection    0000000180140b6a f   kernel32:KERNEL32.dll
 0001:0013fb70       DeleteCriticalSection      0000000180140b70 f   kernel32:KERNEL32.dll
 0001:0013fb76       GetCurrentThread           0000000180140b76 f   kernel32:KERNEL32.dll
 0001:0013fb7c       GetCurrentThreadId         0000000180140b7c f   kernel32:KERNEL32.dll
 0001:0013fb82       OutputDebugStringA         0000000180140b82 f   kernel32:KERNEL32.dll
 0001:0013fb88       InitializeSListHead        0000000180140b88 f   kernel32:KERNEL32.dll
 0001:0013fb8e       InterlockedPopEntrySList   0000000180140b8e f   kernel32:KERNEL32.dll
 0001:0013fb94       InterlockedPushEntrySList  0000000180140b94 f   kernel32:KERNEL32.dll
 0001:0013fb9a       InterlockedFlushSList      0000000180140b9a f   kernel32:KERNEL32.dll
 0001:0013fba0       SetEvent                   0000000180140ba0 f   kernel32:KERNEL32.dll
 0001:0013fba6       ResetEvent                 0000000180140ba6 f   kernel32:KERNEL32.dll
 0001:0013fbac       WaitForSingleObject        0000000180140bac f   kernel32:KERNEL32.dll
 0001:0013fbb2       CreateEventA               0000000180140bb2 f   kernel32:KERNEL32.dll
 0001:0013fbb8       RaiseException             0000000180140bb8 f   kernel32:KERNEL32.dll
 0001:0013fbbe       GetLastError               0000000180140bbe f   kernel32:KERNEL32.dll
 0001:0013fbc4       Sleep                      0000000180140bc4 f   kernel32:KERNEL32.dll
 0001:0013fbca       SwitchToThread             0000000180140bca f   kernel32:KERNEL32.dll
 0001:0013fbd0       CreateThread               0000000180140bd0 f   kernel32:KERNEL32.dll
 0001:0013fbd6       SetThreadPriority          0000000180140bd6 f   kernel32:KERNEL32.dll
 0001:0013fbdc       GetThreadPriority          0000000180140bdc f   kernel32:KERNEL32.dll
 0001:0013fbe2       ExitThread                 0000000180140be2 f   kernel32:KERNEL32.dll
 0001:0013fbe8       TerminateThread            0000000180140be8 f   kernel32:KERNEL32.dll
 0001:0013fbee       ResumeThread               0000000180140bee f   kernel32:KERNEL32.dll
 0001:0013fbf4       TlsAlloc                   0000000180140bf4 f   kernel32:KERNEL32.dll
 0001:0013fbfa       TlsGetValue                0000000180140bfa f   kernel32:KERNEL32.dll
 0001:0013fc00       TlsSetValue                0000000180140c00 f   kernel32:KERNEL32.dll
 0001:0013fc06       TlsFree                    0000000180140c06 f   kernel32:KERNEL32.dll
 0001:0013fc0c       GetModuleHandleA           0000000180140c0c f   kernel32:KERNEL32.dll
 0001:0013fc12       SetThreadAffinityMask      0000000180140c12 f   kernel32:KERNEL32.dll
 0001:0013fc18       QueryPerformanceCounter    0000000180140c18 f   kernel32:KERNEL32.dll
 0001:0013fc1e       QueryPerformanceFrequency  0000000180140c1e f   kernel32:KERNEL32.dll
 0001:0013fc24       ??3@YAXPEAX_K@Z            0000000180140c24 f   LIBCMT:delete_scalar_size.obj
 0001:0013fc2c       ??_V@YAXPEAX_K@Z           0000000180140c2c f   LIBCMT:delete_array_size.obj
 0001:0013fc34       ?__scrt_initialize_type_info@@YAXXZ 0000000180140c34 f   LIBCMT:tncleanup.obj
 0001:0013fc44       ?__scrt_uninitialize_type_info@@YAXXZ 0000000180140c44 f   LIBCMT:tncleanup.obj
 0001:0013fc50       ??1type_info@@UEAA@XZ      0000000180140c50 f   LIBCMT:std_type_info_static.obj
 0001:0013fc5c       ??_Gtype_info@@UEAAPEAXI@Z 0000000180140c5c f i LIBCMT:std_type_info_static.obj
 0001:0013fc5c       ??_Etype_info@@UEAAPEAXI@Z 0000000180140c5c f i LIBCMT:std_type_info_static.obj
 0001:0013fc88       ??3@YAXPEAX@Z              0000000180140c88 f   LIBCMT:delete_scalar.obj
 0001:0013fc90       ??_V@YAXPEAX@Z             0000000180140c90 f   LIBCMT:delete_array.obj
 0001:0013fcb0       __chkstk                   0000000180140cb0 f   LIBCMT:_chkstk_.obj
 0001:0013fcb0       _alloca_probe              0000000180140cb0 f   LIBCMT:_chkstk_.obj
 0001:0013fd04       ??$__crt_fast_decode_pointer@PEAP6AXXZ@@YAPEAP6AXXZQEAP6AXXZ@Z 0000000180140d04 f i LIBCMT:utility.obj
 0001:0013fd1c       ??$__crt_fast_encode_pointer@PEAP6AXXZ@@YAPEAP6AXXZQEAP6AXXZ@Z 0000000180140d1c f i LIBCMT:utility.obj
 0001:0013fd3c       ?__crt_rotate_pointer_value@@YA_K_KH@Z 0000000180140d3c f i LIBCMT:utility.obj
 0001:0013fdc4       NtCurrentTeb               0000000180140dc4 f i LIBCMT:utility.obj
 0001:0013fdd0       __scrt_acquire_startup_lock 0000000180140dd0 f   LIBCMT:utility.obj
 0001:0013fe0c       __scrt_dllmain_after_initialize_c 0000000180140e0c f   LIBCMT:utility.obj
 0001:0013fe2c       __scrt_dllmain_before_initialize_c 0000000180140e2c f   LIBCMT:utility.obj
 0001:0013fe44       __scrt_dllmain_crt_thread_attach 0000000180140e44 f   LIBCMT:utility.obj
 0001:0013fe6c       __scrt_dllmain_crt_thread_detach 0000000180140e6c f   LIBCMT:utility.obj
 0001:0013fe84       __scrt_dllmain_exception_filter 0000000180140e84 f   LIBCMT:utility.obj
 0001:0013fee8       __scrt_dllmain_uninitialize_c 0000000180140ee8 f   LIBCMT:utility.obj
 0001:0013ff18       __scrt_dllmain_uninitialize_critical 0000000180140f18 f   LIBCMT:utility.obj
 0001:0013ff2c       __scrt_initialize_crt      0000000180140f2c f   LIBCMT:utility.obj
 0001:0013ff78       __scrt_initialize_onexit_tables 0000000180140f78 f   LIBCMT:utility.obj
 0001:00140044       __scrt_is_nonwritable_in_current_image 0000000180141044 f   LIBCMT:utility.obj
 0001:001400e0       __scrt_release_startup_lock 00000001801410e0 f   LIBCMT:utility.obj
 0001:00140104       __scrt_uninitialize_crt    0000000180141104 f   LIBCMT:utility.obj
 0001:00140130       _onexit                    0000000180141130 f   LIBCMT:utility.obj
 0001:00140180       at_quick_exit              0000000180141180 f   LIBCMT:utility.obj
 0001:001401b8       atexit                     00000001801411b8 f   LIBCMT:utility.obj
 0001:001401d0       ??_U@YAPEAX_K@Z            00000001801411d0 f   LIBCMT:new_array.obj
 0001:00140534       _CRT_INIT                  0000000180141534 f   LIBCMT:dll_dllmain.obj
 0001:0014053c       _DllMainCRTStartup         000000018014153c f   LIBCMT:dll_dllmain.obj
 0001:0014057c       __isa_available_init       000000018014157c f   LIBCMT:_cpu_disp_.obj
 0001:00140740       __scrt_is_ucrt_dll_in_use  0000000180141740 f   LIBCMT:ucrt_detection.obj
 0001:0014074c       __crt_debugger_hook        000000018014174c f   LIBCMT:utility_desktop.obj
 0001:00140754       __scrt_fastfail            0000000180141754 f   LIBCMT:utility_desktop.obj
 0001:0014089c       __scrt_get_show_window_mode 000000018014189c f   LIBCMT:utility_desktop.obj
 0001:001408dc       __scrt_initialize_winrt    00000001801418dc f   LIBCMT:utility_desktop.obj
 0001:001408e0       __scrt_is_managed_app      00000001801418e0 f   LIBCMT:utility_desktop.obj
 0001:00140934       __scrt_set_unhandled_exception_filter 0000000180141934 f   LIBCMT:utility_desktop.obj
 0001:00140944       __scrt_unhandled_exception_filter 0000000180141944 f   LIBCMT:utility_desktop.obj
 0001:0014097c       _guard_check_icall         000000018014197c f i LIBCMT:checkcfg.obj
 0001:00140984       ??2@YAPEAX_K@Z             0000000180141984 f   LIBCMT:new_scalar.obj
 0001:001409c0       __security_init_cookie     00000001801419c0 f   LIBCMT:gs_support.obj
 0001:00140a6c       DllMain                    0000000180141a6c f   LIBCMT:dll_dllmain_stub.obj
 0001:00140a74       __local_stdio_scanf_options 0000000180141a74 f i LIBCMT:default_local_stdio_options.obj
 0001:00140a7c       __scrt_initialize_default_local_stdio_options 0000000180141a7c f   LIBCMT:default_local_stdio_options.obj
 0001:00140a98       __scrt_get_dyn_tls_init_callback 0000000180141a98 f   LIBCMT:dyn_tls_init.obj
 0001:00140aa0       _RTC_Initialize            0000000180141aa0 f   LIBCMT:_initsect_.obj
 0001:00140aec       _RTC_Terminate             0000000180141aec f   LIBCMT:_initsect_.obj
 0001:00140b38       _guard_check_icall_nop     0000000180141b38 f i LIBCMT:guard_support.obj
 0001:00140b3c       _guard_icall_checks_enforced 0000000180141b3c f i LIBCMT:guard_support.obj
 0001:00140b54       ??0bad_alloc@std@@AEAA@QEBD@Z 0000000180141b54 f i LIBCMT:throw_bad_alloc.obj
 0001:00140b6c       ??0bad_alloc@std@@QEAA@AEBV01@@Z 0000000180141b6c f i LIBCMT:throw_bad_alloc.obj
 0001:00140bac       ??0bad_alloc@std@@QEAA@XZ  0000000180141bac f i LIBCMT:throw_bad_alloc.obj
 0001:00140bcc       ??0bad_array_new_length@std@@QEAA@AEBV01@@Z 0000000180141bcc f i LIBCMT:throw_bad_alloc.obj
 0001:00140c0c       ??0bad_array_new_length@std@@QEAA@XZ 0000000180141c0c f i LIBCMT:throw_bad_alloc.obj
 0001:00140c2c       ??0exception@std@@QEAA@AEBV01@@Z 0000000180141c2c f i LIBCMT:throw_bad_alloc.obj
 0001:00140c64       ??0exception@std@@QEAA@QEBDH@Z 0000000180141c64 f i LIBCMT:throw_bad_alloc.obj
 0001:00140c7c       ??1bad_alloc@std@@UEAA@XZ  0000000180141c7c f i LIBCMT:throw_bad_alloc.obj
 0001:00140c90       ??1bad_array_new_length@std@@UEAA@XZ 0000000180141c90 f i LIBCMT:throw_bad_alloc.obj
 0001:00140ca4       ??1exception@std@@UEAA@XZ  0000000180141ca4 f i LIBCMT:throw_bad_alloc.obj
 0001:00140cb8       ??_Gbad_alloc@std@@UEAAPEAXI@Z 0000000180141cb8 f i LIBCMT:throw_bad_alloc.obj
 0001:00140cb8       ??_Ebad_alloc@std@@UEAAPEAXI@Z 0000000180141cb8 f i LIBCMT:throw_bad_alloc.obj
 0001:00140cfc       ??_Gbad_array_new_length@std@@UEAAPEAXI@Z 0000000180141cfc f i LIBCMT:throw_bad_alloc.obj
 0001:00140cfc       ??_Ebad_array_new_length@std@@UEAAPEAXI@Z 0000000180141cfc f i LIBCMT:throw_bad_alloc.obj
 0001:00140d40       ??_Eexception@std@@UEAAPEAXI@Z 0000000180141d40 f i LIBCMT:throw_bad_alloc.obj
 0001:00140d40       ??_Gexception@std@@UEAAPEAXI@Z 0000000180141d40 f i LIBCMT:throw_bad_alloc.obj
 0001:00140d84       ?__scrt_throw_std_bad_alloc@@YAXXZ 0000000180141d84 f   LIBCMT:throw_bad_alloc.obj
 0001:00140da4       ?__scrt_throw_std_bad_array_new_length@@YAXXZ 0000000180141da4 f   LIBCMT:throw_bad_alloc.obj
 0001:00140dc4       ?what@exception@std@@UEBAPEBDXZ 0000000180141dc4 f i LIBCMT:throw_bad_alloc.obj
 0001:00140de0       __WSAFDIsSet               0000000180141de0 f   Ws2_32:WS2_32.dll
 0001:00140de6       accept                     0000000180141de6 f   Ws2_32:WS2_32.dll
 0001:00140dec       bind                       0000000180141dec f   Ws2_32:WS2_32.dll
 0001:00140df2       closesocket                0000000180141df2 f   Ws2_32:WS2_32.dll
 0001:00140df8       connect                    0000000180141df8 f   Ws2_32:WS2_32.dll
 0001:00140dfe       ioctlsocket                0000000180141dfe f   Ws2_32:WS2_32.dll
 0001:00140e04       getsockopt                 0000000180141e04 f   Ws2_32:WS2_32.dll
 0001:00140e0a       htonl                      0000000180141e0a f   Ws2_32:WS2_32.dll
 0001:00140e10       htons                      0000000180141e10 f   Ws2_32:WS2_32.dll
 0001:00140e16       inet_addr                  0000000180141e16 f   Ws2_32:WS2_32.dll
 0001:00140e1c       listen                     0000000180141e1c f   Ws2_32:WS2_32.dll
 0001:00140e22       recv                       0000000180141e22 f   Ws2_32:WS2_32.dll
 0001:00140e28       select                     0000000180141e28 f   Ws2_32:WS2_32.dll
 0001:00140e2e       send                       0000000180141e2e f   Ws2_32:WS2_32.dll
 0001:00140e34       setsockopt                 0000000180141e34 f   Ws2_32:WS2_32.dll
 0001:00140e3a       socket                     0000000180141e3a f   Ws2_32:WS2_32.dll
 0001:00140e40       gethostbyaddr              0000000180141e40 f   Ws2_32:WS2_32.dll
 0001:00140e46       gethostbyname              0000000180141e46 f   Ws2_32:WS2_32.dll
 0001:00140e4c       WSAStartup                 0000000180141e4c f   Ws2_32:WS2_32.dll
 0001:00140e52       WSACleanup                 0000000180141e52 f   Ws2_32:WS2_32.dll
 0001:00140e58       WSAGetLastError            0000000180141e58 f   Ws2_32:WS2_32.dll
 0001:00140e5e       WSASendDisconnect          0000000180141e5e f   Ws2_32:WS2_32.dll
 0001:00140e64       ??$__crt_fast_decode_pointer@P6AXXZ@@YAP6AXXZQ6AXXZ@Z 0000000180141e64 f i libvcruntime:purevirt.obj
 0001:00140e7c       ??$__crt_fast_encode_pointer@P6AXXZ@@YAP6AXXZQ6AXXZ@Z 0000000180141e7c f i libvcruntime:purevirt.obj
 0001:00140e9c       ??$__crt_interlocked_compare_exchange_pointer@$$A6AXXZ$$T$$T@@YAP6AXXZPEDS6AXXZ$$T1@Z 0000000180141e9c f i libvcruntime:purevirt.obj
 0001:00140ea8       ??$__crt_interlocked_exchange_pointer@$$A6AXXZP6AXXZ@@YAP6AXXZPEDS6AXXZQ6AXXZ@Z 0000000180141ea8 f i libvcruntime:purevirt.obj
 0001:00140eb0       ??$__crt_interlocked_read_pointer@$$A6AXXZ@@YAP6AXXZPEDS6AXXZ@Z 0000000180141eb0 f i libvcruntime:purevirt.obj
 0001:00140ebc       _get_purecall_handler      0000000180141ebc f   libvcruntime:purevirt.obj
 0001:00140edc       _purecall                  0000000180141edc f   libvcruntime:purevirt.obj
 0001:00140f18       _set_purecall_handler      0000000180141f18 f   libvcruntime:purevirt.obj
 0001:00140f60       ??$?RD@__crt_internal_free_policy@@QEBAXQEBD@Z 0000000180141f60 f i libvcruntime:std_type_info.obj
 0001:00140f68       ??$?RX@__crt_internal_free_policy@@QEBAXQEBX@Z 0000000180141f68 f i libvcruntime:std_type_info.obj
 0001:00140f70       ??$__crt_interlocked_compare_exchange_pointer@$$CBD$$T$$T@@YAPEBDPEDSEBD$$T1@Z 0000000180141f70 f i libvcruntime:std_type_info.obj
 0001:00140f7c       ??$__crt_interlocked_compare_exchange_pointer@$$CBDPEAD$$T@@YAPEBDPEDSEBDQEAD$$T@Z 0000000180141f7c f i libvcruntime:std_type_info.obj
 0001:00140f88       ??$__crt_interlocked_read_pointer@$$CBD@@YAPEBDPEDSEBD@Z 0000000180141f88 f i libvcruntime:std_type_info.obj
 0001:00140f94       ??0?$__crt_unique_heap_ptr@DU__crt_internal_free_policy@@@@QEAA@QEAD@Z 0000000180141f94 f i libvcruntime:std_type_info.obj
 0001:00140f9c       ??0?$__crt_unique_heap_ptr@XU__crt_internal_free_policy@@@@QEAA@QEAX@Z 0000000180141f9c f i libvcruntime:std_type_info.obj
 0001:00140fa4       ??1?$__crt_unique_heap_ptr@DU__crt_internal_free_policy@@@@QEAA@XZ 0000000180141fa4 f i libvcruntime:std_type_info.obj
 0001:00140fc0       ??1?$__crt_unique_heap_ptr@XU__crt_internal_free_policy@@@@QEAA@XZ 0000000180141fc0 f i libvcruntime:std_type_info.obj
 0001:00140fec       ??B?$__crt_unique_heap_ptr@DU__crt_internal_free_policy@@@@QEBA_NXZ 0000000180141fec f i libvcruntime:std_type_info.obj
 0001:00140ff8       ??B?$__crt_unique_heap_ptr@XU__crt_internal_free_policy@@@@QEBA_NXZ 0000000180141ff8 f i libvcruntime:std_type_info.obj
 0001:00141014       ?detach@?$__crt_unique_heap_ptr@XU__crt_internal_free_policy@@@@QEAAPEAXXZ 0000000180142014 f i libvcruntime:std_type_info.obj
 0001:0014101c       ?get@?$__crt_unique_heap_ptr@DU__crt_internal_free_policy@@@@QEBAPEADXZ 000000018014201c f i libvcruntime:std_type_info.obj
 0001:00141020       ?get@?$__crt_unique_heap_ptr@XU__crt_internal_free_policy@@@@QEBAPEAXXZ 0000000180142020 f i libvcruntime:std_type_info.obj
 0001:00141024       ?is_valid@?$__crt_unique_heap_ptr@DU__crt_internal_free_policy@@@@QEBA_NXZ 0000000180142024 f i libvcruntime:std_type_info.obj
 0001:00141030       ?is_valid@?$__crt_unique_heap_ptr@XU__crt_internal_free_policy@@@@QEBA_NXZ 0000000180142030 f i libvcruntime:std_type_info.obj
 0001:0014103c       ?release@?$__crt_unique_heap_ptr@DU__crt_internal_free_policy@@@@QEAAXXZ 000000018014203c f i libvcruntime:std_type_info.obj
 0001:00141058       ?release@?$__crt_unique_heap_ptr@XU__crt_internal_free_policy@@@@QEAAXXZ 0000000180142058 f i libvcruntime:std_type_info.obj
 0001:00141074       __std_type_info_compare    0000000180142074 f   libvcruntime:std_type_info.obj
 0001:0014109c       __std_type_info_destroy_list 000000018014209c f   libvcruntime:std_type_info.obj
 0001:001410c8       __std_type_info_hash       00000001801420c8 f   libvcruntime:std_type_info.obj
 0001:00141104       __std_type_info_name       0000000180142104 f   libvcruntime:std_type_info.obj
 0001:00141230       memcpy                     0000000180142230 f   libvcruntime:memcpy.obj
 0001:00141230       memmove                    0000000180142230 f   libvcruntime:memcpy.obj
 0001:00141680       memset                     0000000180142680 f   libvcruntime:memset.obj
 0001:00141820       __C_specific_handler       0000000180142820 f   libvcruntime:_chandler_.obj
 0001:00141a10       strchr                     0000000180142a10 f   libvcruntime:strchr.obj
 0001:00141a9c       strstr                     0000000180142a9c f   libvcruntime:strstr.obj
 0001:00141c7c       __vcrt_initialize          0000000180142c7c f   libvcruntime:initialization.obj
 0001:00141cb4       __vcrt_thread_attach       0000000180142cb4 f   libvcruntime:initialization.obj
 0001:00141cc8       __vcrt_thread_detach       0000000180142cc8 f   libvcruntime:initialization.obj
 0001:00141cdc       __vcrt_uninitialize        0000000180142cdc f   libvcruntime:initialization.obj
 0001:00141d08       __vcrt_uninitialize_critical 0000000180142d08 f   libvcruntime:initialization.obj
 0001:00141d70       EventDataDescCreate        0000000180142d70 f i libvcruntime:telemetry.obj
 0001:00141d7c       HRESULT_FROM_WIN32         0000000180142d7c f i libvcruntime:telemetry.obj
 0001:00141d8c       __telemetry_main_invoke_trigger 0000000180142d8c f   libvcruntime:telemetry.obj
 0001:00141ea4       __telemetry_main_return_trigger 0000000180142ea4 f   libvcruntime:telemetry.obj
 0001:00141fbc       __vcrt_initialize_telemetry_provider 0000000180142fbc f   libvcruntime:telemetry.obj
 0001:00141fd0       __vcrt_uninitialize_telemetry_provider 0000000180142fd0 f   libvcruntime:telemetry.obj
 0001:00141ff0       ??$?RD@__crt_public_free_policy@@QEBAXQEBD@Z 0000000180142ff0 f i libvcruntime:std_exception.obj
 0001:00141ff8       ??0?$__crt_unique_heap_ptr@DU__crt_public_free_policy@@@@QEAA@QEAD@Z 0000000180142ff8 f i libvcruntime:std_exception.obj
 0001:00142000       ??1?$__crt_unique_heap_ptr@DU__crt_public_free_policy@@@@QEAA@XZ 0000000180143000 f i libvcruntime:std_exception.obj
 0001:0014201c       ??B?$__crt_unique_heap_ptr@DU__crt_public_free_policy@@@@QEBA_NXZ 000000018014301c f i libvcruntime:std_exception.obj
 0001:00142028       ?detach@?$__crt_unique_heap_ptr@DU__crt_public_free_policy@@@@QEAAPEADXZ 0000000180143028 f i libvcruntime:std_exception.obj
 0001:00142030       ?get@?$__crt_unique_heap_ptr@DU__crt_public_free_policy@@@@QEBAPEADXZ 0000000180143030 f i libvcruntime:std_exception.obj
 0001:00142034       ?is_valid@?$__crt_unique_heap_ptr@DU__crt_public_free_policy@@@@QEBA_NXZ 0000000180143034 f i libvcruntime:std_exception.obj
 0001:00142040       ?release@?$__crt_unique_heap_ptr@DU__crt_public_free_policy@@@@QEAAXXZ 0000000180143040 f i libvcruntime:std_exception.obj
 0001:0014205c       __std_exception_copy       000000018014305c f   libvcruntime:std_exception.obj
 0001:001420ec       __std_exception_destroy    00000001801430ec f   libvcruntime:std_exception.obj
 0001:00142114       _CxxThrowException         0000000180143114 f   libvcruntime:throw.obj
 0001:001421ec       ??$?B$$A6AXXZ@__crt_fast_encoded_nullptr_t@@QEBAP6AXXZXZ 00000001801431ec f i libvcruntime:purevirt_data.obj
 0001:00142208       ?__crt_fast_encode_pointer@@YA?AU__crt_fast_encoded_nullptr_t@@$$T@Z 0000000180143208 f i libvcruntime:purevirt_data.obj
 0001:00142210       __vcrt_initialize_pure_virtual_call_handler 0000000180143210 f   libvcruntime:purevirt_data.obj
 0001:00142234       ??0Block@_HeapManager@@QEAA@XZ 0000000180143234 f i libvcruntime:undname.obj
 0001:0014223c       ??0DName@@QEAA@AEAPEBDD@Z  000000018014323c f   libvcruntime:undname.obj
 0001:0014231c       ??0DName@@QEAA@AEBV0@@Z    000000018014331c f i libvcruntime:undname.obj
 0001:00142328       ??0DName@@QEAA@D@Z         0000000180143328 f   libvcruntime:undname.obj
 0001:00142360       ??0DName@@QEAA@PEAV0@@Z    0000000180143360 f   libvcruntime:undname.obj
 0001:001423e8       ??0DName@@QEAA@PEBD@Z      00000001801433e8 f   libvcruntime:undname.obj
 0001:00142430       ??0DName@@QEAA@W4DNameStatus@@@Z 0000000180143430 f   libvcruntime:undname.obj
 0001:00142480       ??0DName@@QEAA@XZ          0000000180143480 f i libvcruntime:undname.obj
 0001:00142494       ??0DName@@QEAA@_J@Z        0000000180143494 f   libvcruntime:undname.obj
 0001:00142540       ??0DName@@QEAA@_K@Z        0000000180143540 f   libvcruntime:undname.obj
 0001:001425d0       ??0DNameNode@@IEAA@XZ      00000001801435d0 f   libvcruntime:undname.obj
 0001:001425e0       ??0DNameStatusNode@@AEAA@W4DNameStatus@@@Z 00000001801435e0 f   libvcruntime:undname.obj
 0001:00142604       ??0Replicator@@QEAA@XZ     0000000180143604 f i libvcruntime:undname.obj
 0001:0014260c       ??0UnDecorator@@QEAA@PEADPEBDHP6APEADJ@ZK@Z 000000018014360c f i libvcruntime:undname.obj
 0001:00142680       ??0charNode@@QEAA@D@Z      0000000180143680 f   libvcruntime:undname.obj
 0001:00142694       ??0pDNameNode@@QEAA@PEAVDName@@@Z 0000000180143694 f   libvcruntime:undname.obj
 0001:001426bc       ??0pairNode@@QEAA@PEAVDNameNode@@0@Z 00000001801436bc f   libvcruntime:undname.obj
 0001:001426d8       ??0pcharNode@@QEAA@PEBDH@Z 00000001801436d8 f   libvcruntime:undname.obj
 0001:00142760       ??2@YAPEAX_KAEAV_HeapManager@@H@Z 0000000180143760 f i libvcruntime:undname.obj
 0001:00142770       ??4DName@@QEAAAEAV0@AEBV0@@Z 0000000180143770 f   libvcruntime:undname.obj
 0001:0014277c       ??4DName@@QEAAAEAV0@D@Z    000000018014377c f i libvcruntime:undname.obj
 0001:001427b4       ??4DName@@QEAAAEAV0@PEAV0@@Z 00000001801437b4 f   libvcruntime:undname.obj
 0001:0014283c       ??4DName@@QEAAAEAV0@PEBD@Z 000000018014383c f   libvcruntime:undname.obj
 0001:0014287c       ??4DName@@QEAAAEAV0@W4DNameStatus@@@Z 000000018014387c f   libvcruntime:undname.obj
 0001:001428b8       ??AReplicator@@QEBA?AVDName@@H@Z 00000001801438b8 f   libvcruntime:undname.obj
 0001:00142900       ??BUnDecorator@@QEAAPEADXZ 0000000180143900 f i libvcruntime:undname.obj
 0001:00142b14       ??H@YA?AVDName@@DAEBV0@@Z  0000000180143b14 f i libvcruntime:undname.obj
 0001:00142b50       ??H@YA?AVDName@@PEBDAEBV0@@Z 0000000180143b50 f i libvcruntime:undname.obj
 0001:00142b8c       ??H@YA?AVDName@@W4DNameStatus@@AEBV0@@Z 0000000180143b8c f i libvcruntime:undname.obj
 0001:00142bc8       ??HDName@@QEBA?AV0@AEBV0@@Z 0000000180143bc8 f   libvcruntime:undname.obj
 0001:00142bec       ??HDName@@QEBA?AV0@D@Z     0000000180143bec f   libvcruntime:undname.obj
 0001:00142c10       ??HDName@@QEBA?AV0@PEAV0@@Z 0000000180143c10 f   libvcruntime:undname.obj
 0001:00142c34       ??HDName@@QEBA?AV0@PEBD@Z  0000000180143c34 f   libvcruntime:undname.obj
 0001:00142c58       ??HDName@@QEBA?AV0@W4DNameStatus@@@Z 0000000180143c58 f   libvcruntime:undname.obj
 0001:00142c7c       ??YDName@@QEAAAEAV0@AEBV0@@Z 0000000180143c7c f   libvcruntime:undname.obj
 0001:00142cbc       ??YDName@@QEAAAEAV0@D@Z    0000000180143cbc f   libvcruntime:undname.obj
 0001:00142d40       ??YDName@@QEAAAEAV0@PEAV0@@Z 0000000180143d40 f   libvcruntime:undname.obj
 0001:00142dd8       ??YDName@@QEAAAEAV0@PEBD@Z 0000000180143dd8 f   libvcruntime:undname.obj
 0001:00142e64       ??YDName@@QEAAAEAV0@W4DNameStatus@@@Z 0000000180143e64 f   libvcruntime:undname.obj
 0001:00142ea8       ??YReplicator@@QEAAAEAV0@AEBVDName@@@Z 0000000180143ea8 f   libvcruntime:undname.obj
 0001:00142f08       ??_5DName@@QEAAAEAV0@AEBV0@@Z 0000000180143f08 f   libvcruntime:undname.obj
 0001:00142f1c       ?Constructor@_HeapManager@@QEAAXP6APEAX_K@ZP6AXPEAX@Z@Z 0000000180143f1c f i libvcruntime:undname.obj
 0001:00142f34       ?Destructor@_HeapManager@@QEAAXXZ 0000000180143f34 f i libvcruntime:undname.obj
 0001:00142f88       ?UScore@UnDecorator@@SAPEBDW4Tokens@@@Z 0000000180143f88 f   libvcruntime:undname.obj
 0001:00142fa8       ?append@DName@@AEAAXPEAVDNameNode@@@Z 0000000180143fa8 f   libvcruntime:undname.obj
 0001:0014300c       ?composeDeclaration@UnDecorator@@CA?AVDName@@AEBV2@@Z 000000018014400c f i libvcruntime:undname.obj
 0001:00143d84       ?doAccessSpecifiers@UnDecorator@@SAHXZ 0000000180144d84 f i libvcruntime:undname.obj
 0001:00143d94       ?doAllocationLanguage@UnDecorator@@SAHXZ 0000000180144d94 f i libvcruntime:undname.obj
 0001:00143da4       ?doAllocationModel@UnDecorator@@SAHXZ 0000000180144da4 f i libvcruntime:undname.obj
 0001:00143db4       ?doEcsu@UnDecorator@@SAHXZ 0000000180144db4 f i libvcruntime:undname.obj
 0001:00143dc4       ?doEllipsis@UnDecorator@@SAHXZ 0000000180144dc4 f i libvcruntime:undname.obj
 0001:00143dd4       ?doFunctionReturns@UnDecorator@@SAHXZ 0000000180144dd4 f i libvcruntime:undname.obj
 0001:00143de4       ?doMSKeywords@UnDecorator@@SAHXZ 0000000180144de4 f i libvcruntime:undname.obj
 0001:00143df4       ?doMemberTypes@UnDecorator@@SAHXZ 0000000180144df4 f i libvcruntime:undname.obj
 0001:00143e04       ?doNameOnly@UnDecorator@@SAHXZ 0000000180144e04 f i libvcruntime:undname.obj
 0001:00143e10       ?doNoIdentCharCheck@UnDecorator@@SAHXZ 0000000180144e10 f i libvcruntime:undname.obj
 0001:00143e1c       ?doPchar@DName@@AEAAXPEBDH@Z 0000000180144e1c f   libvcruntime:undname.obj
 0001:00143ecc       ?doPtr64@UnDecorator@@SAHXZ 0000000180144ecc f i libvcruntime:undname.obj
 0001:00143edc       ?doRestrictionSpec@UnDecorator@@SAHXZ 0000000180144edc f i libvcruntime:undname.obj
 0001:00143eec       ?doThisTypes@UnDecorator@@SAHXZ 0000000180144eec f i libvcruntime:undname.obj
 0001:00143f00       ?doThrowTypes@UnDecorator@@SAHXZ 0000000180144f00 f i libvcruntime:undname.obj
 0001:00143f10       ?doTypeOnly@UnDecorator@@SAHXZ 0000000180144f10 f i libvcruntime:undname.obj
 0001:00143f1c       ?doUnderScore@UnDecorator@@SAHXZ 0000000180144f1c f i libvcruntime:undname.obj
 0001:00143f28       ?getArgumentList@UnDecorator@@CA?AVDName@@XZ 0000000180144f28 f   libvcruntime:undname.obj
 0001:0014406c       ?getArgumentTypes@UnDecorator@@CA?AVDName@@XZ 000000018014506c f   libvcruntime:undname.obj
 0001:0014416c       ?getArrayType@UnDecorator@@CA?AVDName@@AEBV2@@Z 000000018014516c f i libvcruntime:undname.obj
 0001:001443a8       ?getBasedType@UnDecorator@@CA?AVDName@@XZ 00000001801453a8 f   libvcruntime:undname.obj
 0001:00144468       ?getBasicDataType@UnDecorator@@CA?AVDName@@AEBV2@@Z 0000000180145468 f   libvcruntime:undname.obj
 0001:001448a0       ?getCallIndex@UnDecorator@@CA?AVDName@@XZ 00000001801458a0 f i libvcruntime:undname.obj
 0001:001448bc       ?getCallingConvention@UnDecorator@@CA?AVDName@@XZ 00000001801458bc f   libvcruntime:undname.obj
 0001:001449bc       ?getDataIndirectType@UnDecorator@@CA?AVDName@@AEBV2@PEBD0H@Z 00000001801459bc f   libvcruntime:undname.obj
 0001:001450f4       ?getDataIndirectType@UnDecorator@@CA?AVDName@@XZ 00000001801460f4 f i libvcruntime:undname.obj
 0001:0014513c       ?getDataType@UnDecorator@@CA?AVDName@@PEAV2@@Z 000000018014613c f   libvcruntime:undname.obj
 0001:00145220       ?getDecoratedName@UnDecorator@@CA?AVDName@@XZ 0000000180146220 f   libvcruntime:undname.obj
 0001:00145494       ?getDimension@UnDecorator@@CA?AVDName@@_N@Z 0000000180146494 f   libvcruntime:undname.obj
 0001:001455f0       ?getDispatchTarget@UnDecorator@@CA?AVDName@@XZ 00000001801465f0 f   libvcruntime:undname.obj
 0001:00145654       ?getDisplacement@UnDecorator@@CA?AVDName@@XZ 0000000180146654 f i libvcruntime:undname.obj
 0001:00145670       ?getECSUDataType@UnDecorator@@CA?AVDName@@XZ 0000000180146670 f   libvcruntime:undname.obj
 0001:001457d4       ?getECSUName@UnDecorator@@CA?AVDName@@XZ 00000001801467d4 f i libvcruntime:undname.obj
 0001:001457ec       ?getEnumType@UnDecorator@@CA?AVDName@@XZ 00000001801467ec f i libvcruntime:undname.obj
 0001:001458d4       ?getExtendedDataIndirectType@UnDecorator@@CA?AVDName@@AEAPEBDAEA_NH@Z 00000001801468d4 f   libvcruntime:undname.obj
 0001:00145b18       ?getExternalDataType@UnDecorator@@CA?AVDName@@AEBV2@@Z 0000000180146b18 f i libvcruntime:undname.obj
 0001:00145bec       ?getFunctionIndirectType@UnDecorator@@CA?AVDName@@AEBV2@@Z 0000000180146bec f   libvcruntime:undname.obj
 0001:0014610c       ?getGuardNumber@UnDecorator@@CA?AVDName@@XZ 000000018014710c f i libvcruntime:undname.obj
 0001:00146128       ?getLastChar@DName@@QEBADXZ 0000000180147128 f i libvcruntime:undname.obj
 0001:00146160       ?getLastChar@DNameStatusNode@@UEBADXZ 0000000180147160 f i libvcruntime:undname.obj
 0001:0014616c       ?getLastChar@charNode@@UEBADXZ 000000018014716c f i libvcruntime:undname.obj
 0001:00146170       ?getLastChar@pDNameNode@@UEBADXZ 0000000180147170 f i libvcruntime:undname.obj
 0001:001461ac       ?getLastChar@pairNode@@UEBADXZ 00000001801471ac f i libvcruntime:undname.obj
 0001:00146204       ?getLastChar@pcharNode@@UEBADXZ 0000000180147204 f i libvcruntime:undname.obj
 0001:00146218       ?getLexicalFrame@UnDecorator@@CA?AVDName@@XZ 0000000180147218 f i libvcruntime:undname.obj
 0001:00146278       ?getMemory@_HeapManager@@QEAAPEAX_KH@Z 0000000180147278 f   libvcruntime:undname.obj
 0001:00146334       ?getNumberOfDimensions@UnDecorator@@CAHXZ 0000000180147334 f   libvcruntime:undname.obj
 0001:001463a8       ?getOperatorName@UnDecorator@@CA?AVDName@@_NPEA_N@Z 00000001801473a8 f i libvcruntime:undname.obj
 0001:00146b00       ?getPointerType@UnDecorator@@CA?AVDName@@AEBV2@0@Z 0000000180147b00 f i libvcruntime:undname.obj
 0001:00146b20       ?getPointerTypeArray@UnDecorator@@CA?AVDName@@AEBV2@0@Z 0000000180147b20 f i libvcruntime:undname.obj
 0001:00146b40       ?getPrimaryDataType@UnDecorator@@CA?AVDName@@AEBV2@@Z 0000000180147b40 f   libvcruntime:undname.obj
 0001:00146d84       ?getPtrRefDataType@UnDecorator@@CA?AVDName@@AEBV2@H@Z 0000000180147d84 f   libvcruntime:undname.obj
 0001:00146eac       ?getPtrRefType@UnDecorator@@CA?AVDName@@AEBV2@0PEBD@Z 0000000180147eac f   libvcruntime:undname.obj
 0001:00146fe0       ?getReferenceType@UnDecorator@@CA?AVDName@@AEBV2@0PEBD@Z 0000000180147fe0 f i libvcruntime:undname.obj
 0001:00146ff8       ?getRestrictionSpec@UnDecorator@@CA?AVDName@@XZ 0000000180147ff8 f   libvcruntime:undname.obj
 0001:00147124       ?getReturnType@UnDecorator@@CA?AVDName@@PEAV2@@Z 0000000180148124 f   libvcruntime:undname.obj
 0001:00147158       ?getScope@UnDecorator@@CA?AVDName@@XZ 0000000180148158 f   libvcruntime:undname.obj
 0001:00147604       ?getScopedName@UnDecorator@@CA?AVDName@@XZ 0000000180148604 f   libvcruntime:undname.obj
 0001:0014771c       ?getSignedDimension@UnDecorator@@CA?AVDName@@XZ 000000018014871c f   libvcruntime:undname.obj
 0001:00147798       ?getStorageConvention@UnDecorator@@CA?AVDName@@XZ 0000000180148798 f i libvcruntime:undname.obj
 0001:001477e0       ?getString@DName@@QEBAPEADPEAD0@Z 00000001801487e0 f i libvcruntime:undname.obj
 0001:00147838       ?getString@DName@@QEBAPEADPEADH@Z 0000000180148838 f i libvcruntime:undname.obj
 0001:001478e8       ?getString@DNameStatusNode@@UEBAPEADPEAD0@Z 00000001801488e8 f i libvcruntime:undname.obj
 0001:0014792c       ?getString@charNode@@UEBAPEADPEAD0@Z 000000018014892c f i libvcruntime:undname.obj
 0001:00147940       ?getString@pDNameNode@@UEBAPEADPEAD0@Z 0000000180148940 f i libvcruntime:undname.obj
 0001:001479a0       ?getString@pairNode@@UEBAPEADPEAD0@Z 00000001801489a0 f i libvcruntime:undname.obj
 0001:00147a24       ?getString@pcharNode@@UEBAPEADPEAD0@Z 0000000180148a24 f i libvcruntime:undname.obj
 0001:00147a5c       ?getStringEncoding@UnDecorator@@CA?AVDName@@PEADH@Z 0000000180148a5c f   libvcruntime:undname.obj
 0001:00147b1c       ?getStringHelper@@YAPEADPEAD00H@Z 0000000180148b1c f i libvcruntime:undname.obj
 0001:00147b4c       ?getSymbolName@UnDecorator@@CA?AVDName@@XZ 0000000180148b4c f i libvcruntime:undname.obj
 0001:00147b98       ?getTemplateArgumentList@UnDecorator@@CA?AVDName@@XZ 0000000180148b98 f   libvcruntime:undname.obj
 0001:00147e70       ?getTemplateConstant@UnDecorator@@CA?AVDName@@XZ 0000000180148e70 f   libvcruntime:undname.obj
 0001:00148218       ?getTemplateName@UnDecorator@@CA?AVDName@@_N@Z 0000000180149218 f   libvcruntime:undname.obj
 0001:001483f4       ?getThisType@UnDecorator@@CA?AVDName@@XZ 00000001801493f4 f i libvcruntime:undname.obj
 0001:0014843c       ?getThrowTypes@UnDecorator@@CA?AVDName@@XZ 000000018014943c f   libvcruntime:undname.obj
 0001:00148500       ?getTypeEncoding@UnDecorator@@CAHXZ 0000000180149500 f i libvcruntime:undname.obj
 0001:001489ec       ?getVCallThunkType@UnDecorator@@CA?AVDName@@XZ 00000001801499ec f i libvcruntime:undname.obj
 0001:00148a38       ?getVbTableType@UnDecorator@@CA?AVDName@@AEBV2@@Z 0000000180149a38 f i libvcruntime:undname.obj
 0001:00148a50       ?getVdispMapType@UnDecorator@@CA?AVDName@@AEBV2@@Z 0000000180149a50 f i libvcruntime:undname.obj
 0001:00148aac       ?getVfTableType@UnDecorator@@CA?AVDName@@AEBV2@@Z 0000000180149aac f i libvcruntime:undname.obj
 0001:00148c7c       ?getZName@UnDecorator@@CA?AVDName@@_N0@Z 0000000180149c7c f   libvcruntime:undname.obj
 0001:00148f18       ?haveTemplateParameters@UnDecorator@@SAHXZ 0000000180149f18 f i libvcruntime:undname.obj
 0001:00148f24       ?isArray@DName@@QEBAHXZ    0000000180149f24 f i libvcruntime:undname.obj
 0001:00148f30       ?isComArray@DName@@QEBAHXZ 0000000180149f30 f i libvcruntime:undname.obj
 0001:00148f3c       ?isEmpty@DName@@QEBAHXZ    0000000180149f3c f i libvcruntime:undname.obj
 0001:00148f48       ?isFull@Replicator@@QEBAHXZ 0000000180149f48 f i libvcruntime:undname.obj
 0001:00148f54       ?isNoTE@DName@@QEBAHXZ     0000000180149f54 f i libvcruntime:undname.obj
 0001:00148f60       ?isPinPtr@DName@@QEBAHXZ   0000000180149f60 f i libvcruntime:undname.obj
 0001:00148f6c       ?isPtrRef@DName@@QEBAHXZ   0000000180149f6c f i libvcruntime:undname.obj
 0001:00148f78       ?isUDC@DName@@QEBAHXZ      0000000180149f78 f i libvcruntime:undname.obj
 0001:00148f90       ?isUDTThunk@DName@@QEBAHXZ 0000000180149f90 f i libvcruntime:undname.obj
 0001:00148fa8       ?isVCallThunk@DName@@QEBAHXZ 0000000180149fa8 f i libvcruntime:undname.obj
 0001:00148fb4       ?isValid@DName@@QEBAHXZ    0000000180149fb4 f i libvcruntime:undname.obj
 0001:00148fc0       ?length@DName@@QEBAHXZ     0000000180149fc0 f i libvcruntime:undname.obj
 0001:00148ff4       ?length@DNameStatusNode@@UEBAHXZ 0000000180149ff4 f i libvcruntime:undname.obj
 0001:00148ff8       ?length@charNode@@UEBAHXZ  0000000180149ff8 f i libvcruntime:undname.obj
 0001:00149000       ?length@pDNameNode@@UEBAHXZ 000000018014a000 f i libvcruntime:undname.obj
 0001:0014903c       ?length@pairNode@@UEBAHXZ  000000018014a03c f i libvcruntime:undname.obj
 0001:001490a8       ?length@pcharNode@@UEBAHXZ 000000018014a0a8 f i libvcruntime:undname.obj
 0001:001490ac       ?make@DNameStatusNode@@SAPEAV1@W4DNameStatus@@@Z 000000018014a0ac f i libvcruntime:undname.obj
 0001:00149134       ?setIsArray@DName@@QEAAXXZ 000000018014a134 f i libvcruntime:undname.obj
 0001:0014913c       ?setIsComArray@DName@@QEAAXXZ 000000018014a13c f i libvcruntime:undname.obj
 0001:00149144       ?setIsNoTE@DName@@QEAAXXZ  000000018014a144 f i libvcruntime:undname.obj
 0001:0014914c       ?setIsPinPtr@DName@@QEAAXXZ 000000018014a14c f i libvcruntime:undname.obj
 0001:00149154       ?setIsUDC@DName@@QEAAXXZ   000000018014a154 f i libvcruntime:undname.obj
 0001:00149160       ?setIsVCallThunk@DName@@QEAAXXZ 000000018014a160 f i libvcruntime:undname.obj
 0001:00149168       ?setPtrRef@DName@@QEAAAEAV1@XZ 000000018014a168 f i libvcruntime:undname.obj
 0001:00149174       ?status@DName@@QEBA?AW4DNameStatus@@XZ 000000018014a174 f i libvcruntime:undname.obj
 0001:001491d8       __unDName                  000000018014a1d8 f   libvcruntime:undname.obj
 0001:001492d0       __unDNameEx                000000018014a2d0 f   libvcruntime:undname.obj
 0001:001493cc       _vsprintf_s_l              000000018014a3cc f i libvcruntime:undname.obj
 0001:00149430       sprintf_s                  000000018014a430 f i libvcruntime:undname.obj
 0001:001494a0       _local_unwind              000000018014a4a0 f   libvcruntime:_jmpuwind_.obj
 0001:001494d0       _NLG_Notify                000000018014a4d0 f   libvcruntime:_jmpuwind_.obj
 0001:001494f0       __NLG_Dispatch2            000000018014a4f0 f   libvcruntime:_jmpuwind_.obj
 0001:00149500       __NLG_Return2              000000018014a500 f   libvcruntime:_jmpuwind_.obj
 0001:00149504       __except_validate_context_record 000000018014a504 f   libvcruntime:jbcxrval.obj
 0001:00149508       __except_validate_jump_buffer 000000018014a508 f   libvcruntime:jbcxrval.obj
 0001:0014950c       ??$?RU__vcrt_ptd@@@__crt_internal_free_policy@@QEBAXQEBU__vcrt_ptd@@@Z 000000018014a50c f i libvcruntime:per_thread_data.obj
 0001:00149514       ??0?$__crt_unique_heap_ptr@U__vcrt_ptd@@U__crt_internal_free_policy@@@@QEAA@QEAU__vcrt_ptd@@@Z 000000018014a514 f i libvcruntime:per_thread_data.obj
 0001:0014951c       ??1?$__crt_unique_heap_ptr@U__vcrt_ptd@@U__crt_internal_free_policy@@@@QEAA@XZ 000000018014a51c f i libvcruntime:per_thread_data.obj
 0001:00149538       ??B?$__crt_unique_heap_ptr@U__vcrt_ptd@@U__crt_internal_free_policy@@@@QEBA_NXZ 000000018014a538 f i libvcruntime:per_thread_data.obj
 0001:00149544       ?detach@?$__crt_unique_heap_ptr@U__vcrt_ptd@@U__crt_internal_free_policy@@@@QEAAPEAU__vcrt_ptd@@XZ 000000018014a544 f i libvcruntime:per_thread_data.obj
 0001:0014954c       ?get@?$__crt_unique_heap_ptr@U__vcrt_ptd@@U__crt_internal_free_policy@@@@QEBAPEAU__vcrt_ptd@@XZ 000000018014a54c f i libvcruntime:per_thread_data.obj
 0001:00149550       ?is_valid@?$__crt_unique_heap_ptr@U__vcrt_ptd@@U__crt_internal_free_policy@@@@QEBA_NXZ 000000018014a550 f i libvcruntime:per_thread_data.obj
 0001:0014955c       ?release@?$__crt_unique_heap_ptr@U__vcrt_ptd@@U__crt_internal_free_policy@@@@QEAAXXZ 000000018014a55c f i libvcruntime:per_thread_data.obj
 0001:00149594       __vcrt_freefls             000000018014a594 f   libvcruntime:per_thread_data.obj
 0001:001495b4       __vcrt_freeptd             000000018014a5b4 f   libvcruntime:per_thread_data.obj
 0001:00149604       __vcrt_getptd              000000018014a604 f   libvcruntime:per_thread_data.obj
 0001:00149620       __vcrt_getptd_noexit       000000018014a620 f   libvcruntime:per_thread_data.obj
 0001:001496c8       __vcrt_initialize_ptd      000000018014a6c8 f   libvcruntime:per_thread_data.obj
 0001:00149708       __vcrt_uninitialize_ptd    000000018014a708 f   libvcruntime:per_thread_data.obj
 0001:0014972c       __vcrt_initialize_locks    000000018014a72c f   libvcruntime:locks.obj
 0001:00149774       __vcrt_lock                000000018014a774 f   libvcruntime:locks.obj
 0001:00149790       __vcrt_uninitialize_locks  000000018014a790 f   libvcruntime:locks.obj
 0001:001497c8       __vcrt_unlock              000000018014a7c8 f   libvcruntime:locks.obj
 0001:001497e4       ??$?BX@__crt_fast_encoded_nullptr_t@@QEBAPEAXXZ 000000018014a7e4 f i libvcruntime:winapi_downlevel.obj
 0001:00149800       ??$__crt_fast_decode_pointer@PEAX@@YAPEAXQEAX@Z 000000018014a800 f i libvcruntime:winapi_downlevel.obj
 0001:00149818       ??$__crt_fast_encode_pointer@PEAX@@YAPEAXQEAX@Z 000000018014a818 f i libvcruntime:winapi_downlevel.obj
 0001:00149838       ??$__crt_interlocked_compare_exchange_pointer@UHINSTANCE__@@$$T$$T@@YAPEAUHINSTANCE__@@PEDSEAU0@$$T1@Z 000000018014a838 f i libvcruntime:winapi_downlevel.obj
 0001:00149844       ??$__crt_interlocked_compare_exchange_pointer@X$$T$$T@@YAPEAXPEDSEAX$$T1@Z 000000018014a844 f i libvcruntime:winapi_downlevel.obj
 0001:00149850       ??$__crt_interlocked_exchange_pointer@UHINSTANCE__@@PEAU1@@@YAPEAUHINSTANCE__@@PEDSEAU0@QEAU0@@Z 000000018014a850 f i libvcruntime:winapi_downlevel.obj
 0001:00149858       ??$__crt_interlocked_exchange_pointer@UHINSTANCE__@@PEAX@@YAPEAUHINSTANCE__@@PEDSEAU0@QEAX@Z 000000018014a858 f i libvcruntime:winapi_downlevel.obj
 0001:00149860       ??$__crt_interlocked_exchange_pointer@XPEAX@@YAPEAXPEDSEAXQEAX@Z 000000018014a860 f i libvcruntime:winapi_downlevel.obj
 0001:00149868       ??$__crt_interlocked_read_pointer@UHINSTANCE__@@@@YAPEAUHINSTANCE__@@PEDSEAU0@@Z 000000018014a868 f i libvcruntime:winapi_downlevel.obj
 0001:00149874       ??$__crt_interlocked_read_pointer@X@@YAPEAXPEDSEAX@Z 000000018014a874 f i libvcruntime:winapi_downlevel.obj
 0001:00149e80       __vcrt_EventRegister       000000018014ae80 f   libvcruntime:winapi_downlevel.obj
 0001:00149f04       __vcrt_EventSetInformation 000000018014af04 f   libvcruntime:winapi_downlevel.obj
 0001:00149f88       __vcrt_EventUnregister     000000018014af88 f   libvcruntime:winapi_downlevel.obj
 0001:00149fdc       __vcrt_EventWriteTransfer  000000018014afdc f   libvcruntime:winapi_downlevel.obj
 0001:0014a074       __vcrt_FlsAlloc            000000018014b074 f   libvcruntime:winapi_downlevel.obj
 0001:0014a0c8       __vcrt_FlsFree             000000018014b0c8 f   libvcruntime:winapi_downlevel.obj
 0001:0014a11c       __vcrt_FlsGetValue         000000018014b11c f   libvcruntime:winapi_downlevel.obj
 0001:0014a170       __vcrt_FlsSetValue         000000018014b170 f   libvcruntime:winapi_downlevel.obj
 0001:0014a1d8       __vcrt_InitializeCriticalSectionEx 000000018014b1d8 f   libvcruntime:winapi_downlevel.obj
 0001:0014a250       __vcrt_initialize_winapi_thunks 000000018014b250 f   libvcruntime:winapi_downlevel.obj
 0001:0014a288       __vcrt_uninitialize_winapi_thunks 000000018014b288 f   libvcruntime:winapi_downlevel.obj
 0001:0014a3ac       _clearfp                   000000018014b3ac f   libucrt:ieee.obj
 0001:0014a400       _control87                 000000018014b400 f   libucrt:ieee.obj
 0001:0014a408       _controlfp                 000000018014b408 f   libucrt:ieee.obj
 0001:0014a414       _fpreset                   000000018014b414 f   libucrt:ieee.obj
 0001:0014a4c8       _set_controlfp             000000018014b4c8 f   libucrt:ieee.obj
 0001:0014a4fc       _statusfp                  000000018014b4fc f   libucrt:ieee.obj
 0001:0014a7dc       _controlfp_s               000000018014b7dc f   libucrt:contrlfp.obj
 0001:0014a840       ??$?RV<lambda_25e01c9ba3607ae47bf7ea803dd53646>@@AEAV<lambda_55f9cbce55698c0319f95c01c080475b>@@V<lambda_1e572b46264c157efb34a6cfecbbfc9c>@@@?$__crt_seh_guarded_call@H@@QEAAH$$QEAV<lambda_25e01c9ba3607ae47bf7ea803dd53646>@@AEAV<lambda_55f9cbce55698c0319f95c01c080475b>@@$$QEAV<lambda_1e572b46264c157efb34a6cfecbbfc9c>@@@Z 000000018014b840 f i libucrt:puts.obj
 0001:0014a880       ??$__acrt_lock_stream_and_call@V<lambda_55f9cbce55698c0319f95c01c080475b>@@@@YAHQEAU_iobuf@@$$QEAV<lambda_55f9cbce55698c0319f95c01c080475b>@@@Z 000000018014b880 f i libucrt:puts.obj
 0001:0014a8a8       ??$__crt_interlocked_read@J@@YAJPEDJ@Z 000000018014b8a8 f i libucrt:puts.obj
 0001:0014a8d4       ??0__acrt_stdio_temporary_buffering_guard@@QEAA@QEAU_iobuf@@@Z 000000018014b8d4 f i libucrt:puts.obj
 0001:0014a8f4       ??0__crt_stdio_stream@@QEAA@QEAU_iobuf@@@Z 000000018014b8f4 f i libucrt:puts.obj
 0001:0014a8fc       ??1__acrt_stdio_temporary_buffering_guard@@QEAA@XZ 000000018014b8fc f i libucrt:puts.obj
 0001:0014a9a0       ?__crt_interlocked_read_32@@YAHPEDH@Z 000000018014b9a0 f i libucrt:puts.obj
 0001:0014a9a4       ?get_flags@__crt_stdio_stream@@QEBAJXZ 000000018014b9a4 f i libucrt:puts.obj
 0001:0014a9ac       ?is_string_backed@__crt_stdio_stream@@QEBA_NXZ 000000018014b9ac f i libucrt:puts.obj
 0001:0014a9bc       ?public_stream@__crt_stdio_stream@@QEBAPEAU_iobuf@@XZ 000000018014b9bc f i libucrt:puts.obj
 0001:0014a9c0       puts                       000000018014b9c0 f   libucrt:puts.obj
 0001:0014aac4       ??$?0AEBV?$stream_output_adapter@D@__crt_stdio_output@@AEB_KAEBQEBDAEBQEAU__crt_locale_pointers@@AEBQEAD@?$format_validation_base@DV?$stream_output_adapter@D@__crt_stdio_output@@@__crt_stdio_output@@IEAA@AEBV?$stream_output_adapter@D@1@AEB_KAEBQEBDAEBQEAU__crt_locale_pointers@@AEBQEAD@Z 000000018014bac4 f i libucrt:output.obj
 0001:0014ab48       ??$?0AEBV?$stream_output_adapter@D@__crt_stdio_output@@AEB_KAEBQEBDAEBQEAU__crt_locale_pointers@@AEBQEAD@?$positional_parameter_base@DV?$stream_output_adapter@D@__crt_stdio_output@@@__crt_stdio_output@@IEAA@AEBV?$stream_output_adapter@D@1@AEB_KAEBQEBDAEBQEAU__crt_locale_pointers@@AEBQEAD@Z 000000018014bb48 f i libucrt:output.obj
 0001:0014abe8       ??$?0AEBV?$stream_output_adapter@D@__crt_stdio_output@@AEB_KAEBQEBDAEBQEAU__crt_locale_pointers@@AEBQEAD@?$standard_base@DV?$stream_output_adapter@D@__crt_stdio_output@@@__crt_stdio_output@@IEAA@AEBV?$stream_output_adapter@D@1@AEB_KAEBQEBDAEBQEAU__crt_locale_pointers@@AEBQEAD@Z 000000018014bbe8 f i libucrt:output.obj
 0001:0014ac6c       ??$?0AEBV?$stream_output_adapter@_W@__crt_stdio_output@@AEB_KAEBQEB_WAEBQEAU__crt_locale_pointers@@AEBQEAD@?$format_validation_base@_WV?$stream_output_adapter@_W@__crt_stdio_output@@@__crt_stdio_output@@IEAA@AEBV?$stream_output_adapter@_W@1@AEB_KAEBQEB_WAEBQEAU__crt_locale_pointers@@AEBQEAD@Z 000000018014bc6c f i libucrt:output.obj
 0001:0014acf4       ??$?0AEBV?$stream_output_adapter@_W@__crt_stdio_output@@AEB_KAEBQEB_WAEBQEAU__crt_locale_pointers@@AEBQEAD@?$positional_parameter_base@_WV?$stream_output_adapter@_W@__crt_stdio_output@@@__crt_stdio_output@@IEAA@AEBV?$stream_output_adapter@_W@1@AEB_KAEBQEB_WAEBQEAU__crt_locale_pointers@@AEBQEAD@Z 000000018014bcf4 f i libucrt:output.obj
 0001:0014ad98       ??$?0AEBV?$stream_output_adapter@_W@__crt_stdio_output@@AEB_KAEBQEB_WAEBQEAU__crt_locale_pointers@@AEBQEAD@?$standard_base@_WV?$stream_output_adapter@_W@__crt_stdio_output@@@__crt_stdio_output@@IEAA@AEBV?$stream_output_adapter@_W@1@AEB_KAEBQEB_WAEBQEAU__crt_locale_pointers@@AEBQEAD@Z 000000018014bd98 f i libucrt:output.obj
 0001:0014ae20       ??$?0AEBV?$string_output_adapter@D@__crt_stdio_output@@AEB_KAEBQEBDAEBQEAU__crt_locale_pointers@@AEBQEAD@?$format_validation_base@DV?$string_output_adapter@D@__crt_stdio_output@@@__crt_stdio_output@@IEAA@AEBV?$string_output_adapter@D@1@AEB_KAEBQEBDAEBQEAU__crt_locale_pointers@@AEBQEAD@Z 000000018014be20 f i libucrt:output.obj
 0001:0014aea4       ??$?0AEBV?$string_output_adapter@D@__crt_stdio_output@@AEB_KAEBQEBDAEBQEAU__crt_locale_pointers@@AEBQEAD@?$positional_parameter_base@DV?$string_output_adapter@D@__crt_stdio_output@@@__crt_stdio_output@@IEAA@AEBV?$string_output_adapter@D@1@AEB_KAEBQEBDAEBQEAU__crt_locale_pointers@@AEBQEAD@Z 000000018014bea4 f i libucrt:output.obj
 0001:0014af44       ??$?0AEBV?$string_output_adapter@D@__crt_stdio_output@@AEB_KAEBQEBDAEBQEAU__crt_locale_pointers@@AEBQEAD@?$standard_base@DV?$string_output_adapter@D@__crt_stdio_output@@@__crt_stdio_output@@IEAA@AEBV?$string_output_adapter@D@1@AEB_KAEBQEBDAEBQEAU__crt_locale_pointers@@AEBQEAD@Z 000000018014bf44 f i libucrt:output.obj
 0001:0014afc8       ??$?0AEBV?$string_output_adapter@_W@__crt_stdio_output@@AEB_KAEBQEB_WAEBQEAU__crt_locale_pointers@@AEBQEAD@?$format_validation_base@_WV?$string_output_adapter@_W@__crt_stdio_output@@@__crt_stdio_output@@IEAA@AEBV?$string_output_adapter@_W@1@AEB_KAEBQEB_WAEBQEAU__crt_locale_pointers@@AEBQEAD@Z 000000018014bfc8 f i libucrt:output.obj
 0001:0014b050       ??$?0AEBV?$string_output_adapter@_W@__crt_stdio_output@@AEB_KAEBQEB_WAEBQEAU__crt_locale_pointers@@AEBQEAD@?$positional_parameter_base@_WV?$string_output_adapter@_W@__crt_stdio_output@@@__crt_stdio_output@@IEAA@AEBV?$string_output_adapter@_W@1@AEB_KAEBQEB_WAEBQEAU__crt_locale_pointers@@AEBQEAD@Z 000000018014c050 f i libucrt:output.obj
 0001:0014b0f4       ??$?0AEBV?$string_output_adapter@_W@__crt_stdio_output@@AEB_KAEBQEB_WAEBQEAU__crt_locale_pointers@@AEBQEAD@?$standard_base@_WV?$string_output_adapter@_W@__crt_stdio_output@@@__crt_stdio_output@@IEAA@AEBV?$string_output_adapter@_W@1@AEB_KAEBQEB_WAEBQEAU__crt_locale_pointers@@AEBQEAD@Z 000000018014c0f4 f i libucrt:output.obj
 0001:0014b17c       ??$?RV<lambda_2647abb55a408a205467c4169a724277>@@AEAV<lambda_576477a770bb5ab586b2d9569451c7f7>@@V<lambda_c2b006f504a10a4cf14b9a1fbce2a01e>@@@?$__crt_seh_guarded_call@H@@QEAAH$$QEAV<lambda_2647abb55a408a205467c4169a724277>@@AEAV<lambda_576477a770bb5ab586b2d9569451c7f7>@@$$QEAV<lambda_c2b006f504a10a4cf14b9a1fbce2a01e>@@@Z 000000018014c17c f i libucrt:output.obj
 0001:0014b1bc       ??$?RV<lambda_2b8ba55cb2a29189d70f882b678c7350>@@AEAV<lambda_ab9668973a2a61b07c64846465621f55>@@V<lambda_748afda9c1ab82b4e15f74dcdf75db74>@@@?$__crt_seh_guarded_call@H@@QEAAH$$QEAV<lambda_2b8ba55cb2a29189d70f882b678c7350>@@AEAV<lambda_ab9668973a2a61b07c64846465621f55>@@$$QEAV<lambda_748afda9c1ab82b4e15f74dcdf75db74>@@@Z 000000018014c1bc f i libucrt:output.obj
 0001:0014b1fc       ??$?RV<lambda_4942f9dcb8a83a0b649775421cdab7f2>@@AEAV<lambda_9fdeb54d99e6c7e515b8c19e0613d470>@@V<lambda_f61bc4569557b8ad96931f67d51af400>@@@?$__crt_seh_guarded_call@H@@QEAAH$$QEAV<lambda_4942f9dcb8a83a0b649775421cdab7f2>@@AEAV<lambda_9fdeb54d99e6c7e515b8c19e0613d470>@@$$QEAV<lambda_f61bc4569557b8ad96931f67d51af400>@@@Z 000000018014c1fc f i libucrt:output.obj
 0001:0014b23c       ??$?RV<lambda_7b91131dde12e1c3dfc74ff76b3f2eac>@@AEAV<lambda_dd75445284c072d0bd3768540cc698fa>@@V<lambda_16bc4ecb55b4718497c16bceaea2ceaf>@@@?$__crt_seh_guarded_call@H@@QEAAH$$QEAV<lambda_7b91131dde12e1c3dfc74ff76b3f2eac>@@AEAV<lambda_dd75445284c072d0bd3768540cc698fa>@@$$QEAV<lambda_16bc4ecb55b4718497c16bceaea2ceaf>@@@Z 000000018014c23c f i libucrt:output.obj
 0001:0014b27c       ??$?RV<lambda_aa279a7bcb127014629d5b1d62c7325d>@@AEAV<lambda_0a64b6a4deda75c01876f29c44fc5eb3>@@V<lambda_3323e69fbefe9d1a11713e670d47cdfa>@@@?$__crt_seh_guarded_call@H@@QEAAH$$QEAV<lambda_aa279a7bcb127014629d5b1d62c7325d>@@AEAV<lambda_0a64b6a4deda75c01876f29c44fc5eb3>@@$$QEAV<lambda_3323e69fbefe9d1a11713e670d47cdfa>@@@Z 000000018014c27c f i libucrt:output.obj
 0001:0014b2bc       ??$?RV<lambda_c232a0c49490a30f399a8430f51b50ba>@@AEAV<lambda_7b6c652cce95ef5b7c2ff34f92bf0578>@@V<lambda_c415c6f6d9d103d7e93818ef66b8cc8a>@@@?$__crt_seh_guarded_call@H@@QEAAH$$QEAV<lambda_c232a0c49490a30f399a8430f51b50ba>@@AEAV<lambda_7b6c652cce95ef5b7c2ff34f92bf0578>@@$$QEAV<lambda_c415c6f6d9d103d7e93818ef66b8cc8a>@@@Z 000000018014c2bc f i libucrt:output.obj
 0001:0014b2fc       ??$__acrt_lock_stream_and_call@V<lambda_0a64b6a4deda75c01876f29c44fc5eb3>@@@@YAHQEAU_iobuf@@$$QEAV<lambda_0a64b6a4deda75c01876f29c44fc5eb3>@@@Z 000000018014c2fc f i libucrt:output.obj
 0001:0014b324       ??$__acrt_lock_stream_and_call@V<lambda_576477a770bb5ab586b2d9569451c7f7>@@@@YAHQEAU_iobuf@@$$QEAV<lambda_576477a770bb5ab586b2d9569451c7f7>@@@Z 000000018014c324 f i libucrt:output.obj
 0001:0014b34c       ??$__acrt_lock_stream_and_call@V<lambda_7b6c652cce95ef5b7c2ff34f92bf0578>@@@@YAHQEAU_iobuf@@$$QEAV<lambda_7b6c652cce95ef5b7c2ff34f92bf0578>@@@Z 000000018014c34c f i libucrt:output.obj
 0001:0014b374       ??$__acrt_lock_stream_and_call@V<lambda_9fdeb54d99e6c7e515b8c19e0613d470>@@@@YAHQEAU_iobuf@@$$QEAV<lambda_9fdeb54d99e6c7e515b8c19e0613d470>@@@Z 000000018014c374 f i libucrt:output.obj
 0001:0014b39c       ??$__acrt_lock_stream_and_call@V<lambda_ab9668973a2a61b07c64846465621f55>@@@@YAHQEAU_iobuf@@$$QEAV<lambda_ab9668973a2a61b07c64846465621f55>@@@Z 000000018014c39c f i libucrt:output.obj
 0001:0014b3c4       ??$__acrt_lock_stream_and_call@V<lambda_dd75445284c072d0bd3768540cc698fa>@@@@YAHQEAU_iobuf@@$$QEAV<lambda_dd75445284c072d0bd3768540cc698fa>@@@Z 000000018014c3c4 f i libucrt:output.obj
 0001:0014c4a0       ??$count@D@formatting_buffer@__crt_stdio_output@@QEBA_KXZ 000000018014d4a0 f i libucrt:output.obj
 0001:0014c4bc       ??$data@D@formatting_buffer@__crt_stdio_output@@QEAAPEADXZ 000000018014d4bc f i libucrt:output.obj
 0001:0014c4cc       ??$data@_W@formatting_buffer@__crt_stdio_output@@QEAAPEA_WXZ 000000018014d4cc f i libucrt:output.obj
 0001:0014c4dc       ??$ensure_buffer_is_big_enough@D@formatting_buffer@__crt_stdio_output@@QEAA_N_K@Z 000000018014d4dc f i libucrt:output.obj
 0001:0014c588       ??$extract_argument_from_va_list@C_J@?$positional_parameter_base@DV?$stream_output_adapter@D@__crt_stdio_output@@@__crt_stdio_output@@IEAA_NAEA_J@Z 000000018014d588 f i libucrt:output.obj
 0001:0014c64c       ??$extract_argument_from_va_list@C_J@?$positional_parameter_base@DV?$string_output_adapter@D@__crt_stdio_output@@@__crt_stdio_output@@IEAA_NAEA_J@Z 000000018014d64c f i libucrt:output.obj
 0001:0014c710       ??$extract_argument_from_va_list@C_J@?$positional_parameter_base@_WV?$stream_output_adapter@_W@__crt_stdio_output@@@__crt_stdio_output@@IEAA_NAEA_J@Z 000000018014d710 f i libucrt:output.obj
 0001:0014c7d8       ??$extract_argument_from_va_list@C_J@?$positional_parameter_base@_WV?$string_output_adapter@_W@__crt_stdio_output@@@__crt_stdio_output@@IEAA_NAEA_J@Z 000000018014d7d8 f i libucrt:output.obj
 0001:0014c8a0       ??$extract_argument_from_va_list@C_J@?$standard_base@DV?$stream_output_adapter@D@__crt_stdio_output@@@__crt_stdio_output@@IEAA_NAEA_J@Z 000000018014d8a0 f i libucrt:output.obj
 0001:0014c8b4       ??$extract_argument_from_va_list@C_J@?$standard_base@DV?$string_output_adapter@D@__crt_stdio_output@@@__crt_stdio_output@@IEAA_NAEA_J@Z 000000018014d8b4 f i libucrt:output.obj
 0001:0014c8c8       ??$extract_argument_from_va_list@C_J@?$standard_base@_WV?$stream_output_adapter@_W@__crt_stdio_output@@@__crt_stdio_output@@IEAA_NAEA_J@Z 000000018014d8c8 f i libucrt:output.obj
 0001:0014c8dc       ??$extract_argument_from_va_list@C_J@?$standard_base@_WV?$string_output_adapter@_W@__crt_stdio_output@@@__crt_stdio_output@@IEAA_NAEA_J@Z 000000018014d8dc f i libucrt:output.obj
 0001:0014c8f0       ??$extract_argument_from_va_list@E_J@?$positional_parameter_base@DV?$stream_output_adapter@D@__crt_stdio_output@@@__crt_stdio_output@@IEAA_NAEA_J@Z 000000018014d8f0 f i libucrt:output.obj
 0001:0014c9b4       ??$extract_argument_from_va_list@E_J@?$positional_parameter_base@DV?$string_output_adapter@D@__crt_stdio_output@@@__crt_stdio_output@@IEAA_NAEA_J@Z 000000018014d9b4 f i libucrt:output.obj
 0001:0014ca78       ??$extract_argument_from_va_list@E_J@?$positional_parameter_base@_WV?$stream_output_adapter@_W@__crt_stdio_output@@@__crt_stdio_output@@IEAA_NAEA_J@Z 000000018014da78 f i libucrt:output.obj
 0001:0014cb3c       ??$extract_argument_from_va_list@E_J@?$positional_parameter_base@_WV?$string_output_adapter@_W@__crt_stdio_output@@@__crt_stdio_output@@IEAA_NAEA_J@Z 000000018014db3c f i libucrt:output.obj
 0001:0014cc00       ??$extract_argument_from_va_list@E_J@?$standard_base@DV?$stream_output_adapter@D@__crt_stdio_output@@@__crt_stdio_output@@IEAA_NAEA_J@Z 000000018014dc00 f i libucrt:output.obj
 0001:0014cc14       ??$extract_argument_from_va_list@E_J@?$standard_base@DV?$string_output_adapter@D@__crt_stdio_output@@@__crt_stdio_output@@IEAA_NAEA_J@Z 000000018014dc14 f i libucrt:output.obj
 0001:0014cc28       ??$extract_argument_from_va_list@E_J@?$standard_base@_WV?$stream_output_adapter@_W@__crt_stdio_output@@@__crt_stdio_output@@IEAA_NAEA_J@Z 000000018014dc28 f i libucrt:output.obj
 0001:0014cc3c       ??$extract_argument_from_va_list@E_J@?$standard_base@_WV?$string_output_adapter@_W@__crt_stdio_output@@@__crt_stdio_output@@IEAA_NAEA_J@Z 000000018014dc3c f i libucrt:output.obj
 0001:0014cc50       ??$extract_argument_from_va_list@F_J@?$positional_parameter_base@DV?$stream_output_adapter@D@__crt_stdio_output@@@__crt_stdio_output@@IEAA_NAEA_J@Z 000000018014dc50 f i libucrt:output.obj
 0001:0014cd14       ??$extract_argument_from_va_list@F_J@?$positional_parameter_base@DV?$string_output_adapter@D@__crt_stdio_output@@@__crt_stdio_output@@IEAA_NAEA_J@Z 000000018014dd14 f i libucrt:output.obj
 0001:0014cdd8       ??$extract_argument_from_va_list@F_J@?$positional_parameter_base@_WV?$stream_output_adapter@_W@__crt_stdio_output@@@__crt_stdio_output@@IEAA_NAEA_J@Z 000000018014ddd8 f i libucrt:output.obj
 0001:0014cea0       ??$extract_argument_from_va_list@F_J@?$positional_parameter_base@_WV?$string_output_adapter@_W@__crt_stdio_output@@@__crt_stdio_output@@IEAA_NAEA_J@Z 000000018014dea0 f i libucrt:output.obj
 0001:0014cf68       ??$extract_argument_from_va_list@F_J@?$standard_base@DV?$stream_output_adapter@D@__crt_stdio_output@@@__crt_stdio_output@@IEAA_NAEA_J@Z 000000018014df68 f i libucrt:output.obj
 0001:0014cf7c       ??$extract_argument_from_va_list@F_J@?$standard_base@DV?$string_output_adapter@D@__crt_stdio_output@@@__crt_stdio_output@@IEAA_NAEA_J@Z 000000018014df7c f i libucrt:output.obj
 0001:0014cf90       ??$extract_argument_from_va_list@F_J@?$standard_base@_WV?$stream_output_adapter@_W@__crt_stdio_output@@@__crt_stdio_output@@IEAA_NAEA_J@Z 000000018014df90 f i libucrt:output.obj
 0001:0014cfa4       ??$extract_argument_from_va_list@F_J@?$standard_base@_WV?$string_output_adapter@_W@__crt_stdio_output@@@__crt_stdio_output@@IEAA_NAEA_J@Z 000000018014dfa4 f i libucrt:output.obj
 0001:0014cfb8       ??$extract_argument_from_va_list@GD@?$positional_parameter_base@DV?$stream_output_adapter@D@__crt_stdio_output@@@__crt_stdio_output@@IEAA_NAEAD@Z 000000018014dfb8 f i libucrt:output.obj
 0001:0014d078       ??$extract_argument_from_va_list@GD@?$positional_parameter_base@DV?$string_output_adapter@D@__crt_stdio_output@@@__crt_stdio_output@@IEAA_NAEAD@Z 000000018014e078 f i libucrt:output.obj
 0001:0014d138       ??$extract_argument_from_va_list@GD@?$standard_base@DV?$stream_output_adapter@D@__crt_stdio_output@@@__crt_stdio_output@@IEAA_NAEAD@Z 000000018014e138 f i libucrt:output.obj
 0001:0014d14c       ??$extract_argument_from_va_list@GD@?$standard_base@DV?$string_output_adapter@D@__crt_stdio_output@@@__crt_stdio_output@@IEAA_NAEAD@Z 000000018014e14c f i libucrt:output.obj
 0001:0014d160       ??$extract_argument_from_va_list@G_J@?$positional_parameter_base@DV?$stream_output_adapter@D@__crt_stdio_output@@@__crt_stdio_output@@IEAA_NAEA_J@Z 000000018014e160 f i libucrt:output.obj
 0001:0014d224       ??$extract_argument_from_va_list@G_J@?$positional_parameter_base@DV?$string_output_adapter@D@__crt_stdio_output@@@__crt_stdio_output@@IEAA_NAEA_J@Z 000000018014e224 f i libucrt:output.obj
 0001:0014d2e8       ??$extract_argument_from_va_list@G_J@?$positional_parameter_base@_WV?$stream_output_adapter@_W@__crt_stdio_output@@@__crt_stdio_output@@IEAA_NAEA_J@Z 000000018014e2e8 f i libucrt:output.obj
 0001:0014d3ac       ??$extract_argument_from_va_list@G_J@?$positional_parameter_base@_WV?$string_output_adapter@_W@__crt_stdio_output@@@__crt_stdio_output@@IEAA_NAEA_J@Z 000000018014e3ac f i libucrt:output.obj
 0001:0014d470       ??$extract_argument_from_va_list@G_J@?$standard_base@DV?$stream_output_adapter@D@__crt_stdio_output@@@__crt_stdio_output@@IEAA_NAEA_J@Z 000000018014e470 f i libucrt:output.obj
 0001:0014d484       ??$extract_argument_from_va_list@G_J@?$standard_base@DV?$string_output_adapter@D@__crt_stdio_output@@@__crt_stdio_output@@IEAA_NAEA_J@Z 000000018014e484 f i libucrt:output.obj
 0001:0014d498       ??$extract_argument_from_va_list@G_J@?$standard_base@_WV?$stream_output_adapter@_W@__crt_stdio_output@@@__crt_stdio_output@@IEAA_NAEA_J@Z 000000018014e498 f i libucrt:output.obj
 0001:0014d4ac       ??$extract_argument_from_va_list@G_J@?$standard_base@_WV?$string_output_adapter@_W@__crt_stdio_output@@@__crt_stdio_output@@IEAA_NAEA_J@Z 000000018014e4ac f i libucrt:output.obj
 0001:0014d4c0       ??$extract_argument_from_va_list@H_J@?$positional_parameter_base@DV?$stream_output_adapter@D@__crt_stdio_output@@@__crt_stdio_output@@IEAA_NAEA_J@Z 000000018014e4c0 f i libucrt:output.obj
 0001:0014d584       ??$extract_argument_from_va_list@H_J@?$positional_parameter_base@DV?$string_output_adapter@D@__crt_stdio_output@@@__crt_stdio_output@@IEAA_NAEA_J@Z 000000018014e584 f i libucrt:output.obj
 0001:0014d648       ??$extract_argument_from_va_list@H_J@?$positional_parameter_base@_WV?$stream_output_adapter@_W@__crt_stdio_output@@@__crt_stdio_output@@IEAA_NAEA_J@Z 000000018014e648 f i libucrt:output.obj
 0001:0014d70c       ??$extract_argument_from_va_list@H_J@?$positional_parameter_base@_WV?$string_output_adapter@_W@__crt_stdio_output@@@__crt_stdio_output@@IEAA_NAEA_J@Z 000000018014e70c f i libucrt:output.obj
 0001:0014d7d0       ??$extract_argument_from_va_list@H_J@?$standard_base@DV?$stream_output_adapter@D@__crt_stdio_output@@@__crt_stdio_output@@IEAA_NAEA_J@Z 000000018014e7d0 f i libucrt:output.obj
 0001:0014d7e4       ??$extract_argument_from_va_list@H_J@?$standard_base@DV?$string_output_adapter@D@__crt_stdio_output@@@__crt_stdio_output@@IEAA_NAEA_J@Z 000000018014e7e4 f i libucrt:output.obj
 0001:0014d7f8       ??$extract_argument_from_va_list@H_J@?$standard_base@_WV?$stream_output_adapter@_W@__crt_stdio_output@@@__crt_stdio_output@@IEAA_NAEA_J@Z 000000018014e7f8 f i libucrt:output.obj
 0001:0014d80c       ??$extract_argument_from_va_list@H_J@?$standard_base@_WV?$string_output_adapter@_W@__crt_stdio_output@@@__crt_stdio_output@@IEAA_NAEA_J@Z 000000018014e80c f i libucrt:output.obj
 0001:0014d820       ??$extract_argument_from_va_list@I_J@?$positional_parameter_base@DV?$stream_output_adapter@D@__crt_stdio_output@@@__crt_stdio_output@@IEAA_NAEA_J@Z 000000018014e820 f i libucrt:output.obj
 0001:0014d8e0       ??$extract_argument_from_va_list@I_J@?$positional_parameter_base@DV?$string_output_adapter@D@__crt_stdio_output@@@__crt_stdio_output@@IEAA_NAEA_J@Z 000000018014e8e0 f i libucrt:output.obj
 0001:0014d9a0       ??$extract_argument_from_va_list@I_J@?$positional_parameter_base@_WV?$stream_output_adapter@_W@__crt_stdio_output@@@__crt_stdio_output@@IEAA_NAEA_J@Z 000000018014e9a0 f i libucrt:output.obj
 0001:0014da64       ??$extract_argument_from_va_list@I_J@?$positional_parameter_base@_WV?$string_output_adapter@_W@__crt_stdio_output@@@__crt_stdio_output@@IEAA_NAEA_J@Z 000000018014ea64 f i libucrt:output.obj
 0001:0014db28       ??$extract_argument_from_va_list@I_J@?$standard_base@DV?$stream_output_adapter@D@__crt_stdio_output@@@__crt_stdio_output@@IEAA_NAEA_J@Z 000000018014eb28 f i libucrt:output.obj
 0001:0014db3c       ??$extract_argument_from_va_list@I_J@?$standard_base@DV?$string_output_adapter@D@__crt_stdio_output@@@__crt_stdio_output@@IEAA_NAEA_J@Z 000000018014eb3c f i libucrt:output.obj
 0001:0014db50       ??$extract_argument_from_va_list@I_J@?$standard_base@_WV?$stream_output_adapter@_W@__crt_stdio_output@@@__crt_stdio_output@@IEAA_NAEA_J@Z 000000018014eb50 f i libucrt:output.obj
 0001:0014db64       ??$extract_argument_from_va_list@I_J@?$standard_base@_WV?$string_output_adapter@_W@__crt_stdio_output@@@__crt_stdio_output@@IEAA_NAEA_J@Z 000000018014eb64 f i libucrt:output.obj
 0001:0014db78       ??$extract_argument_from_va_list@PEADPEAD@?$positional_parameter_base@DV?$stream_output_adapter@D@__crt_stdio_output@@@__crt_stdio_output@@IEAA_NAEAPEAD@Z 000000018014eb78 f i libucrt:output.obj
 0001:0014dc3c       ??$extract_argument_from_va_list@PEADPEAD@?$positional_parameter_base@DV?$string_output_adapter@D@__crt_stdio_output@@@__crt_stdio_output@@IEAA_NAEAPEAD@Z 000000018014ec3c f i libucrt:output.obj
 0001:0014dd00       ??$extract_argument_from_va_list@PEADPEAD@?$positional_parameter_base@_WV?$stream_output_adapter@_W@__crt_stdio_output@@@__crt_stdio_output@@IEAA_NAEAPEAD@Z 000000018014ed00 f i libucrt:output.obj
 0001:0014ddc4       ??$extract_argument_from_va_list@PEADPEAD@?$positional_parameter_base@_WV?$string_output_adapter@_W@__crt_stdio_output@@@__crt_stdio_output@@IEAA_NAEAPEAD@Z 000000018014edc4 f i libucrt:output.obj
 0001:0014de88       ??$extract_argument_from_va_list@PEADPEAD@?$standard_base@DV?$stream_output_adapter@D@__crt_stdio_output@@@__crt_stdio_output@@IEAA_NAEAPEAD@Z 000000018014ee88 f i libucrt:output.obj
 0001:0014de9c       ??$extract_argument_from_va_list@PEADPEAD@?$standard_base@DV?$string_output_adapter@D@__crt_stdio_output@@@__crt_stdio_output@@IEAA_NAEAPEAD@Z 000000018014ee9c f i libucrt:output.obj
 0001:0014deb0       ??$extract_argument_from_va_list@PEADPEAD@?$standard_base@_WV?$stream_output_adapter@_W@__crt_stdio_output@@@__crt_stdio_output@@IEAA_NAEAPEAD@Z 000000018014eeb0 f i libucrt:output.obj
 0001:0014dec4       ??$extract_argument_from_va_list@PEADPEAD@?$standard_base@_WV?$string_output_adapter@_W@__crt_stdio_output@@@__crt_stdio_output@@IEAA_NAEAPEAD@Z 000000018014eec4 f i libucrt:output.obj
 0001:0014ded8       ??$extract_argument_from_va_list@PEAUansi_string@?1??type_case_Z@?$output_processor@DV?$stream_output_adapter@D@__crt_stdio_output@@V?$format_validation_base@DV?$stream_output_adapter@D@__crt_stdio_output@@@2@@__crt_stdio_output@@AEAA_NXZ@PEAU1?1??234@AEAA_NXZ@@?$standard_base@DV?$stream_output_adapter@D@__crt_stdio_output@@@__crt_stdio_output@@IEAA_NAEAPEAUansi_string@?1??type_case_Z@?$output_processor@DV?$stream_output_adapter@D@__crt_stdio_output@@V?$format_validation_base@DV?$stream_output_adapter@D@__crt_stdio_output@@@2@@1@AEAA_NXZ@@Z 000000018014eed8 f i libucrt:output.obj
 0001:0014deec       ??$extract_argument_from_va_list@PEAUansi_string@?1??type_case_Z@?$output_processor@DV?$stream_output_adapter@D@__crt_stdio_output@@V?$positional_parameter_base@DV?$stream_output_adapter@D@__crt_stdio_output@@@2@@__crt_stdio_output@@AEAA_NXZ@PEAU1?1??234@AEAA_NXZ@@?$positional_parameter_base@DV?$stream_output_adapter@D@__crt_stdio_output@@@__crt_stdio_output@@IEAA_NAEAPEAUansi_string@?1??type_case_Z@?$output_processor@DV?$stream_output_adapter@D@__crt_stdio_output@@V?$positional_parameter_base@DV?$stream_output_adapter@D@__crt_stdio_output@@@2@@1@AEAA_NXZ@@Z 000000018014eeec f i libucrt:output.obj
 0001:0014dfb0       ??$extract_argument_from_va_list@PEAUansi_string@?1??type_case_Z@?$output_processor@DV?$stream_output_adapter@D@__crt_stdio_output@@V?$positional_parameter_base@DV?$stream_output_adapter@D@__crt_stdio_output@@@2@@__crt_stdio_output@@AEAA_NXZ@PEAU1?1??234@AEAA_NXZ@@?$standard_base@DV?$stream_output_adapter@D@__crt_stdio_output@@@__crt_stdio_output@@IEAA_NAEAPEAUansi_string@?1??type_case_Z@?$output_processor@DV?$stream_output_adapter@D@__crt_stdio_output@@V?$positional_parameter_base@DV?$stream_output_adapter@D@__crt_stdio_output@@@2@@1@AEAA_NXZ@@Z 000000018014efb0 f i libucrt:output.obj
 0001:0014dfc4       ??$extract_argument_from_va_list@PEAUansi_string@?1??type_case_Z@?$output_processor@DV?$stream_output_adapter@D@__crt_stdio_output@@V?$standard_base@DV?$stream_output_adapter@D@__crt_stdio_output@@@2@@__crt_stdio_output@@AEAA_NXZ@PEAU1?1??234@AEAA_NXZ@@?$standard_base@DV?$stream_output_adapter@D@__crt_stdio_output@@@__crt_stdio_output@@IEAA_NAEAPEAUansi_string@?1??type_case_Z@?$output_processor@DV?$stream_output_adapter@D@__crt_stdio_output@@V?$standard_base@DV?$stream_output_adapter@D@__crt_stdio_output@@@2@@1@AEAA_NXZ@@Z 000000018014efc4 f i libucrt:output.obj
 0001:0014dfd8       ??$extract_argument_from_va_list@PEAUansi_string@?1??type_case_Z@?$output_processor@DV?$string_output_adapter@D@__crt_stdio_output@@V?$format_validation_base@DV?$string_output_adapter@D@__crt_stdio_output@@@2@@__crt_stdio_output@@AEAA_NXZ@PEAU1?1??234@AEAA_NXZ@@?$standard_base@DV?$string_output_adapter@D@__crt_stdio_output@@@__crt_stdio_output@@IEAA_NAEAPEAUansi_string@?1??type_case_Z@?$output_processor@DV?$string_output_adapter@D@__crt_stdio_output@@V?$format_validation_base@DV?$string_output_adapter@D@__crt_stdio_output@@@2@@1@AEAA_NXZ@@Z 000000018014efd8 f i libucrt:output.obj
 0001:0014dfec       ??$extract_argument_from_va_list@PEAUansi_string@?1??type_case_Z@?$output_processor@DV?$string_output_adapter@D@__crt_stdio_output@@V?$positional_parameter_base@DV?$string_output_adapter@D@__crt_stdio_output@@@2@@__crt_stdio_output@@AEAA_NXZ@PEAU1?1??234@AEAA_NXZ@@?$positional_parameter_base@DV?$string_output_adapter@D@__crt_stdio_output@@@__crt_stdio_output@@IEAA_NAEAPEAUansi_string@?1??type_case_Z@?$output_processor@DV?$string_output_adapter@D@__crt_stdio_output@@V?$positional_parameter_base@DV?$string_output_adapter@D@__crt_stdio_output@@@2@@1@AEAA_NXZ@@Z 000000018014efec f i libucrt:output.obj
 0001:0014e0b0       ??$extract_argument_from_va_list@PEAUansi_string@?1??type_case_Z@?$output_processor@DV?$string_output_adapter@D@__crt_stdio_output@@V?$positional_parameter_base@DV?$string_output_adapter@D@__crt_stdio_output@@@2@@__crt_stdio_output@@AEAA_NXZ@PEAU1?1??234@AEAA_NXZ@@?$standard_base@DV?$string_output_adapter@D@__crt_stdio_output@@@__crt_stdio_output@@IEAA_NAEAPEAUansi_string@?1??type_case_Z@?$output_processor@DV?$string_output_adapter@D@__crt_stdio_output@@V?$positional_parameter_base@DV?$string_output_adapter@D@__crt_stdio_output@@@2@@1@AEAA_NXZ@@Z 000000018014f0b0 f i libucrt:output.obj
 0001:0014e0c4       ??$extract_argument_from_va_list@PEAUansi_string@?1??type_case_Z@?$output_processor@DV?$string_output_adapter@D@__crt_stdio_output@@V?$standard_base@DV?$string_output_adapter@D@__crt_stdio_output@@@2@@__crt_stdio_output@@AEAA_NXZ@PEAU1?1??234@AEAA_NXZ@@?$standard_base@DV?$string_output_adapter@D@__crt_stdio_output@@@__crt_stdio_output@@IEAA_NAEAPEAUansi_string@?1??type_case_Z@?$output_processor@DV?$string_output_adapter@D@__crt_stdio_output@@V?$standard_base@DV?$string_output_adapter@D@__crt_stdio_output@@@2@@1@AEAA_NXZ@@Z 000000018014f0c4 f i libucrt:output.obj
 0001:0014e0d8       ??$extract_argument_from_va_list@PEAUansi_string@?1??type_case_Z@?$output_processor@_WV?$stream_output_adapter@_W@__crt_stdio_output@@V?$format_validation_base@_WV?$stream_output_adapter@_W@__crt_stdio_output@@@2@@__crt_stdio_output@@AEAA_NXZ@PEAU1?1??234@AEAA_NXZ@@?$standard_base@_WV?$stream_output_adapter@_W@__crt_stdio_output@@@__crt_stdio_output@@IEAA_NAEAPEAUansi_string@?1??type_case_Z@?$output_processor@_WV?$stream_output_adapter@_W@__crt_stdio_output@@V?$format_validation_base@_WV?$stream_output_adapter@_W@__crt_stdio_output@@@2@@1@AEAA_NXZ@@Z 000000018014f0d8 f i libucrt:output.obj
 0001:0014e0ec       ??$extract_argument_from_va_list@PEAUansi_string@?1??type_case_Z@?$output_processor@_WV?$stream_output_adapter@_W@__crt_stdio_output@@V?$positional_parameter_base@_WV?$stream_output_adapter@_W@__crt_stdio_output@@@2@@__crt_stdio_output@@AEAA_NXZ@PEAU1?1??234@AEAA_NXZ@@?$positional_parameter_base@_WV?$stream_output_adapter@_W@__crt_stdio_output@@@__crt_stdio_output@@IEAA_NAEAPEAUansi_string@?1??type_case_Z@?$output_processor@_WV?$stream_output_adapter@_W@__crt_stdio_output@@V?$positional_parameter_base@_WV?$stream_output_adapter@_W@__crt_stdio_output@@@2@@1@AEAA_NXZ@@Z 000000018014f0ec f i libucrt:output.obj
 0001:0014e1b0       ??$extract_argument_from_va_list@PEAUansi_string@?1??type_case_Z@?$output_processor@_WV?$stream_output_adapter@_W@__crt_stdio_output@@V?$positional_parameter_base@_WV?$stream_output_adapter@_W@__crt_stdio_output@@@2@@__crt_stdio_output@@AEAA_NXZ@PEAU1?1??234@AEAA_NXZ@@?$standard_base@_WV?$stream_output_adapter@_W@__crt_stdio_output@@@__crt_stdio_output@@IEAA_NAEAPEAUansi_string@?1??type_case_Z@?$output_processor@_WV?$stream_output_adapter@_W@__crt_stdio_output@@V?$positional_parameter_base@_WV?$stream_output_adapter@_W@__crt_stdio_output@@@2@@1@AEAA_NXZ@@Z 000000018014f1b0 f i libucrt:output.obj
 0001:0014e1c4       ??$extract_argument_from_va_list@PEAUansi_string@?1??type_case_Z@?$output_processor@_WV?$stream_output_adapter@_W@__crt_stdio_output@@V?$standard_base@_WV?$stream_output_adapter@_W@__crt_stdio_output@@@2@@__crt_stdio_output@@AEAA_NXZ@PEAU1?1??234@AEAA_NXZ@@?$standard_base@_WV?$stream_output_adapter@_W@__crt_stdio_output@@@__crt_stdio_output@@IEAA_NAEAPEAUansi_string@?1??type_case_Z@?$output_processor@_WV?$stream_output_adapter@_W@__crt_stdio_output@@V?$standard_base@_WV?$stream_output_adapter@_W@__crt_stdio_output@@@2@@1@AEAA_NXZ@@Z 000000018014f1c4 f i libucrt:output.obj
 0001:0014e1d8       ??$extract_argument_from_va_list@PEAUansi_string@?1??type_case_Z@?$output_processor@_WV?$string_output_adapter@_W@__crt_stdio_output@@V?$format_validation_base@_WV?$string_output_adapter@_W@__crt_stdio_output@@@2@@__crt_stdio_output@@AEAA_NXZ@PEAU1?1??234@AEAA_NXZ@@?$standard_base@_WV?$string_output_adapter@_W@__crt_stdio_output@@@__crt_stdio_output@@IEAA_NAEAPEAUansi_string@?1??type_case_Z@?$output_processor@_WV?$string_output_adapter@_W@__crt_stdio_output@@V?$format_validation_base@_WV?$string_output_adapter@_W@__crt_stdio_output@@@2@@1@AEAA_NXZ@@Z 000000018014f1d8 f i libucrt:output.obj
 0001:0014e1ec       ??$extract_argument_from_va_list@PEAUansi_string@?1??type_case_Z@?$output_processor@_WV?$string_output_adapter@_W@__crt_stdio_output@@V?$positional_parameter_base@_WV?$string_output_adapter@_W@__crt_stdio_output@@@2@@__crt_stdio_output@@AEAA_NXZ@PEAU1?1??234@AEAA_NXZ@@?$positional_parameter_base@_WV?$string_output_adapter@_W@__crt_stdio_output@@@__crt_stdio_output@@IEAA_NAEAPEAUansi_string@?1??type_case_Z@?$output_processor@_WV?$string_output_adapter@_W@__crt_stdio_output@@V?$positional_parameter_base@_WV?$string_output_adapter@_W@__crt_stdio_output@@@2@@1@AEAA_NXZ@@Z 000000018014f1ec f i libucrt:output.obj
 0001:0014e2b0       ??$extract_argument_from_va_list@PEAUansi_string@?1??type_case_Z@?$output_processor@_WV?$string_output_adapter@_W@__crt_stdio_output@@V?$positional_parameter_base@_WV?$string_output_adapter@_W@__crt_stdio_output@@@2@@__crt_stdio_output@@AEAA_NXZ@PEAU1?1??234@AEAA_NXZ@@?$standard_base@_WV?$string_output_adapter@_W@__crt_stdio_output@@@__crt_stdio_output@@IEAA_NAEAPEAUansi_string@?1??type_case_Z@?$output_processor@_WV?$string_output_adapter@_W@__crt_stdio_output@@V?$positional_parameter_base@_WV?$string_output_adapter@_W@__crt_stdio_output@@@2@@1@AEAA_NXZ@@Z 000000018014f2b0 f i libucrt:output.obj
 0001:0014e2c4       ??$extract_argument_from_va_list@PEAUansi_string@?1??type_case_Z@?$output_processor@_WV?$string_output_adapter@_W@__crt_stdio_output@@V?$standard_base@_WV?$string_output_adapter@_W@__crt_stdio_output@@@2@@__crt_stdio_output@@AEAA_NXZ@PEAU1?1??234@AEAA_NXZ@@?$standard_base@_WV?$string_output_adapter@_W@__crt_stdio_output@@@__crt_stdio_output@@IEAA_NAEAPEAUansi_string@?1??type_case_Z@?$output_processor@_WV?$string_output_adapter@_W@__crt_stdio_output@@V?$standard_base@_WV?$string_output_adapter@_W@__crt_stdio_output@@@2@@1@AEAA_NXZ@@Z 000000018014f2c4 f i libucrt:output.obj
 0001:0014e2d8       ??$extract_argument_from_va_list@PEAXPEAX@?$positional_parameter_base@DV?$stream_output_adapter@D@__crt_stdio_output@@@__crt_stdio_output@@IEAA_NAEAPEAX@Z 000000018014f2d8 f i libucrt:output.obj
 0001:0014e39c       ??$extract_argument_from_va_list@PEAXPEAX@?$positional_parameter_base@DV?$string_output_adapter@D@__crt_stdio_output@@@__crt_stdio_output@@IEAA_NAEAPEAX@Z 000000018014f39c f i libucrt:output.obj
 0001:0014e460       ??$extract_argument_from_va_list@PEAXPEAX@?$positional_parameter_base@_WV?$stream_output_adapter@_W@__crt_stdio_output@@@__crt_stdio_output@@IEAA_NAEAPEAX@Z 000000018014f460 f i libucrt:output.obj
 0001:0014e524       ??$extract_argument_from_va_list@PEAXPEAX@?$positional_parameter_base@_WV?$string_output_adapter@_W@__crt_stdio_output@@@__crt_stdio_output@@IEAA_NAEAPEAX@Z 000000018014f524 f i libucrt:output.obj
 0001:0014e5e8       ??$extract_argument_from_va_list@PEAXPEAX@?$standard_base@DV?$stream_output_adapter@D@__crt_stdio_output@@@__crt_stdio_output@@IEAA_NAEAPEAX@Z 000000018014f5e8 f i libucrt:output.obj
 0001:0014e5fc       ??$extract_argument_from_va_list@PEAXPEAX@?$standard_base@DV?$string_output_adapter@D@__crt_stdio_output@@@__crt_stdio_output@@IEAA_NAEAPEAX@Z 000000018014f5fc f i libucrt:output.obj
 0001:0014e610       ??$extract_argument_from_va_list@PEAXPEAX@?$standard_base@_WV?$stream_output_adapter@_W@__crt_stdio_output@@@__crt_stdio_output@@IEAA_NAEAPEAX@Z 000000018014f610 f i libucrt:output.obj
 0001:0014e624       ??$extract_argument_from_va_list@PEAXPEAX@?$standard_base@_WV?$string_output_adapter@_W@__crt_stdio_output@@@__crt_stdio_output@@IEAA_NAEAPEAX@Z 000000018014f624 f i libucrt:output.obj
 0001:0014e638       ??$extract_argument_from_va_list@U_CRT_DOUBLE@@U1@@?$positional_parameter_base@DV?$stream_output_adapter@D@__crt_stdio_output@@@__crt_stdio_output@@IEAA_NAEAU_CRT_DOUBLE@@@Z 000000018014f638 f i libucrt:output.obj
 0001:0014e700       ??$extract_argument_from_va_list@U_CRT_DOUBLE@@U1@@?$positional_parameter_base@DV?$string_output_adapter@D@__crt_stdio_output@@@__crt_stdio_output@@IEAA_NAEAU_CRT_DOUBLE@@@Z 000000018014f700 f i libucrt:output.obj
 0001:0014e7c8       ??$extract_argument_from_va_list@U_CRT_DOUBLE@@U1@@?$positional_parameter_base@_WV?$stream_output_adapter@_W@__crt_stdio_output@@@__crt_stdio_output@@IEAA_NAEAU_CRT_DOUBLE@@@Z 000000018014f7c8 f i libucrt:output.obj
 0001:0014e890       ??$extract_argument_from_va_list@U_CRT_DOUBLE@@U1@@?$positional_parameter_base@_WV?$string_output_adapter@_W@__crt_stdio_output@@@__crt_stdio_output@@IEAA_NAEAU_CRT_DOUBLE@@@Z 000000018014f890 f i libucrt:output.obj
 0001:0014e958       ??$extract_argument_from_va_list@U_CRT_DOUBLE@@U1@@?$standard_base@DV?$stream_output_adapter@D@__crt_stdio_output@@@__crt_stdio_output@@IEAA_NAEAU_CRT_DOUBLE@@@Z 000000018014f958 f i libucrt:output.obj
 0001:0014e970       ??$extract_argument_from_va_list@U_CRT_DOUBLE@@U1@@?$standard_base@DV?$string_output_adapter@D@__crt_stdio_output@@@__crt_stdio_output@@IEAA_NAEAU_CRT_DOUBLE@@@Z 000000018014f970 f i libucrt:output.obj
 0001:0014e988       ??$extract_argument_from_va_list@U_CRT_DOUBLE@@U1@@?$standard_base@_WV?$stream_output_adapter@_W@__crt_stdio_output@@@__crt_stdio_output@@IEAA_NAEAU_CRT_DOUBLE@@@Z 000000018014f988 f i libucrt:output.obj
 0001:0014e9a0       ??$extract_argument_from_va_list@U_CRT_DOUBLE@@U1@@?$standard_base@_WV?$string_output_adapter@_W@__crt_stdio_output@@@__crt_stdio_output@@IEAA_NAEAU_CRT_DOUBLE@@@Z 000000018014f9a0 f i libucrt:output.obj
 0001:0014e9b8       ??$extract_argument_from_va_list@_J_J@?$positional_parameter_base@DV?$stream_output_adapter@D@__crt_stdio_output@@@__crt_stdio_output@@IEAA_NAEA_J@Z 000000018014f9b8 f i libucrt:output.obj
 0001:0014ea7c       ??$extract_argument_from_va_list@_J_J@?$positional_parameter_base@DV?$string_output_adapter@D@__crt_stdio_output@@@__crt_stdio_output@@IEAA_NAEA_J@Z 000000018014fa7c f i libucrt:output.obj
 0001:0014eb40       ??$extract_argument_from_va_list@_J_J@?$positional_parameter_base@_WV?$stream_output_adapter@_W@__crt_stdio_output@@@__crt_stdio_output@@IEAA_NAEA_J@Z 000000018014fb40 f i libucrt:output.obj
 0001:0014ec04       ??$extract_argument_from_va_list@_J_J@?$positional_parameter_base@_WV?$string_output_adapter@_W@__crt_stdio_output@@@__crt_stdio_output@@IEAA_NAEA_J@Z 000000018014fc04 f i libucrt:output.obj
 0001:0014ecc8       ??$extract_argument_from_va_list@_J_J@?$standard_base@DV?$stream_output_adapter@D@__crt_stdio_output@@@__crt_stdio_output@@IEAA_NAEA_J@Z 000000018014fcc8 f i libucrt:output.obj
 0001:0014ecdc       ??$extract_argument_from_va_list@_J_J@?$standard_base@DV?$string_output_adapter@D@__crt_stdio_output@@@__crt_stdio_output@@IEAA_NAEA_J@Z 000000018014fcdc f i libucrt:output.obj
 0001:0014ecf0       ??$extract_argument_from_va_list@_J_J@?$standard_base@_WV?$stream_output_adapter@_W@__crt_stdio_output@@@__crt_stdio_output@@IEAA_NAEA_J@Z 000000018014fcf0 f i libucrt:output.obj
 0001:0014ed04       ??$extract_argument_from_va_list@_J_J@?$standard_base@_WV?$string_output_adapter@_W@__crt_stdio_output@@@__crt_stdio_output@@IEAA_NAEA_J@Z 000000018014fd04 f i libucrt:output.obj
 0001:0014ed18       ??$extract_argument_from_va_list@_K_J@?$positional_parameter_base@DV?$stream_output_adapter@D@__crt_stdio_output@@@__crt_stdio_output@@IEAA_NAEA_J@Z 000000018014fd18 f i libucrt:output.obj
 0001:0014eddc       ??$extract_argument_from_va_list@_K_J@?$positional_parameter_base@DV?$string_output_adapter@D@__crt_stdio_output@@@__crt_stdio_output@@IEAA_NAEA_J@Z 000000018014fddc f i libucrt:output.obj
 0001:0014eea0       ??$extract_argument_from_va_list@_K_J@?$positional_parameter_base@_WV?$stream_output_adapter@_W@__crt_stdio_output@@@__crt_stdio_output@@IEAA_NAEA_J@Z 000000018014fea0 f i libucrt:output.obj
 0001:0014ef64       ??$extract_argument_from_va_list@_K_J@?$positional_parameter_base@_WV?$string_output_adapter@_W@__crt_stdio_output@@@__crt_stdio_output@@IEAA_NAEA_J@Z 000000018014ff64 f i libucrt:output.obj
 0001:0014f028       ??$extract_argument_from_va_list@_K_J@?$standard_base@DV?$stream_output_adapter@D@__crt_stdio_output@@@__crt_stdio_output@@IEAA_NAEA_J@Z 0000000180150028 f i libucrt:output.obj
 0001:0014f03c       ??$extract_argument_from_va_list@_K_J@?$standard_base@DV?$string_output_adapter@D@__crt_stdio_output@@@__crt_stdio_output@@IEAA_NAEA_J@Z 000000018015003c f i libucrt:output.obj
 0001:0014f050       ??$extract_argument_from_va_list@_K_J@?$standard_base@_WV?$stream_output_adapter@_W@__crt_stdio_output@@@__crt_stdio_output@@IEAA_NAEA_J@Z 0000000180150050 f i libucrt:output.obj
 0001:0014f064       ??$extract_argument_from_va_list@_K_J@?$standard_base@_WV?$string_output_adapter@_W@__crt_stdio_output@@@__crt_stdio_output@@IEAA_NAEA_J@Z 0000000180150064 f i libucrt:output.obj
 0001:0014f078       ??$extract_argument_from_va_list@_W_W@?$positional_parameter_base@DV?$stream_output_adapter@D@__crt_stdio_output@@@__crt_stdio_output@@IEAA_NAEA_W@Z 0000000180150078 f i libucrt:output.obj
 0001:0014f13c       ??$extract_argument_from_va_list@_W_W@?$positional_parameter_base@DV?$string_output_adapter@D@__crt_stdio_output@@@__crt_stdio_output@@IEAA_NAEA_W@Z 000000018015013c f i libucrt:output.obj
 0001:0014f200       ??$extract_argument_from_va_list@_W_W@?$positional_parameter_base@_WV?$stream_output_adapter@_W@__crt_stdio_output@@@__crt_stdio_output@@IEAA_NAEA_W@Z 0000000180150200 f i libucrt:output.obj
 0001:0014f2c8       ??$extract_argument_from_va_list@_W_W@?$positional_parameter_base@_WV?$string_output_adapter@_W@__crt_stdio_output@@@__crt_stdio_output@@IEAA_NAEA_W@Z 00000001801502c8 f i libucrt:output.obj
 0001:0014f390       ??$extract_argument_from_va_list@_W_W@?$standard_base@DV?$stream_output_adapter@D@__crt_stdio_output@@@__crt_stdio_output@@IEAA_NAEA_W@Z 0000000180150390 f i libucrt:output.obj
 0001:0014f3a4       ??$extract_argument_from_va_list@_W_W@?$standard_base@DV?$string_output_adapter@D@__crt_stdio_output@@@__crt_stdio_output@@IEAA_NAEA_W@Z 00000001801503a4 f i libucrt:output.obj
 0001:0014f3b8       ??$extract_argument_from_va_list@_W_W@?$standard_base@_WV?$stream_output_adapter@_W@__crt_stdio_output@@@__crt_stdio_output@@IEAA_NAEA_W@Z 00000001801503b8 f i libucrt:output.obj
 0001:0014f3cc       ??$extract_argument_from_va_list@_W_W@?$standard_base@_WV?$string_output_adapter@_W@__crt_stdio_output@@@__crt_stdio_output@@IEAA_NAEA_W@Z 00000001801503cc f i libucrt:output.obj
 0001:0014f3e0       ??$get_parameter_type@D@?$positional_parameter_base@DV?$stream_output_adapter@D@__crt_stdio_output@@@__crt_stdio_output@@CA?AW4parameter_type@01@PEAD@Z 00000001801503e0 f i libucrt:output.obj
 0001:0014f3e8       ??$get_parameter_type@D@?$positional_parameter_base@DV?$string_output_adapter@D@__crt_stdio_output@@@__crt_stdio_output@@CA?AW4parameter_type@01@PEAD@Z 00000001801503e8 f i libucrt:output.obj
 0001:0014f3f0       ??$get_parameter_type@D@?$positional_parameter_base@_WV?$stream_output_adapter@_W@__crt_stdio_output@@@__crt_stdio_output@@CA?AW4parameter_type@01@PEAD@Z 00000001801503f0 f i libucrt:output.obj
 0001:0014f3f8       ??$get_parameter_type@D@?$positional_parameter_base@_WV?$string_output_adapter@_W@__crt_stdio_output@@@__crt_stdio_output@@CA?AW4parameter_type@01@PEAD@Z 00000001801503f8 f i libucrt:output.obj
 0001:0014f400       ??$get_parameter_type@Uansi_string@?1??type_case_Z@?$output_processor@DV?$stream_output_adapter@D@__crt_stdio_output@@V?$positional_parameter_base@DV?$stream_output_adapter@D@__crt_stdio_output@@@2@@__crt_stdio_output@@AEAA_NXZ@@?$positional_parameter_base@DV?$stream_output_adapter@D@__crt_stdio_output@@@__crt_stdio_output@@CA?AW4parameter_type@01@PEAUansi_string@?1??type_case_Z@?$output_processor@DV?$stream_output_adapter@D@__crt_stdio_output@@V?$positional_parameter_base@DV?$stream_output_adapter@D@__crt_stdio_output@@@2@@1@AEAA_NXZ@@Z 0000000180150400 f i libucrt:output.obj
 0001:0014f408       ??$get_parameter_type@Uansi_string@?1??type_case_Z@?$output_processor@DV?$string_output_adapter@D@__crt_stdio_output@@V?$positional_parameter_base@DV?$string_output_adapter@D@__crt_stdio_output@@@2@@__crt_stdio_output@@AEAA_NXZ@@?$positional_parameter_base@DV?$string_output_adapter@D@__crt_stdio_output@@@__crt_stdio_output@@CA?AW4parameter_type@01@PEAUansi_string@?1??type_case_Z@?$output_processor@DV?$string_output_adapter@D@__crt_stdio_output@@V?$positional_parameter_base@DV?$string_output_adapter@D@__crt_stdio_output@@@2@@1@AEAA_NXZ@@Z 0000000180150408 f i libucrt:output.obj
 0001:0014f410       ??$get_parameter_type@Uansi_string@?1??type_case_Z@?$output_processor@_WV?$stream_output_adapter@_W@__crt_stdio_output@@V?$positional_parameter_base@_WV?$stream_output_adapter@_W@__crt_stdio_output@@@2@@__crt_stdio_output@@AEAA_NXZ@@?$positional_parameter_base@_WV?$stream_output_adapter@_W@__crt_stdio_output@@@__crt_stdio_output@@CA?AW4parameter_type@01@PEAUansi_string@?1??type_case_Z@?$output_processor@_WV?$stream_output_adapter@_W@__crt_stdio_output@@V?$positional_parameter_base@_WV?$stream_output_adapter@_W@__crt_stdio_output@@@2@@1@AEAA_NXZ@@Z 0000000180150410 f i libucrt:output.obj
 0001:0014f418       ??$get_parameter_type@Uansi_string@?1??type_case_Z@?$output_processor@_WV?$string_output_adapter@_W@__crt_stdio_output@@V?$positional_parameter_base@_WV?$string_output_adapter@_W@__crt_stdio_output@@@2@@__crt_stdio_output@@AEAA_NXZ@@?$positional_parameter_base@_WV?$string_output_adapter@_W@__crt_stdio_output@@@__crt_stdio_output@@CA?AW4parameter_type@01@PEAUansi_string@?1??type_case_Z@?$output_processor@_WV?$string_output_adapter@_W@__crt_stdio_output@@V?$positional_parameter_base@_WV?$string_output_adapter@_W@__crt_stdio_output@@@2@@1@AEAA_NXZ@@Z 0000000180150418 f i libucrt:output.obj
 0001:0014f420       ??$get_parameter_type@X@?$positional_parameter_base@DV?$stream_output_adapter@D@__crt_stdio_output@@@__crt_stdio_output@@CA?AW4parameter_type@01@PEAX@Z 0000000180150420 f i libucrt:output.obj
 0001:0014f428       ??$get_parameter_type@X@?$positional_parameter_base@DV?$string_output_adapter@D@__crt_stdio_output@@@__crt_stdio_output@@CA?AW4parameter_type@01@PEAX@Z 0000000180150428 f i libucrt:output.obj
 0001:0014f430       ??$get_parameter_type@X@?$positional_parameter_base@_WV?$stream_output_adapter@_W@__crt_stdio_output@@@__crt_stdio_output@@CA?AW4parameter_type@01@PEAX@Z 0000000180150430 f i libucrt:output.obj
 0001:0014f438       ??$get_parameter_type@X@?$positional_parameter_base@_WV?$string_output_adapter@_W@__crt_stdio_output@@@__crt_stdio_output@@CA?AW4parameter_type@01@PEAX@Z 0000000180150438 f i libucrt:output.obj
 0001:0014f440       ??$is_character_specifier@D@?$positional_parameter_base@DV?$stream_output_adapter@D@__crt_stdio_output@@@__crt_stdio_output@@CA_ND@Z 0000000180150440 f i libucrt:output.obj
 0001:0014f44c       ??$is_character_specifier@D@?$positional_parameter_base@DV?$string_output_adapter@D@__crt_stdio_output@@@__crt_stdio_output@@CA_ND@Z 000000018015044c f i libucrt:output.obj
 0001:0014f458       ??$is_character_specifier@_W@?$positional_parameter_base@_WV?$stream_output_adapter@_W@__crt_stdio_output@@@__crt_stdio_output@@CA_N_W@Z 0000000180150458 f i libucrt:output.obj
 0001:0014f468       ??$is_character_specifier@_W@?$positional_parameter_base@_WV?$string_output_adapter@_W@__crt_stdio_output@@@__crt_stdio_output@@CA_N_W@Z 0000000180150468 f i libucrt:output.obj
 0001:0014f478       ??$is_integral_specifier@D@?$positional_parameter_base@DV?$stream_output_adapter@D@__crt_stdio_output@@@__crt_stdio_output@@CA_ND@Z 0000000180150478 f i libucrt:output.obj
 0001:0014f4a0       ??$is_integral_specifier@D@?$positional_parameter_base@DV?$string_output_adapter@D@__crt_stdio_output@@@__crt_stdio_output@@CA_ND@Z 00000001801504a0 f i libucrt:output.obj
 0001:0014f4c8       ??$is_integral_specifier@_W@?$positional_parameter_base@_WV?$stream_output_adapter@_W@__crt_stdio_output@@@__crt_stdio_output@@CA_N_W@Z 00000001801504c8 f i libucrt:output.obj
 0001:0014f4f0       ??$is_integral_specifier@_W@?$positional_parameter_base@_WV?$string_output_adapter@_W@__crt_stdio_output@@@__crt_stdio_output@@CA_N_W@Z 00000001801504f0 f i libucrt:output.obj
 0001:0014f518       ??$is_pointer_specifier@D@?$positional_parameter_base@DV?$stream_output_adapter@D@__crt_stdio_output@@@__crt_stdio_output@@CA_ND@Z 0000000180150518 f i libucrt:output.obj
 0001:0014f520       ??$is_pointer_specifier@D@?$positional_parameter_base@DV?$string_output_adapter@D@__crt_stdio_output@@@__crt_stdio_output@@CA_ND@Z 0000000180150520 f i libucrt:output.obj
 0001:0014f528       ??$is_pointer_specifier@_W@?$positional_parameter_base@_WV?$stream_output_adapter@_W@__crt_stdio_output@@@__crt_stdio_output@@CA_N_W@Z 0000000180150528 f i libucrt:output.obj
 0001:0014f530       ??$is_pointer_specifier@_W@?$positional_parameter_base@_WV?$string_output_adapter@_W@__crt_stdio_output@@@__crt_stdio_output@@CA_N_W@Z 0000000180150530 f i libucrt:output.obj
 0001:0014f538       ??$is_string_specifier@D@?$positional_parameter_base@DV?$stream_output_adapter@D@__crt_stdio_output@@@__crt_stdio_output@@CA_ND@Z 0000000180150538 f i libucrt:output.obj
 0001:0014f544       ??$is_string_specifier@D@?$positional_parameter_base@DV?$string_output_adapter@D@__crt_stdio_output@@@__crt_stdio_output@@CA_ND@Z 0000000180150544 f i libucrt:output.obj
 0001:0014f550       ??$is_string_specifier@_W@?$positional_parameter_base@_WV?$stream_output_adapter@_W@__crt_stdio_output@@@__crt_stdio_output@@CA_N_W@Z 0000000180150550 f i libucrt:output.obj
 0001:0014f560       ??$is_string_specifier@_W@?$positional_parameter_base@_WV?$string_output_adapter@_W@__crt_stdio_output@@@__crt_stdio_output@@CA_N_W@Z 0000000180150560 f i libucrt:output.obj
 0001:0014f570       ??$is_wide_character_specifier@D@__crt_stdio_output@@YA_N_KDW4length_modifier@0@@Z 0000000180150570 f i libucrt:output.obj
 0001:0014f5a0       ??$is_wide_character_specifier@_W@__crt_stdio_output@@YA_N_K_WW4length_modifier@0@@Z 00000001801505a0 f i libucrt:output.obj
 0001:0014f5e4       ??$peek_va_arg@C@__crt_stdio_output@@YACPEAD@Z 00000001801505e4 f i libucrt:output.obj
 0001:0014f5e8       ??$peek_va_arg@E@__crt_stdio_output@@YAEPEAD@Z 00000001801505e8 f i libucrt:output.obj
 0001:0014f5ec       ??$peek_va_arg@F@__crt_stdio_output@@YAFPEAD@Z 00000001801505ec f i libucrt:output.obj
 0001:0014f5f0       ??$peek_va_arg@G@__crt_stdio_output@@YAGPEAD@Z 00000001801505f0 f i libucrt:output.obj
 0001:0014f5f4       ??$peek_va_arg@H@__crt_stdio_output@@YAHPEAD@Z 00000001801505f4 f i libucrt:output.obj
 0001:0014f5f8       ??$peek_va_arg@I@__crt_stdio_output@@YAIPEAD@Z 00000001801505f8 f i libucrt:output.obj
 0001:0014f5fc       ??$peek_va_arg@PEAD@__crt_stdio_output@@YAPEADPEAD@Z 00000001801505fc f i libucrt:output.obj
 0001:0014f600       ??$peek_va_arg@PEAUansi_string@?1??type_case_Z@?$output_processor@DV?$stream_output_adapter@D@__crt_stdio_output@@V?$positional_parameter_base@DV?$stream_output_adapter@D@__crt_stdio_output@@@2@@__crt_stdio_output@@AEAA_NXZ@@__crt_stdio_output@@YAPEAUansi_string@?1??type_case_Z@?$output_processor@DV?$stream_output_adapter@D@__crt_stdio_output@@V?$positional_parameter_base@DV?$stream_output_adapter@D@__crt_stdio_output@@@2@@0@AEAA_NXZ@PEAD@Z 0000000180150600 f i libucrt:output.obj
 0001:0014f604       ??$peek_va_arg@PEAUansi_string@?1??type_case_Z@?$output_processor@DV?$string_output_adapter@D@__crt_stdio_output@@V?$positional_parameter_base@DV?$string_output_adapter@D@__crt_stdio_output@@@2@@__crt_stdio_output@@AEAA_NXZ@@__crt_stdio_output@@YAPEAUansi_string@?1??type_case_Z@?$output_processor@DV?$string_output_adapter@D@__crt_stdio_output@@V?$positional_parameter_base@DV?$string_output_adapter@D@__crt_stdio_output@@@2@@0@AEAA_NXZ@PEAD@Z 0000000180150604 f i libucrt:output.obj
 0001:0014f608       ??$peek_va_arg@PEAUansi_string@?1??type_case_Z@?$output_processor@_WV?$stream_output_adapter@_W@__crt_stdio_output@@V?$positional_parameter_base@_WV?$stream_output_adapter@_W@__crt_stdio_output@@@2@@__crt_stdio_output@@AEAA_NXZ@@__crt_stdio_output@@YAPEAUansi_string@?1??type_case_Z@?$output_processor@_WV?$stream_output_adapter@_W@__crt_stdio_output@@V?$positional_parameter_base@_WV?$stream_output_adapter@_W@__crt_stdio_output@@@2@@0@AEAA_NXZ@PEAD@Z 0000000180150608 f i libucrt:output.obj
 0001:0014f60c       ??$peek_va_arg@PEAUansi_string@?1??type_case_Z@?$output_processor@_WV?$string_output_adapter@_W@__crt_stdio_output@@V?$positional_parameter_base@_WV?$string_output_adapter@_W@__crt_stdio_output@@@2@@__crt_stdio_output@@AEAA_NXZ@@__crt_stdio_output@@YAPEAUansi_string@?1??type_case_Z@?$output_processor@_WV?$string_output_adapter@_W@__crt_stdio_output@@V?$positional_parameter_base@_WV?$string_output_adapter@_W@__crt_stdio_output@@@2@@0@AEAA_NXZ@PEAD@Z 000000018015060c f i libucrt:output.obj
 0001:0014f610       ??$peek_va_arg@PEAX@__crt_stdio_output@@YAPEAXPEAD@Z 0000000180150610 f i libucrt:output.obj
 0001:0014f614       ??$peek_va_arg@U_CRT_DOUBLE@@@__crt_stdio_output@@YA?AU_CRT_DOUBLE@@PEAD@Z 0000000180150614 f i libucrt:output.obj
 0001:0014f618       ??$peek_va_arg@_J@__crt_stdio_output@@YA_JPEAD@Z 0000000180150618 f i libucrt:output.obj
 0001:0014f61c       ??$peek_va_arg@_K@__crt_stdio_output@@YA_KPEAD@Z 000000018015061c f i libucrt:output.obj
 0001:0014f620       ??$peek_va_arg@_W@__crt_stdio_output@@YA_WPEAD@Z 0000000180150620 f i libucrt:output.obj
 0001:0014f624       ??$puttc_nolock@AEBDPEAU_iobuf@@@?$__crt_char_traits@D@@SAHAEBD$$QEAPEAU_iobuf@@@Z 0000000180150624 f i libucrt:output.obj
 0001:0014f630       ??$puttc_nolock@AEB_WPEAU_iobuf@@@?$__crt_char_traits@_W@@SAGAEB_W$$QEAPEAU_iobuf@@@Z 0000000180150630 f i libucrt:output.obj
 0001:0014f63c       ??$read_va_arg@C@__crt_stdio_output@@YACAEAPEAD@Z 000000018015063c f i libucrt:output.obj
 0001:0014f648       ??$read_va_arg@E@__crt_stdio_output@@YAEAEAPEAD@Z 0000000180150648 f i libucrt:output.obj
 0001:0014f654       ??$read_va_arg@F@__crt_stdio_output@@YAFAEAPEAD@Z 0000000180150654 f i libucrt:output.obj
 0001:0014f660       ??$read_va_arg@G@__crt_stdio_output@@YAGAEAPEAD@Z 0000000180150660 f i libucrt:output.obj
 0001:0014f66c       ??$read_va_arg@H@__crt_stdio_output@@YAHAEAPEAD@Z 000000018015066c f i libucrt:output.obj
 0001:0014f678       ??$read_va_arg@I@__crt_stdio_output@@YAIAEAPEAD@Z 0000000180150678 f i libucrt:output.obj
 0001:0014f684       ??$read_va_arg@PEAD@__crt_stdio_output@@YAPEADAEAPEAD@Z 0000000180150684 f i libucrt:output.obj
 0001:0014f690       ??$read_va_arg@PEAUansi_string@?1??type_case_Z@?$output_processor@DV?$stream_output_adapter@D@__crt_stdio_output@@V?$format_validation_base@DV?$stream_output_adapter@D@__crt_stdio_output@@@2@@__crt_stdio_output@@AEAA_NXZ@@__crt_stdio_output@@YAPEAUansi_string@?1??type_case_Z@?$output_processor@DV?$stream_output_adapter@D@__crt_stdio_output@@V?$format_validation_base@DV?$stream_output_adapter@D@__crt_stdio_output@@@2@@0@AEAA_NXZ@AEAPEAD@Z 0000000180150690 f i libucrt:output.obj
 0001:0014f69c       ??$read_va_arg@PEAUansi_string@?1??type_case_Z@?$output_processor@DV?$stream_output_adapter@D@__crt_stdio_output@@V?$positional_parameter_base@DV?$stream_output_adapter@D@__crt_stdio_output@@@2@@__crt_stdio_output@@AEAA_NXZ@@__crt_stdio_output@@YAPEAUansi_string@?1??type_case_Z@?$output_processor@DV?$stream_output_adapter@D@__crt_stdio_output@@V?$positional_parameter_base@DV?$stream_output_adapter@D@__crt_stdio_output@@@2@@0@AEAA_NXZ@AEAPEAD@Z 000000018015069c f i libucrt:output.obj
 0001:0014f6a8       ??$read_va_arg@PEAUansi_string@?1??type_case_Z@?$output_processor@DV?$stream_output_adapter@D@__crt_stdio_output@@V?$standard_base@DV?$stream_output_adapter@D@__crt_stdio_output@@@2@@__crt_stdio_output@@AEAA_NXZ@@__crt_stdio_output@@YAPEAUansi_string@?1??type_case_Z@?$output_processor@DV?$stream_output_adapter@D@__crt_stdio_output@@V?$standard_base@DV?$stream_output_adapter@D@__crt_stdio_output@@@2@@0@AEAA_NXZ@AEAPEAD@Z 00000001801506a8 f i libucrt:output.obj
 0001:0014f6b4       ??$read_va_arg@PEAUansi_string@?1??type_case_Z@?$output_processor@DV?$string_output_adapter@D@__crt_stdio_output@@V?$format_validation_base@DV?$string_output_adapter@D@__crt_stdio_output@@@2@@__crt_stdio_output@@AEAA_NXZ@@__crt_stdio_output@@YAPEAUansi_string@?1??type_case_Z@?$output_processor@DV?$string_output_adapter@D@__crt_stdio_output@@V?$format_validation_base@DV?$string_output_adapter@D@__crt_stdio_output@@@2@@0@AEAA_NXZ@AEAPEAD@Z 00000001801506b4 f i libucrt:output.obj
 0001:0014f6c0       ??$read_va_arg@PEAUansi_string@?1??type_case_Z@?$output_processor@DV?$string_output_adapter@D@__crt_stdio_output@@V?$positional_parameter_base@DV?$string_output_adapter@D@__crt_stdio_output@@@2@@__crt_stdio_output@@AEAA_NXZ@@__crt_stdio_output@@YAPEAUansi_string@?1??type_case_Z@?$output_processor@DV?$string_output_adapter@D@__crt_stdio_output@@V?$positional_parameter_base@DV?$string_output_adapter@D@__crt_stdio_output@@@2@@0@AEAA_NXZ@AEAPEAD@Z 00000001801506c0 f i libucrt:output.obj
 0001:0014f6cc       ??$read_va_arg@PEAUansi_string@?1??type_case_Z@?$output_processor@DV?$string_output_adapter@D@__crt_stdio_output@@V?$standard_base@DV?$string_output_adapter@D@__crt_stdio_output@@@2@@__crt_stdio_output@@AEAA_NXZ@@__crt_stdio_output@@YAPEAUansi_string@?1??type_case_Z@?$output_processor@DV?$string_output_adapter@D@__crt_stdio_output@@V?$standard_base@DV?$string_output_adapter@D@__crt_stdio_output@@@2@@0@AEAA_NXZ@AEAPEAD@Z 00000001801506cc f i libucrt:output.obj
 0001:0014f6d8       ??$read_va_arg@PEAUansi_string@?1??type_case_Z@?$output_processor@_WV?$stream_output_adapter@_W@__crt_stdio_output@@V?$format_validation_base@_WV?$stream_output_adapter@_W@__crt_stdio_output@@@2@@__crt_stdio_output@@AEAA_NXZ@@__crt_stdio_output@@YAPEAUansi_string@?1??type_case_Z@?$output_processor@_WV?$stream_output_adapter@_W@__crt_stdio_output@@V?$format_validation_base@_WV?$stream_output_adapter@_W@__crt_stdio_output@@@2@@0@AEAA_NXZ@AEAPEAD@Z 00000001801506d8 f i libucrt:output.obj
 0001:0014f6e4       ??$read_va_arg@PEAUansi_string@?1??type_case_Z@?$output_processor@_WV?$stream_output_adapter@_W@__crt_stdio_output@@V?$positional_parameter_base@_WV?$stream_output_adapter@_W@__crt_stdio_output@@@2@@__crt_stdio_output@@AEAA_NXZ@@__crt_stdio_output@@YAPEAUansi_string@?1??type_case_Z@?$output_processor@_WV?$stream_output_adapter@_W@__crt_stdio_output@@V?$positional_parameter_base@_WV?$stream_output_adapter@_W@__crt_stdio_output@@@2@@0@AEAA_NXZ@AEAPEAD@Z 00000001801506e4 f i libucrt:output.obj
 0001:0014f6f0       ??$read_va_arg@PEAUansi_string@?1??type_case_Z@?$output_processor@_WV?$stream_output_adapter@_W@__crt_stdio_output@@V?$standard_base@_WV?$stream_output_adapter@_W@__crt_stdio_output@@@2@@__crt_stdio_output@@AEAA_NXZ@@__crt_stdio_output@@YAPEAUansi_string@?1??type_case_Z@?$output_processor@_WV?$stream_output_adapter@_W@__crt_stdio_output@@V?$standard_base@_WV?$stream_output_adapter@_W@__crt_stdio_output@@@2@@0@AEAA_NXZ@AEAPEAD@Z 00000001801506f0 f i libucrt:output.obj
 0001:0014f6fc       ??$read_va_arg@PEAUansi_string@?1??type_case_Z@?$output_processor@_WV?$string_output_adapter@_W@__crt_stdio_output@@V?$format_validation_base@_WV?$string_output_adapter@_W@__crt_stdio_output@@@2@@__crt_stdio_output@@AEAA_NXZ@@__crt_stdio_output@@YAPEAUansi_string@?1??type_case_Z@?$output_processor@_WV?$string_output_adapter@_W@__crt_stdio_output@@V?$format_validation_base@_WV?$string_output_adapter@_W@__crt_stdio_output@@@2@@0@AEAA_NXZ@AEAPEAD@Z 00000001801506fc f i libucrt:output.obj
 0001:0014f708       ??$read_va_arg@PEAUansi_string@?1??type_case_Z@?$output_processor@_WV?$string_output_adapter@_W@__crt_stdio_output@@V?$positional_parameter_base@_WV?$string_output_adapter@_W@__crt_stdio_output@@@2@@__crt_stdio_output@@AEAA_NXZ@@__crt_stdio_output@@YAPEAUansi_string@?1??type_case_Z@?$output_processor@_WV?$string_output_adapter@_W@__crt_stdio_output@@V?$positional_parameter_base@_WV?$string_output_adapter@_W@__crt_stdio_output@@@2@@0@AEAA_NXZ@AEAPEAD@Z 0000000180150708 f i libucrt:output.obj
 0001:0014f714       ??$read_va_arg@PEAUansi_string@?1??type_case_Z@?$output_processor@_WV?$string_output_adapter@_W@__crt_stdio_output@@V?$standard_base@_WV?$string_output_adapter@_W@__crt_stdio_output@@@2@@__crt_stdio_output@@AEAA_NXZ@@__crt_stdio_output@@YAPEAUansi_string@?1??type_case_Z@?$output_processor@_WV?$string_output_adapter@_W@__crt_stdio_output@@V?$standard_base@_WV?$string_output_adapter@_W@__crt_stdio_output@@@2@@0@AEAA_NXZ@AEAPEAD@Z 0000000180150714 f i libucrt:output.obj
 0001:0014f720       ??$read_va_arg@PEAX@__crt_stdio_output@@YAPEAXAEAPEAD@Z 0000000180150720 f i libucrt:output.obj
 0001:0014f72c       ??$read_va_arg@U_CRT_DOUBLE@@@__crt_stdio_output@@YA?AU_CRT_DOUBLE@@AEAPEAD@Z 000000018015072c f i libucrt:output.obj
 0001:0014f738       ??$read_va_arg@_J@__crt_stdio_output@@YA_JAEAPEAD@Z 0000000180150738 f i libucrt:output.obj
 0001:0014f744       ??$read_va_arg@_K@__crt_stdio_output@@YA_KAEAPEAD@Z 0000000180150744 f i libucrt:output.obj
 0001:0014f750       ??$read_va_arg@_W@__crt_stdio_output@@YA_WAEAPEAD@Z 0000000180150750 f i libucrt:output.obj
 0001:0014f75c       ??$scratch_count@D@formatting_buffer@__crt_stdio_output@@QEBA_KXZ 000000018015075c f i libucrt:output.obj
 0001:0014f778       ??$scratch_data@D@formatting_buffer@__crt_stdio_output@@QEAAPEADXZ 0000000180150778 f i libucrt:output.obj
 0001:0014f79c       ??$tcstol@AEAPEBDPEAPEADH@?$__crt_char_traits@D@@SAJAEAPEBD$$QEAPEAPEAD$$QEAH@Z 000000018015079c f i libucrt:output.obj
 0001:0014f7ac       ??$tcstol@AEAPEB_WPEAPEA_WH@?$__crt_char_traits@_W@@SAJAEAPEB_W$$QEAPEAPEA_W$$QEAH@Z 00000001801507ac f i libucrt:output.obj
 0001:0014f7bc       ??$tcstol@PEBDPEAPEADH@?$__crt_char_traits@D@@SAJ$$QEAPEBD$$QEAPEAPEAD$$QEAH@Z 00000001801507bc f i libucrt:output.obj
 0001:0014f7cc       ??$tcstol@PEB_WPEAPEA_WH@?$__crt_char_traits@_W@@SAJ$$QEAPEB_W$$QEAPEAPEA_W$$QEAH@Z 00000001801507cc f i libucrt:output.obj
 0001:0014f7dc       ??$type_case_integer_parse_into_buffer@I@?$output_processor@DV?$stream_output_adapter@D@__crt_stdio_output@@V?$format_validation_base@DV?$stream_output_adapter@D@__crt_stdio_output@@@2@@__crt_stdio_output@@AEAAXII_N@Z 00000001801507dc f i libucrt:output.obj
 0001:0014f878       ??$type_case_integer_parse_into_buffer@I@?$output_processor@DV?$stream_output_adapter@D@__crt_stdio_output@@V?$positional_parameter_base@DV?$stream_output_adapter@D@__crt_stdio_output@@@2@@__crt_stdio_output@@AEAAXII_N@Z 0000000180150878 f i libucrt:output.obj
 0001:0014f914       ??$type_case_integer_parse_into_buffer@I@?$output_processor@DV?$stream_output_adapter@D@__crt_stdio_output@@V?$standard_base@DV?$stream_output_adapter@D@__crt_stdio_output@@@2@@__crt_stdio_output@@AEAAXII_N@Z 0000000180150914 f i libucrt:output.obj
 0001:0014f9b0       ??$type_case_integer_parse_into_buffer@I@?$output_processor@DV?$string_output_adapter@D@__crt_stdio_output@@V?$format_validation_base@DV?$string_output_adapter@D@__crt_stdio_output@@@2@@__crt_stdio_output@@AEAAXII_N@Z 00000001801509b0 f i libucrt:output.obj
 0001:0014fa4c       ??$type_case_integer_parse_into_buffer@I@?$output_processor@DV?$string_output_adapter@D@__crt_stdio_output@@V?$positional_parameter_base@DV?$string_output_adapter@D@__crt_stdio_output@@@2@@__crt_stdio_output@@AEAAXII_N@Z 0000000180150a4c f i libucrt:output.obj
 0001:0014fae8       ??$type_case_integer_parse_into_buffer@I@?$output_processor@DV?$string_output_adapter@D@__crt_stdio_output@@V?$standard_base@DV?$string_output_adapter@D@__crt_stdio_output@@@2@@__crt_stdio_output@@AEAAXII_N@Z 0000000180150ae8 f i libucrt:output.obj
 0001:0014fb84       ??$type_case_integer_parse_into_buffer@I@?$output_processor@_WV?$stream_output_adapter@_W@__crt_stdio_output@@V?$format_validation_base@_WV?$stream_output_adapter@_W@__crt_stdio_output@@@2@@__crt_stdio_output@@AEAAXII_N@Z 0000000180150b84 f i libucrt:output.obj
 0001:0014fc20       ??$type_case_integer_parse_into_buffer@I@?$output_processor@_WV?$stream_output_adapter@_W@__crt_stdio_output@@V?$positional_parameter_base@_WV?$stream_output_adapter@_W@__crt_stdio_output@@@2@@__crt_stdio_output@@AEAAXII_N@Z 0000000180150c20 f i libucrt:output.obj
 0001:0014fcbc       ??$type_case_integer_parse_into_buffer@I@?$output_processor@_WV?$stream_output_adapter@_W@__crt_stdio_output@@V?$standard_base@_WV?$stream_output_adapter@_W@__crt_stdio_output@@@2@@__crt_stdio_output@@AEAAXII_N@Z 0000000180150cbc f i libucrt:output.obj
 0001:0014fd58       ??$type_case_integer_parse_into_buffer@I@?$output_processor@_WV?$string_output_adapter@_W@__crt_stdio_output@@V?$format_validation_base@_WV?$string_output_adapter@_W@__crt_stdio_output@@@2@@__crt_stdio_output@@AEAAXII_N@Z 0000000180150d58 f i libucrt:output.obj
 0001:0014fdf4       ??$type_case_integer_parse_into_buffer@I@?$output_processor@_WV?$string_output_adapter@_W@__crt_stdio_output@@V?$positional_parameter_base@_WV?$string_output_adapter@_W@__crt_stdio_output@@@2@@__crt_stdio_output@@AEAAXII_N@Z 0000000180150df4 f i libucrt:output.obj
 0001:0014fe90       ??$type_case_integer_parse_into_buffer@I@?$output_processor@_WV?$string_output_adapter@_W@__crt_stdio_output@@V?$standard_base@_WV?$string_output_adapter@_W@__crt_stdio_output@@@2@@__crt_stdio_output@@AEAAXII_N@Z 0000000180150e90 f i libucrt:output.obj
 0001:0014ff2c       ??$type_case_integer_parse_into_buffer@_K@?$output_processor@DV?$stream_output_adapter@D@__crt_stdio_output@@V?$format_validation_base@DV?$stream_output_adapter@D@__crt_stdio_output@@@2@@__crt_stdio_output@@AEAAX_KI_N@Z 0000000180150f2c f i libucrt:output.obj
 0001:0014ffc8       ??$type_case_integer_parse_into_buffer@_K@?$output_processor@DV?$stream_output_adapter@D@__crt_stdio_output@@V?$positional_parameter_base@DV?$stream_output_adapter@D@__crt_stdio_output@@@2@@__crt_stdio_output@@AEAAX_KI_N@Z 0000000180150fc8 f i libucrt:output.obj
 0001:00150064       ??$type_case_integer_parse_into_buffer@_K@?$output_processor@DV?$stream_output_adapter@D@__crt_stdio_output@@V?$standard_base@DV?$stream_output_adapter@D@__crt_stdio_output@@@2@@__crt_stdio_output@@AEAAX_KI_N@Z 0000000180151064 f i libucrt:output.obj
 0001:00150100       ??$type_case_integer_parse_into_buffer@_K@?$output_processor@DV?$string_output_adapter@D@__crt_stdio_output@@V?$format_validation_base@DV?$string_output_adapter@D@__crt_stdio_output@@@2@@__crt_stdio_output@@AEAAX_KI_N@Z 0000000180151100 f i libucrt:output.obj
 0001:0015019c       ??$type_case_integer_parse_into_buffer@_K@?$output_processor@DV?$string_output_adapter@D@__crt_stdio_output@@V?$positional_parameter_base@DV?$string_output_adapter@D@__crt_stdio_output@@@2@@__crt_stdio_output@@AEAAX_KI_N@Z 000000018015119c f i libucrt:output.obj
 0001:00150238       ??$type_case_integer_parse_into_buffer@_K@?$output_processor@DV?$string_output_adapter@D@__crt_stdio_output@@V?$standard_base@DV?$string_output_adapter@D@__crt_stdio_output@@@2@@__crt_stdio_output@@AEAAX_KI_N@Z 0000000180151238 f i libucrt:output.obj
 0001:001502d4       ??$type_case_integer_parse_into_buffer@_K@?$output_processor@_WV?$stream_output_adapter@_W@__crt_stdio_output@@V?$format_validation_base@_WV?$stream_output_adapter@_W@__crt_stdio_output@@@2@@__crt_stdio_output@@AEAAX_KI_N@Z 00000001801512d4 f i libucrt:output.obj
 0001:00150370       ??$type_case_integer_parse_into_buffer@_K@?$output_processor@_WV?$stream_output_adapter@_W@__crt_stdio_output@@V?$positional_parameter_base@_WV?$stream_output_adapter@_W@__crt_stdio_output@@@2@@__crt_stdio_output@@AEAAX_KI_N@Z 0000000180151370 f i libucrt:output.obj
 0001:0015040c       ??$type_case_integer_parse_into_buffer@_K@?$output_processor@_WV?$stream_output_adapter@_W@__crt_stdio_output@@V?$standard_base@_WV?$stream_output_adapter@_W@__crt_stdio_output@@@2@@__crt_stdio_output@@AEAAX_KI_N@Z 000000018015140c f i libucrt:output.obj
 0001:001504a8       ??$type_case_integer_parse_into_buffer@_K@?$output_processor@_WV?$string_output_adapter@_W@__crt_stdio_output@@V?$format_validation_base@_WV?$string_output_adapter@_W@__crt_stdio_output@@@2@@__crt_stdio_output@@AEAAX_KI_N@Z 00000001801514a8 f i libucrt:output.obj
 0001:00150544       ??$type_case_integer_parse_into_buffer@_K@?$output_processor@_WV?$string_output_adapter@_W@__crt_stdio_output@@V?$positional_parameter_base@_WV?$string_output_adapter@_W@__crt_stdio_output@@@2@@__crt_stdio_output@@AEAAX_KI_N@Z 0000000180151544 f i libucrt:output.obj
 0001:001505e0       ??$type_case_integer_parse_into_buffer@_K@?$output_processor@_WV?$string_output_adapter@_W@__crt_stdio_output@@V?$standard_base@_WV?$string_output_adapter@_W@__crt_stdio_output@@@2@@__crt_stdio_output@@AEAAX_KI_N@Z 00000001801515e0 f i libucrt:output.obj
 0001:0015067c       ??$write_multiple_characters@V?$stream_output_adapter@D@__crt_stdio_output@@D@__crt_stdio_output@@YAXAEBV?$stream_output_adapter@D@0@DHQEAH@Z 000000018015167c f i libucrt:output.obj
 0001:00150700       ??$write_multiple_characters@V?$stream_output_adapter@_W@__crt_stdio_output@@D@__crt_stdio_output@@YAXAEBV?$stream_output_adapter@_W@0@DHQEAH@Z 0000000180151700 f i libucrt:output.obj
 0001:00150790       ??$write_multiple_characters@V?$string_output_adapter@D@__crt_stdio_output@@D@__crt_stdio_output@@YAXAEBV?$string_output_adapter@D@0@DHQEAH@Z 0000000180151790 f i libucrt:output.obj
 0001:001507ec       ??$write_multiple_characters@V?$string_output_adapter@_W@__crt_stdio_output@@D@__crt_stdio_output@@YAXAEBV?$string_output_adapter@_W@0@DHQEAH@Z 00000001801517ec f i libucrt:output.obj
 0001:001509c4       ??0?$common_data@D@__crt_stdio_output@@IEAA@XZ 00000001801519c4 f i libucrt:output.obj
 0001:00150a00       ??0?$common_data@_W@__crt_stdio_output@@IEAA@XZ 0000000180151a00 f i libucrt:output.obj
 0001:00150a40       ??0?$output_adapter_data@DV?$stream_output_adapter@D@__crt_stdio_output@@@__crt_stdio_output@@IEAA@AEBV?$stream_output_adapter@D@1@_KQEBDQEAU__crt_locale_pointers@@QEAD@Z 0000000180151a40 f i libucrt:output.obj
 0001:00150aa0       ??0?$output_adapter_data@DV?$string_output_adapter@D@__crt_stdio_output@@@__crt_stdio_output@@IEAA@AEBV?$string_output_adapter@D@1@_KQEBDQEAU__crt_locale_pointers@@QEAD@Z 0000000180151aa0 f i libucrt:output.obj
 0001:00150b00       ??0?$output_adapter_data@_WV?$stream_output_adapter@_W@__crt_stdio_output@@@__crt_stdio_output@@IEAA@AEBV?$stream_output_adapter@_W@1@_KQEB_WQEAU__crt_locale_pointers@@QEAD@Z 0000000180151b00 f i libucrt:output.obj
 0001:00150b64       ??0?$output_adapter_data@_WV?$string_output_adapter@_W@__crt_stdio_output@@@__crt_stdio_output@@IEAA@AEBV?$string_output_adapter@_W@1@_KQEB_WQEAU__crt_locale_pointers@@QEAD@Z 0000000180151b64 f i libucrt:output.obj
 0001:00150bc8       ??0?$output_processor@DV?$stream_output_adapter@D@__crt_stdio_output@@V?$format_validation_base@DV?$stream_output_adapter@D@__crt_stdio_output@@@2@@__crt_stdio_output@@QEAA@AEBV?$stream_output_adapter@D@1@_KQEBDQEAU__crt_locale_pointers@@QEAD@Z 0000000180151bc8 f i libucrt:output.obj
 0001:00150c44       ??0?$output_processor@DV?$stream_output_adapter@D@__crt_stdio_output@@V?$positional_parameter_base@DV?$stream_output_adapter@D@__crt_stdio_output@@@2@@__crt_stdio_output@@QEAA@AEBV?$stream_output_adapter@D@1@_KQEBDQEAU__crt_locale_pointers@@QEAD@Z 0000000180151c44 f i libucrt:output.obj
 0001:00150ce0       ??0?$output_processor@DV?$stream_output_adapter@D@__crt_stdio_output@@V?$standard_base@DV?$stream_output_adapter@D@__crt_stdio_output@@@2@@__crt_stdio_output@@QEAA@AEBV?$stream_output_adapter@D@1@_KQEBDQEAU__crt_locale_pointers@@QEAD@Z 0000000180151ce0 f i libucrt:output.obj
 0001:00150d5c       ??0?$output_processor@DV?$string_output_adapter@D@__crt_stdio_output@@V?$format_validation_base@DV?$string_output_adapter@D@__crt_stdio_output@@@2@@__crt_stdio_output@@QEAA@AEBV?$string_output_adapter@D@1@_KQEBDQEAU__crt_locale_pointers@@QEAD@Z 0000000180151d5c f i libucrt:output.obj
 0001:00150dd8       ??0?$output_processor@DV?$string_output_adapter@D@__crt_stdio_output@@V?$positional_parameter_base@DV?$string_output_adapter@D@__crt_stdio_output@@@2@@__crt_stdio_output@@QEAA@AEBV?$string_output_adapter@D@1@_KQEBDQEAU__crt_locale_pointers@@QEAD@Z 0000000180151dd8 f i libucrt:output.obj
 0001:00150e74       ??0?$output_processor@DV?$string_output_adapter@D@__crt_stdio_output@@V?$standard_base@DV?$string_output_adapter@D@__crt_stdio_output@@@2@@__crt_stdio_output@@QEAA@AEBV?$string_output_adapter@D@1@_KQEBDQEAU__crt_locale_pointers@@QEAD@Z 0000000180151e74 f i libucrt:output.obj
 0001:00150ef0       ??0?$output_processor@_WV?$stream_output_adapter@_W@__crt_stdio_output@@V?$format_validation_base@_WV?$stream_output_adapter@_W@__crt_stdio_output@@@2@@__crt_stdio_output@@QEAA@AEBV?$stream_output_adapter@_W@1@_KQEB_WQEAU__crt_locale_pointers@@QEAD@Z 0000000180151ef0 f i libucrt:output.obj
 0001:00150f70       ??0?$output_processor@_WV?$stream_output_adapter@_W@__crt_stdio_output@@V?$positional_parameter_base@_WV?$stream_output_adapter@_W@__crt_stdio_output@@@2@@__crt_stdio_output@@QEAA@AEBV?$stream_output_adapter@_W@1@_KQEB_WQEAU__crt_locale_pointers@@QEAD@Z 0000000180151f70 f i libucrt:output.obj
 0001:0015100c       ??0?$output_processor@_WV?$stream_output_adapter@_W@__crt_stdio_output@@V?$standard_base@_WV?$stream_output_adapter@_W@__crt_stdio_output@@@2@@__crt_stdio_output@@QEAA@AEBV?$stream_output_adapter@_W@1@_KQEB_WQEAU__crt_locale_pointers@@QEAD@Z 000000018015200c f i libucrt:output.obj
 0001:0015108c       ??0?$output_processor@_WV?$string_output_adapter@_W@__crt_stdio_output@@V?$format_validation_base@_WV?$string_output_adapter@_W@__crt_stdio_output@@@2@@__crt_stdio_output@@QEAA@AEBV?$string_output_adapter@_W@1@_KQEB_WQEAU__crt_locale_pointers@@QEAD@Z 000000018015208c f i libucrt:output.obj
 0001:0015110c       ??0?$output_processor@_WV?$string_output_adapter@_W@__crt_stdio_output@@V?$positional_parameter_base@_WV?$string_output_adapter@_W@__crt_stdio_output@@@2@@__crt_stdio_output@@QEAA@AEBV?$string_output_adapter@_W@1@_KQEB_WQEAU__crt_locale_pointers@@QEAD@Z 000000018015210c f i libucrt:output.obj
 0001:001511a8       ??0?$output_processor@_WV?$string_output_adapter@_W@__crt_stdio_output@@V?$standard_base@_WV?$string_output_adapter@_W@__crt_stdio_output@@@2@@__crt_stdio_output@@QEAA@AEBV?$string_output_adapter@_W@1@_KQEB_WQEAU__crt_locale_pointers@@QEAD@Z 00000001801521a8 f i libucrt:output.obj
 0001:00151228       ??0?$stream_output_adapter@D@__crt_stdio_output@@QEAA@QEAU_iobuf@@@Z 0000000180152228 f i libucrt:output.obj
 0001:00151230       ??0?$stream_output_adapter@_W@__crt_stdio_output@@QEAA@QEAU_iobuf@@@Z 0000000180152230 f i libucrt:output.obj
 0001:00151238       ??0?$string_output_adapter@D@__crt_stdio_output@@QEAA@QEAU?$string_output_adapter_context@D@1@@Z 0000000180152238 f i libucrt:output.obj
 0001:00151240       ??0?$string_output_adapter@_W@__crt_stdio_output@@QEAA@QEAU?$string_output_adapter_context@_W@1@@Z 0000000180152240 f i libucrt:output.obj
 0001:00151248       ??0_LocaleUpdate@@QEAA@QEAU__crt_locale_pointers@@@Z 0000000180152248 f i libucrt:output.obj
 0001:001512d8       ??0__crt_errno_guard@@QEAA@QEAH@Z 00000001801522d8 f i libucrt:output.obj
 0001:001512e8       ??0formatting_buffer@__crt_stdio_output@@QEAA@XZ 00000001801522e8 f i libucrt:output.obj
 0001:001512fc       ??1?$common_data@D@__crt_stdio_output@@QEAA@XZ 00000001801522fc f i libucrt:output.obj
 0001:00151320       ??1?$common_data@_W@__crt_stdio_output@@QEAA@XZ 0000000180152320 f i libucrt:output.obj
 0001:00151344       ??1?$format_validation_base@DV?$stream_output_adapter@D@__crt_stdio_output@@@__crt_stdio_output@@QEAA@XZ 0000000180152344 f i libucrt:output.obj
 0001:00151368       ??1?$format_validation_base@DV?$string_output_adapter@D@__crt_stdio_output@@@__crt_stdio_output@@QEAA@XZ 0000000180152368 f i libucrt:output.obj
 0001:0015138c       ??1?$format_validation_base@_WV?$stream_output_adapter@_W@__crt_stdio_output@@@__crt_stdio_output@@QEAA@XZ 000000018015238c f i libucrt:output.obj
 0001:001513b0       ??1?$format_validation_base@_WV?$string_output_adapter@_W@__crt_stdio_output@@@__crt_stdio_output@@QEAA@XZ 00000001801523b0 f i libucrt:output.obj
 0001:001513d4       ??1?$output_adapter_data@DV?$stream_output_adapter@D@__crt_stdio_output@@@__crt_stdio_output@@QEAA@XZ 00000001801523d4 f i libucrt:output.obj
 0001:001513f8       ??1?$output_adapter_data@DV?$string_output_adapter@D@__crt_stdio_output@@@__crt_stdio_output@@QEAA@XZ 00000001801523f8 f i libucrt:output.obj
 0001:0015141c       ??1?$output_adapter_data@_WV?$stream_output_adapter@_W@__crt_stdio_output@@@__crt_stdio_output@@QEAA@XZ 000000018015241c f i libucrt:output.obj
 0001:00151440       ??1?$output_adapter_data@_WV?$string_output_adapter@_W@__crt_stdio_output@@@__crt_stdio_output@@QEAA@XZ 0000000180152440 f i libucrt:output.obj
 0001:00151464       ??1?$output_processor@DV?$stream_output_adapter@D@__crt_stdio_output@@V?$format_validation_base@DV?$stream_output_adapter@D@__crt_stdio_output@@@2@@__crt_stdio_output@@QEAA@XZ 0000000180152464 f i libucrt:output.obj
 0001:00151488       ??1?$output_processor@DV?$stream_output_adapter@D@__crt_stdio_output@@V?$positional_parameter_base@DV?$stream_output_adapter@D@__crt_stdio_output@@@2@@__crt_stdio_output@@QEAA@XZ 0000000180152488 f i libucrt:output.obj
 0001:001514ac       ??1?$output_processor@DV?$stream_output_adapter@D@__crt_stdio_output@@V?$standard_base@DV?$stream_output_adapter@D@__crt_stdio_output@@@2@@__crt_stdio_output@@QEAA@XZ 00000001801524ac f i libucrt:output.obj
 0001:001514d0       ??1?$output_processor@DV?$string_output_adapter@D@__crt_stdio_output@@V?$format_validation_base@DV?$string_output_adapter@D@__crt_stdio_output@@@2@@__crt_stdio_output@@QEAA@XZ 00000001801524d0 f i libucrt:output.obj
 0001:001514f4       ??1?$output_processor@DV?$string_output_adapter@D@__crt_stdio_output@@V?$positional_parameter_base@DV?$string_output_adapter@D@__crt_stdio_output@@@2@@__crt_stdio_output@@QEAA@XZ 00000001801524f4 f i libucrt:output.obj
 0001:00151518       ??1?$output_processor@DV?$string_output_adapter@D@__crt_stdio_output@@V?$standard_base@DV?$string_output_adapter@D@__crt_stdio_output@@@2@@__crt_stdio_output@@QEAA@XZ 0000000180152518 f i libucrt:output.obj
 0001:0015153c       ??1?$output_processor@_WV?$stream_output_adapter@_W@__crt_stdio_output@@V?$format_validation_base@_WV?$stream_output_adapter@_W@__crt_stdio_output@@@2@@__crt_stdio_output@@QEAA@XZ 000000018015253c f i libucrt:output.obj
 0001:00151560       ??1?$output_processor@_WV?$stream_output_adapter@_W@__crt_stdio_output@@V?$positional_parameter_base@_WV?$stream_output_adapter@_W@__crt_stdio_output@@@2@@__crt_stdio_output@@QEAA@XZ 0000000180152560 f i libucrt:output.obj
 0001:00151584       ??1?$output_processor@_WV?$stream_output_adapter@_W@__crt_stdio_output@@V?$standard_base@_WV?$stream_output_adapter@_W@__crt_stdio_output@@@2@@__crt_stdio_output@@QEAA@XZ 0000000180152584 f i libucrt:output.obj
 0001:001515a8       ??1?$output_processor@_WV?$string_output_adapter@_W@__crt_stdio_output@@V?$format_validation_base@_WV?$string_output_adapter@_W@__crt_stdio_output@@@2@@__crt_stdio_output@@QEAA@XZ 00000001801525a8 f i libucrt:output.obj
 0001:001515cc       ??1?$output_processor@_WV?$string_output_adapter@_W@__crt_stdio_output@@V?$positional_parameter_base@_WV?$string_output_adapter@_W@__crt_stdio_output@@@2@@__crt_stdio_output@@QEAA@XZ 00000001801525cc f i libucrt:output.obj
 0001:001515f0       ??1?$output_processor@_WV?$string_output_adapter@_W@__crt_stdio_output@@V?$standard_base@_WV?$string_output_adapter@_W@__crt_stdio_output@@@2@@__crt_stdio_output@@QEAA@XZ 00000001801525f0 f i libucrt:output.obj
 0001:00151614       ??1?$positional_parameter_base@DV?$stream_output_adapter@D@__crt_stdio_output@@@__crt_stdio_output@@QEAA@XZ 0000000180152614 f i libucrt:output.obj
 0001:00151638       ??1?$positional_parameter_base@DV?$string_output_adapter@D@__crt_stdio_output@@@__crt_stdio_output@@QEAA@XZ 0000000180152638 f i libucrt:output.obj
 0001:0015165c       ??1?$positional_parameter_base@_WV?$stream_output_adapter@_W@__crt_stdio_output@@@__crt_stdio_output@@QEAA@XZ 000000018015265c f i libucrt:output.obj
 0001:00151680       ??1?$positional_parameter_base@_WV?$string_output_adapter@_W@__crt_stdio_output@@@__crt_stdio_output@@QEAA@XZ 0000000180152680 f i libucrt:output.obj
 0001:001516a4       ??1?$standard_base@DV?$stream_output_adapter@D@__crt_stdio_output@@@__crt_stdio_output@@QEAA@XZ 00000001801526a4 f i libucrt:output.obj
 0001:001516c8       ??1?$standard_base@DV?$string_output_adapter@D@__crt_stdio_output@@@__crt_stdio_output@@QEAA@XZ 00000001801526c8 f i libucrt:output.obj
 0001:001516ec       ??1?$standard_base@_WV?$stream_output_adapter@_W@__crt_stdio_output@@@__crt_stdio_output@@QEAA@XZ 00000001801526ec f i libucrt:output.obj
 0001:00151710       ??1?$standard_base@_WV?$string_output_adapter@_W@__crt_stdio_output@@@__crt_stdio_output@@QEAA@XZ 0000000180152710 f i libucrt:output.obj
 0001:00151734       ??1_LocaleUpdate@@QEAA@XZ  0000000180152734 f i libucrt:output.obj
 0001:00151748       ??1__crt_errno_guard@@QEAA@XZ 0000000180152748 f i libucrt:output.obj
 0001:0015175c       ??1formatting_buffer@__crt_stdio_output@@QEAA@XZ 000000018015275c f i libucrt:output.obj
 0001:00151780       ??4?$__crt_unique_heap_ptr@DU__crt_internal_free_policy@@@@QEAAAEAV0@$$QEAV0@@Z 0000000180152780 f i libucrt:output.obj
 0001:001517b4       ??C__crt_stdio_stream@@QEBAPEAU__crt_stdio_stream_data@@XZ 00000001801527b4 f i libucrt:output.obj
 0001:00151db8       ?GetLocaleT@_LocaleUpdate@@QEAAPEAU__crt_locale_pointers@@XZ 0000000180152db8 f i libucrt:output.obj
 0001:00151dc0       ?adjust_hexit@?$output_processor@DV?$stream_output_adapter@D@__crt_stdio_output@@V?$format_validation_base@DV?$stream_output_adapter@D@__crt_stdio_output@@@2@@__crt_stdio_output@@CADH_N@Z 0000000180152dc0 f i libucrt:output.obj
 0001:00151dd0       ?adjust_hexit@?$output_processor@DV?$stream_output_adapter@D@__crt_stdio_output@@V?$positional_parameter_base@DV?$stream_output_adapter@D@__crt_stdio_output@@@2@@__crt_stdio_output@@CADH_N@Z 0000000180152dd0 f i libucrt:output.obj
 0001:00151de0       ?adjust_hexit@?$output_processor@DV?$stream_output_adapter@D@__crt_stdio_output@@V?$standard_base@DV?$stream_output_adapter@D@__crt_stdio_output@@@2@@__crt_stdio_output@@CADH_N@Z 0000000180152de0 f i libucrt:output.obj
 0001:00151df0       ?adjust_hexit@?$output_processor@DV?$string_output_adapter@D@__crt_stdio_output@@V?$format_validation_base@DV?$string_output_adapter@D@__crt_stdio_output@@@2@@__crt_stdio_output@@CADH_N@Z 0000000180152df0 f i libucrt:output.obj
 0001:00151e00       ?adjust_hexit@?$output_processor@DV?$string_output_adapter@D@__crt_stdio_output@@V?$positional_parameter_base@DV?$string_output_adapter@D@__crt_stdio_output@@@2@@__crt_stdio_output@@CADH_N@Z 0000000180152e00 f i libucrt:output.obj
 0001:00151e10       ?adjust_hexit@?$output_processor@DV?$string_output_adapter@D@__crt_stdio_output@@V?$standard_base@DV?$string_output_adapter@D@__crt_stdio_output@@@2@@__crt_stdio_output@@CADH_N@Z 0000000180152e10 f i libucrt:output.obj
 0001:00151e20       ?adjust_hexit@?$output_processor@_WV?$stream_output_adapter@_W@__crt_stdio_output@@V?$format_validation_base@_WV?$stream_output_adapter@_W@__crt_stdio_output@@@2@@__crt_stdio_output@@CADH_N@Z 0000000180152e20 f i libucrt:output.obj
 0001:00151e30       ?adjust_hexit@?$output_processor@_WV?$stream_output_adapter@_W@__crt_stdio_output@@V?$positional_parameter_base@_WV?$stream_output_adapter@_W@__crt_stdio_output@@@2@@__crt_stdio_output@@CADH_N@Z 0000000180152e30 f i libucrt:output.obj
 0001:00151e40       ?adjust_hexit@?$output_processor@_WV?$stream_output_adapter@_W@__crt_stdio_output@@V?$standard_base@_WV?$stream_output_adapter@_W@__crt_stdio_output@@@2@@__crt_stdio_output@@CADH_N@Z 0000000180152e40 f i libucrt:output.obj
 0001:00151e50       ?adjust_hexit@?$output_processor@_WV?$string_output_adapter@_W@__crt_stdio_output@@V?$format_validation_base@_WV?$string_output_adapter@_W@__crt_stdio_output@@@2@@__crt_stdio_output@@CADH_N@Z 0000000180152e50 f i libucrt:output.obj
 0001:00151e60       ?adjust_hexit@?$output_processor@_WV?$string_output_adapter@_W@__crt_stdio_output@@V?$positional_parameter_base@_WV?$string_output_adapter@_W@__crt_stdio_output@@@2@@__crt_stdio_output@@CADH_N@Z 0000000180152e60 f i libucrt:output.obj
 0001:00151e70       ?adjust_hexit@?$output_processor@_WV?$string_output_adapter@_W@__crt_stdio_output@@V?$standard_base@_WV?$string_output_adapter@_W@__crt_stdio_output@@@2@@__crt_stdio_output@@CADH_N@Z 0000000180152e70 f i libucrt:output.obj
 0001:00151e80       ?advance_to_next_pass@?$positional_parameter_base@DV?$stream_output_adapter@D@__crt_stdio_output@@@__crt_stdio_output@@IEAA_NXZ 0000000180152e80 f i libucrt:output.obj
 0001:00151ed0       ?advance_to_next_pass@?$positional_parameter_base@DV?$string_output_adapter@D@__crt_stdio_output@@@__crt_stdio_output@@IEAA_NXZ 0000000180152ed0 f i libucrt:output.obj
 0001:00151f20       ?advance_to_next_pass@?$positional_parameter_base@_WV?$stream_output_adapter@_W@__crt_stdio_output@@@__crt_stdio_output@@IEAA_NXZ 0000000180152f20 f i libucrt:output.obj
 0001:00151f70       ?advance_to_next_pass@?$positional_parameter_base@_WV?$string_output_adapter@_W@__crt_stdio_output@@@__crt_stdio_output@@IEAA_NXZ 0000000180152f70 f i libucrt:output.obj
 0001:00151fc0       ?advance_to_next_pass@?$standard_base@DV?$stream_output_adapter@D@__crt_stdio_output@@@__crt_stdio_output@@IEAA_NXZ 0000000180152fc0 f i libucrt:output.obj
 0001:00151fd4       ?advance_to_next_pass@?$standard_base@DV?$string_output_adapter@D@__crt_stdio_output@@@__crt_stdio_output@@IEAA_NXZ 0000000180152fd4 f i libucrt:output.obj
 0001:00151fe8       ?advance_to_next_pass@?$standard_base@_WV?$stream_output_adapter@_W@__crt_stdio_output@@@__crt_stdio_output@@IEAA_NXZ 0000000180152fe8 f i libucrt:output.obj
 0001:00151ffc       ?advance_to_next_pass@?$standard_base@_WV?$string_output_adapter@_W@__crt_stdio_output@@@__crt_stdio_output@@IEAA_NXZ 0000000180152ffc f i libucrt:output.obj
 0001:00152010       ?crop_zeroes@__crt_stdio_output@@YAXPEADQEAU__crt_locale_pointers@@@Z 0000000180153010 f i libucrt:output.obj
 0001:0015206c       ?find_next_state@?$output_processor@DV?$stream_output_adapter@D@__crt_stdio_output@@V?$format_validation_base@DV?$stream_output_adapter@D@__crt_stdio_output@@@2@@__crt_stdio_output@@AEBA?AW4state@2@DW432@@Z 000000018015306c f i libucrt:output.obj
 0001:0015209c       ?find_next_state@?$output_processor@DV?$stream_output_adapter@D@__crt_stdio_output@@V?$positional_parameter_base@DV?$stream_output_adapter@D@__crt_stdio_output@@@2@@__crt_stdio_output@@AEBA?AW4state@2@DW432@@Z 000000018015309c f i libucrt:output.obj
 0001:001520cc       ?find_next_state@?$output_processor@DV?$stream_output_adapter@D@__crt_stdio_output@@V?$standard_base@DV?$stream_output_adapter@D@__crt_stdio_output@@@2@@__crt_stdio_output@@AEBA?AW4state@2@DW432@@Z 00000001801530cc f i libucrt:output.obj
 0001:001520f8       ?find_next_state@?$output_processor@DV?$string_output_adapter@D@__crt_stdio_output@@V?$format_validation_base@DV?$string_output_adapter@D@__crt_stdio_output@@@2@@__crt_stdio_output@@AEBA?AW4state@2@DW432@@Z 00000001801530f8 f i libucrt:output.obj
 0001:00152128       ?find_next_state@?$output_processor@DV?$string_output_adapter@D@__crt_stdio_output@@V?$positional_parameter_base@DV?$string_output_adapter@D@__crt_stdio_output@@@2@@__crt_stdio_output@@AEBA?AW4state@2@DW432@@Z 0000000180153128 f i libucrt:output.obj
 0001:00152158       ?find_next_state@?$output_processor@DV?$string_output_adapter@D@__crt_stdio_output@@V?$standard_base@DV?$string_output_adapter@D@__crt_stdio_output@@@2@@__crt_stdio_output@@AEBA?AW4state@2@DW432@@Z 0000000180153158 f i libucrt:output.obj
 0001:00152184       ?find_next_state@?$output_processor@_WV?$stream_output_adapter@_W@__crt_stdio_output@@V?$format_validation_base@_WV?$stream_output_adapter@_W@__crt_stdio_output@@@2@@__crt_stdio_output@@AEBA?AW4state@2@_WW432@@Z 0000000180153184 f i libucrt:output.obj
 0001:001521b4       ?find_next_state@?$output_processor@_WV?$stream_output_adapter@_W@__crt_stdio_output@@V?$positional_parameter_base@_WV?$stream_output_adapter@_W@__crt_stdio_output@@@2@@__crt_stdio_output@@AEBA?AW4state@2@_WW432@@Z 00000001801531b4 f i libucrt:output.obj
 0001:001521e4       ?find_next_state@?$output_processor@_WV?$stream_output_adapter@_W@__crt_stdio_output@@V?$standard_base@_WV?$stream_output_adapter@_W@__crt_stdio_output@@@2@@__crt_stdio_output@@AEBA?AW4state@2@_WW432@@Z 00000001801531e4 f i libucrt:output.obj
 0001:00152214       ?find_next_state@?$output_processor@_WV?$string_output_adapter@_W@__crt_stdio_output@@V?$format_validation_base@_WV?$string_output_adapter@_W@__crt_stdio_output@@@2@@__crt_stdio_output@@AEBA?AW4state@2@_WW432@@Z 0000000180153214 f i libucrt:output.obj
 0001:00152244       ?find_next_state@?$output_processor@_WV?$string_output_adapter@_W@__crt_stdio_output@@V?$positional_parameter_base@_WV?$string_output_adapter@_W@__crt_stdio_output@@@2@@__crt_stdio_output@@AEBA?AW4state@2@_WW432@@Z 0000000180153244 f i libucrt:output.obj
 0001:00152274       ?find_next_state@?$output_processor@_WV?$string_output_adapter@_W@__crt_stdio_output@@V?$standard_base@_WV?$string_output_adapter@_W@__crt_stdio_output@@@2@@__crt_stdio_output@@AEBA?AW4state@2@_WW432@@Z 0000000180153274 f i libucrt:output.obj
 0001:001522a4       ?force_decimal_point@__crt_stdio_output@@YAXPEADQEAU__crt_locale_pointers@@@Z 00000001801532a4 f i libucrt:output.obj
 0001:00152314       ?get_parameter_type@?$positional_parameter_base@DV?$stream_output_adapter@D@__crt_stdio_output@@@__crt_stdio_output@@CA?AW4parameter_type@12@F@Z 0000000180153314 f i libucrt:output.obj
 0001:0015231c       ?get_parameter_type@?$positional_parameter_base@DV?$stream_output_adapter@D@__crt_stdio_output@@@__crt_stdio_output@@CA?AW4parameter_type@12@G@Z 000000018015331c f i libucrt:output.obj
 0001:00152324       ?get_parameter_type@?$positional_parameter_base@DV?$stream_output_adapter@D@__crt_stdio_output@@@__crt_stdio_output@@CA?AW4parameter_type@12@H@Z 0000000180153324 f i libucrt:output.obj
 0001:0015232c       ?get_parameter_type@?$positional_parameter_base@DV?$stream_output_adapter@D@__crt_stdio_output@@@__crt_stdio_output@@CA?AW4parameter_type@12@I@Z 000000018015332c f i libucrt:output.obj
 0001:00152334       ?get_parameter_type@?$positional_parameter_base@DV?$stream_output_adapter@D@__crt_stdio_output@@@__crt_stdio_output@@CA?AW4parameter_type@12@U_CRT_DOUBLE@@@Z 0000000180153334 f i libucrt:output.obj
 0001:0015233c       ?get_parameter_type@?$positional_parameter_base@DV?$stream_output_adapter@D@__crt_stdio_output@@@__crt_stdio_output@@CA?AW4parameter_type@12@_J@Z 000000018015333c f i libucrt:output.obj
 0001:00152344       ?get_parameter_type@?$positional_parameter_base@DV?$stream_output_adapter@D@__crt_stdio_output@@@__crt_stdio_output@@CA?AW4parameter_type@12@_K@Z 0000000180153344 f i libucrt:output.obj
 0001:0015234c       ?get_parameter_type@?$positional_parameter_base@DV?$stream_output_adapter@D@__crt_stdio_output@@@__crt_stdio_output@@CA?AW4parameter_type@12@_W@Z 000000018015334c f i libucrt:output.obj
 0001:00152354       ?get_parameter_type@?$positional_parameter_base@DV?$string_output_adapter@D@__crt_stdio_output@@@__crt_stdio_output@@CA?AW4parameter_type@12@F@Z 0000000180153354 f i libucrt:output.obj
 0001:0015235c       ?get_parameter_type@?$positional_parameter_base@DV?$string_output_adapter@D@__crt_stdio_output@@@__crt_stdio_output@@CA?AW4parameter_type@12@G@Z 000000018015335c f i libucrt:output.obj
 0001:00152364       ?get_parameter_type@?$positional_parameter_base@DV?$string_output_adapter@D@__crt_stdio_output@@@__crt_stdio_output@@CA?AW4parameter_type@12@H@Z 0000000180153364 f i libucrt:output.obj
 0001:0015236c       ?get_parameter_type@?$positional_parameter_base@DV?$string_output_adapter@D@__crt_stdio_output@@@__crt_stdio_output@@CA?AW4parameter_type@12@I@Z 000000018015336c f i libucrt:output.obj
 0001:00152374       ?get_parameter_type@?$positional_parameter_base@DV?$string_output_adapter@D@__crt_stdio_output@@@__crt_stdio_output@@CA?AW4parameter_type@12@U_CRT_DOUBLE@@@Z 0000000180153374 f i libucrt:output.obj
 0001:0015237c       ?get_parameter_type@?$positional_parameter_base@DV?$string_output_adapter@D@__crt_stdio_output@@@__crt_stdio_output@@CA?AW4parameter_type@12@_J@Z 000000018015337c f i libucrt:output.obj
 0001:00152384       ?get_parameter_type@?$positional_parameter_base@DV?$string_output_adapter@D@__crt_stdio_output@@@__crt_stdio_output@@CA?AW4parameter_type@12@_K@Z 0000000180153384 f i libucrt:output.obj
 0001:0015238c       ?get_parameter_type@?$positional_parameter_base@DV?$string_output_adapter@D@__crt_stdio_output@@@__crt_stdio_output@@CA?AW4parameter_type@12@_W@Z 000000018015338c f i libucrt:output.obj
 0001:00152394       ?get_parameter_type@?$positional_parameter_base@_WV?$stream_output_adapter@_W@__crt_stdio_output@@@__crt_stdio_output@@CA?AW4parameter_type@12@F@Z 0000000180153394 f i libucrt:output.obj
 0001:0015239c       ?get_parameter_type@?$positional_parameter_base@_WV?$stream_output_adapter@_W@__crt_stdio_output@@@__crt_stdio_output@@CA?AW4parameter_type@12@G@Z 000000018015339c f i libucrt:output.obj
 0001:001523a4       ?get_parameter_type@?$positional_parameter_base@_WV?$stream_output_adapter@_W@__crt_stdio_output@@@__crt_stdio_output@@CA?AW4parameter_type@12@H@Z 00000001801533a4 f i libucrt:output.obj
 0001:001523ac       ?get_parameter_type@?$positional_parameter_base@_WV?$stream_output_adapter@_W@__crt_stdio_output@@@__crt_stdio_output@@CA?AW4parameter_type@12@I@Z 00000001801533ac f i libucrt:output.obj
 0001:001523b4       ?get_parameter_type@?$positional_parameter_base@_WV?$stream_output_adapter@_W@__crt_stdio_output@@@__crt_stdio_output@@CA?AW4parameter_type@12@U_CRT_DOUBLE@@@Z 00000001801533b4 f i libucrt:output.obj
 0001:001523bc       ?get_parameter_type@?$positional_parameter_base@_WV?$stream_output_adapter@_W@__crt_stdio_output@@@__crt_stdio_output@@CA?AW4parameter_type@12@_J@Z 00000001801533bc f i libucrt:output.obj
 0001:001523c4       ?get_parameter_type@?$positional_parameter_base@_WV?$stream_output_adapter@_W@__crt_stdio_output@@@__crt_stdio_output@@CA?AW4parameter_type@12@_K@Z 00000001801533c4 f i libucrt:output.obj
 0001:001523cc       ?get_parameter_type@?$positional_parameter_base@_WV?$stream_output_adapter@_W@__crt_stdio_output@@@__crt_stdio_output@@CA?AW4parameter_type@12@_W@Z 00000001801533cc f i libucrt:output.obj
 0001:001523d4       ?get_parameter_type@?$positional_parameter_base@_WV?$string_output_adapter@_W@__crt_stdio_output@@@__crt_stdio_output@@CA?AW4parameter_type@12@F@Z 00000001801533d4 f i libucrt:output.obj
 0001:001523dc       ?get_parameter_type@?$positional_parameter_base@_WV?$string_output_adapter@_W@__crt_stdio_output@@@__crt_stdio_output@@CA?AW4parameter_type@12@G@Z 00000001801533dc f i libucrt:output.obj
 0001:001523e4       ?get_parameter_type@?$positional_parameter_base@_WV?$string_output_adapter@_W@__crt_stdio_output@@@__crt_stdio_output@@CA?AW4parameter_type@12@H@Z 00000001801533e4 f i libucrt:output.obj
 0001:001523ec       ?get_parameter_type@?$positional_parameter_base@_WV?$string_output_adapter@_W@__crt_stdio_output@@@__crt_stdio_output@@CA?AW4parameter_type@12@I@Z 00000001801533ec f i libucrt:output.obj
 0001:001523f4       ?get_parameter_type@?$positional_parameter_base@_WV?$string_output_adapter@_W@__crt_stdio_output@@@__crt_stdio_output@@CA?AW4parameter_type@12@U_CRT_DOUBLE@@@Z 00000001801533f4 f i libucrt:output.obj
 0001:001523fc       ?get_parameter_type@?$positional_parameter_base@_WV?$string_output_adapter@_W@__crt_stdio_output@@@__crt_stdio_output@@CA?AW4parameter_type@12@_J@Z 00000001801533fc f i libucrt:output.obj
 0001:00152404       ?get_parameter_type@?$positional_parameter_base@_WV?$string_output_adapter@_W@__crt_stdio_output@@@__crt_stdio_output@@CA?AW4parameter_type@12@_K@Z 0000000180153404 f i libucrt:output.obj
 0001:0015240c       ?get_parameter_type@?$positional_parameter_base@_WV?$string_output_adapter@_W@__crt_stdio_output@@@__crt_stdio_output@@CA?AW4parameter_type@12@_W@Z 000000018015340c f i libucrt:output.obj
 0001:00152414       ?has_flag@?$output_processor@DV?$stream_output_adapter@D@__crt_stdio_output@@V?$format_validation_base@DV?$stream_output_adapter@D@__crt_stdio_output@@@2@@__crt_stdio_output@@AEBA_NI@Z 0000000180153414 f i libucrt:output.obj
 0001:0015241c       ?has_flag@?$output_processor@DV?$stream_output_adapter@D@__crt_stdio_output@@V?$positional_parameter_base@DV?$stream_output_adapter@D@__crt_stdio_output@@@2@@__crt_stdio_output@@AEBA_NI@Z 000000018015341c f i libucrt:output.obj
 0001:00152424       ?has_flag@?$output_processor@DV?$stream_output_adapter@D@__crt_stdio_output@@V?$standard_base@DV?$stream_output_adapter@D@__crt_stdio_output@@@2@@__crt_stdio_output@@AEBA_NI@Z 0000000180153424 f i libucrt:output.obj
 0001:0015242c       ?has_flag@?$output_processor@DV?$string_output_adapter@D@__crt_stdio_output@@V?$format_validation_base@DV?$string_output_adapter@D@__crt_stdio_output@@@2@@__crt_stdio_output@@AEBA_NI@Z 000000018015342c f i libucrt:output.obj
 0001:00152434       ?has_flag@?$output_processor@DV?$string_output_adapter@D@__crt_stdio_output@@V?$positional_parameter_base@DV?$string_output_adapter@D@__crt_stdio_output@@@2@@__crt_stdio_output@@AEBA_NI@Z 0000000180153434 f i libucrt:output.obj
 0001:0015243c       ?has_flag@?$output_processor@DV?$string_output_adapter@D@__crt_stdio_output@@V?$standard_base@DV?$string_output_adapter@D@__crt_stdio_output@@@2@@__crt_stdio_output@@AEBA_NI@Z 000000018015343c f i libucrt:output.obj
 0001:00152444       ?has_flag@?$output_processor@_WV?$stream_output_adapter@_W@__crt_stdio_output@@V?$format_validation_base@_WV?$stream_output_adapter@_W@__crt_stdio_output@@@2@@__crt_stdio_output@@AEBA_NI@Z 0000000180153444 f i libucrt:output.obj
 0001:0015244c       ?has_flag@?$output_processor@_WV?$stream_output_adapter@_W@__crt_stdio_output@@V?$positional_parameter_base@_WV?$stream_output_adapter@_W@__crt_stdio_output@@@2@@__crt_stdio_output@@AEBA_NI@Z 000000018015344c f i libucrt:output.obj
 0001:00152454       ?has_flag@?$output_processor@_WV?$stream_output_adapter@_W@__crt_stdio_output@@V?$standard_base@_WV?$stream_output_adapter@_W@__crt_stdio_output@@@2@@__crt_stdio_output@@AEBA_NI@Z 0000000180153454 f i libucrt:output.obj
 0001:0015245c       ?has_flag@?$output_processor@_WV?$string_output_adapter@_W@__crt_stdio_output@@V?$format_validation_base@_WV?$string_output_adapter@_W@__crt_stdio_output@@@2@@__crt_stdio_output@@AEBA_NI@Z 000000018015345c f i libucrt:output.obj
 0001:00152464       ?has_flag@?$output_processor@_WV?$string_output_adapter@_W@__crt_stdio_output@@V?$positional_parameter_base@_WV?$string_output_adapter@_W@__crt_stdio_output@@@2@@__crt_stdio_output@@AEBA_NI@Z 0000000180153464 f i libucrt:output.obj
 0001:0015246c       ?has_flag@?$output_processor@_WV?$string_output_adapter@_W@__crt_stdio_output@@V?$standard_base@_WV?$string_output_adapter@_W@__crt_stdio_output@@@2@@__crt_stdio_output@@AEBA_NI@Z 000000018015346c f i libucrt:output.obj
 0001:00152474       ?is_positional_parameter_reappearance_consistent@?$positional_parameter_base@DV?$stream_output_adapter@D@__crt_stdio_output@@@__crt_stdio_output@@AEAA_NAEBUparameter_data@12@W4parameter_type@12@DW4length_modifier@2@@Z 0000000180153474 f i libucrt:output.obj
 0001:00152664       ?is_positional_parameter_reappearance_consistent@?$positional_parameter_base@DV?$string_output_adapter@D@__crt_stdio_output@@@__crt_stdio_output@@AEAA_NAEBUparameter_data@12@W4parameter_type@12@DW4length_modifier@2@@Z 0000000180153664 f i libucrt:output.obj
 0001:00152854       ?is_positional_parameter_reappearance_consistent@?$positional_parameter_base@_WV?$stream_output_adapter@_W@__crt_stdio_output@@@__crt_stdio_output@@AEAA_NAEBUparameter_data@12@W4parameter_type@12@_WW4length_modifier@2@@Z 0000000180153854 f i libucrt:output.obj
 0001:00152a5c       ?is_positional_parameter_reappearance_consistent@?$positional_parameter_base@_WV?$string_output_adapter@_W@__crt_stdio_output@@@__crt_stdio_output@@AEAA_NAEBUparameter_data@12@W4parameter_type@12@_WW4length_modifier@2@@Z 0000000180153a5c f i libucrt:output.obj
 0001:00152c64       ?narrow_null_string@?$output_processor@DV?$stream_output_adapter@D@__crt_stdio_output@@V?$format_validation_base@DV?$stream_output_adapter@D@__crt_stdio_output@@@2@@__crt_stdio_output@@CAPEADXZ 0000000180153c64 f i libucrt:output.obj
 0001:00152c6c       ?narrow_null_string@?$output_processor@DV?$stream_output_adapter@D@__crt_stdio_output@@V?$positional_parameter_base@DV?$stream_output_adapter@D@__crt_stdio_output@@@2@@__crt_stdio_output@@CAPEADXZ 0000000180153c6c f i libucrt:output.obj
 0001:00152c74       ?narrow_null_string@?$output_processor@DV?$stream_output_adapter@D@__crt_stdio_output@@V?$standard_base@DV?$stream_output_adapter@D@__crt_stdio_output@@@2@@__crt_stdio_output@@CAPEADXZ 0000000180153c74 f i libucrt:output.obj
 0001:00152c7c       ?narrow_null_string@?$output_processor@DV?$string_output_adapter@D@__crt_stdio_output@@V?$format_validation_base@DV?$string_output_adapter@D@__crt_stdio_output@@@2@@__crt_stdio_output@@CAPEADXZ 0000000180153c7c f i libucrt:output.obj
 0001:00152c84       ?narrow_null_string@?$output_processor@DV?$string_output_adapter@D@__crt_stdio_output@@V?$positional_parameter_base@DV?$string_output_adapter@D@__crt_stdio_output@@@2@@__crt_stdio_output@@CAPEADXZ 0000000180153c84 f i libucrt:output.obj
 0001:00152c8c       ?narrow_null_string@?$output_processor@DV?$string_output_adapter@D@__crt_stdio_output@@V?$standard_base@DV?$string_output_adapter@D@__crt_stdio_output@@@2@@__crt_stdio_output@@CAPEADXZ 0000000180153c8c f i libucrt:output.obj
 0001:00152c94       ?narrow_null_string@?$output_processor@_WV?$stream_output_adapter@_W@__crt_stdio_output@@V?$format_validation_base@_WV?$stream_output_adapter@_W@__crt_stdio_output@@@2@@__crt_stdio_output@@CAPEADXZ 0000000180153c94 f i libucrt:output.obj
 0001:00152c9c       ?narrow_null_string@?$output_processor@_WV?$stream_output_adapter@_W@__crt_stdio_output@@V?$positional_parameter_base@_WV?$stream_output_adapter@_W@__crt_stdio_output@@@2@@__crt_stdio_output@@CAPEADXZ 0000000180153c9c f i libucrt:output.obj
 0001:00152ca4       ?narrow_null_string@?$output_processor@_WV?$stream_output_adapter@_W@__crt_stdio_output@@V?$standard_base@_WV?$stream_output_adapter@_W@__crt_stdio_output@@@2@@__crt_stdio_output@@CAPEADXZ 0000000180153ca4 f i libucrt:output.obj
 0001:00152cac       ?narrow_null_string@?$output_processor@_WV?$string_output_adapter@_W@__crt_stdio_output@@V?$format_validation_base@_WV?$string_output_adapter@_W@__crt_stdio_output@@@2@@__crt_stdio_output@@CAPEADXZ 0000000180153cac f i libucrt:output.obj
 0001:00152cb4       ?narrow_null_string@?$output_processor@_WV?$string_output_adapter@_W@__crt_stdio_output@@V?$positional_parameter_base@_WV?$string_output_adapter@_W@__crt_stdio_output@@@2@@__crt_stdio_output@@CAPEADXZ 0000000180153cb4 f i libucrt:output.obj
 0001:00152cbc       ?narrow_null_string@?$output_processor@_WV?$string_output_adapter@_W@__crt_stdio_output@@V?$standard_base@_WV?$string_output_adapter@_W@__crt_stdio_output@@@2@@__crt_stdio_output@@CAPEADXZ 0000000180153cbc f i libucrt:output.obj
 0001:00152cc4       ?parse_int_from_format_string@?$output_processor@DV?$stream_output_adapter@D@__crt_stdio_output@@V?$format_validation_base@DV?$stream_output_adapter@D@__crt_stdio_output@@@2@@__crt_stdio_output@@AEAA_NQEAH@Z 0000000180153cc4 f i libucrt:output.obj
 0001:00152d48       ?parse_int_from_format_string@?$output_processor@DV?$stream_output_adapter@D@__crt_stdio_output@@V?$positional_parameter_base@DV?$stream_output_adapter@D@__crt_stdio_output@@@2@@__crt_stdio_output@@AEAA_NQEAH@Z 0000000180153d48 f i libucrt:output.obj
 0001:00152dcc       ?parse_int_from_format_string@?$output_processor@DV?$stream_output_adapter@D@__crt_stdio_output@@V?$standard_base@DV?$stream_output_adapter@D@__crt_stdio_output@@@2@@__crt_stdio_output@@AEAA_NQEAH@Z 0000000180153dcc f i libucrt:output.obj
 0001:00152e50       ?parse_int_from_format_string@?$output_processor@DV?$string_output_adapter@D@__crt_stdio_output@@V?$format_validation_base@DV?$string_output_adapter@D@__crt_stdio_output@@@2@@__crt_stdio_output@@AEAA_NQEAH@Z 0000000180153e50 f i libucrt:output.obj
 0001:00152ed4       ?parse_int_from_format_string@?$output_processor@DV?$string_output_adapter@D@__crt_stdio_output@@V?$positional_parameter_base@DV?$string_output_adapter@D@__crt_stdio_output@@@2@@__crt_stdio_output@@AEAA_NQEAH@Z 0000000180153ed4 f i libucrt:output.obj
 0001:00152f58       ?parse_int_from_format_string@?$output_processor@DV?$string_output_adapter@D@__crt_stdio_output@@V?$standard_base@DV?$string_output_adapter@D@__crt_stdio_output@@@2@@__crt_stdio_output@@AEAA_NQEAH@Z 0000000180153f58 f i libucrt:output.obj
 0001:00152fdc       ?parse_int_from_format_string@?$output_processor@_WV?$stream_output_adapter@_W@__crt_stdio_output@@V?$format_validation_base@_WV?$stream_output_adapter@_W@__crt_stdio_output@@@2@@__crt_stdio_output@@AEAA_NQEAH@Z 0000000180153fdc f i libucrt:output.obj
 0001:0015305c       ?parse_int_from_format_string@?$output_processor@_WV?$stream_output_adapter@_W@__crt_stdio_output@@V?$positional_parameter_base@_WV?$stream_output_adapter@_W@__crt_stdio_output@@@2@@__crt_stdio_output@@AEAA_NQEAH@Z 000000018015405c f i libucrt:output.obj
 0001:001530dc       ?parse_int_from_format_string@?$output_processor@_WV?$stream_output_adapter@_W@__crt_stdio_output@@V?$standard_base@_WV?$stream_output_adapter@_W@__crt_stdio_output@@@2@@__crt_stdio_output@@AEAA_NQEAH@Z 00000001801540dc f i libucrt:output.obj
 0001:0015315c       ?parse_int_from_format_string@?$output_processor@_WV?$string_output_adapter@_W@__crt_stdio_output@@V?$format_validation_base@_WV?$string_output_adapter@_W@__crt_stdio_output@@@2@@__crt_stdio_output@@AEAA_NQEAH@Z 000000018015415c f i libucrt:output.obj
 0001:001531dc       ?parse_int_from_format_string@?$output_processor@_WV?$string_output_adapter@_W@__crt_stdio_output@@V?$positional_parameter_base@_WV?$string_output_adapter@_W@__crt_stdio_output@@@2@@__crt_stdio_output@@AEAA_NQEAH@Z 00000001801541dc f i libucrt:output.obj
 0001:0015325c       ?parse_int_from_format_string@?$output_processor@_WV?$string_output_adapter@_W@__crt_stdio_output@@V?$standard_base@_WV?$string_output_adapter@_W@__crt_stdio_output@@@2@@__crt_stdio_output@@AEAA_NQEAH@Z 000000018015425c f i libucrt:output.obj
 0001:001532dc       ?process@?$output_processor@DV?$stream_output_adapter@D@__crt_stdio_output@@V?$format_validation_base@DV?$stream_output_adapter@D@__crt_stdio_output@@@2@@__crt_stdio_output@@QEAAHXZ 00000001801542dc f i libucrt:output.obj
 0001:001534fc       ?process@?$output_processor@DV?$stream_output_adapter@D@__crt_stdio_output@@V?$positional_parameter_base@DV?$stream_output_adapter@D@__crt_stdio_output@@@2@@__crt_stdio_output@@QEAAHXZ 00000001801544fc f i libucrt:output.obj
 0001:0015379c       ?process@?$output_processor@DV?$stream_output_adapter@D@__crt_stdio_output@@V?$standard_base@DV?$stream_output_adapter@D@__crt_stdio_output@@@2@@__crt_stdio_output@@QEAAHXZ 000000018015479c f i libucrt:output.obj
 0001:001539ac       ?process@?$output_processor@DV?$string_output_adapter@D@__crt_stdio_output@@V?$format_validation_base@DV?$string_output_adapter@D@__crt_stdio_output@@@2@@__crt_stdio_output@@QEAAHXZ 00000001801549ac f i libucrt:output.obj
 0001:00153bc0       ?process@?$output_processor@DV?$string_output_adapter@D@__crt_stdio_output@@V?$positional_parameter_base@DV?$string_output_adapter@D@__crt_stdio_output@@@2@@__crt_stdio_output@@QEAAHXZ 0000000180154bc0 f i libucrt:output.obj
 0001:00153e50       ?process@?$output_processor@DV?$string_output_adapter@D@__crt_stdio_output@@V?$standard_base@DV?$string_output_adapter@D@__crt_stdio_output@@@2@@__crt_stdio_output@@QEAAHXZ 0000000180154e50 f i libucrt:output.obj
 0001:00154054       ?process@?$output_processor@_WV?$stream_output_adapter@_W@__crt_stdio_output@@V?$format_validation_base@_WV?$stream_output_adapter@_W@__crt_stdio_output@@@2@@__crt_stdio_output@@QEAAHXZ 0000000180155054 f i libucrt:output.obj
 0001:001542d8       ?process@?$output_processor@_WV?$stream_output_adapter@_W@__crt_stdio_output@@V?$positional_parameter_base@_WV?$stream_output_adapter@_W@__crt_stdio_output@@@2@@__crt_stdio_output@@QEAAHXZ 00000001801552d8 f i libucrt:output.obj
 0001:0015458c       ?process@?$output_processor@_WV?$stream_output_adapter@_W@__crt_stdio_output@@V?$standard_base@_WV?$stream_output_adapter@_W@__crt_stdio_output@@@2@@__crt_stdio_output@@QEAAHXZ 000000018015558c f i libucrt:output.obj
 0001:00154804       ?process@?$output_processor@_WV?$string_output_adapter@_W@__crt_stdio_output@@V?$format_validation_base@_WV?$string_output_adapter@_W@__crt_stdio_output@@@2@@__crt_stdio_output@@QEAAHXZ 0000000180155804 f i libucrt:output.obj
 0001:00154a8c       ?process@?$output_processor@_WV?$string_output_adapter@_W@__crt_stdio_output@@V?$positional_parameter_base@_WV?$string_output_adapter@_W@__crt_stdio_output@@@2@@__crt_stdio_output@@QEAAHXZ 0000000180155a8c f i libucrt:output.obj
 0001:00154d40       ?process@?$output_processor@_WV?$string_output_adapter@_W@__crt_stdio_output@@V?$standard_base@_WV?$string_output_adapter@_W@__crt_stdio_output@@@2@@__crt_stdio_output@@QEAAHXZ 0000000180155d40 f i libucrt:output.obj
 0001:00154fbc       ?set_flag@?$output_processor@DV?$stream_output_adapter@D@__crt_stdio_output@@V?$format_validation_base@DV?$stream_output_adapter@D@__crt_stdio_output@@@2@@__crt_stdio_output@@AEAAXI@Z 0000000180155fbc f i libucrt:output.obj
 0001:00154fc0       ?set_flag@?$output_processor@DV?$stream_output_adapter@D@__crt_stdio_output@@V?$positional_parameter_base@DV?$stream_output_adapter@D@__crt_stdio_output@@@2@@__crt_stdio_output@@AEAAXI@Z 0000000180155fc0 f i libucrt:output.obj
 0001:00154fc4       ?set_flag@?$output_processor@DV?$stream_output_adapter@D@__crt_stdio_output@@V?$standard_base@DV?$stream_output_adapter@D@__crt_stdio_output@@@2@@__crt_stdio_output@@AEAAXI@Z 0000000180155fc4 f i libucrt:output.obj
 0001:00154fc8       ?set_flag@?$output_processor@DV?$string_output_adapter@D@__crt_stdio_output@@V?$format_validation_base@DV?$string_output_adapter@D@__crt_stdio_output@@@2@@__crt_stdio_output@@AEAAXI@Z 0000000180155fc8 f i libucrt:output.obj
 0001:00154fcc       ?set_flag@?$output_processor@DV?$string_output_adapter@D@__crt_stdio_output@@V?$positional_parameter_base@DV?$string_output_adapter@D@__crt_stdio_output@@@2@@__crt_stdio_output@@AEAAXI@Z 0000000180155fcc f i libucrt:output.obj
 0001:00154fd0       ?set_flag@?$output_processor@DV?$string_output_adapter@D@__crt_stdio_output@@V?$standard_base@DV?$string_output_adapter@D@__crt_stdio_output@@@2@@__crt_stdio_output@@AEAAXI@Z 0000000180155fd0 f i libucrt:output.obj
 0001:00154fd4       ?set_flag@?$output_processor@_WV?$stream_output_adapter@_W@__crt_stdio_output@@V?$format_validation_base@_WV?$stream_output_adapter@_W@__crt_stdio_output@@@2@@__crt_stdio_output@@AEAAXI@Z 0000000180155fd4 f i libucrt:output.obj
 0001:00154fd8       ?set_flag@?$output_processor@_WV?$stream_output_adapter@_W@__crt_stdio_output@@V?$positional_parameter_base@_WV?$stream_output_adapter@_W@__crt_stdio_output@@@2@@__crt_stdio_output@@AEAAXI@Z 0000000180155fd8 f i libucrt:output.obj
 0001:00154fdc       ?set_flag@?$output_processor@_WV?$stream_output_adapter@_W@__crt_stdio_output@@V?$standard_base@_WV?$stream_output_adapter@_W@__crt_stdio_output@@@2@@__crt_stdio_output@@AEAAXI@Z 0000000180155fdc f i libucrt:output.obj
 0001:00154fe0       ?set_flag@?$output_processor@_WV?$string_output_adapter@_W@__crt_stdio_output@@V?$format_validation_base@_WV?$string_output_adapter@_W@__crt_stdio_output@@@2@@__crt_stdio_output@@AEAAXI@Z 0000000180155fe0 f i libucrt:output.obj
 0001:00154fe4       ?set_flag@?$output_processor@_WV?$string_output_adapter@_W@__crt_stdio_output@@V?$positional_parameter_base@_WV?$string_output_adapter@_W@__crt_stdio_output@@@2@@__crt_stdio_output@@AEAAXI@Z 0000000180155fe4 f i libucrt:output.obj
 0001:00154fe8       ?set_flag@?$output_processor@_WV?$string_output_adapter@_W@__crt_stdio_output@@V?$standard_base@_WV?$string_output_adapter@_W@__crt_stdio_output@@@2@@__crt_stdio_output@@AEAAXI@Z 0000000180155fe8 f i libucrt:output.obj
 0001:00154fec       ?should_format@?$positional_parameter_base@DV?$stream_output_adapter@D@__crt_stdio_output@@@__crt_stdio_output@@IEAA_NXZ 0000000180155fec f i libucrt:output.obj
 0001:00155004       ?should_format@?$positional_parameter_base@DV?$string_output_adapter@D@__crt_stdio_output@@@__crt_stdio_output@@IEAA_NXZ 0000000180156004 f i libucrt:output.obj
 0001:0015501c       ?should_format@?$positional_parameter_base@_WV?$stream_output_adapter@_W@__crt_stdio_output@@@__crt_stdio_output@@IEAA_NXZ 000000018015601c f i libucrt:output.obj
 0001:00155034       ?should_format@?$positional_parameter_base@_WV?$string_output_adapter@_W@__crt_stdio_output@@@__crt_stdio_output@@IEAA_NXZ 0000000180156034 f i libucrt:output.obj
 0001:0015504c       ?should_format@?$standard_base@DV?$stream_output_adapter@D@__crt_stdio_output@@@__crt_stdio_output@@IEAA_NXZ 000000018015604c f i libucrt:output.obj
 0001:00155050       ?should_format@?$standard_base@DV?$string_output_adapter@D@__crt_stdio_output@@@__crt_stdio_output@@IEAA_NXZ 0000000180156050 f i libucrt:output.obj
 0001:00155054       ?should_format@?$standard_base@_WV?$stream_output_adapter@_W@__crt_stdio_output@@@__crt_stdio_output@@IEAA_NXZ 0000000180156054 f i libucrt:output.obj
 0001:00155058       ?should_format@?$standard_base@_WV?$string_output_adapter@_W@__crt_stdio_output@@@__crt_stdio_output@@IEAA_NXZ 0000000180156058 f i libucrt:output.obj
 0001:0015505c       ?should_skip_normal_state_processing@?$positional_parameter_base@DV?$stream_output_adapter@D@__crt_stdio_output@@@__crt_stdio_output@@IEAA_NXZ 000000018015605c f i libucrt:output.obj
 0001:00155084       ?should_skip_normal_state_processing@?$positional_parameter_base@DV?$string_output_adapter@D@__crt_stdio_output@@@__crt_stdio_output@@IEAA_NXZ 0000000180156084 f i libucrt:output.obj
 0001:001550ac       ?should_skip_normal_state_processing@?$positional_parameter_base@_WV?$stream_output_adapter@_W@__crt_stdio_output@@@__crt_stdio_output@@IEAA_NXZ 00000001801560ac f i libucrt:output.obj
 0001:001550d4       ?should_skip_normal_state_processing@?$positional_parameter_base@_WV?$string_output_adapter@_W@__crt_stdio_output@@@__crt_stdio_output@@IEAA_NXZ 00000001801560d4 f i libucrt:output.obj
 0001:001550fc       ?should_skip_normal_state_processing@?$standard_base@DV?$stream_output_adapter@D@__crt_stdio_output@@@__crt_stdio_output@@IEAA_NXZ 00000001801560fc f i libucrt:output.obj
 0001:00155100       ?should_skip_normal_state_processing@?$standard_base@DV?$string_output_adapter@D@__crt_stdio_output@@@__crt_stdio_output@@IEAA_NXZ 0000000180156100 f i libucrt:output.obj
 0001:00155104       ?should_skip_normal_state_processing@?$standard_base@_WV?$stream_output_adapter@_W@__crt_stdio_output@@@__crt_stdio_output@@IEAA_NXZ 0000000180156104 f i libucrt:output.obj
 0001:00155108       ?should_skip_normal_state_processing@?$standard_base@_WV?$string_output_adapter@_W@__crt_stdio_output@@@__crt_stdio_output@@IEAA_NXZ 0000000180156108 f i libucrt:output.obj
 0001:0015510c       ?should_skip_type_state_output@?$positional_parameter_base@DV?$stream_output_adapter@D@__crt_stdio_output@@@__crt_stdio_output@@IEBA_NXZ 000000018015610c f i libucrt:output.obj
 0001:00155128       ?should_skip_type_state_output@?$positional_parameter_base@DV?$string_output_adapter@D@__crt_stdio_output@@@__crt_stdio_output@@IEBA_NXZ 0000000180156128 f i libucrt:output.obj
 0001:00155144       ?should_skip_type_state_output@?$positional_parameter_base@_WV?$stream_output_adapter@_W@__crt_stdio_output@@@__crt_stdio_output@@IEBA_NXZ 0000000180156144 f i libucrt:output.obj
 0001:00155160       ?should_skip_type_state_output@?$positional_parameter_base@_WV?$string_output_adapter@_W@__crt_stdio_output@@@__crt_stdio_output@@IEBA_NXZ 0000000180156160 f i libucrt:output.obj
 0001:0015517c       ?should_skip_type_state_output@?$standard_base@DV?$stream_output_adapter@D@__crt_stdio_output@@@__crt_stdio_output@@IEBA_NXZ 000000018015617c f i libucrt:output.obj
 0001:00155180       ?should_skip_type_state_output@?$standard_base@DV?$string_output_adapter@D@__crt_stdio_output@@@__crt_stdio_output@@IEBA_NXZ 0000000180156180 f i libucrt:output.obj
 0001:00155184       ?should_skip_type_state_output@?$standard_base@_WV?$stream_output_adapter@_W@__crt_stdio_output@@@__crt_stdio_output@@IEBA_NXZ 0000000180156184 f i libucrt:output.obj
 0001:00155188       ?should_skip_type_state_output@?$standard_base@_WV?$string_output_adapter@_W@__crt_stdio_output@@@__crt_stdio_output@@IEBA_NXZ 0000000180156188 f i libucrt:output.obj
 0001:0015518c       ?state_case_dot@?$output_processor@DV?$stream_output_adapter@D@__crt_stdio_output@@V?$format_validation_base@DV?$stream_output_adapter@D@__crt_stdio_output@@@2@@__crt_stdio_output@@AEAA_NXZ 000000018015618c f i libucrt:output.obj
 0001:00155194       ?state_case_dot@?$output_processor@DV?$stream_output_adapter@D@__crt_stdio_output@@V?$positional_parameter_base@DV?$stream_output_adapter@D@__crt_stdio_output@@@2@@__crt_stdio_output@@AEAA_NXZ 0000000180156194 f i libucrt:output.obj
 0001:0015519c       ?state_case_dot@?$output_processor@DV?$stream_output_adapter@D@__crt_stdio_output@@V?$standard_base@DV?$stream_output_adapter@D@__crt_stdio_output@@@2@@__crt_stdio_output@@AEAA_NXZ 000000018015619c f i libucrt:output.obj
 0001:001551a4       ?state_case_dot@?$output_processor@DV?$string_output_adapter@D@__crt_stdio_output@@V?$format_validation_base@DV?$string_output_adapter@D@__crt_stdio_output@@@2@@__crt_stdio_output@@AEAA_NXZ 00000001801561a4 f i libucrt:output.obj
 0001:001551ac       ?state_case_dot@?$output_processor@DV?$string_output_adapter@D@__crt_stdio_output@@V?$positional_parameter_base@DV?$string_output_adapter@D@__crt_stdio_output@@@2@@__crt_stdio_output@@AEAA_NXZ 00000001801561ac f i libucrt:output.obj
 0001:001551b4       ?state_case_dot@?$output_processor@DV?$string_output_adapter@D@__crt_stdio_output@@V?$standard_base@DV?$string_output_adapter@D@__crt_stdio_output@@@2@@__crt_stdio_output@@AEAA_NXZ 00000001801561b4 f i libucrt:output.obj
 0001:001551bc       ?state_case_dot@?$output_processor@_WV?$stream_output_adapter@_W@__crt_stdio_output@@V?$format_validation_base@_WV?$stream_output_adapter@_W@__crt_stdio_output@@@2@@__crt_stdio_output@@AEAA_NXZ 00000001801561bc f i libucrt:output.obj
 0001:001551c4       ?state_case_dot@?$output_processor@_WV?$stream_output_adapter@_W@__crt_stdio_output@@V?$positional_parameter_base@_WV?$stream_output_adapter@_W@__crt_stdio_output@@@2@@__crt_stdio_output@@AEAA_NXZ 00000001801561c4 f i libucrt:output.obj
 0001:001551cc       ?state_case_dot@?$output_processor@_WV?$stream_output_adapter@_W@__crt_stdio_output@@V?$standard_base@_WV?$stream_output_adapter@_W@__crt_stdio_output@@@2@@__crt_stdio_output@@AEAA_NXZ 00000001801561cc f i libucrt:output.obj
 0001:001551d4       ?state_case_dot@?$output_processor@_WV?$string_output_adapter@_W@__crt_stdio_output@@V?$format_validation_base@_WV?$string_output_adapter@_W@__crt_stdio_output@@@2@@__crt_stdio_output@@AEAA_NXZ 00000001801561d4 f i libucrt:output.obj
 0001:001551dc       ?state_case_dot@?$output_processor@_WV?$string_output_adapter@_W@__crt_stdio_output@@V?$positional_parameter_base@_WV?$string_output_adapter@_W@__crt_stdio_output@@@2@@__crt_stdio_output@@AEAA_NXZ 00000001801561dc f i libucrt:output.obj
 0001:001551e4       ?state_case_dot@?$output_processor@_WV?$string_output_adapter@_W@__crt_stdio_output@@V?$standard_base@_WV?$string_output_adapter@_W@__crt_stdio_output@@@2@@__crt_stdio_output@@AEAA_NXZ 00000001801561e4 f i libucrt:output.obj
 0001:001551ec       ?state_case_flag@?$output_processor@DV?$stream_output_adapter@D@__crt_stdio_output@@V?$format_validation_base@DV?$stream_output_adapter@D@__crt_stdio_output@@@2@@__crt_stdio_output@@AEAA_NXZ 00000001801561ec f i libucrt:output.obj
 0001:00155224       ?state_case_flag@?$output_processor@DV?$stream_output_adapter@D@__crt_stdio_output@@V?$positional_parameter_base@DV?$stream_output_adapter@D@__crt_stdio_output@@@2@@__crt_stdio_output@@AEAA_NXZ 0000000180156224 f i libucrt:output.obj
 0001:0015525c       ?state_case_flag@?$output_processor@DV?$stream_output_adapter@D@__crt_stdio_output@@V?$standard_base@DV?$stream_output_adapter@D@__crt_stdio_output@@@2@@__crt_stdio_output@@AEAA_NXZ 000000018015625c f i libucrt:output.obj
 0001:00155294       ?state_case_flag@?$output_processor@DV?$string_output_adapter@D@__crt_stdio_output@@V?$format_validation_base@DV?$string_output_adapter@D@__crt_stdio_output@@@2@@__crt_stdio_output@@AEAA_NXZ 0000000180156294 f i libucrt:output.obj
 0001:001552cc       ?state_case_flag@?$output_processor@DV?$string_output_adapter@D@__crt_stdio_output@@V?$positional_parameter_base@DV?$string_output_adapter@D@__crt_stdio_output@@@2@@__crt_stdio_output@@AEAA_NXZ 00000001801562cc f i libucrt:output.obj
 0001:00155304       ?state_case_flag@?$output_processor@DV?$string_output_adapter@D@__crt_stdio_output@@V?$standard_base@DV?$string_output_adapter@D@__crt_stdio_output@@@2@@__crt_stdio_output@@AEAA_NXZ 0000000180156304 f i libucrt:output.obj
 0001:0015533c       ?state_case_flag@?$output_processor@_WV?$stream_output_adapter@_W@__crt_stdio_output@@V?$format_validation_base@_WV?$stream_output_adapter@_W@__crt_stdio_output@@@2@@__crt_stdio_output@@AEAA_NXZ 000000018015633c f i libucrt:output.obj
 0001:00155378       ?state_case_flag@?$output_processor@_WV?$stream_output_adapter@_W@__crt_stdio_output@@V?$positional_parameter_base@_WV?$stream_output_adapter@_W@__crt_stdio_output@@@2@@__crt_stdio_output@@AEAA_NXZ 0000000180156378 f i libucrt:output.obj
 0001:001553b4       ?state_case_flag@?$output_processor@_WV?$stream_output_adapter@_W@__crt_stdio_output@@V?$standard_base@_WV?$stream_output_adapter@_W@__crt_stdio_output@@@2@@__crt_stdio_output@@AEAA_NXZ 00000001801563b4 f i libucrt:output.obj
 0001:001553f0       ?state_case_flag@?$output_processor@_WV?$string_output_adapter@_W@__crt_stdio_output@@V?$format_validation_base@_WV?$string_output_adapter@_W@__crt_stdio_output@@@2@@__crt_stdio_output@@AEAA_NXZ 00000001801563f0 f i libucrt:output.obj
 0001:0015542c       ?state_case_flag@?$output_processor@_WV?$string_output_adapter@_W@__crt_stdio_output@@V?$positional_parameter_base@_WV?$string_output_adapter@_W@__crt_stdio_output@@@2@@__crt_stdio_output@@AEAA_NXZ 000000018015642c f i libucrt:output.obj
 0001:00155468       ?state_case_flag@?$output_processor@_WV?$string_output_adapter@_W@__crt_stdio_output@@V?$standard_base@_WV?$string_output_adapter@_W@__crt_stdio_output@@@2@@__crt_stdio_output@@AEAA_NXZ 0000000180156468 f i libucrt:output.obj
 0001:001554a4       ?state_case_normal@?$output_processor@DV?$stream_output_adapter@D@__crt_stdio_output@@V?$format_validation_base@DV?$stream_output_adapter@D@__crt_stdio_output@@@2@@__crt_stdio_output@@AEAA_NXZ 00000001801564a4 f i libucrt:output.obj
 0001:00155514       ?state_case_normal@?$output_processor@DV?$stream_output_adapter@D@__crt_stdio_output@@V?$positional_parameter_base@DV?$stream_output_adapter@D@__crt_stdio_output@@@2@@__crt_stdio_output@@AEAA_NXZ 0000000180156514 f i libucrt:output.obj
 0001:001555ac       ?state_case_normal@?$output_processor@DV?$stream_output_adapter@D@__crt_stdio_output@@V?$standard_base@DV?$stream_output_adapter@D@__crt_stdio_output@@@2@@__crt_stdio_output@@AEAA_NXZ 00000001801565ac f i libucrt:output.obj
 0001:0015561c       ?state_case_normal@?$output_processor@DV?$string_output_adapter@D@__crt_stdio_output@@V?$format_validation_base@DV?$string_output_adapter@D@__crt_stdio_output@@@2@@__crt_stdio_output@@AEAA_NXZ 000000018015661c f i libucrt:output.obj
 0001:00155690       ?state_case_normal@?$output_processor@DV?$string_output_adapter@D@__crt_stdio_output@@V?$positional_parameter_base@DV?$string_output_adapter@D@__crt_stdio_output@@@2@@__crt_stdio_output@@AEAA_NXZ 0000000180156690 f i libucrt:output.obj
 0001:0015572c       ?state_case_normal@?$output_processor@DV?$string_output_adapter@D@__crt_stdio_output@@V?$standard_base@DV?$string_output_adapter@D@__crt_stdio_output@@@2@@__crt_stdio_output@@AEAA_NXZ 000000018015672c f i libucrt:output.obj
 0001:001557a0       ?state_case_normal@?$output_processor@_WV?$stream_output_adapter@_W@__crt_stdio_output@@V?$format_validation_base@_WV?$stream_output_adapter@_W@__crt_stdio_output@@@2@@__crt_stdio_output@@AEAA_NXZ 00000001801567a0 f i libucrt:output.obj
 0001:001557f8       ?state_case_normal@?$output_processor@_WV?$stream_output_adapter@_W@__crt_stdio_output@@V?$positional_parameter_base@_WV?$stream_output_adapter@_W@__crt_stdio_output@@@2@@__crt_stdio_output@@AEAA_NXZ 00000001801567f8 f i libucrt:output.obj
 0001:00155878       ?state_case_normal@?$output_processor@_WV?$stream_output_adapter@_W@__crt_stdio_output@@V?$standard_base@_WV?$stream_output_adapter@_W@__crt_stdio_output@@@2@@__crt_stdio_output@@AEAA_NXZ 0000000180156878 f i libucrt:output.obj
 0001:001558d0       ?state_case_normal@?$output_processor@_WV?$string_output_adapter@_W@__crt_stdio_output@@V?$format_validation_base@_WV?$string_output_adapter@_W@__crt_stdio_output@@@2@@__crt_stdio_output@@AEAA_NXZ 00000001801568d0 f i libucrt:output.obj
 0001:00155924       ?state_case_normal@?$output_processor@_WV?$string_output_adapter@_W@__crt_stdio_output@@V?$positional_parameter_base@_WV?$string_output_adapter@_W@__crt_stdio_output@@@2@@__crt_stdio_output@@AEAA_NXZ 0000000180156924 f i libucrt:output.obj
 0001:00155998       ?state_case_normal@?$output_processor@_WV?$string_output_adapter@_W@__crt_stdio_output@@V?$standard_base@_WV?$string_output_adapter@_W@__crt_stdio_output@@@2@@__crt_stdio_output@@AEAA_NXZ 0000000180156998 f i libucrt:output.obj
 0001:001559ec       ?state_case_normal_common@?$output_processor@DV?$stream_output_adapter@D@__crt_stdio_output@@V?$format_validation_base@DV?$stream_output_adapter@D@__crt_stdio_output@@@2@@__crt_stdio_output@@AEAA_NXZ 00000001801569ec f i libucrt:output.obj
 0001:00155a48       ?state_case_normal_common@?$output_processor@DV?$stream_output_adapter@D@__crt_stdio_output@@V?$positional_parameter_base@DV?$stream_output_adapter@D@__crt_stdio_output@@@2@@__crt_stdio_output@@AEAA_NXZ 0000000180156a48 f i libucrt:output.obj
 0001:00155aa4       ?state_case_normal_common@?$output_processor@DV?$stream_output_adapter@D@__crt_stdio_output@@V?$standard_base@DV?$stream_output_adapter@D@__crt_stdio_output@@@2@@__crt_stdio_output@@AEAA_NXZ 0000000180156aa4 f i libucrt:output.obj
 0001:00155b00       ?state_case_normal_common@?$output_processor@DV?$string_output_adapter@D@__crt_stdio_output@@V?$format_validation_base@DV?$string_output_adapter@D@__crt_stdio_output@@@2@@__crt_stdio_output@@AEAA_NXZ 0000000180156b00 f i libucrt:output.obj
 0001:00155b60       ?state_case_normal_common@?$output_processor@DV?$string_output_adapter@D@__crt_stdio_output@@V?$positional_parameter_base@DV?$string_output_adapter@D@__crt_stdio_output@@@2@@__crt_stdio_output@@AEAA_NXZ 0000000180156b60 f i libucrt:output.obj
 0001:00155bc0       ?state_case_normal_common@?$output_processor@DV?$string_output_adapter@D@__crt_stdio_output@@V?$standard_base@DV?$string_output_adapter@D@__crt_stdio_output@@@2@@__crt_stdio_output@@AEAA_NXZ 0000000180156bc0 f i libucrt:output.obj
 0001:00155c20       ?state_case_normal_common@?$output_processor@_WV?$stream_output_adapter@_W@__crt_stdio_output@@V?$format_validation_base@_WV?$stream_output_adapter@_W@__crt_stdio_output@@@2@@__crt_stdio_output@@AEAA_NXZ 0000000180156c20 f i libucrt:output.obj
 0001:00155c78       ?state_case_normal_common@?$output_processor@_WV?$stream_output_adapter@_W@__crt_stdio_output@@V?$positional_parameter_base@_WV?$stream_output_adapter@_W@__crt_stdio_output@@@2@@__crt_stdio_output@@AEAA_NXZ 0000000180156c78 f i libucrt:output.obj
 0001:00155cd0       ?state_case_normal_common@?$output_processor@_WV?$stream_output_adapter@_W@__crt_stdio_output@@V?$standard_base@_WV?$stream_output_adapter@_W@__crt_stdio_output@@@2@@__crt_stdio_output@@AEAA_NXZ 0000000180156cd0 f i libucrt:output.obj
 0001:00155d28       ?state_case_normal_common@?$output_processor@_WV?$string_output_adapter@_W@__crt_stdio_output@@V?$format_validation_base@_WV?$string_output_adapter@_W@__crt_stdio_output@@@2@@__crt_stdio_output@@AEAA_NXZ 0000000180156d28 f i libucrt:output.obj
 0001:00155d7c       ?state_case_normal_common@?$output_processor@_WV?$string_output_adapter@_W@__crt_stdio_output@@V?$positional_parameter_base@_WV?$string_output_adapter@_W@__crt_stdio_output@@@2@@__crt_stdio_output@@AEAA_NXZ 0000000180156d7c f i libucrt:output.obj
 0001:00155dd0       ?state_case_normal_common@?$output_processor@_WV?$string_output_adapter@_W@__crt_stdio_output@@V?$standard_base@_WV?$string_output_adapter@_W@__crt_stdio_output@@@2@@__crt_stdio_output@@AEAA_NXZ 0000000180156dd0 f i libucrt:output.obj
 0001:00155e24       ?state_case_normal_tchar@?$output_processor@DV?$stream_output_adapter@D@__crt_stdio_output@@V?$format_validation_base@DV?$stream_output_adapter@D@__crt_stdio_output@@@2@@__crt_stdio_output@@AEAA_ND@Z 0000000180156e24 f i libucrt:output.obj
 0001:00155eb8       ?state_case_normal_tchar@?$output_processor@DV?$stream_output_adapter@D@__crt_stdio_output@@V?$positional_parameter_base@DV?$stream_output_adapter@D@__crt_stdio_output@@@2@@__crt_stdio_output@@AEAA_ND@Z 0000000180156eb8 f i libucrt:output.obj
 0001:00155f4c       ?state_case_normal_tchar@?$output_processor@DV?$stream_output_adapter@D@__crt_stdio_output@@V?$standard_base@DV?$stream_output_adapter@D@__crt_stdio_output@@@2@@__crt_stdio_output@@AEAA_ND@Z 0000000180156f4c f i libucrt:output.obj
 0001:00155fe0       ?state_case_normal_tchar@?$output_processor@DV?$string_output_adapter@D@__crt_stdio_output@@V?$format_validation_base@DV?$string_output_adapter@D@__crt_stdio_output@@@2@@__crt_stdio_output@@AEAA_ND@Z 0000000180156fe0 f i libucrt:output.obj
 0001:00156078       ?state_case_normal_tchar@?$output_processor@DV?$string_output_adapter@D@__crt_stdio_output@@V?$positional_parameter_base@DV?$string_output_adapter@D@__crt_stdio_output@@@2@@__crt_stdio_output@@AEAA_ND@Z 0000000180157078 f i libucrt:output.obj
 0001:00156110       ?state_case_normal_tchar@?$output_processor@DV?$string_output_adapter@D@__crt_stdio_output@@V?$standard_base@DV?$string_output_adapter@D@__crt_stdio_output@@@2@@__crt_stdio_output@@AEAA_ND@Z 0000000180157110 f i libucrt:output.obj
 0001:001561a8       ?state_case_normal_tchar@?$output_processor@_WV?$stream_output_adapter@_W@__crt_stdio_output@@V?$format_validation_base@_WV?$stream_output_adapter@_W@__crt_stdio_output@@@2@@__crt_stdio_output@@AEAA_N_W@Z 00000001801571a8 f i libucrt:output.obj
 0001:001561b0       ?state_case_normal_tchar@?$output_processor@_WV?$stream_output_adapter@_W@__crt_stdio_output@@V?$positional_parameter_base@_WV?$stream_output_adapter@_W@__crt_stdio_output@@@2@@__crt_stdio_output@@AEAA_N_W@Z 00000001801571b0 f i libucrt:output.obj
 0001:001561b8       ?state_case_normal_tchar@?$output_processor@_WV?$stream_output_adapter@_W@__crt_stdio_output@@V?$standard_base@_WV?$stream_output_adapter@_W@__crt_stdio_output@@@2@@__crt_stdio_output@@AEAA_N_W@Z 00000001801571b8 f i libucrt:output.obj
 0001:001561c0       ?state_case_normal_tchar@?$output_processor@_WV?$string_output_adapter@_W@__crt_stdio_output@@V?$format_validation_base@_WV?$string_output_adapter@_W@__crt_stdio_output@@@2@@__crt_stdio_output@@AEAA_N_W@Z 00000001801571c0 f i libucrt:output.obj
 0001:001561c8       ?state_case_normal_tchar@?$output_processor@_WV?$string_output_adapter@_W@__crt_stdio_output@@V?$positional_parameter_base@_WV?$string_output_adapter@_W@__crt_stdio_output@@@2@@__crt_stdio_output@@AEAA_N_W@Z 00000001801571c8 f i libucrt:output.obj
 0001:001561d0       ?state_case_normal_tchar@?$output_processor@_WV?$string_output_adapter@_W@__crt_stdio_output@@V?$standard_base@_WV?$string_output_adapter@_W@__crt_stdio_output@@@2@@__crt_stdio_output@@AEAA_N_W@Z 00000001801571d0 f i libucrt:output.obj
 0001:001561d8       ?state_case_percent@?$output_processor@DV?$stream_output_adapter@D@__crt_stdio_output@@V?$format_validation_base@DV?$stream_output_adapter@D@__crt_stdio_output@@@2@@__crt_stdio_output@@AEAA_NXZ 00000001801571d8 f i libucrt:output.obj
 0001:001561f0       ?state_case_percent@?$output_processor@DV?$stream_output_adapter@D@__crt_stdio_output@@V?$positional_parameter_base@DV?$stream_output_adapter@D@__crt_stdio_output@@@2@@__crt_stdio_output@@AEAA_NXZ 00000001801571f0 f i libucrt:output.obj
 0001:00156208       ?state_case_percent@?$output_processor@DV?$stream_output_adapter@D@__crt_stdio_output@@V?$standard_base@DV?$stream_output_adapter@D@__crt_stdio_output@@@2@@__crt_stdio_output@@AEAA_NXZ 0000000180157208 f i libucrt:output.obj
 0001:00156220       ?state_case_percent@?$output_processor@DV?$string_output_adapter@D@__crt_stdio_output@@V?$format_validation_base@DV?$string_output_adapter@D@__crt_stdio_output@@@2@@__crt_stdio_output@@AEAA_NXZ 0000000180157220 f i libucrt:output.obj
 0001:00156238       ?state_case_percent@?$output_processor@DV?$string_output_adapter@D@__crt_stdio_output@@V?$positional_parameter_base@DV?$string_output_adapter@D@__crt_stdio_output@@@2@@__crt_stdio_output@@AEAA_NXZ 0000000180157238 f i libucrt:output.obj
 0001:00156250       ?state_case_percent@?$output_processor@DV?$string_output_adapter@D@__crt_stdio_output@@V?$standard_base@DV?$string_output_adapter@D@__crt_stdio_output@@@2@@__crt_stdio_output@@AEAA_NXZ 0000000180157250 f i libucrt:output.obj
 0001:00156268       ?state_case_percent@?$output_processor@_WV?$stream_output_adapter@_W@__crt_stdio_output@@V?$format_validation_base@_WV?$stream_output_adapter@_W@__crt_stdio_output@@@2@@__crt_stdio_output@@AEAA_NXZ 0000000180157268 f i libucrt:output.obj
 0001:00156280       ?state_case_percent@?$output_processor@_WV?$stream_output_adapter@_W@__crt_stdio_output@@V?$positional_parameter_base@_WV?$stream_output_adapter@_W@__crt_stdio_output@@@2@@__crt_stdio_output@@AEAA_NXZ 0000000180157280 f i libucrt:output.obj
 0001:00156298       ?state_case_percent@?$output_processor@_WV?$stream_output_adapter@_W@__crt_stdio_output@@V?$standard_base@_WV?$stream_output_adapter@_W@__crt_stdio_output@@@2@@__crt_stdio_output@@AEAA_NXZ 0000000180157298 f i libucrt:output.obj
 0001:001562b0       ?state_case_percent@?$output_processor@_WV?$string_output_adapter@_W@__crt_stdio_output@@V?$format_validation_base@_WV?$string_output_adapter@_W@__crt_stdio_output@@@2@@__crt_stdio_output@@AEAA_NXZ 00000001801572b0 f i libucrt:output.obj
 0001:001562c8       ?state_case_percent@?$output_processor@_WV?$string_output_adapter@_W@__crt_stdio_output@@V?$positional_parameter_base@_WV?$string_output_adapter@_W@__crt_stdio_output@@@2@@__crt_stdio_output@@AEAA_NXZ 00000001801572c8 f i libucrt:output.obj
 0001:001562e0       ?state_case_percent@?$output_processor@_WV?$string_output_adapter@_W@__crt_stdio_output@@V?$standard_base@_WV?$string_output_adapter@_W@__crt_stdio_output@@@2@@__crt_stdio_output@@AEAA_NXZ 00000001801572e0 f i libucrt:output.obj
 0001:001562f8       ?state_case_precision@?$output_processor@DV?$stream_output_adapter@D@__crt_stdio_output@@V?$format_validation_base@DV?$stream_output_adapter@D@__crt_stdio_output@@@2@@__crt_stdio_output@@AEAA_NXZ 00000001801572f8 f i libucrt:output.obj
 0001:00156328       ?state_case_precision@?$output_processor@DV?$stream_output_adapter@D@__crt_stdio_output@@V?$positional_parameter_base@DV?$stream_output_adapter@D@__crt_stdio_output@@@2@@__crt_stdio_output@@AEAA_NXZ 0000000180157328 f i libucrt:output.obj
 0001:00156374       ?state_case_precision@?$output_processor@DV?$stream_output_adapter@D@__crt_stdio_output@@V?$standard_base@DV?$stream_output_adapter@D@__crt_stdio_output@@@2@@__crt_stdio_output@@AEAA_NXZ 0000000180157374 f i libucrt:output.obj
 0001:001563a4       ?state_case_precision@?$output_processor@DV?$string_output_adapter@D@__crt_stdio_output@@V?$format_validation_base@DV?$string_output_adapter@D@__crt_stdio_output@@@2@@__crt_stdio_output@@AEAA_NXZ 00000001801573a4 f i libucrt:output.obj
 0001:001563d4       ?state_case_precision@?$output_processor@DV?$string_output_adapter@D@__crt_stdio_output@@V?$positional_parameter_base@DV?$string_output_adapter@D@__crt_stdio_output@@@2@@__crt_stdio_output@@AEAA_NXZ 00000001801573d4 f i libucrt:output.obj
 0001:00156420       ?state_case_precision@?$output_processor@DV?$string_output_adapter@D@__crt_stdio_output@@V?$standard_base@DV?$string_output_adapter@D@__crt_stdio_output@@@2@@__crt_stdio_output@@AEAA_NXZ 0000000180157420 f i libucrt:output.obj
 0001:00156450       ?state_case_precision@?$output_processor@_WV?$stream_output_adapter@_W@__crt_stdio_output@@V?$format_validation_base@_WV?$stream_output_adapter@_W@__crt_stdio_output@@@2@@__crt_stdio_output@@AEAA_NXZ 0000000180157450 f i libucrt:output.obj
 0001:00156480       ?state_case_precision@?$output_processor@_WV?$stream_output_adapter@_W@__crt_stdio_output@@V?$positional_parameter_base@_WV?$stream_output_adapter@_W@__crt_stdio_output@@@2@@__crt_stdio_output@@AEAA_NXZ 0000000180157480 f i libucrt:output.obj
 0001:001564cc       ?state_case_precision@?$output_processor@_WV?$stream_output_adapter@_W@__crt_stdio_output@@V?$standard_base@_WV?$stream_output_adapter@_W@__crt_stdio_output@@@2@@__crt_stdio_output@@AEAA_NXZ 00000001801574cc f i libucrt:output.obj
 0001:001564fc       ?state_case_precision@?$output_processor@_WV?$string_output_adapter@_W@__crt_stdio_output@@V?$format_validation_base@_WV?$string_output_adapter@_W@__crt_stdio_output@@@2@@__crt_stdio_output@@AEAA_NXZ 00000001801574fc f i libucrt:output.obj
 0001:0015652c       ?state_case_precision@?$output_processor@_WV?$string_output_adapter@_W@__crt_stdio_output@@V?$positional_parameter_base@_WV?$string_output_adapter@_W@__crt_stdio_output@@@2@@__crt_stdio_output@@AEAA_NXZ 000000018015752c f i libucrt:output.obj
 0001:00156578       ?state_case_precision@?$output_processor@_WV?$string_output_adapter@_W@__crt_stdio_output@@V?$standard_base@_WV?$string_output_adapter@_W@__crt_stdio_output@@@2@@__crt_stdio_output@@AEAA_NXZ 0000000180157578 f i libucrt:output.obj
 0001:001565a8       ?state_case_size@?$output_processor@DV?$stream_output_adapter@D@__crt_stdio_output@@V?$format_validation_base@DV?$stream_output_adapter@D@__crt_stdio_output@@@2@@__crt_stdio_output@@AEAA_NXZ 00000001801575a8 f i libucrt:output.obj
 0001:00156724       ?state_case_size@?$output_processor@DV?$stream_output_adapter@D@__crt_stdio_output@@V?$positional_parameter_base@DV?$stream_output_adapter@D@__crt_stdio_output@@@2@@__crt_stdio_output@@AEAA_NXZ 0000000180157724 f i libucrt:output.obj
 0001:001568a0       ?state_case_size@?$output_processor@DV?$stream_output_adapter@D@__crt_stdio_output@@V?$standard_base@DV?$stream_output_adapter@D@__crt_stdio_output@@@2@@__crt_stdio_output@@AEAA_NXZ 00000001801578a0 f i libucrt:output.obj
 0001:00156a1c       ?state_case_size@?$output_processor@DV?$string_output_adapter@D@__crt_stdio_output@@V?$format_validation_base@DV?$string_output_adapter@D@__crt_stdio_output@@@2@@__crt_stdio_output@@AEAA_NXZ 0000000180157a1c f i libucrt:output.obj
 0001:00156b98       ?state_case_size@?$output_processor@DV?$string_output_adapter@D@__crt_stdio_output@@V?$positional_parameter_base@DV?$string_output_adapter@D@__crt_stdio_output@@@2@@__crt_stdio_output@@AEAA_NXZ 0000000180157b98 f i libucrt:output.obj
 0001:00156d14       ?state_case_size@?$output_processor@DV?$string_output_adapter@D@__crt_stdio_output@@V?$standard_base@DV?$string_output_adapter@D@__crt_stdio_output@@@2@@__crt_stdio_output@@AEAA_NXZ 0000000180157d14 f i libucrt:output.obj
 0001:00156e90       ?state_case_size@?$output_processor@_WV?$stream_output_adapter@_W@__crt_stdio_output@@V?$format_validation_base@_WV?$stream_output_adapter@_W@__crt_stdio_output@@@2@@__crt_stdio_output@@AEAA_NXZ 0000000180157e90 f i libucrt:output.obj
 0001:00157034       ?state_case_size@?$output_processor@_WV?$stream_output_adapter@_W@__crt_stdio_output@@V?$positional_parameter_base@_WV?$stream_output_adapter@_W@__crt_stdio_output@@@2@@__crt_stdio_output@@AEAA_NXZ 0000000180158034 f i libucrt:output.obj
 0001:001571d8       ?state_case_size@?$output_processor@_WV?$stream_output_adapter@_W@__crt_stdio_output@@V?$standard_base@_WV?$stream_output_adapter@_W@__crt_stdio_output@@@2@@__crt_stdio_output@@AEAA_NXZ 00000001801581d8 f i libucrt:output.obj
 0001:0015737c       ?state_case_size@?$output_processor@_WV?$string_output_adapter@_W@__crt_stdio_output@@V?$format_validation_base@_WV?$string_output_adapter@_W@__crt_stdio_output@@@2@@__crt_stdio_output@@AEAA_NXZ 000000018015837c f i libucrt:output.obj
 0001:00157520       ?state_case_size@?$output_processor@_WV?$string_output_adapter@_W@__crt_stdio_output@@V?$positional_parameter_base@_WV?$string_output_adapter@_W@__crt_stdio_output@@@2@@__crt_stdio_output@@AEAA_NXZ 0000000180158520 f i libucrt:output.obj
 0001:001576c4       ?state_case_size@?$output_processor@_WV?$string_output_adapter@_W@__crt_stdio_output@@V?$standard_base@_WV?$string_output_adapter@_W@__crt_stdio_output@@@2@@__crt_stdio_output@@AEAA_NXZ 00000001801586c4 f i libucrt:output.obj
 0001:00157868       ?state_case_type@?$output_processor@DV?$stream_output_adapter@D@__crt_stdio_output@@V?$format_validation_base@DV?$stream_output_adapter@D@__crt_stdio_output@@@2@@__crt_stdio_output@@AEAA_NXZ 0000000180158868 f i libucrt:output.obj
 0001:00157ae4       ?state_case_type@?$output_processor@DV?$stream_output_adapter@D@__crt_stdio_output@@V?$positional_parameter_base@DV?$stream_output_adapter@D@__crt_stdio_output@@@2@@__crt_stdio_output@@AEAA_NXZ 0000000180158ae4 f i libucrt:output.obj
 0001:00157d74       ?state_case_type@?$output_processor@DV?$stream_output_adapter@D@__crt_stdio_output@@V?$standard_base@DV?$stream_output_adapter@D@__crt_stdio_output@@@2@@__crt_stdio_output@@AEAA_NXZ 0000000180158d74 f i libucrt:output.obj
 0001:00157ff0       ?state_case_type@?$output_processor@DV?$string_output_adapter@D@__crt_stdio_output@@V?$format_validation_base@DV?$string_output_adapter@D@__crt_stdio_output@@@2@@__crt_stdio_output@@AEAA_NXZ 0000000180158ff0 f i libucrt:output.obj
 0001:0015826c       ?state_case_type@?$output_processor@DV?$string_output_adapter@D@__crt_stdio_output@@V?$positional_parameter_base@DV?$string_output_adapter@D@__crt_stdio_output@@@2@@__crt_stdio_output@@AEAA_NXZ 000000018015926c f i libucrt:output.obj
 0001:001584fc       ?state_case_type@?$output_processor@DV?$string_output_adapter@D@__crt_stdio_output@@V?$standard_base@DV?$string_output_adapter@D@__crt_stdio_output@@@2@@__crt_stdio_output@@AEAA_NXZ 00000001801594fc f i libucrt:output.obj
 0001:00158778       ?state_case_type@?$output_processor@_WV?$stream_output_adapter@_W@__crt_stdio_output@@V?$format_validation_base@_WV?$stream_output_adapter@_W@__crt_stdio_output@@@2@@__crt_stdio_output@@AEAA_NXZ 0000000180159778 f i libucrt:output.obj
 0001:00158a44       ?state_case_type@?$output_processor@_WV?$stream_output_adapter@_W@__crt_stdio_output@@V?$positional_parameter_base@_WV?$stream_output_adapter@_W@__crt_stdio_output@@@2@@__crt_stdio_output@@AEAA_NXZ 0000000180159a44 f i libucrt:output.obj
 0001:00158d24       ?state_case_type@?$output_processor@_WV?$stream_output_adapter@_W@__crt_stdio_output@@V?$standard_base@_WV?$stream_output_adapter@_W@__crt_stdio_output@@@2@@__crt_stdio_output@@AEAA_NXZ 0000000180159d24 f i libucrt:output.obj
 0001:00158ff0       ?state_case_type@?$output_processor@_WV?$string_output_adapter@_W@__crt_stdio_output@@V?$format_validation_base@_WV?$string_output_adapter@_W@__crt_stdio_output@@@2@@__crt_stdio_output@@AEAA_NXZ 0000000180159ff0 f i libucrt:output.obj
 0001:001592bc       ?state_case_type@?$output_processor@_WV?$string_output_adapter@_W@__crt_stdio_output@@V?$positional_parameter_base@_WV?$string_output_adapter@_W@__crt_stdio_output@@@2@@__crt_stdio_output@@AEAA_NXZ 000000018015a2bc f i libucrt:output.obj
 0001:0015959c       ?state_case_type@?$output_processor@_WV?$string_output_adapter@_W@__crt_stdio_output@@V?$standard_base@_WV?$string_output_adapter@_W@__crt_stdio_output@@@2@@__crt_stdio_output@@AEAA_NXZ 000000018015a59c f i libucrt:output.obj
 0001:00159868       ?state_case_width@?$output_processor@DV?$stream_output_adapter@D@__crt_stdio_output@@V?$format_validation_base@DV?$stream_output_adapter@D@__crt_stdio_output@@@2@@__crt_stdio_output@@AEAA_NXZ 000000018015a868 f i libucrt:output.obj
 0001:00159898       ?state_case_width@?$output_processor@DV?$stream_output_adapter@D@__crt_stdio_output@@V?$positional_parameter_base@DV?$stream_output_adapter@D@__crt_stdio_output@@@2@@__crt_stdio_output@@AEAA_NXZ 000000018015a898 f i libucrt:output.obj
 0001:001598e8       ?state_case_width@?$output_processor@DV?$stream_output_adapter@D@__crt_stdio_output@@V?$standard_base@DV?$stream_output_adapter@D@__crt_stdio_output@@@2@@__crt_stdio_output@@AEAA_NXZ 000000018015a8e8 f i libucrt:output.obj
 0001:00159918       ?state_case_width@?$output_processor@DV?$string_output_adapter@D@__crt_stdio_output@@V?$format_validation_base@DV?$string_output_adapter@D@__crt_stdio_output@@@2@@__crt_stdio_output@@AEAA_NXZ 000000018015a918 f i libucrt:output.obj
 0001:00159948       ?state_case_width@?$output_processor@DV?$string_output_adapter@D@__crt_stdio_output@@V?$positional_parameter_base@DV?$string_output_adapter@D@__crt_stdio_output@@@2@@__crt_stdio_output@@AEAA_NXZ 000000018015a948 f i libucrt:output.obj
 0001:00159998       ?state_case_width@?$output_processor@DV?$string_output_adapter@D@__crt_stdio_output@@V?$standard_base@DV?$string_output_adapter@D@__crt_stdio_output@@@2@@__crt_stdio_output@@AEAA_NXZ 000000018015a998 f i libucrt:output.obj
 0001:001599c8       ?state_case_width@?$output_processor@_WV?$stream_output_adapter@_W@__crt_stdio_output@@V?$format_validation_base@_WV?$stream_output_adapter@_W@__crt_stdio_output@@@2@@__crt_stdio_output@@AEAA_NXZ 000000018015a9c8 f i libucrt:output.obj
 0001:001599f8       ?state_case_width@?$output_processor@_WV?$stream_output_adapter@_W@__crt_stdio_output@@V?$positional_parameter_base@_WV?$stream_output_adapter@_W@__crt_stdio_output@@@2@@__crt_stdio_output@@AEAA_NXZ 000000018015a9f8 f i libucrt:output.obj
 0001:00159a4c       ?state_case_width@?$output_processor@_WV?$stream_output_adapter@_W@__crt_stdio_output@@V?$standard_base@_WV?$stream_output_adapter@_W@__crt_stdio_output@@@2@@__crt_stdio_output@@AEAA_NXZ 000000018015aa4c f i libucrt:output.obj
 0001:00159a7c       ?state_case_width@?$output_processor@_WV?$string_output_adapter@_W@__crt_stdio_output@@V?$format_validation_base@_WV?$string_output_adapter@_W@__crt_stdio_output@@@2@@__crt_stdio_output@@AEAA_NXZ 000000018015aa7c f i libucrt:output.obj
 0001:00159aac       ?state_case_width@?$output_processor@_WV?$string_output_adapter@_W@__crt_stdio_output@@V?$positional_parameter_base@_WV?$string_output_adapter@_W@__crt_stdio_output@@@2@@__crt_stdio_output@@AEAA_NXZ 000000018015aaac f i libucrt:output.obj
 0001:00159b00       ?state_case_width@?$output_processor@_WV?$string_output_adapter@_W@__crt_stdio_output@@V?$standard_base@_WV?$string_output_adapter@_W@__crt_stdio_output@@@2@@__crt_stdio_output@@AEAA_NXZ 000000018015ab00 f i libucrt:output.obj
 0001:00159b30       ?state_count@?$format_validation_base@DV?$stream_output_adapter@D@__crt_stdio_output@@@__crt_stdio_output@@KAIXZ 000000018015ab30 f i libucrt:output.obj
 0001:00159b38       ?state_count@?$format_validation_base@DV?$string_output_adapter@D@__crt_stdio_output@@@__crt_stdio_output@@KAIXZ 000000018015ab38 f i libucrt:output.obj
 0001:00159b40       ?state_count@?$format_validation_base@_WV?$stream_output_adapter@_W@__crt_stdio_output@@@__crt_stdio_output@@KAIXZ 000000018015ab40 f i libucrt:output.obj
 0001:00159b48       ?state_count@?$format_validation_base@_WV?$string_output_adapter@_W@__crt_stdio_output@@@__crt_stdio_output@@KAIXZ 000000018015ab48 f i libucrt:output.obj
 0001:00159b50       ?state_count@?$standard_base@DV?$stream_output_adapter@D@__crt_stdio_output@@@__crt_stdio_output@@KAIXZ 000000018015ab50 f i libucrt:output.obj
 0001:00159b58       ?state_count@?$standard_base@DV?$string_output_adapter@D@__crt_stdio_output@@@__crt_stdio_output@@KAIXZ 000000018015ab58 f i libucrt:output.obj
 0001:00159b60       ?state_count@?$standard_base@_WV?$stream_output_adapter@_W@__crt_stdio_output@@@__crt_stdio_output@@KAIXZ 000000018015ab60 f i libucrt:output.obj
 0001:00159b68       ?state_count@?$standard_base@_WV?$string_output_adapter@_W@__crt_stdio_output@@@__crt_stdio_output@@KAIXZ 000000018015ab68 f i libucrt:output.obj
 0001:00159b70       ?state_transition_table@?$format_validation_base@DV?$stream_output_adapter@D@__crt_stdio_output@@@__crt_stdio_output@@KAPEBEXZ 000000018015ab70 f i libucrt:output.obj
 0001:00159b78       ?state_transition_table@?$format_validation_base@DV?$string_output_adapter@D@__crt_stdio_output@@@__crt_stdio_output@@KAPEBEXZ 000000018015ab78 f i libucrt:output.obj
 0001:00159b80       ?state_transition_table@?$format_validation_base@_WV?$stream_output_adapter@_W@__crt_stdio_output@@@__crt_stdio_output@@KAPEBEXZ 000000018015ab80 f i libucrt:output.obj
 0001:00159b88       ?state_transition_table@?$format_validation_base@_WV?$string_output_adapter@_W@__crt_stdio_output@@@__crt_stdio_output@@KAPEBEXZ 000000018015ab88 f i libucrt:output.obj
 0001:00159b90       ?state_transition_table@?$standard_base@DV?$stream_output_adapter@D@__crt_stdio_output@@@__crt_stdio_output@@KAPEBEXZ 000000018015ab90 f i libucrt:output.obj
 0001:00159b98       ?state_transition_table@?$standard_base@DV?$string_output_adapter@D@__crt_stdio_output@@@__crt_stdio_output@@KAPEBEXZ 000000018015ab98 f i libucrt:output.obj
 0001:00159ba0       ?state_transition_table@?$standard_base@_WV?$stream_output_adapter@_W@__crt_stdio_output@@@__crt_stdio_output@@KAPEBEXZ 000000018015aba0 f i libucrt:output.obj
 0001:00159ba8       ?state_transition_table@?$standard_base@_WV?$string_output_adapter@_W@__crt_stdio_output@@@__crt_stdio_output@@KAPEBEXZ 000000018015aba8 f i libucrt:output.obj
 0001:00159bb0       ?to_integer_size@__crt_stdio_output@@YA_KW4length_modifier@1@@Z 000000018015abb0 f i libucrt:output.obj
 0001:00159bfc       ?type_case_X@?$output_processor@DV?$stream_output_adapter@D@__crt_stdio_output@@V?$format_validation_base@DV?$stream_output_adapter@D@__crt_stdio_output@@@2@@__crt_stdio_output@@AEAA_NXZ 000000018015abfc f i libucrt:output.obj
 0001:00159c0c       ?type_case_X@?$output_processor@DV?$stream_output_adapter@D@__crt_stdio_output@@V?$positional_parameter_base@DV?$stream_output_adapter@D@__crt_stdio_output@@@2@@__crt_stdio_output@@AEAA_NXZ 000000018015ac0c f i libucrt:output.obj
 0001:00159c1c       ?type_case_X@?$output_processor@DV?$stream_output_adapter@D@__crt_stdio_output@@V?$standard_base@DV?$stream_output_adapter@D@__crt_stdio_output@@@2@@__crt_stdio_output@@AEAA_NXZ 000000018015ac1c f i libucrt:output.obj
 0001:00159c2c       ?type_case_X@?$output_processor@DV?$string_output_adapter@D@__crt_stdio_output@@V?$format_validation_base@DV?$string_output_adapter@D@__crt_stdio_output@@@2@@__crt_stdio_output@@AEAA_NXZ 000000018015ac2c f i libucrt:output.obj
 0001:00159c3c       ?type_case_X@?$output_processor@DV?$string_output_adapter@D@__crt_stdio_output@@V?$positional_parameter_base@DV?$string_output_adapter@D@__crt_stdio_output@@@2@@__crt_stdio_output@@AEAA_NXZ 000000018015ac3c f i libucrt:output.obj
 0001:00159c4c       ?type_case_X@?$output_processor@DV?$string_output_adapter@D@__crt_stdio_output@@V?$standard_base@DV?$string_output_adapter@D@__crt_stdio_output@@@2@@__crt_stdio_output@@AEAA_NXZ 000000018015ac4c f i libucrt:output.obj
 0001:00159c5c       ?type_case_X@?$output_processor@_WV?$stream_output_adapter@_W@__crt_stdio_output@@V?$format_validation_base@_WV?$stream_output_adapter@_W@__crt_stdio_output@@@2@@__crt_stdio_output@@AEAA_NXZ 000000018015ac5c f i libucrt:output.obj
 0001:00159c6c       ?type_case_X@?$output_processor@_WV?$stream_output_adapter@_W@__crt_stdio_output@@V?$positional_parameter_base@_WV?$stream_output_adapter@_W@__crt_stdio_output@@@2@@__crt_stdio_output@@AEAA_NXZ 000000018015ac6c f i libucrt:output.obj
 0001:00159c7c       ?type_case_X@?$output_processor@_WV?$stream_output_adapter@_W@__crt_stdio_output@@V?$standard_base@_WV?$stream_output_adapter@_W@__crt_stdio_output@@@2@@__crt_stdio_output@@AEAA_NXZ 000000018015ac7c f i libucrt:output.obj
 0001:00159c8c       ?type_case_X@?$output_processor@_WV?$string_output_adapter@_W@__crt_stdio_output@@V?$format_validation_base@_WV?$string_output_adapter@_W@__crt_stdio_output@@@2@@__crt_stdio_output@@AEAA_NXZ 000000018015ac8c f i libucrt:output.obj
 0001:00159c9c       ?type_case_X@?$output_processor@_WV?$string_output_adapter@_W@__crt_stdio_output@@V?$positional_parameter_base@_WV?$string_output_adapter@_W@__crt_stdio_output@@@2@@__crt_stdio_output@@AEAA_NXZ 000000018015ac9c f i libucrt:output.obj
 0001:00159cac       ?type_case_X@?$output_processor@_WV?$string_output_adapter@_W@__crt_stdio_output@@V?$standard_base@_WV?$string_output_adapter@_W@__crt_stdio_output@@@2@@__crt_stdio_output@@AEAA_NXZ 000000018015acac f i libucrt:output.obj
 0001:00159cbc       ?type_case_Z@?$output_processor@DV?$stream_output_adapter@D@__crt_stdio_output@@V?$format_validation_base@DV?$stream_output_adapter@D@__crt_stdio_output@@@2@@__crt_stdio_output@@AEAA_NXZ 000000018015acbc f i libucrt:output.obj
 0001:00159d3c       ?type_case_Z@?$output_processor@DV?$stream_output_adapter@D@__crt_stdio_output@@V?$positional_parameter_base@DV?$stream_output_adapter@D@__crt_stdio_output@@@2@@__crt_stdio_output@@AEAA_NXZ 000000018015ad3c f i libucrt:output.obj
 0001:00159dd8       ?type_case_Z@?$output_processor@DV?$stream_output_adapter@D@__crt_stdio_output@@V?$standard_base@DV?$stream_output_adapter@D@__crt_stdio_output@@@2@@__crt_stdio_output@@AEAA_NXZ 000000018015add8 f i libucrt:output.obj
 0001:00159e58       ?type_case_Z@?$output_processor@DV?$string_output_adapter@D@__crt_stdio_output@@V?$format_validation_base@DV?$string_output_adapter@D@__crt_stdio_output@@@2@@__crt_stdio_output@@AEAA_NXZ 000000018015ae58 f i libucrt:output.obj
 0001:00159ed8       ?type_case_Z@?$output_processor@DV?$string_output_adapter@D@__crt_stdio_output@@V?$positional_parameter_base@DV?$string_output_adapter@D@__crt_stdio_output@@@2@@__crt_stdio_output@@AEAA_NXZ 000000018015aed8 f i libucrt:output.obj
 0001:00159f74       ?type_case_Z@?$output_processor@DV?$string_output_adapter@D@__crt_stdio_output@@V?$standard_base@DV?$string_output_adapter@D@__crt_stdio_output@@@2@@__crt_stdio_output@@AEAA_NXZ 000000018015af74 f i libucrt:output.obj
 0001:00159ff4       ?type_case_Z@?$output_processor@_WV?$stream_output_adapter@_W@__crt_stdio_output@@V?$format_validation_base@_WV?$stream_output_adapter@_W@__crt_stdio_output@@@2@@__crt_stdio_output@@AEAA_NXZ 000000018015aff4 f i libucrt:output.obj
 0001:0015a074       ?type_case_Z@?$output_processor@_WV?$stream_output_adapter@_W@__crt_stdio_output@@V?$positional_parameter_base@_WV?$stream_output_adapter@_W@__crt_stdio_output@@@2@@__crt_stdio_output@@AEAA_NXZ 000000018015b074 f i libucrt:output.obj
 0001:0015a114       ?type_case_Z@?$output_processor@_WV?$stream_output_adapter@_W@__crt_stdio_output@@V?$standard_base@_WV?$stream_output_adapter@_W@__crt_stdio_output@@@2@@__crt_stdio_output@@AEAA_NXZ 000000018015b114 f i libucrt:output.obj
 0001:0015a194       ?type_case_Z@?$output_processor@_WV?$string_output_adapter@_W@__crt_stdio_output@@V?$format_validation_base@_WV?$string_output_adapter@_W@__crt_stdio_output@@@2@@__crt_stdio_output@@AEAA_NXZ 000000018015b194 f i libucrt:output.obj
 0001:0015a214       ?type_case_Z@?$output_processor@_WV?$string_output_adapter@_W@__crt_stdio_output@@V?$positional_parameter_base@_WV?$string_output_adapter@_W@__crt_stdio_output@@@2@@__crt_stdio_output@@AEAA_NXZ 000000018015b214 f i libucrt:output.obj
 0001:0015a2b4       ?type_case_Z@?$output_processor@_WV?$string_output_adapter@_W@__crt_stdio_output@@V?$standard_base@_WV?$string_output_adapter@_W@__crt_stdio_output@@@2@@__crt_stdio_output@@AEAA_NXZ 000000018015b2b4 f i libucrt:output.obj
 0001:0015a334       ?type_case_a@?$output_processor@DV?$stream_output_adapter@D@__crt_stdio_output@@V?$format_validation_base@DV?$stream_output_adapter@D@__crt_stdio_output@@@2@@__crt_stdio_output@@AEAA_NXZ 000000018015b334 f i libucrt:output.obj
 0001:0015a550       ?type_case_a@?$output_processor@DV?$stream_output_adapter@D@__crt_stdio_output@@V?$positional_parameter_base@DV?$stream_output_adapter@D@__crt_stdio_output@@@2@@__crt_stdio_output@@AEAA_NXZ 000000018015b550 f i libucrt:output.obj
 0001:0015a79c       ?type_case_a@?$output_processor@DV?$stream_output_adapter@D@__crt_stdio_output@@V?$standard_base@DV?$stream_output_adapter@D@__crt_stdio_output@@@2@@__crt_stdio_output@@AEAA_NXZ 000000018015b79c f i libucrt:output.obj
 0001:0015a9b8       ?type_case_a@?$output_processor@DV?$string_output_adapter@D@__crt_stdio_output@@V?$format_validation_base@DV?$string_output_adapter@D@__crt_stdio_output@@@2@@__crt_stdio_output@@AEAA_NXZ 000000018015b9b8 f i libucrt:output.obj
 0001:0015abd4       ?type_case_a@?$output_processor@DV?$string_output_adapter@D@__crt_stdio_output@@V?$positional_parameter_base@DV?$string_output_adapter@D@__crt_stdio_output@@@2@@__crt_stdio_output@@AEAA_NXZ 000000018015bbd4 f i libucrt:output.obj
 0001:0015ae20       ?type_case_a@?$output_processor@DV?$string_output_adapter@D@__crt_stdio_output@@V?$standard_base@DV?$string_output_adapter@D@__crt_stdio_output@@@2@@__crt_stdio_output@@AEAA_NXZ 000000018015be20 f i libucrt:output.obj
 0001:0015b03c       ?type_case_a@?$output_processor@_WV?$stream_output_adapter@_W@__crt_stdio_output@@V?$format_validation_base@_WV?$stream_output_adapter@_W@__crt_stdio_output@@@2@@__crt_stdio_output@@AEAA_NXZ 000000018015c03c f i libucrt:output.obj
 0001:0015b280       ?type_case_a@?$output_processor@_WV?$stream_output_adapter@_W@__crt_stdio_output@@V?$positional_parameter_base@_WV?$stream_output_adapter@_W@__crt_stdio_output@@@2@@__crt_stdio_output@@AEAA_NXZ 000000018015c280 f i libucrt:output.obj
 0001:0015b4f0       ?type_case_a@?$output_processor@_WV?$stream_output_adapter@_W@__crt_stdio_output@@V?$standard_base@_WV?$stream_output_adapter@_W@__crt_stdio_output@@@2@@__crt_stdio_output@@AEAA_NXZ 000000018015c4f0 f i libucrt:output.obj
 0001:0015b734       ?type_case_a@?$output_processor@_WV?$string_output_adapter@_W@__crt_stdio_output@@V?$format_validation_base@_WV?$string_output_adapter@_W@__crt_stdio_output@@@2@@__crt_stdio_output@@AEAA_NXZ 000000018015c734 f i libucrt:output.obj
 0001:0015b978       ?type_case_a@?$output_processor@_WV?$string_output_adapter@_W@__crt_stdio_output@@V?$positional_parameter_base@_WV?$string_output_adapter@_W@__crt_stdio_output@@@2@@__crt_stdio_output@@AEAA_NXZ 000000018015c978 f i libucrt:output.obj
 0001:0015bbe8       ?type_case_a@?$output_processor@_WV?$string_output_adapter@_W@__crt_stdio_output@@V?$standard_base@_WV?$string_output_adapter@_W@__crt_stdio_output@@@2@@__crt_stdio_output@@AEAA_NXZ 000000018015cbe8 f i libucrt:output.obj
 0001:0015be2c       ?type_case_c@?$output_processor@DV?$stream_output_adapter@D@__crt_stdio_output@@V?$format_validation_base@DV?$stream_output_adapter@D@__crt_stdio_output@@@2@@__crt_stdio_output@@AEAA_NXZ 000000018015ce2c f i libucrt:output.obj
 0001:0015be34       ?type_case_c@?$output_processor@DV?$stream_output_adapter@D@__crt_stdio_output@@V?$positional_parameter_base@DV?$stream_output_adapter@D@__crt_stdio_output@@@2@@__crt_stdio_output@@AEAA_NXZ 000000018015ce34 f i libucrt:output.obj
 0001:0015be3c       ?type_case_c@?$output_processor@DV?$stream_output_adapter@D@__crt_stdio_output@@V?$standard_base@DV?$stream_output_adapter@D@__crt_stdio_output@@@2@@__crt_stdio_output@@AEAA_NXZ 000000018015ce3c f i libucrt:output.obj
 0001:0015be44       ?type_case_c@?$output_processor@DV?$string_output_adapter@D@__crt_stdio_output@@V?$format_validation_base@DV?$string_output_adapter@D@__crt_stdio_output@@@2@@__crt_stdio_output@@AEAA_NXZ 000000018015ce44 f i libucrt:output.obj
 0001:0015be4c       ?type_case_c@?$output_processor@DV?$string_output_adapter@D@__crt_stdio_output@@V?$positional_parameter_base@DV?$string_output_adapter@D@__crt_stdio_output@@@2@@__crt_stdio_output@@AEAA_NXZ 000000018015ce4c f i libucrt:output.obj
 0001:0015be54       ?type_case_c@?$output_processor@DV?$string_output_adapter@D@__crt_stdio_output@@V?$standard_base@DV?$string_output_adapter@D@__crt_stdio_output@@@2@@__crt_stdio_output@@AEAA_NXZ 000000018015ce54 f i libucrt:output.obj
 0001:0015be5c       ?type_case_c@?$output_processor@_WV?$stream_output_adapter@_W@__crt_stdio_output@@V?$format_validation_base@_WV?$stream_output_adapter@_W@__crt_stdio_output@@@2@@__crt_stdio_output@@AEAA_NXZ 000000018015ce5c f i libucrt:output.obj
 0001:0015be64       ?type_case_c@?$output_processor@_WV?$stream_output_adapter@_W@__crt_stdio_output@@V?$positional_parameter_base@_WV?$stream_output_adapter@_W@__crt_stdio_output@@@2@@__crt_stdio_output@@AEAA_NXZ 000000018015ce64 f i libucrt:output.obj
 0001:0015be6c       ?type_case_c@?$output_processor@_WV?$stream_output_adapter@_W@__crt_stdio_output@@V?$standard_base@_WV?$stream_output_adapter@_W@__crt_stdio_output@@@2@@__crt_stdio_output@@AEAA_NXZ 000000018015ce6c f i libucrt:output.obj
 0001:0015be74       ?type_case_c@?$output_processor@_WV?$string_output_adapter@_W@__crt_stdio_output@@V?$format_validation_base@_WV?$string_output_adapter@_W@__crt_stdio_output@@@2@@__crt_stdio_output@@AEAA_NXZ 000000018015ce74 f i libucrt:output.obj
 0001:0015be7c       ?type_case_c@?$output_processor@_WV?$string_output_adapter@_W@__crt_stdio_output@@V?$positional_parameter_base@_WV?$string_output_adapter@_W@__crt_stdio_output@@@2@@__crt_stdio_output@@AEAA_NXZ 000000018015ce7c f i libucrt:output.obj
 0001:0015be84       ?type_case_c@?$output_processor@_WV?$string_output_adapter@_W@__crt_stdio_output@@V?$standard_base@_WV?$string_output_adapter@_W@__crt_stdio_output@@@2@@__crt_stdio_output@@AEAA_NXZ 000000018015ce84 f i libucrt:output.obj
 0001:0015be8c       ?type_case_c_tchar@?$output_processor@DV?$stream_output_adapter@D@__crt_stdio_output@@V?$format_validation_base@DV?$stream_output_adapter@D@__crt_stdio_output@@@2@@__crt_stdio_output@@AEAA_ND@Z 000000018015ce8c f i libucrt:output.obj
 0001:0015bf40       ?type_case_c_tchar@?$output_processor@DV?$stream_output_adapter@D@__crt_stdio_output@@V?$positional_parameter_base@DV?$stream_output_adapter@D@__crt_stdio_output@@@2@@__crt_stdio_output@@AEAA_ND@Z 000000018015cf40 f i libucrt:output.obj
 0001:0015c038       ?type_case_c_tchar@?$output_processor@DV?$stream_output_adapter@D@__crt_stdio_output@@V?$standard_base@DV?$stream_output_adapter@D@__crt_stdio_output@@@2@@__crt_stdio_output@@AEAA_ND@Z 000000018015d038 f i libucrt:output.obj
 0001:0015c0ec       ?type_case_c_tchar@?$output_processor@DV?$string_output_adapter@D@__crt_stdio_output@@V?$format_validation_base@DV?$string_output_adapter@D@__crt_stdio_output@@@2@@__crt_stdio_output@@AEAA_ND@Z 000000018015d0ec f i libucrt:output.obj
 0001:0015c1a0       ?type_case_c_tchar@?$output_processor@DV?$string_output_adapter@D@__crt_stdio_output@@V?$positional_parameter_base@DV?$string_output_adapter@D@__crt_stdio_output@@@2@@__crt_stdio_output@@AEAA_ND@Z 000000018015d1a0 f i libucrt:output.obj
 0001:0015c298       ?type_case_c_tchar@?$output_processor@DV?$string_output_adapter@D@__crt_stdio_output@@V?$standard_base@DV?$string_output_adapter@D@__crt_stdio_output@@@2@@__crt_stdio_output@@AEAA_ND@Z 000000018015d298 f i libucrt:output.obj
 0001:0015c34c       ?type_case_c_tchar@?$output_processor@_WV?$stream_output_adapter@_W@__crt_stdio_output@@V?$format_validation_base@_WV?$stream_output_adapter@_W@__crt_stdio_output@@@2@@__crt_stdio_output@@AEAA_N_W@Z 000000018015d34c f i libucrt:output.obj
 0001:0015c3f4       ?type_case_c_tchar@?$output_processor@_WV?$stream_output_adapter@_W@__crt_stdio_output@@V?$positional_parameter_base@_WV?$stream_output_adapter@_W@__crt_stdio_output@@@2@@__crt_stdio_output@@AEAA_N_W@Z 000000018015d3f4 f i libucrt:output.obj
 0001:0015c4c0       ?type_case_c_tchar@?$output_processor@_WV?$stream_output_adapter@_W@__crt_stdio_output@@V?$standard_base@_WV?$stream_output_adapter@_W@__crt_stdio_output@@@2@@__crt_stdio_output@@AEAA_N_W@Z 000000018015d4c0 f i libucrt:output.obj
 0001:0015c568       ?type_case_c_tchar@?$output_processor@_WV?$string_output_adapter@_W@__crt_stdio_output@@V?$format_validation_base@_WV?$string_output_adapter@_W@__crt_stdio_output@@@2@@__crt_stdio_output@@AEAA_N_W@Z 000000018015d568 f i libucrt:output.obj
 0001:0015c610       ?type_case_c_tchar@?$output_processor@_WV?$string_output_adapter@_W@__crt_stdio_output@@V?$positional_parameter_base@_WV?$string_output_adapter@_W@__crt_stdio_output@@@2@@__crt_stdio_output@@AEAA_N_W@Z 000000018015d610 f i libucrt:output.obj
 0001:0015c6dc       ?type_case_c_tchar@?$output_processor@_WV?$string_output_adapter@_W@__crt_stdio_output@@V?$standard_base@_WV?$string_output_adapter@_W@__crt_stdio_output@@@2@@__crt_stdio_output@@AEAA_N_W@Z 000000018015d6dc f i libucrt:output.obj
 0001:0015c784       ?type_case_d@?$output_processor@DV?$stream_output_adapter@D@__crt_stdio_output@@V?$format_validation_base@DV?$stream_output_adapter@D@__crt_stdio_output@@@2@@__crt_stdio_output@@AEAA_NXZ 000000018015d784 f i libucrt:output.obj
 0001:0015c794       ?type_case_d@?$output_processor@DV?$stream_output_adapter@D@__crt_stdio_output@@V?$positional_parameter_base@DV?$stream_output_adapter@D@__crt_stdio_output@@@2@@__crt_stdio_output@@AEAA_NXZ 000000018015d794 f i libucrt:output.obj
 0001:0015c7a4       ?type_case_d@?$output_processor@DV?$stream_output_adapter@D@__crt_stdio_output@@V?$standard_base@DV?$stream_output_adapter@D@__crt_stdio_output@@@2@@__crt_stdio_output@@AEAA_NXZ 000000018015d7a4 f i libucrt:output.obj
 0001:0015c7b4       ?type_case_d@?$output_processor@DV?$string_output_adapter@D@__crt_stdio_output@@V?$format_validation_base@DV?$string_output_adapter@D@__crt_stdio_output@@@2@@__crt_stdio_output@@AEAA_NXZ 000000018015d7b4 f i libucrt:output.obj
 0001:0015c7c4       ?type_case_d@?$output_processor@DV?$string_output_adapter@D@__crt_stdio_output@@V?$positional_parameter_base@DV?$string_output_adapter@D@__crt_stdio_output@@@2@@__crt_stdio_output@@AEAA_NXZ 000000018015d7c4 f i libucrt:output.obj
 0001:0015c7d4       ?type_case_d@?$output_processor@DV?$string_output_adapter@D@__crt_stdio_output@@V?$standard_base@DV?$string_output_adapter@D@__crt_stdio_output@@@2@@__crt_stdio_output@@AEAA_NXZ 000000018015d7d4 f i libucrt:output.obj
 0001:0015c7e4       ?type_case_d@?$output_processor@_WV?$stream_output_adapter@_W@__crt_stdio_output@@V?$format_validation_base@_WV?$stream_output_adapter@_W@__crt_stdio_output@@@2@@__crt_stdio_output@@AEAA_NXZ 000000018015d7e4 f i libucrt:output.obj
 0001:0015c7f4       ?type_case_d@?$output_processor@_WV?$stream_output_adapter@_W@__crt_stdio_output@@V?$positional_parameter_base@_WV?$stream_output_adapter@_W@__crt_stdio_output@@@2@@__crt_stdio_output@@AEAA_NXZ 000000018015d7f4 f i libucrt:output.obj
 0001:0015c804       ?type_case_d@?$output_processor@_WV?$stream_output_adapter@_W@__crt_stdio_output@@V?$standard_base@_WV?$stream_output_adapter@_W@__crt_stdio_output@@@2@@__crt_stdio_output@@AEAA_NXZ 000000018015d804 f i libucrt:output.obj
 0001:0015c814       ?type_case_d@?$output_processor@_WV?$string_output_adapter@_W@__crt_stdio_output@@V?$format_validation_base@_WV?$string_output_adapter@_W@__crt_stdio_output@@@2@@__crt_stdio_output@@AEAA_NXZ 000000018015d814 f i libucrt:output.obj
 0001:0015c824       ?type_case_d@?$output_processor@_WV?$string_output_adapter@_W@__crt_stdio_output@@V?$positional_parameter_base@_WV?$string_output_adapter@_W@__crt_stdio_output@@@2@@__crt_stdio_output@@AEAA_NXZ 000000018015d824 f i libucrt:output.obj
 0001:0015c834       ?type_case_d@?$output_processor@_WV?$string_output_adapter@_W@__crt_stdio_output@@V?$standard_base@_WV?$string_output_adapter@_W@__crt_stdio_output@@@2@@__crt_stdio_output@@AEAA_NXZ 000000018015d834 f i libucrt:output.obj
 0001:0015c844       ?type_case_integer@?$output_processor@DV?$stream_output_adapter@D@__crt_stdio_output@@V?$format_validation_base@DV?$stream_output_adapter@D@__crt_stdio_output@@@2@@__crt_stdio_output@@AEAA_NI_N@Z 000000018015d844 f i libucrt:output.obj
 0001:0015c9e4       ?type_case_integer@?$output_processor@DV?$stream_output_adapter@D@__crt_stdio_output@@V?$positional_parameter_base@DV?$stream_output_adapter@D@__crt_stdio_output@@@2@@__crt_stdio_output@@AEAA_NI_N@Z 000000018015d9e4 f i libucrt:output.obj
 0001:0015cbe8       ?type_case_integer@?$output_processor@DV?$stream_output_adapter@D@__crt_stdio_output@@V?$standard_base@DV?$stream_output_adapter@D@__crt_stdio_output@@@2@@__crt_stdio_output@@AEAA_NI_N@Z 000000018015dbe8 f i libucrt:output.obj
 0001:0015cd88       ?type_case_integer@?$output_processor@DV?$string_output_adapter@D@__crt_stdio_output@@V?$format_validation_base@DV?$string_output_adapter@D@__crt_stdio_output@@@2@@__crt_stdio_output@@AEAA_NI_N@Z 000000018015dd88 f i libucrt:output.obj
 0001:0015cf28       ?type_case_integer@?$output_processor@DV?$string_output_adapter@D@__crt_stdio_output@@V?$positional_parameter_base@DV?$string_output_adapter@D@__crt_stdio_output@@@2@@__crt_stdio_output@@AEAA_NI_N@Z 000000018015df28 f i libucrt:output.obj
 0001:0015d12c       ?type_case_integer@?$output_processor@DV?$string_output_adapter@D@__crt_stdio_output@@V?$standard_base@DV?$string_output_adapter@D@__crt_stdio_output@@@2@@__crt_stdio_output@@AEAA_NI_N@Z 000000018015e12c f i libucrt:output.obj
 0001:0015d2cc       ?type_case_integer@?$output_processor@_WV?$stream_output_adapter@_W@__crt_stdio_output@@V?$format_validation_base@_WV?$stream_output_adapter@_W@__crt_stdio_output@@@2@@__crt_stdio_output@@AEAA_NI_N@Z 000000018015e2cc f i libucrt:output.obj
 0001:0015d46c       ?type_case_integer@?$output_processor@_WV?$stream_output_adapter@_W@__crt_stdio_output@@V?$positional_parameter_base@_WV?$stream_output_adapter@_W@__crt_stdio_output@@@2@@__crt_stdio_output@@AEAA_NI_N@Z 000000018015e46c f i libucrt:output.obj
 0001:0015d670       ?type_case_integer@?$output_processor@_WV?$stream_output_adapter@_W@__crt_stdio_output@@V?$standard_base@_WV?$stream_output_adapter@_W@__crt_stdio_output@@@2@@__crt_stdio_output@@AEAA_NI_N@Z 000000018015e670 f i libucrt:output.obj
 0001:0015d810       ?type_case_integer@?$output_processor@_WV?$string_output_adapter@_W@__crt_stdio_output@@V?$format_validation_base@_WV?$string_output_adapter@_W@__crt_stdio_output@@@2@@__crt_stdio_output@@AEAA_NI_N@Z 000000018015e810 f i libucrt:output.obj
 0001:0015d9b0       ?type_case_integer@?$output_processor@_WV?$string_output_adapter@_W@__crt_stdio_output@@V?$positional_parameter_base@_WV?$string_output_adapter@_W@__crt_stdio_output@@@2@@__crt_stdio_output@@AEAA_NI_N@Z 000000018015e9b0 f i libucrt:output.obj
 0001:0015dbb4       ?type_case_integer@?$output_processor@_WV?$string_output_adapter@_W@__crt_stdio_output@@V?$standard_base@_WV?$string_output_adapter@_W@__crt_stdio_output@@@2@@__crt_stdio_output@@AEAA_NI_N@Z 000000018015ebb4 f i libucrt:output.obj
 0001:0015dd54       ?type_case_n@?$output_processor@DV?$stream_output_adapter@D@__crt_stdio_output@@V?$format_validation_base@DV?$stream_output_adapter@D@__crt_stdio_output@@@2@@__crt_stdio_output@@AEAA_NXZ 000000018015ed54 f i libucrt:output.obj
 0001:0015de30       ?type_case_n@?$output_processor@DV?$stream_output_adapter@D@__crt_stdio_output@@V?$positional_parameter_base@DV?$stream_output_adapter@D@__crt_stdio_output@@@2@@__crt_stdio_output@@AEAA_NXZ 000000018015ee30 f i libucrt:output.obj
 0001:0015df34       ?type_case_n@?$output_processor@DV?$stream_output_adapter@D@__crt_stdio_output@@V?$standard_base@DV?$stream_output_adapter@D@__crt_stdio_output@@@2@@__crt_stdio_output@@AEAA_NXZ 000000018015ef34 f i libucrt:output.obj
 0001:0015e010       ?type_case_n@?$output_processor@DV?$string_output_adapter@D@__crt_stdio_output@@V?$format_validation_base@DV?$string_output_adapter@D@__crt_stdio_output@@@2@@__crt_stdio_output@@AEAA_NXZ 000000018015f010 f i libucrt:output.obj
 0001:0015e0ec       ?type_case_n@?$output_processor@DV?$string_output_adapter@D@__crt_stdio_output@@V?$positional_parameter_base@DV?$string_output_adapter@D@__crt_stdio_output@@@2@@__crt_stdio_output@@AEAA_NXZ 000000018015f0ec f i libucrt:output.obj
 0001:0015e1f0       ?type_case_n@?$output_processor@DV?$string_output_adapter@D@__crt_stdio_output@@V?$standard_base@DV?$string_output_adapter@D@__crt_stdio_output@@@2@@__crt_stdio_output@@AEAA_NXZ 000000018015f1f0 f i libucrt:output.obj
 0001:0015e2cc       ?type_case_n@?$output_processor@_WV?$stream_output_adapter@_W@__crt_stdio_output@@V?$format_validation_base@_WV?$stream_output_adapter@_W@__crt_stdio_output@@@2@@__crt_stdio_output@@AEAA_NXZ 000000018015f2cc f i libucrt:output.obj
 0001:0015e3a8       ?type_case_n@?$output_processor@_WV?$stream_output_adapter@_W@__crt_stdio_output@@V?$positional_parameter_base@_WV?$stream_output_adapter@_W@__crt_stdio_output@@@2@@__crt_stdio_output@@AEAA_NXZ 000000018015f3a8 f i libucrt:output.obj
 0001:0015e4ac       ?type_case_n@?$output_processor@_WV?$stream_output_adapter@_W@__crt_stdio_output@@V?$standard_base@_WV?$stream_output_adapter@_W@__crt_stdio_output@@@2@@__crt_stdio_output@@AEAA_NXZ 000000018015f4ac f i libucrt:output.obj
 0001:0015e588       ?type_case_n@?$output_processor@_WV?$string_output_adapter@_W@__crt_stdio_output@@V?$format_validation_base@_WV?$string_output_adapter@_W@__crt_stdio_output@@@2@@__crt_stdio_output@@AEAA_NXZ 000000018015f588 f i libucrt:output.obj
 0001:0015e664       ?type_case_n@?$output_processor@_WV?$string_output_adapter@_W@__crt_stdio_output@@V?$positional_parameter_base@_WV?$string_output_adapter@_W@__crt_stdio_output@@@2@@__crt_stdio_output@@AEAA_NXZ 000000018015f664 f i libucrt:output.obj
 0001:0015e768       ?type_case_n@?$output_processor@_WV?$string_output_adapter@_W@__crt_stdio_output@@V?$standard_base@_WV?$string_output_adapter@_W@__crt_stdio_output@@@2@@__crt_stdio_output@@AEAA_NXZ 000000018015f768 f i libucrt:output.obj
 0001:0015e844       ?type_case_o@?$output_processor@DV?$stream_output_adapter@D@__crt_stdio_output@@V?$format_validation_base@DV?$stream_output_adapter@D@__crt_stdio_output@@@2@@__crt_stdio_output@@AEAA_NXZ 000000018015f844 f i libucrt:output.obj
 0001:0015e864       ?type_case_o@?$output_processor@DV?$stream_output_adapter@D@__crt_stdio_output@@V?$positional_parameter_base@DV?$stream_output_adapter@D@__crt_stdio_output@@@2@@__crt_stdio_output@@AEAA_NXZ 000000018015f864 f i libucrt:output.obj
 0001:0015e884       ?type_case_o@?$output_processor@DV?$stream_output_adapter@D@__crt_stdio_output@@V?$standard_base@DV?$stream_output_adapter@D@__crt_stdio_output@@@2@@__crt_stdio_output@@AEAA_NXZ 000000018015f884 f i libucrt:output.obj
 0001:0015e8a4       ?type_case_o@?$output_processor@DV?$string_output_adapter@D@__crt_stdio_output@@V?$format_validation_base@DV?$string_output_adapter@D@__crt_stdio_output@@@2@@__crt_stdio_output@@AEAA_NXZ 000000018015f8a4 f i libucrt:output.obj
 0001:0015e8c4       ?type_case_o@?$output_processor@DV?$string_output_adapter@D@__crt_stdio_output@@V?$positional_parameter_base@DV?$string_output_adapter@D@__crt_stdio_output@@@2@@__crt_stdio_output@@AEAA_NXZ 000000018015f8c4 f i libucrt:output.obj
 0001:0015e8e4       ?type_case_o@?$output_processor@DV?$string_output_adapter@D@__crt_stdio_output@@V?$standard_base@DV?$string_output_adapter@D@__crt_stdio_output@@@2@@__crt_stdio_output@@AEAA_NXZ 000000018015f8e4 f i libucrt:output.obj
 0001:0015e904       ?type_case_o@?$output_processor@_WV?$stream_output_adapter@_W@__crt_stdio_output@@V?$format_validation_base@_WV?$stream_output_adapter@_W@__crt_stdio_output@@@2@@__crt_stdio_output@@AEAA_NXZ 000000018015f904 f i libucrt:output.obj
 0001:0015e924       ?type_case_o@?$output_processor@_WV?$stream_output_adapter@_W@__crt_stdio_output@@V?$positional_parameter_base@_WV?$stream_output_adapter@_W@__crt_stdio_output@@@2@@__crt_stdio_output@@AEAA_NXZ 000000018015f924 f i libucrt:output.obj
 0001:0015e944       ?type_case_o@?$output_processor@_WV?$stream_output_adapter@_W@__crt_stdio_output@@V?$standard_base@_WV?$stream_output_adapter@_W@__crt_stdio_output@@@2@@__crt_stdio_output@@AEAA_NXZ 000000018015f944 f i libucrt:output.obj
 0001:0015e964       ?type_case_o@?$output_processor@_WV?$string_output_adapter@_W@__crt_stdio_output@@V?$format_validation_base@_WV?$string_output_adapter@_W@__crt_stdio_output@@@2@@__crt_stdio_output@@AEAA_NXZ 000000018015f964 f i libucrt:output.obj
 0001:0015e984       ?type_case_o@?$output_processor@_WV?$string_output_adapter@_W@__crt_stdio_output@@V?$positional_parameter_base@_WV?$string_output_adapter@_W@__crt_stdio_output@@@2@@__crt_stdio_output@@AEAA_NXZ 000000018015f984 f i libucrt:output.obj
 0001:0015e9a4       ?type_case_o@?$output_processor@_WV?$string_output_adapter@_W@__crt_stdio_output@@V?$standard_base@_WV?$string_output_adapter@_W@__crt_stdio_output@@@2@@__crt_stdio_output@@AEAA_NXZ 000000018015f9a4 f i libucrt:output.obj
 0001:0015e9c4       ?type_case_p@?$output_processor@DV?$stream_output_adapter@D@__crt_stdio_output@@V?$format_validation_base@DV?$stream_output_adapter@D@__crt_stdio_output@@@2@@__crt_stdio_output@@AEAA_NXZ 000000018015f9c4 f i libucrt:output.obj
 0001:0015e9dc       ?type_case_p@?$output_processor@DV?$stream_output_adapter@D@__crt_stdio_output@@V?$positional_parameter_base@DV?$stream_output_adapter@D@__crt_stdio_output@@@2@@__crt_stdio_output@@AEAA_NXZ 000000018015f9dc f i libucrt:output.obj
 0001:0015e9f4       ?type_case_p@?$output_processor@DV?$stream_output_adapter@D@__crt_stdio_output@@V?$standard_base@DV?$stream_output_adapter@D@__crt_stdio_output@@@2@@__crt_stdio_output@@AEAA_NXZ 000000018015f9f4 f i libucrt:output.obj
 0001:0015ea0c       ?type_case_p@?$output_processor@DV?$string_output_adapter@D@__crt_stdio_output@@V?$format_validation_base@DV?$string_output_adapter@D@__crt_stdio_output@@@2@@__crt_stdio_output@@AEAA_NXZ 000000018015fa0c f i libucrt:output.obj
 0001:0015ea24       ?type_case_p@?$output_processor@DV?$string_output_adapter@D@__crt_stdio_output@@V?$positional_parameter_base@DV?$string_output_adapter@D@__crt_stdio_output@@@2@@__crt_stdio_output@@AEAA_NXZ 000000018015fa24 f i libucrt:output.obj
 0001:0015ea3c       ?type_case_p@?$output_processor@DV?$string_output_adapter@D@__crt_stdio_output@@V?$standard_base@DV?$string_output_adapter@D@__crt_stdio_output@@@2@@__crt_stdio_output@@AEAA_NXZ 000000018015fa3c f i libucrt:output.obj
 0001:0015ea54       ?type_case_p@?$output_processor@_WV?$stream_output_adapter@_W@__crt_stdio_output@@V?$format_validation_base@_WV?$stream_output_adapter@_W@__crt_stdio_output@@@2@@__crt_stdio_output@@AEAA_NXZ 000000018015fa54 f i libucrt:output.obj
 0001:0015ea6c       ?type_case_p@?$output_processor@_WV?$stream_output_adapter@_W@__crt_stdio_output@@V?$positional_parameter_base@_WV?$stream_output_adapter@_W@__crt_stdio_output@@@2@@__crt_stdio_output@@AEAA_NXZ 000000018015fa6c f i libucrt:output.obj
 0001:0015ea84       ?type_case_p@?$output_processor@_WV?$stream_output_adapter@_W@__crt_stdio_output@@V?$standard_base@_WV?$stream_output_adapter@_W@__crt_stdio_output@@@2@@__crt_stdio_output@@AEAA_NXZ 000000018015fa84 f i libucrt:output.obj
 0001:0015ea9c       ?type_case_p@?$output_processor@_WV?$string_output_adapter@_W@__crt_stdio_output@@V?$format_validation_base@_WV?$string_output_adapter@_W@__crt_stdio_output@@@2@@__crt_stdio_output@@AEAA_NXZ 000000018015fa9c f i libucrt:output.obj
 0001:0015eab4       ?type_case_p@?$output_processor@_WV?$string_output_adapter@_W@__crt_stdio_output@@V?$positional_parameter_base@_WV?$string_output_adapter@_W@__crt_stdio_output@@@2@@__crt_stdio_output@@AEAA_NXZ 000000018015fab4 f i libucrt:output.obj
 0001:0015eacc       ?type_case_p@?$output_processor@_WV?$string_output_adapter@_W@__crt_stdio_output@@V?$standard_base@_WV?$string_output_adapter@_W@__crt_stdio_output@@@2@@__crt_stdio_output@@AEAA_NXZ 000000018015facc f i libucrt:output.obj
 0001:0015eae4       ?type_case_s@?$output_processor@DV?$stream_output_adapter@D@__crt_stdio_output@@V?$format_validation_base@DV?$stream_output_adapter@D@__crt_stdio_output@@@2@@__crt_stdio_output@@AEAA_NXZ 000000018015fae4 f i libucrt:output.obj
 0001:0015eb74       ?type_case_s@?$output_processor@DV?$stream_output_adapter@D@__crt_stdio_output@@V?$positional_parameter_base@DV?$stream_output_adapter@D@__crt_stdio_output@@@2@@__crt_stdio_output@@AEAA_NXZ 000000018015fb74 f i libucrt:output.obj
 0001:0015ec1c       ?type_case_s@?$output_processor@DV?$stream_output_adapter@D@__crt_stdio_output@@V?$standard_base@DV?$stream_output_adapter@D@__crt_stdio_output@@@2@@__crt_stdio_output@@AEAA_NXZ 000000018015fc1c f i libucrt:output.obj
 0001:0015ecac       ?type_case_s@?$output_processor@DV?$string_output_adapter@D@__crt_stdio_output@@V?$format_validation_base@DV?$string_output_adapter@D@__crt_stdio_output@@@2@@__crt_stdio_output@@AEAA_NXZ 000000018015fcac f i libucrt:output.obj
 0001:0015ed3c       ?type_case_s@?$output_processor@DV?$string_output_adapter@D@__crt_stdio_output@@V?$positional_parameter_base@DV?$string_output_adapter@D@__crt_stdio_output@@@2@@__crt_stdio_output@@AEAA_NXZ 000000018015fd3c f i libucrt:output.obj
 0001:0015ede4       ?type_case_s@?$output_processor@DV?$string_output_adapter@D@__crt_stdio_output@@V?$standard_base@DV?$string_output_adapter@D@__crt_stdio_output@@@2@@__crt_stdio_output@@AEAA_NXZ 000000018015fde4 f i libucrt:output.obj
 0001:0015ee74       ?type_case_s@?$output_processor@_WV?$stream_output_adapter@_W@__crt_stdio_output@@V?$format_validation_base@_WV?$stream_output_adapter@_W@__crt_stdio_output@@@2@@__crt_stdio_output@@AEAA_NXZ 000000018015fe74 f i libucrt:output.obj
 0001:0015ef3c       ?type_case_s@?$output_processor@_WV?$stream_output_adapter@_W@__crt_stdio_output@@V?$positional_parameter_base@_WV?$stream_output_adapter@_W@__crt_stdio_output@@@2@@__crt_stdio_output@@AEAA_NXZ 000000018015ff3c f i libucrt:output.obj
 0001:0015f01c       ?type_case_s@?$output_processor@_WV?$stream_output_adapter@_W@__crt_stdio_output@@V?$standard_base@_WV?$stream_output_adapter@_W@__crt_stdio_output@@@2@@__crt_stdio_output@@AEAA_NXZ 000000018016001c f i libucrt:output.obj
 0001:0015f0e4       ?type_case_s@?$output_processor@_WV?$string_output_adapter@_W@__crt_stdio_output@@V?$format_validation_base@_WV?$string_output_adapter@_W@__crt_stdio_output@@@2@@__crt_stdio_output@@AEAA_NXZ 00000001801600e4 f i libucrt:output.obj
 0001:0015f1ac       ?type_case_s@?$output_processor@_WV?$string_output_adapter@_W@__crt_stdio_output@@V?$positional_parameter_base@_WV?$string_output_adapter@_W@__crt_stdio_output@@@2@@__crt_stdio_output@@AEAA_NXZ 00000001801601ac f i libucrt:output.obj
 0001:0015f28c       ?type_case_s@?$output_processor@_WV?$string_output_adapter@_W@__crt_stdio_output@@V?$standard_base@_WV?$string_output_adapter@_W@__crt_stdio_output@@@2@@__crt_stdio_output@@AEAA_NXZ 000000018016028c f i libucrt:output.obj
 0001:0015f354       ?type_case_s_compute_narrow_string_length@?$output_processor@DV?$stream_output_adapter@D@__crt_stdio_output@@V?$format_validation_base@DV?$stream_output_adapter@D@__crt_stdio_output@@@2@@__crt_stdio_output@@AEBAHHD@Z 0000000180160354 f i libucrt:output.obj
 0001:0015f360       ?type_case_s_compute_narrow_string_length@?$output_processor@DV?$stream_output_adapter@D@__crt_stdio_output@@V?$positional_parameter_base@DV?$stream_output_adapter@D@__crt_stdio_output@@@2@@__crt_stdio_output@@AEBAHHD@Z 0000000180160360 f i libucrt:output.obj
 0001:0015f36c       ?type_case_s_compute_narrow_string_length@?$output_processor@DV?$stream_output_adapter@D@__crt_stdio_output@@V?$standard_base@DV?$stream_output_adapter@D@__crt_stdio_output@@@2@@__crt_stdio_output@@AEBAHHD@Z 000000018016036c f i libucrt:output.obj
 0001:0015f378       ?type_case_s_compute_narrow_string_length@?$output_processor@DV?$string_output_adapter@D@__crt_stdio_output@@V?$format_validation_base@DV?$string_output_adapter@D@__crt_stdio_output@@@2@@__crt_stdio_output@@AEBAHHD@Z 0000000180160378 f i libucrt:output.obj
 0001:0015f384       ?type_case_s_compute_narrow_string_length@?$output_processor@DV?$string_output_adapter@D@__crt_stdio_output@@V?$positional_parameter_base@DV?$string_output_adapter@D@__crt_stdio_output@@@2@@__crt_stdio_output@@AEBAHHD@Z 0000000180160384 f i libucrt:output.obj
 0001:0015f390       ?type_case_s_compute_narrow_string_length@?$output_processor@DV?$string_output_adapter@D@__crt_stdio_output@@V?$standard_base@DV?$string_output_adapter@D@__crt_stdio_output@@@2@@__crt_stdio_output@@AEBAHHD@Z 0000000180160390 f i libucrt:output.obj
 0001:0015f39c       ?type_case_s_compute_narrow_string_length@?$output_processor@_WV?$stream_output_adapter@_W@__crt_stdio_output@@V?$format_validation_base@_WV?$stream_output_adapter@_W@__crt_stdio_output@@@2@@__crt_stdio_output@@AEBAHH_W@Z 000000018016039c f i libucrt:output.obj
 0001:0015f3e0       ?type_case_s_compute_narrow_string_length@?$output_processor@_WV?$stream_output_adapter@_W@__crt_stdio_output@@V?$positional_parameter_base@_WV?$stream_output_adapter@_W@__crt_stdio_output@@@2@@__crt_stdio_output@@AEBAHH_W@Z 00000001801603e0 f i libucrt:output.obj
 0001:0015f424       ?type_case_s_compute_narrow_string_length@?$output_processor@_WV?$stream_output_adapter@_W@__crt_stdio_output@@V?$standard_base@_WV?$stream_output_adapter@_W@__crt_stdio_output@@@2@@__crt_stdio_output@@AEBAHH_W@Z 0000000180160424 f i libucrt:output.obj
 0001:0015f468       ?type_case_s_compute_narrow_string_length@?$output_processor@_WV?$string_output_adapter@_W@__crt_stdio_output@@V?$format_validation_base@_WV?$string_output_adapter@_W@__crt_stdio_output@@@2@@__crt_stdio_output@@AEBAHH_W@Z 0000000180160468 f i libucrt:output.obj
 0001:0015f4ac       ?type_case_s_compute_narrow_string_length@?$output_processor@_WV?$string_output_adapter@_W@__crt_stdio_output@@V?$positional_parameter_base@_WV?$string_output_adapter@_W@__crt_stdio_output@@@2@@__crt_stdio_output@@AEBAHH_W@Z 00000001801604ac f i libucrt:output.obj
 0001:0015f4f0       ?type_case_s_compute_narrow_string_length@?$output_processor@_WV?$string_output_adapter@_W@__crt_stdio_output@@V?$standard_base@_WV?$string_output_adapter@_W@__crt_stdio_output@@@2@@__crt_stdio_output@@AEBAHH_W@Z 00000001801604f0 f i libucrt:output.obj
 0001:0015f534       ?type_case_u@?$output_processor@DV?$stream_output_adapter@D@__crt_stdio_output@@V?$format_validation_base@DV?$stream_output_adapter@D@__crt_stdio_output@@@2@@__crt_stdio_output@@AEAA_NXZ 0000000180160534 f i libucrt:output.obj
 0001:0015f540       ?type_case_u@?$output_processor@DV?$stream_output_adapter@D@__crt_stdio_output@@V?$positional_parameter_base@DV?$stream_output_adapter@D@__crt_stdio_output@@@2@@__crt_stdio_output@@AEAA_NXZ 0000000180160540 f i libucrt:output.obj
 0001:0015f54c       ?type_case_u@?$output_processor@DV?$stream_output_adapter@D@__crt_stdio_output@@V?$standard_base@DV?$stream_output_adapter@D@__crt_stdio_output@@@2@@__crt_stdio_output@@AEAA_NXZ 000000018016054c f i libucrt:output.obj
 0001:0015f558       ?type_case_u@?$output_processor@DV?$string_output_adapter@D@__crt_stdio_output@@V?$format_validation_base@DV?$string_output_adapter@D@__crt_stdio_output@@@2@@__crt_stdio_output@@AEAA_NXZ 0000000180160558 f i libucrt:output.obj
 0001:0015f564       ?type_case_u@?$output_processor@DV?$string_output_adapter@D@__crt_stdio_output@@V?$positional_parameter_base@DV?$string_output_adapter@D@__crt_stdio_output@@@2@@__crt_stdio_output@@AEAA_NXZ 0000000180160564 f i libucrt:output.obj
 0001:0015f570       ?type_case_u@?$output_processor@DV?$string_output_adapter@D@__crt_stdio_output@@V?$standard_base@DV?$string_output_adapter@D@__crt_stdio_output@@@2@@__crt_stdio_output@@AEAA_NXZ 0000000180160570 f i libucrt:output.obj
 0001:0015f57c       ?type_case_u@?$output_processor@_WV?$stream_output_adapter@_W@__crt_stdio_output@@V?$format_validation_base@_WV?$stream_output_adapter@_W@__crt_stdio_output@@@2@@__crt_stdio_output@@AEAA_NXZ 000000018016057c f i libucrt:output.obj
 0001:0015f588       ?type_case_u@?$output_processor@_WV?$stream_output_adapter@_W@__crt_stdio_output@@V?$positional_parameter_base@_WV?$stream_output_adapter@_W@__crt_stdio_output@@@2@@__crt_stdio_output@@AEAA_NXZ 0000000180160588 f i libucrt:output.obj
 0001:0015f594       ?type_case_u@?$output_processor@_WV?$stream_output_adapter@_W@__crt_stdio_output@@V?$standard_base@_WV?$stream_output_adapter@_W@__crt_stdio_output@@@2@@__crt_stdio_output@@AEAA_NXZ 0000000180160594 f i libucrt:output.obj
 0001:0015f5a0       ?type_case_u@?$output_processor@_WV?$string_output_adapter@_W@__crt_stdio_output@@V?$format_validation_base@_WV?$string_output_adapter@_W@__crt_stdio_output@@@2@@__crt_stdio_output@@AEAA_NXZ 00000001801605a0 f i libucrt:output.obj
 0001:0015f5ac       ?type_case_u@?$output_processor@_WV?$string_output_adapter@_W@__crt_stdio_output@@V?$positional_parameter_base@_WV?$string_output_adapter@_W@__crt_stdio_output@@@2@@__crt_stdio_output@@AEAA_NXZ 00000001801605ac f i libucrt:output.obj
 0001:0015f5b8       ?type_case_u@?$output_processor@_WV?$string_output_adapter@_W@__crt_stdio_output@@V?$standard_base@_WV?$string_output_adapter@_W@__crt_stdio_output@@@2@@__crt_stdio_output@@AEAA_NXZ 00000001801605b8 f i libucrt:output.obj
 0001:0015f5c4       ?type_case_x@?$output_processor@DV?$stream_output_adapter@D@__crt_stdio_output@@V?$format_validation_base@DV?$stream_output_adapter@D@__crt_stdio_output@@@2@@__crt_stdio_output@@AEAA_NXZ 00000001801605c4 f i libucrt:output.obj
 0001:0015f5d0       ?type_case_x@?$output_processor@DV?$stream_output_adapter@D@__crt_stdio_output@@V?$positional_parameter_base@DV?$stream_output_adapter@D@__crt_stdio_output@@@2@@__crt_stdio_output@@AEAA_NXZ 00000001801605d0 f i libucrt:output.obj
 0001:0015f5dc       ?type_case_x@?$output_processor@DV?$stream_output_adapter@D@__crt_stdio_output@@V?$standard_base@DV?$stream_output_adapter@D@__crt_stdio_output@@@2@@__crt_stdio_output@@AEAA_NXZ 00000001801605dc f i libucrt:output.obj
 0001:0015f5e8       ?type_case_x@?$output_processor@DV?$string_output_adapter@D@__crt_stdio_output@@V?$format_validation_base@DV?$string_output_adapter@D@__crt_stdio_output@@@2@@__crt_stdio_output@@AEAA_NXZ 00000001801605e8 f i libucrt:output.obj
 0001:0015f5f4       ?type_case_x@?$output_processor@DV?$string_output_adapter@D@__crt_stdio_output@@V?$positional_parameter_base@DV?$string_output_adapter@D@__crt_stdio_output@@@2@@__crt_stdio_output@@AEAA_NXZ 00000001801605f4 f i libucrt:output.obj
 0001:0015f600       ?type_case_x@?$output_processor@DV?$string_output_adapter@D@__crt_stdio_output@@V?$standard_base@DV?$string_output_adapter@D@__crt_stdio_output@@@2@@__crt_stdio_output@@AEAA_NXZ 0000000180160600 f i libucrt:output.obj
 0001:0015f60c       ?type_case_x@?$output_processor@_WV?$stream_output_adapter@_W@__crt_stdio_output@@V?$format_validation_base@_WV?$stream_output_adapter@_W@__crt_stdio_output@@@2@@__crt_stdio_output@@AEAA_NXZ 000000018016060c f i libucrt:output.obj
 0001:0015f618       ?type_case_x@?$output_processor@_WV?$stream_output_adapter@_W@__crt_stdio_output@@V?$positional_parameter_base@_WV?$stream_output_adapter@_W@__crt_stdio_output@@@2@@__crt_stdio_output@@AEAA_NXZ 0000000180160618 f i libucrt:output.obj
 0001:0015f624       ?type_case_x@?$output_processor@_WV?$stream_output_adapter@_W@__crt_stdio_output@@V?$standard_base@_WV?$stream_output_adapter@_W@__crt_stdio_output@@@2@@__crt_stdio_output@@AEAA_NXZ 0000000180160624 f i libucrt:output.obj
