 PhysX3CookingDEBUG_x64

 Timestamp is 56e826c1 (Tue Mar 15 16:14:09 2016)

 Preferred load address is 0000000180000000

 Start         Length     Name                   Class
 0001:00000000 00007e88H .text                   CODE
 0001:00007e90 0000136dH .text$di                CODE
 0001:00009200 000f8884H .text$mn                CODE
 0001:00101a90 00001016H .text$mn$00             CODE
 0001:00102ab0 00002048H .text$x                 CODE
 0002:00000000 00000109H .CRT$XCA                DATA
 0002:00000110 000001bdH .CRT$XCU                DATA
 0002:000002d0 00000109H .CRT$XCZ                DATA
 0002:000003e0 00000109H .CRT$XIA                DATA
 0002:000004f0 0000012dH .CRT$XIC                DATA
 0002:00000620 00000109H .CRT$XIZ                DATA
 0002:00000730 00000109H .CRT$XPA                DATA
 0002:00000840 0000011bH .CRT$XPX                DATA
 0002:00000960 00000109H .CRT$XPXA               DATA
 0002:00000a70 00000109H .CRT$XPZ                DATA
 0002:00000b80 00000109H .CRT$XTA                DATA
 0002:00000c90 00000109H .CRT$XTZ                DATA
 0002:00000da0 0002a00eH .rdata                  DATA
 0002:0002adb0 00000740H .rdata$r                DATA
 0002:0002b4f0 00000113H .rdata$zETW0            DATA
 0002:0002b603 0000018eH .rdata$zETW1            DATA
 0002:0002b791 00000134H .rdata$zETW2            DATA
 0002:0002b8c5 00000101H .rdata$zETW9            DATA
 0002:0002b9c8 000001dcH .rdata$zzzdbg           DATA
 0002:0002bba8 00000109H .rtc$IAA                DATA
 0002:0002bcb8 00000205H .rtc$IMZ                DATA
 0002:0002bec0 00000109H .rtc$IZZ                DATA
 0002:0002bfd0 00000109H .rtc$TAA                DATA
 0002:0002c0e0 00000205H .rtc$TMZ                DATA
 0002:0002c2e8 00000109H .rtc$TZZ                DATA
 0002:0002c400 00007f25H .xdata                  DATA
 0002:00034328 00000275H .xdata$x                DATA
 0002:000345a0 000001a0H .edata                  DATA
 0003:00000000 00000e05H .data                   DATA
 0003:00000e08 0000063cH .data$r                 DATA
 0003:00001450 00001ff9H .bss                    DATA
 0004:00000000 00009dd4H .pdata                  DATA
 0005:00000000 00000408H .idata$5                DATA
 0005:00000408 00000028H .idata$2                DATA
 0005:00000430 00000014H .idata$3                DATA
 0005:00000448 00000408H .idata$4                DATA
 0005:00000850 0000088dH .idata$6                DATA
 0006:00000000 00000020H .didat$2                DATA
 0006:00000020 00000020H .didat$3                DATA
 0006:00000040 00000468H .didat$4                DATA
 0006:000004a8 00000468H .didat$5                DATA
 0006:00000910 00001961H .didat$6                DATA
 0006:00002278 000004c8H .didat$7                DATA
 0007:00000000 000001ebH .gfids$x                DATA
 0007:000001ec 000001e6H .gfids$y                DATA
 0008:00000000 0000011bH .00cfg                  DATA
 0009:00000000 000001c0H .rsrc$01                DATA
 0009:000001c0 000006a9H .rsrc$02                DATA

  Address         Publics by Value              Rva+Base               Lib:Object

 0000:00000000       __guard_longjmp_count      0000000000000000     <absolute>
 0000:00000000       __guard_longjmp_table      0000000000000000     <absolute>
 0000:00000000       ___safe_se_handler_count   0000000000000000     <absolute>
 0000:00000000       __guard_iat_count          0000000000000000     <absolute>
 0000:00000000       __guard_fids_count         0000000000000000     <absolute>
 0000:00000000       ___safe_se_handler_table   0000000000000000     <absolute>
 0000:00000000       __guard_iat_table          0000000000000000     <absolute>
 0000:00000000       __guard_fids_table         0000000000000000     <absolute>
 0000:00000100       __guard_flags              0000000000000100     <absolute>
 0000:00000000       __ImageBase                0000000180000000     <linker-defined>
 0001:00007700       ?TraceLoggingRegister@__vcrt_trace_logging_provider@@YAJPEBU_TlgProvider_t@1@PEBU_GUID@@P6AX1KE_K2PEAU_EVENT_FILTER_DESCRIPTOR@@PEAX@Z4@Z 0000000180008700 f i libvcruntimed:telemetry.obj
 0001:00007830       ?TraceLoggingSetInformation@__vcrt_trace_logging_provider@@YAJPEBU_TlgProvider_t@1@W4_EVENT_INFO_CLASS@@PEAXK@Z 0000000180008830 f i libvcruntimed:telemetry.obj
 0001:00007890       ?TraceLoggingUnregister@__vcrt_trace_logging_provider@@YAXPEBU_TlgProvider_t@1@@Z 0000000180008890 f i libvcruntimed:telemetry.obj
 0001:000078d0       ?_TlgCreateSz@__vcrt_trace_logging_provider@@YAXPEAU_EVENT_DATA_DESCRIPTOR@@PEBD@Z 00000001800088d0 f i libvcruntimed:telemetry.obj
 0001:00007950       ?_TlgCreateWsz@__vcrt_trace_logging_provider@@YAXPEAU_EVENT_DATA_DESCRIPTOR@@PEB_W@Z 0000000180008950 f i libvcruntimed:telemetry.obj
 0001:000079d0       ?_TlgEnableCallback@__vcrt_trace_logging_provider@@YAXPEBU_GUID@@KE_K1PEAU_EVENT_FILTER_DESCRIPTOR@@PEAX@Z 00000001800089d0 f i libvcruntimed:telemetry.obj
 0001:00007b30       ?_TlgKeywordOn@__vcrt_trace_logging_provider@@YAEPEBU_TlgProvider_t@1@_K@Z 0000000180008b30 f i libvcruntimed:telemetry.obj
 0001:00007bb0       ?_TlgWrite@__vcrt_trace_logging_provider@@YAJPEBU_TlgProvider_t@1@PEFBXPEBU_GUID@@2IPEAU_EVENT_DATA_DESCRIPTOR@@@Z 0000000180008bb0 f i libvcruntimed:telemetry.obj
 0001:00009200       PxSetPhysXCookingDelayLoadHook 000000018000a200 f   WindowsCookingDelayLoadHook.obj
 0001:00009220       ?delayHook@@YAP6A_JXZIPEAUDelayLoadInfo@@@Z 000000018000a220 f   WindowsCookingDelayLoadHook.obj
 0001:000092d0       ?loadLibrary@shdfnd@physx@@YAPEAUHINSTANCE__@@PEBD@Z 000000018000a2d0 f i WindowsCookingDelayLoadHook.obj
 0001:000092f0       ?physXCommonDliNotePreLoadLibrary@shdfnd@physx@@YAP6A_JXZPEBDPEBVPxDelayLoadHook@2@@Z 000000018000a2f0 f i WindowsCookingDelayLoadHook.obj
 0001:00009850       ?strstr@@YAPEADQEADQEBD@Z  000000018000a850 f i WindowsCookingDelayLoadHook.obj
 0001:00009880       ?saveHeightField@physx@@YA_NAEBVHeightField@Gu@1@AEAVPxOutputStream@1@_N@Z 000000018000a880 f   HeightFieldCooking.obj
 0001:00009da0       ??B?$PxFlags@W4Enum@PxHeightFieldFlag@physx@@G@physx@@QEBAGXZ 000000018000ada0 f i HeightFieldCooking.obj
 0001:00009dc0       ?__empty_global_delete@@YAXPEAX@Z 000000018000adc0 f i HeightFieldCooking.obj
 0001:00009dd0       ?__global_delete@@YAXPEAX_K@Z 000000018000add0 f i HeightFieldCooking.obj
 0001:00009dd0       ?__global_array_delete@@YAXPEAX_K@Z 000000018000add0 f i HeightFieldCooking.obj
 0001:00009dd0       ?__empty_global_delete@@YAXPEAX_K@Z 000000018000add0 f i HeightFieldCooking.obj
 0001:00009de0       ?getData@HeightField@Gu@physx@@QEBAAEBUHeightFieldData@23@XZ 000000018000ade0 f i HeightFieldCooking.obj
 0001:00009e00       ?buildFromTriangles@RTreeCooker@physx@@SAXAEAURTree@Gu@2@PEBVPxVec3@2@IPEBGPEBIIAEAV?$Array@IVNamedAllocator@shdfnd@physx@@@shdfnd@2@PEAURemapCallback@12@MW4Enum@PxMeshCookingHint@2@@Z 000000018000ae00 f   RTreeCooking.obj
 0001:0000bc70       ??$PX_UNUSED@I@@YAXAEBI@Z  000000018000cc70 f i RTreeCooking.obj
 0001:0000bc80       ??$PX_UNUSED@M@@YAXAEBM@Z  000000018000cc80 f i RTreeCooking.obj
 0001:0000bc90       ??$PX_UNUSED@PEAURTreeNodeNQ@physx@@@@YAXAEBQEAURTreeNodeNQ@physx@@@Z 000000018000cc90 f i RTreeCooking.obj
 0001:0000bca0       ??$PX_UNUSED@URTreeNodeNQ@physx@@@@YAXAEBURTreeNodeNQ@physx@@@Z 000000018000cca0 f i RTreeCooking.obj
 0001:0000bcb0       ??$PxMax@H@physx@@YAHHH@Z  000000018000ccb0 f i RTreeCooking.obj
 0001:0000bcf0       ??$PxMax@I@physx@@YAIII@Z  000000018000ccf0 f i RTreeCooking.obj
 0001:0000bd30       ??$PxMax@M@physx@@YAMMM@Z  000000018000cd30 f i RTreeCooking.obj
 0001:0000bd60       ??$PxMin@I@physx@@YAIII@Z  000000018000cd60 f i RTreeCooking.obj
 0001:0000bda0       ??$PxMin@M@physx@@YAMMM@Z  000000018000cda0 f i RTreeCooking.obj
 0001:0000bdd0       ??$median3@I$$CBU?$Less@I@shdfnd@physx@@@internal@shdfnd@physx@@YAXPEAIHHAEBU?$Less@I@12@@Z 000000018000cdd0 f i RTreeCooking.obj
 0001:0000bf90       ??$median3@I$$CBUSortBoundsPredicate@physx@@@internal@shdfnd@physx@@YAXPEAIHHAEBUSortBoundsPredicate@2@@Z 000000018000cf90 f i RTreeCooking.obj
 0001:0000c150       ??$partition@I$$CBU?$Less@I@shdfnd@physx@@@internal@shdfnd@physx@@YAHPEAIHHAEBU?$Less@I@12@@Z 000000018000d150 f i RTreeCooking.obj
 0001:0000c3c0       ??$partition@I$$CBUSortBoundsPredicate@physx@@@internal@shdfnd@physx@@YAHPEAIHHAEBUSortBoundsPredicate@2@@Z 000000018000d3c0 f i RTreeCooking.obj
 0001:0000c630       ??$partition@UBoundsLTE@physx@@@quickSelect@physx@@YAIPEIAIIIIAEBUBoundsLTE@1@@Z 000000018000d630 f i RTreeCooking.obj
 0001:0000ca50       ??$quickSelectFirstK@UBoundsLTE@physx@@@quickSelect@physx@@YAXPEIAIIIIAEBUBoundsLTE@1@@Z 000000018000da50 f i RTreeCooking.obj
 0001:0000cc00       ??$smallSort@I$$CBU?$Less@I@shdfnd@physx@@@internal@shdfnd@physx@@YAXPEAIHHAEBU?$Less@I@12@@Z 000000018000dc00 f i RTreeCooking.obj
 0001:0000cd10       ??$smallSort@I$$CBUSortBoundsPredicate@physx@@@internal@shdfnd@physx@@YAXPEAIHHAEBUSortBoundsPredicate@2@@Z 000000018000dd10 f i RTreeCooking.obj
 0001:0000ce20       ??$sort@I@shdfnd@physx@@YAXPEAII@Z 000000018000de20 f i RTreeCooking.obj
 0001:0000ce80       ??$sort@IU?$Less@I@shdfnd@physx@@VNamedAllocator@23@@shdfnd@physx@@YAXPEAIIAEBU?$Less@I@01@AEBVNamedAllocator@01@I@Z 000000018000de80 f i RTreeCooking.obj
 0001:0000d240       ??$sort@IUSortBoundsPredicate@physx@@@shdfnd@physx@@YAXPEAIIAEBUSortBoundsPredicate@1@@Z 000000018000e240 f i RTreeCooking.obj
 0001:0000d2a0       ??$sort@IUSortBoundsPredicate@physx@@VNamedAllocator@shdfnd@2@@shdfnd@physx@@YAXPEAIIAEBUSortBoundsPredicate@1@AEBVNamedAllocator@01@I@Z 000000018000e2a0 f i RTreeCooking.obj
 0001:0000d660       ??$swap@I@shdfnd@physx@@YAXAEAI0@Z 000000018000e660 f i RTreeCooking.obj
 0001:0000d6b0       ??0?$AlignedAllocator@$0IA@VAllocator@shdfnd@physx@@@shdfnd@physx@@QEAA@AEBVAllocator@12@@Z 000000018000e6b0 f i RTreeCooking.obj
 0001:0000d6d0       ??0?$Array@IVNamedAllocator@shdfnd@physx@@@shdfnd@physx@@QEAA@IAEBIAEBVNamedAllocator@12@@Z 000000018000e6d0 f i RTreeCooking.obj
 0001:0000d760       ??0?$Array@UInterval@physx@@V?$InlineAllocator@$0CA@VNamedAllocator@shdfnd@physx@@@shdfnd@2@@shdfnd@physx@@QEAA@AEBV?$InlineAllocator@$0CA@VNamedAllocator@shdfnd@physx@@@12@@Z 000000018000e760 f i RTreeCooking.obj
 0001:0000d7c0       ??0?$Array@UPxBounds3V@physx@@VNamedAllocator@shdfnd@2@@shdfnd@physx@@QEAA@AEBVNamedAllocator@12@@Z 000000018000e7c0 f i RTreeCooking.obj
 0001:0000d820       ??0?$Array@URTreeNodeNQ@physx@@VNamedAllocator@shdfnd@2@@shdfnd@physx@@QEAA@AEBVNamedAllocator@12@@Z 000000018000e820 f i RTreeCooking.obj
 0001:0000d880       ??0?$Array@URTreeNodeQ@Gu@physx@@VNamedAllocator@shdfnd@3@@shdfnd@physx@@QEAA@AEBVNamedAllocator@12@@Z 000000018000e880 f i RTreeCooking.obj
 0001:0000d8e0       ??0?$Array@VPxVec3@physx@@VNamedAllocator@shdfnd@2@@shdfnd@physx@@QEAA@AEBVNamedAllocator@12@@Z 000000018000e8e0 f i RTreeCooking.obj
 0001:0000d940       ??0?$InlineAllocator@$0CA@VNamedAllocator@shdfnd@physx@@@shdfnd@physx@@QEAA@AEBV012@@Z 000000018000e940 f i RTreeCooking.obj
 0001:0000d980       ??0?$InlineAllocator@$0CA@VNamedAllocator@shdfnd@physx@@@shdfnd@physx@@QEAA@AEBVNamedAllocator@12@@Z 000000018000e980 f i RTreeCooking.obj
 0001:0000d9c0       ??0?$InlineArray@UInterval@physx@@$03VNamedAllocator@shdfnd@2@@shdfnd@physx@@QEAA@AEBVNamedAllocator@12@@Z 000000018000e9c0 f i RTreeCooking.obj
 0001:0000da40       ??0?$ScopedPointer@HVTempAllocator@shdfnd@physx@@@shdfnd@physx@@QEAA@XZ 000000018000ea40 f i RTreeCooking.obj
 0001:0000da70       ??0?$Stack@VNamedAllocator@shdfnd@physx@@@internal@shdfnd@physx@@QEAA@PEAHIAEBVNamedAllocator@23@@Z 000000018000ea70 f i RTreeCooking.obj
 0001:0000daf0       ??0BoundsLTE@physx@@QEAA@IPEBVPxVec3@1@@Z 000000018000eaf0 f i RTreeCooking.obj
 0001:0000db30       ??0Interval@physx@@QEAA@II@Z 000000018000eb30 f i RTreeCooking.obj
 0001:0000db70       ??0PxBounds3@physx@@QEAA@AEBV01@@Z 000000018000eb70 f i RTreeCooking.obj
 0001:0000dbd0       ??0PxBounds3@physx@@QEAA@AEBVPxVec3@1@0@Z 000000018000ebd0 f i RTreeCooking.obj
 0001:0000dc30       ??0PxBounds3V@physx@@QEAA@AEAT__m128@@0@Z 000000018000ec30 f i RTreeCooking.obj
 0001:0000dc80       ??0PxBounds3V@physx@@QEAA@UU@01@@Z 000000018000ec80 f i RTreeCooking.obj
 0001:0000dca0       ??0PxVec3@physx@@QEAA@AEBV01@@Z 000000018000eca0 f i RTreeCooking.obj
 0001:0000dd00       ??0PxVec3@physx@@QEAA@M@Z  000000018000ed00 f i RTreeCooking.obj
 0001:0000dd50       ??0PxVec3@physx@@QEAA@MMM@Z 000000018000ed50 f i RTreeCooking.obj
 0001:0000ddb0       ??0PxVec4@physx@@QEAA@AEBVPxVec3@1@M@Z 000000018000edb0 f i RTreeCooking.obj
 0001:0000de30       ??0PxVec4@physx@@QEAA@M@Z  000000018000ee30 f i RTreeCooking.obj
 0001:0000dea0       ??0PxVec4@physx@@QEAA@MMMM@Z 000000018000eea0 f i RTreeCooking.obj
 0001:0000df20       ??0RTreeNodeNQ@physx@@QEAA@AEBU01@@Z 000000018000ef20 f i RTreeCooking.obj
 0001:0000df80       ??0RTreeNodeNQ@physx@@QEAA@XZ 000000018000ef80 f i RTreeCooking.obj
 0001:0000dfd0       ??0SortBoundsPredicate@physx@@QEAA@IPEBUPxBounds3V@1@@Z 000000018000efd0 f i RTreeCooking.obj
 0001:0000e010       ??0SubSortQuick@physx@@QEAA@PEAIPEBUPxBounds3V@1@IM@Z 000000018000f010 f i RTreeCooking.obj
 0001:0000e1c0       ??0SubSortSAH@physx@@QEAA@PEAIPEBUPxBounds3V@1@IPEBI22222M@Z 000000018000f1c0 f i RTreeCooking.obj
 0001:0000e430       ??1?$Array@IVNamedAllocator@shdfnd@physx@@@shdfnd@physx@@QEAA@XZ 000000018000f430 f i RTreeCooking.obj
 0001:0000e4c0       ??1?$Array@UInterval@physx@@V?$InlineAllocator@$0CA@VNamedAllocator@shdfnd@physx@@@shdfnd@2@@shdfnd@physx@@QEAA@XZ 000000018000f4c0 f i RTreeCooking.obj
 0001:0000e550       ??1?$Array@UPxBounds3V@physx@@VNamedAllocator@shdfnd@2@@shdfnd@physx@@QEAA@XZ 000000018000f550 f i RTreeCooking.obj
 0001:0000e5e0       ??1?$Array@URTreeNodeNQ@physx@@VNamedAllocator@shdfnd@2@@shdfnd@physx@@QEAA@XZ 000000018000f5e0 f i RTreeCooking.obj
 0001:0000e670       ??1?$Array@URTreeNodeQ@Gu@physx@@VNamedAllocator@shdfnd@3@@shdfnd@physx@@QEAA@XZ 000000018000f670 f i RTreeCooking.obj
 0001:0000e700       ??1?$Array@VPxVec3@physx@@VNamedAllocator@shdfnd@2@@shdfnd@physx@@QEAA@XZ 000000018000f700 f i RTreeCooking.obj
 0001:0000e790       ??1?$InlineAllocator@$0CA@VNamedAllocator@shdfnd@physx@@@shdfnd@physx@@QEAA@XZ 000000018000f790 f i RTreeCooking.obj
 0001:0000e7b0       ??1?$InlineArray@UInterval@physx@@$03VNamedAllocator@shdfnd@2@@shdfnd@physx@@QEAA@XZ 000000018000f7b0 f i RTreeCooking.obj
 0001:0000e7d0       ??1?$ScopedPointer@HVTempAllocator@shdfnd@physx@@@shdfnd@physx@@QEAA@XZ 000000018000f7d0 f i RTreeCooking.obj
 0001:0000e810       ??1?$Stack@VNamedAllocator@shdfnd@physx@@@internal@shdfnd@physx@@QEAA@XZ 000000018000f810 f i RTreeCooking.obj
 0001:0000e860       ??1SubSortQuick@physx@@QEAA@XZ 000000018000f860 f i RTreeCooking.obj
 0001:0000e890       ??1SubSortSAH@physx@@QEAA@XZ 000000018000f890 f i RTreeCooking.obj
 0001:0000e960       ??2@YAPEAX_KPEAX@Z         000000018000f960 f i RTreeCooking.obj
 0001:0000e980       ??4PxVec3@physx@@QEAAAEAV01@AEBV01@@Z 000000018000f980 f i RTreeCooking.obj
 0001:0000e9e0       ??4PxVec4@physx@@QEAAAEAV01@AEBV01@@Z 000000018000f9e0 f i RTreeCooking.obj
 0001:0000ea60       ??A?$Array@IVNamedAllocator@shdfnd@physx@@@shdfnd@physx@@QEAAAEAII@Z 000000018000fa60 f i RTreeCooking.obj
 0001:0000eb00       ??A?$Array@UInterval@physx@@V?$InlineAllocator@$0CA@VNamedAllocator@shdfnd@physx@@@shdfnd@2@@shdfnd@physx@@QEAAAEAUInterval@2@I@Z 000000018000fb00 f i RTreeCooking.obj
 0001:0000eba0       ??A?$Array@URTreeNodeNQ@physx@@VNamedAllocator@shdfnd@2@@shdfnd@physx@@QEAAAEAURTreeNodeNQ@2@I@Z 000000018000fba0 f i RTreeCooking.obj
 0001:0000ec40       ??A?$Array@URTreeNodeQ@Gu@physx@@VNamedAllocator@shdfnd@3@@shdfnd@physx@@QEAAAEAURTreeNodeQ@Gu@2@I@Z 000000018000fc40 f i RTreeCooking.obj
 0001:0000ece0       ??APxVec3@physx@@QEBAAEBMI@Z 000000018000fce0 f i RTreeCooking.obj
 0001:0000ed70       ??B?$ScopedPointer@HVTempAllocator@shdfnd@physx@@@shdfnd@physx@@QEBAPEAHXZ 000000018000fd70 f i RTreeCooking.obj
 0001:0000ed90       ??GPxVec4@physx@@QEBA?AV01@AEBV01@@Z 000000018000fd90 f i RTreeCooking.obj
 0001:0000ee40       ??HPxVec3@physx@@QEBA?AV01@AEBV01@@Z 000000018000fe40 f i RTreeCooking.obj
 0001:0000eee0       ??KPxVec4@physx@@QEBA?AV01@M@Z 000000018000fee0 f i RTreeCooking.obj
 0001:0000efa0       ??R?$Less@I@shdfnd@physx@@QEBA_NAEBI0@Z 000000018000ffa0 f i RTreeCooking.obj
 0001:0000eff0       ??RBoundsLTE@physx@@QEBA_NAEBI0@Z 000000018000fff0 f i RTreeCooking.obj
 0001:0000f0b0       ??RSortBoundsPredicate@physx@@QEBA_NAEBI0@Z 00000001800100b0 f i RTreeCooking.obj
 0001:0000f230       ?FLoad@aos@shdfnd@physx@@YA?AT__m128@@M@Z 0000000180010230 f i RTreeCooking.obj
 0001:0000f260       ?FMax@aos@shdfnd@physx@@YA?AT__m128@@XZ 0000000180010260 f i RTreeCooking.obj
 0001:0000f290       ?FNegMax@aos@shdfnd@physx@@YA?AT__m128@@XZ 0000000180010290 f i RTreeCooking.obj
 0001:0000f2c0       ?FStore@aos@shdfnd@physx@@YAXT__m128@@PEIAM@Z 00000001800102c0 f i RTreeCooking.obj
 0001:0000f2f0       ?PxAbs@physx@@YAHH@Z       00000001800102f0 f i RTreeCooking.obj
 0001:0000f310       ?PxIsFinite@physx@@YA_NM@Z 0000000180010310 f i RTreeCooking.obj
 0001:0000f330       ?PxMemCopy@physx@@YAPEAXPEIAXPEIBXI@Z 0000000180010330 f i RTreeCooking.obj
 0001:0000f370       ?V3Add@aos@shdfnd@physx@@YA?AT__m128@@T4@0@Z 0000000180010370 f i RTreeCooking.obj
 0001:0000f3b0       ?V3Dot@aos@shdfnd@physx@@YA?AT__m128@@T4@0@Z 00000001800103b0 f i RTreeCooking.obj
 0001:0000f4a0       ?V3Load@aos@shdfnd@physx@@YA?AT__m128@@M@Z 00000001800104a0 f i RTreeCooking.obj
 0001:0000f4f0       ?V3LoadU@aos@shdfnd@physx@@YA?AT__m128@@AEBVPxVec3@3@@Z 00000001800104f0 f i RTreeCooking.obj
 0001:0000f550       ?V3Max@aos@shdfnd@physx@@YA?AT__m128@@T4@0@Z 0000000180010550 f i RTreeCooking.obj
 0001:0000f590       ?V3Min@aos@shdfnd@physx@@YA?AT__m128@@T4@0@Z 0000000180010590 f i RTreeCooking.obj
 0001:0000f5d0       ?V3PermZXY@aos@shdfnd@physx@@YA?AT__m128@@T4@@Z 00000001800105d0 f i RTreeCooking.obj
 0001:0000f600       ?V3ReadXYZ@aos@shdfnd@physx@@YAAEBVPxVec3@3@AEBT__m128@@@Z 0000000180010600 f i RTreeCooking.obj
 0001:0000f610       ?V3Splat@aos@shdfnd@physx@@YA?AT__m128@@T4@@Z 0000000180010610 f i RTreeCooking.obj
 0001:0000f680       ?V3StoreA@aos@shdfnd@physx@@YAXT__m128@@AEAVPxVec3@3@@Z 0000000180010680 f i RTreeCooking.obj
 0001:0000f700       ?V3Sub@aos@shdfnd@physx@@YA?AT__m128@@T4@0@Z 0000000180010700 f i RTreeCooking.obj
 0001:0000f740       ?V3Zero@aos@shdfnd@physx@@YA?AT__m128@@XZ 0000000180010740 f i RTreeCooking.obj
 0001:0000f760       ?V4ClearW@aos@shdfnd@physx@@YA?AT__m128@@T4@@Z 0000000180010760 f i RTreeCooking.obj
 0001:0000f790       ?V4Load@aos@shdfnd@physx@@YA?AT__m128@@M@Z 0000000180010790 f i RTreeCooking.obj
 0001:0000f7c0       ?Vec3V_From_FloatV@aos@shdfnd@physx@@YA?AT__m128@@T4@@Z 00000001800107c0 f i RTreeCooking.obj
 0001:0000f820       ?Vec3V_From_Vec4V@aos@shdfnd@physx@@YA?AT__m128@@T4@@Z 0000000180010820 f i RTreeCooking.obj
 0001:0000f860       ?Vec4V_From_FloatV@aos@shdfnd@physx@@YA?AT__m128@@T4@@Z 0000000180010860 f i RTreeCooking.obj
 0001:0000f880       ?allocate@?$AlignedAllocator@$0IA@VAllocator@shdfnd@physx@@@shdfnd@physx@@QEAAPEAX_KPEBDH@Z 0000000180010880 f i RTreeCooking.obj
 0001:0000f950       ?allocate@?$Array@IVNamedAllocator@shdfnd@physx@@@shdfnd@physx@@IEAAPEAII@Z 0000000180010950 f i RTreeCooking.obj
 0001:0000fa00       ?allocate@?$Array@UInterval@physx@@V?$InlineAllocator@$0CA@VNamedAllocator@shdfnd@physx@@@shdfnd@2@@shdfnd@physx@@IEAAPEAUInterval@3@I@Z 0000000180010a00 f i RTreeCooking.obj
 0001:0000fab0       ?allocate@?$Array@UPxBounds3V@physx@@VNamedAllocator@shdfnd@2@@shdfnd@physx@@IEAAPEAUPxBounds3V@3@I@Z 0000000180010ab0 f i RTreeCooking.obj
 0001:0000fb60       ?allocate@?$Array@URTreeNodeNQ@physx@@VNamedAllocator@shdfnd@2@@shdfnd@physx@@IEAAPEAURTreeNodeNQ@3@I@Z 0000000180010b60 f i RTreeCooking.obj
 0001:0000fc10       ?allocate@?$Array@URTreeNodeQ@Gu@physx@@VNamedAllocator@shdfnd@3@@shdfnd@physx@@IEAAPEAURTreeNodeQ@Gu@3@I@Z 0000000180010c10 f i RTreeCooking.obj
 0001:0000fcc0       ?allocate@?$Array@VPxVec3@physx@@VNamedAllocator@shdfnd@2@@shdfnd@physx@@IEAAPEAVPxVec3@3@I@Z 0000000180010cc0 f i RTreeCooking.obj
 0001:0000fd70       ?allocate@?$InlineAllocator@$0CA@VNamedAllocator@shdfnd@physx@@@shdfnd@physx@@QEAAPEAXIPEBDH@Z 0000000180010d70 f i RTreeCooking.obj
 0001:0000fdf0       ?begin@?$Array@IVNamedAllocator@shdfnd@physx@@@shdfnd@physx@@QEAAPEAIXZ 0000000180010df0 f i RTreeCooking.obj
 0001:0000fe10       ?begin@?$Array@UPxBounds3V@physx@@VNamedAllocator@shdfnd@2@@shdfnd@physx@@QEAAPEAUPxBounds3V@3@XZ 0000000180010e10 f i RTreeCooking.obj
 0001:0000fe30       ?begin@?$Array@VPxVec3@physx@@VNamedAllocator@shdfnd@2@@shdfnd@physx@@QEAAPEAVPxVec3@3@XZ 0000000180010e30 f i RTreeCooking.obj
 0001:0000fe50       ?capacity@?$Array@IVNamedAllocator@shdfnd@physx@@@shdfnd@physx@@QEBAIXZ 0000000180010e50 f i RTreeCooking.obj
 0001:0000fe70       ?capacity@?$Array@UInterval@physx@@V?$InlineAllocator@$0CA@VNamedAllocator@shdfnd@physx@@@shdfnd@2@@shdfnd@physx@@QEBAIXZ 0000000180010e70 f i RTreeCooking.obj
 0001:0000fe90       ?capacity@?$Array@UPxBounds3V@physx@@VNamedAllocator@shdfnd@2@@shdfnd@physx@@QEBAIXZ 0000000180010e90 f i RTreeCooking.obj
 0001:0000feb0       ?capacity@?$Array@URTreeNodeNQ@physx@@VNamedAllocator@shdfnd@2@@shdfnd@physx@@QEBAIXZ 0000000180010eb0 f i RTreeCooking.obj
 0001:0000fed0       ?capacity@?$Array@URTreeNodeQ@Gu@physx@@VNamedAllocator@shdfnd@3@@shdfnd@physx@@QEBAIXZ 0000000180010ed0 f i RTreeCooking.obj
 0001:0000fef0       ?capacity@?$Array@VPxVec3@physx@@VNamedAllocator@shdfnd@2@@shdfnd@physx@@QEBAIXZ 0000000180010ef0 f i RTreeCooking.obj
 0001:0000ff10       ?capacityIncrement@?$Array@IVNamedAllocator@shdfnd@physx@@@shdfnd@physx@@IEBAIXZ 0000000180010f10 f i RTreeCooking.obj
 0001:0000ff60       ?capacityIncrement@?$Array@UInterval@physx@@V?$InlineAllocator@$0CA@VNamedAllocator@shdfnd@physx@@@shdfnd@2@@shdfnd@physx@@IEBAIXZ 0000000180010f60 f i RTreeCooking.obj
 0001:0000ffb0       ?capacityIncrement@?$Array@UPxBounds3V@physx@@VNamedAllocator@shdfnd@2@@shdfnd@physx@@IEBAIXZ 0000000180010fb0 f i RTreeCooking.obj
 0001:00010000       ?capacityIncrement@?$Array@URTreeNodeNQ@physx@@VNamedAllocator@shdfnd@2@@shdfnd@physx@@IEBAIXZ 0000000180011000 f i RTreeCooking.obj
 0001:00010050       ?capacityIncrement@?$Array@URTreeNodeQ@Gu@physx@@VNamedAllocator@shdfnd@3@@shdfnd@physx@@IEBAIXZ 0000000180011050 f i RTreeCooking.obj
 0001:000100a0       ?capacityIncrement@?$Array@VPxVec3@physx@@VNamedAllocator@shdfnd@2@@shdfnd@physx@@IEBAIXZ 00000001800110a0 f i RTreeCooking.obj
 0001:000100f0       ?computeSA@SubSortSAH@physx@@QEAAMPEBIAEBUInterval@2@@Z 00000001800110f0 f i RTreeCooking.obj
 0001:00010380       ?copy@?$Array@IVNamedAllocator@shdfnd@physx@@@shdfnd@physx@@KAXPEAI0PEBI@Z 0000000180011380 f i RTreeCooking.obj
 0001:00010430       ?copy@?$Array@UInterval@physx@@V?$InlineAllocator@$0CA@VNamedAllocator@shdfnd@physx@@@shdfnd@2@@shdfnd@physx@@KAXPEAUInterval@3@0PEBU43@@Z 0000000180011430 f i RTreeCooking.obj
 0001:000104e0       ?copy@?$Array@UPxBounds3V@physx@@VNamedAllocator@shdfnd@2@@shdfnd@physx@@KAXPEAUPxBounds3V@3@0PEBU43@@Z 00000001800114e0 f i RTreeCooking.obj
 0001:00010590       ?copy@?$Array@URTreeNodeNQ@physx@@VNamedAllocator@shdfnd@2@@shdfnd@physx@@KAXPEAURTreeNodeNQ@3@0PEBU43@@Z 0000000180011590 f i RTreeCooking.obj
 0001:00010630       ?copy@?$Array@URTreeNodeQ@Gu@physx@@VNamedAllocator@shdfnd@3@@shdfnd@physx@@KAXPEAURTreeNodeQ@Gu@3@0PEBU453@@Z 0000000180011630 f i RTreeCooking.obj
 0001:000106e0       ?copy@?$Array@VPxVec3@physx@@VNamedAllocator@shdfnd@2@@shdfnd@physx@@KAXPEAVPxVec3@3@0PEBV43@@Z 00000001800116e0 f i RTreeCooking.obj
 0001:00010780       ?create@?$Array@IVNamedAllocator@shdfnd@physx@@@shdfnd@physx@@KAXPEAI0AEBI@Z 0000000180011780 f i RTreeCooking.obj
 0001:00010820       ?deallocate@?$Array@IVNamedAllocator@shdfnd@physx@@@shdfnd@physx@@IEAAXPEAX@Z 0000000180011820 f i RTreeCooking.obj
 0001:00010850       ?deallocate@?$Array@UInterval@physx@@V?$InlineAllocator@$0CA@VNamedAllocator@shdfnd@physx@@@shdfnd@2@@shdfnd@physx@@IEAAXPEAX@Z 0000000180011850 f i RTreeCooking.obj
 0001:00010880       ?deallocate@?$Array@UPxBounds3V@physx@@VNamedAllocator@shdfnd@2@@shdfnd@physx@@IEAAXPEAX@Z 0000000180011880 f i RTreeCooking.obj
 0001:000108b0       ?deallocate@?$Array@URTreeNodeNQ@physx@@VNamedAllocator@shdfnd@2@@shdfnd@physx@@IEAAXPEAX@Z 00000001800118b0 f i RTreeCooking.obj
 0001:000108e0       ?deallocate@?$Array@URTreeNodeQ@Gu@physx@@VNamedAllocator@shdfnd@3@@shdfnd@physx@@IEAAXPEAX@Z 00000001800118e0 f i RTreeCooking.obj
 0001:00010910       ?deallocate@?$Array@VPxVec3@physx@@VNamedAllocator@shdfnd@2@@shdfnd@physx@@IEAAXPEAX@Z 0000000180011910 f i RTreeCooking.obj
 0001:00010940       ?deallocate@?$InlineAllocator@$0CA@VNamedAllocator@shdfnd@physx@@@shdfnd@physx@@QEAAXPEAX@Z 0000000180011940 f i RTreeCooking.obj
 0001:00010990       ?destroy@?$Array@IVNamedAllocator@shdfnd@physx@@@shdfnd@physx@@KAXPEAI0@Z 0000000180011990 f i RTreeCooking.obj
 0001:000109d0       ?destroy@?$Array@UInterval@physx@@V?$InlineAllocator@$0CA@VNamedAllocator@shdfnd@physx@@@shdfnd@2@@shdfnd@physx@@KAXPEAUInterval@3@0@Z 00000001800119d0 f i RTreeCooking.obj
 0001:00010a10       ?destroy@?$Array@UPxBounds3V@physx@@VNamedAllocator@shdfnd@2@@shdfnd@physx@@KAXPEAUPxBounds3V@3@0@Z 0000000180011a10 f i RTreeCooking.obj
 0001:00010a50       ?destroy@?$Array@URTreeNodeNQ@physx@@VNamedAllocator@shdfnd@2@@shdfnd@physx@@KAXPEAURTreeNodeNQ@3@0@Z 0000000180011a50 f i RTreeCooking.obj
 0001:00010a90       ?destroy@?$Array@URTreeNodeQ@Gu@physx@@VNamedAllocator@shdfnd@3@@shdfnd@physx@@KAXPEAURTreeNodeQ@Gu@3@0@Z 0000000180011a90 f i RTreeCooking.obj
 0001:00010ad0       ?destroy@?$Array@VPxVec3@physx@@VNamedAllocator@shdfnd@2@@shdfnd@physx@@KAXPEAVPxVec3@3@0@Z 0000000180011ad0 f i RTreeCooking.obj
 0001:00010b10       ?empty@?$Stack@VNamedAllocator@shdfnd@physx@@@internal@shdfnd@physx@@QEAA_NXZ 0000000180011b10 f i RTreeCooking.obj
 0001:00010b50       ?empty@PxBounds3@physx@@SA?AV12@XZ 0000000180011b50 f i RTreeCooking.obj
 0001:00010bc0       ?getExtents@PxBounds3V@physx@@QEBA?AT__m128@@XZ 0000000180011bc0 f i RTreeCooking.obj
 0001:00010c30       ?getMaxVec3@PxBounds3V@physx@@QEBAAEBVPxVec3@2@XZ 0000000180011c30 f i RTreeCooking.obj
 0001:00010c50       ?getMinVec3@PxBounds3V@physx@@QEBAAEBVPxVec3@2@XZ 0000000180011c50 f i RTreeCooking.obj
 0001:00010c60       ?grow@?$Array@IVNamedAllocator@shdfnd@physx@@@shdfnd@physx@@IEAAXI@Z 0000000180011c60 f i RTreeCooking.obj
 0001:00010d00       ?grow@?$Array@UPxBounds3V@physx@@VNamedAllocator@shdfnd@2@@shdfnd@physx@@IEAAXI@Z 0000000180011d00 f i RTreeCooking.obj
 0001:00010da0       ?grow@?$Array@URTreeNodeNQ@physx@@VNamedAllocator@shdfnd@2@@shdfnd@physx@@IEAAXI@Z 0000000180011da0 f i RTreeCooking.obj
 0001:00010e40       ?grow@?$Array@URTreeNodeQ@Gu@physx@@VNamedAllocator@shdfnd@3@@shdfnd@physx@@IEAAXI@Z 0000000180011e40 f i RTreeCooking.obj
 0001:00010ee0       ?grow@?$Array@VPxVec3@physx@@VNamedAllocator@shdfnd@2@@shdfnd@physx@@IEAAXI@Z 0000000180011ee0 f i RTreeCooking.obj
 0001:00010f80       ?grow@?$Stack@VNamedAllocator@shdfnd@physx@@@internal@shdfnd@physx@@QEAAXXZ 0000000180011f80 f i RTreeCooking.obj
 0001:00011060       ?growAndPushBack@?$Array@IVNamedAllocator@shdfnd@physx@@@shdfnd@physx@@IEAAAEAIAEBI@Z 0000000180012060 f i RTreeCooking.obj
 0001:00011270       ?growAndPushBack@?$Array@UInterval@physx@@V?$InlineAllocator@$0CA@VNamedAllocator@shdfnd@physx@@@shdfnd@2@@shdfnd@physx@@IEAAAEAUInterval@3@AEBU43@@Z 0000000180012270 f i RTreeCooking.obj
 0001:00011480       ?growAndPushBack@?$Array@UPxBounds3V@physx@@VNamedAllocator@shdfnd@2@@shdfnd@physx@@IEAAAEAUPxBounds3V@3@AEBU43@@Z 0000000180012480 f i RTreeCooking.obj
 0001:000116e0       ?growAndPushBack@?$Array@URTreeNodeNQ@physx@@VNamedAllocator@shdfnd@2@@shdfnd@physx@@IEAAAEAURTreeNodeNQ@3@AEBU43@@Z 00000001800126e0 f i RTreeCooking.obj
 0001:000118f0       ?growAndPushBack@?$Array@URTreeNodeQ@Gu@physx@@VNamedAllocator@shdfnd@3@@shdfnd@physx@@IEAAAEAURTreeNodeQ@Gu@3@AEBU453@@Z 00000001800128f0 f i RTreeCooking.obj
 0001:00011b50       ?growAndPushBack@?$Array@VPxVec3@physx@@VNamedAllocator@shdfnd@2@@shdfnd@physx@@IEAAAEAVPxVec3@3@AEBV43@@Z 0000000180012b50 f i RTreeCooking.obj
 0001:00011d60       ?include@PxBounds3V@physx@@QEAAXAEBU12@@Z 0000000180012d60 f i RTreeCooking.obj
 0001:00011e30       ?isFinite@PxBounds3@physx@@QEBA_NXZ 0000000180012e30 f i RTreeCooking.obj
 0001:00011ea0       ?isFinite@PxVec3@physx@@QEBA_NXZ 0000000180012ea0 f i RTreeCooking.obj
 0001:00011f20       ?isFinite@intrinsics@physx@@YA_NM@Z 0000000180012f20 f i RTreeCooking.obj
 0001:00011f70       ?isInUserMemory@?$Array@IVNamedAllocator@shdfnd@physx@@@shdfnd@physx@@QEBAIXZ 0000000180012f70 f i RTreeCooking.obj
 0001:00011f90       ?isInUserMemory@?$Array@UInterval@physx@@V?$InlineAllocator@$0CA@VNamedAllocator@shdfnd@physx@@@shdfnd@2@@shdfnd@physx@@QEBAIXZ 0000000180012f90 f i RTreeCooking.obj
 0001:00011fb0       ?isInUserMemory@?$Array@UPxBounds3V@physx@@VNamedAllocator@shdfnd@2@@shdfnd@physx@@QEBAIXZ 0000000180012fb0 f i RTreeCooking.obj
 0001:00011fd0       ?isInUserMemory@?$Array@URTreeNodeNQ@physx@@VNamedAllocator@shdfnd@2@@shdfnd@physx@@QEBAIXZ 0000000180012fd0 f i RTreeCooking.obj
 0001:00011ff0       ?isInUserMemory@?$Array@URTreeNodeQ@Gu@physx@@VNamedAllocator@shdfnd@3@@shdfnd@physx@@QEBAIXZ 0000000180012ff0 f i RTreeCooking.obj
 0001:00012010       ?isInUserMemory@?$Array@VPxVec3@physx@@VNamedAllocator@shdfnd@2@@shdfnd@physx@@QEBAIXZ 0000000180013010 f i RTreeCooking.obj
 0001:00012030       ?isInside@PxBounds3@physx@@QEBA_NAEBV12@@Z 0000000180013030 f i RTreeCooking.obj
 0001:00012190       ?isLeaf@RTreeNodeQ@Gu@physx@@QEBAIXZ 0000000180013190 f i RTreeCooking.obj
 0001:000121b0       ?isValid@PxBounds3@physx@@QEBA_NXZ 00000001800131b0 f i RTreeCooking.obj
 0001:000122e0       ?memCopy@intrinsics@physx@@YAPEAXPEIAXPEIBXI@Z 00000001800132e0 f i RTreeCooking.obj
 0001:00012320       ?pop@?$Stack@VNamedAllocator@shdfnd@physx@@@internal@shdfnd@physx@@QEAAXAEAH0@Z 0000000180013320 f i RTreeCooking.obj
 0001:00012430       ?popBack@?$Array@IVNamedAllocator@shdfnd@physx@@@shdfnd@physx@@QEAAIXZ 0000000180013430 f i RTreeCooking.obj
 0001:000124f0       ?push@?$Stack@VNamedAllocator@shdfnd@physx@@@internal@shdfnd@physx@@QEAAXHH@Z 00000001800134f0 f i RTreeCooking.obj
 0001:000125a0       ?pushBack@?$Array@IVNamedAllocator@shdfnd@physx@@@shdfnd@physx@@QEAAAEAIAEBI@Z 00000001800135a0 f i RTreeCooking.obj
 0001:00012690       ?pushBack@?$Array@UInterval@physx@@V?$InlineAllocator@$0CA@VNamedAllocator@shdfnd@physx@@@shdfnd@2@@shdfnd@physx@@QEAAAEAUInterval@3@AEBU43@@Z 0000000180013690 f i RTreeCooking.obj
 0001:00012780       ?pushBack@?$Array@UPxBounds3V@physx@@VNamedAllocator@shdfnd@2@@shdfnd@physx@@QEAAAEAUPxBounds3V@3@AEBU43@@Z 0000000180013780 f i RTreeCooking.obj
 0001:00012880       ?pushBack@?$Array@URTreeNodeNQ@physx@@VNamedAllocator@shdfnd@2@@shdfnd@physx@@QEAAAEAURTreeNodeNQ@3@AEBU43@@Z 0000000180013880 f i RTreeCooking.obj
 0001:00012970       ?pushBack@?$Array@URTreeNodeQ@Gu@physx@@VNamedAllocator@shdfnd@3@@shdfnd@physx@@QEAAAEAURTreeNodeQ@Gu@3@AEBU453@@Z 0000000180013970 f i RTreeCooking.obj
 0001:00012a70       ?pushBack@?$Array@VPxVec3@physx@@VNamedAllocator@shdfnd@2@@shdfnd@physx@@QEAAAEAVPxVec3@3@AEBV43@@Z 0000000180013a70 f i RTreeCooking.obj
 0001:00012b60       ?recreate@?$Array@IVNamedAllocator@shdfnd@physx@@@shdfnd@physx@@IEAAXI@Z 0000000180013b60 f i RTreeCooking.obj
 0001:00012cc0       ?recreate@?$Array@UPxBounds3V@physx@@VNamedAllocator@shdfnd@2@@shdfnd@physx@@IEAAXI@Z 0000000180013cc0 f i RTreeCooking.obj
 0001:00012e20       ?recreate@?$Array@URTreeNodeNQ@physx@@VNamedAllocator@shdfnd@2@@shdfnd@physx@@IEAAXI@Z 0000000180013e20 f i RTreeCooking.obj
 0001:00012f80       ?recreate@?$Array@URTreeNodeQ@Gu@physx@@VNamedAllocator@shdfnd@3@@shdfnd@physx@@IEAAXI@Z 0000000180013f80 f i RTreeCooking.obj
 0001:000130e0       ?recreate@?$Array@VPxVec3@physx@@VNamedAllocator@shdfnd@2@@shdfnd@physx@@IEAAXI@Z 00000001800140e0 f i RTreeCooking.obj
 0001:00013240       ?replaceWithLast@?$Array@UInterval@physx@@V?$InlineAllocator@$0CA@VNamedAllocator@shdfnd@physx@@@shdfnd@2@@shdfnd@physx@@QEAAXI@Z 0000000180014240 f i RTreeCooking.obj
 0001:00013310       ?reserve@?$Array@IVNamedAllocator@shdfnd@physx@@@shdfnd@physx@@QEAAXI@Z 0000000180014310 f i RTreeCooking.obj
 0001:00013350       ?reserve@?$Array@UPxBounds3V@physx@@VNamedAllocator@shdfnd@2@@shdfnd@physx@@QEAAXI@Z 0000000180014350 f i RTreeCooking.obj
 0001:00013390       ?reserve@?$Array@URTreeNodeNQ@physx@@VNamedAllocator@shdfnd@2@@shdfnd@physx@@QEAAXI@Z 0000000180014390 f i RTreeCooking.obj
 0001:000133d0       ?reserve@?$Array@URTreeNodeQ@Gu@physx@@VNamedAllocator@shdfnd@3@@shdfnd@physx@@QEAAXI@Z 00000001800143d0 f i RTreeCooking.obj
 0001:00013410       ?reserve@?$Array@VPxVec3@physx@@VNamedAllocator@shdfnd@2@@shdfnd@physx@@QEAAXI@Z 0000000180014410 f i RTreeCooking.obj
 0001:00013450       ?resize@?$Array@IVNamedAllocator@shdfnd@physx@@@shdfnd@physx@@QEAAXIAEBI@Z 0000000180014450 f i RTreeCooking.obj
 0001:00013510       ?resizeUninitialized@?$Array@URTreeNodeNQ@physx@@VNamedAllocator@shdfnd@2@@shdfnd@physx@@QEAAXI@Z 0000000180014510 f i RTreeCooking.obj
 0001:00013550       ?selectMax@intrinsics@physx@@YAMMM@Z 0000000180014550 f i RTreeCooking.obj
 0001:000135a0       ?selectMin@intrinsics@physx@@YAMMM@Z 00000001800145a0 f i RTreeCooking.obj
 0001:000135f0       ?setEmpty@PxBounds3@physx@@QEAAXXZ 00000001800145f0 f i RTreeCooking.obj
 0001:00013660       ?setLeaf@RTreeNodeQ@Gu@physx@@QEAAX_N@Z 0000000180014660 f i RTreeCooking.obj
 0001:000136b0       ?size@?$Array@IVNamedAllocator@shdfnd@physx@@@shdfnd@physx@@QEBAIXZ 00000001800146b0 f i RTreeCooking.obj
 0001:000136d0       ?size@?$Array@UInterval@physx@@V?$InlineAllocator@$0CA@VNamedAllocator@shdfnd@physx@@@shdfnd@2@@shdfnd@physx@@QEBAIXZ 00000001800146d0 f i RTreeCooking.obj
 0001:000136f0       ?size@?$Array@URTreeNodeNQ@physx@@VNamedAllocator@shdfnd@2@@shdfnd@physx@@QEBAIXZ 00000001800146f0 f i RTreeCooking.obj
 0001:00013710       ?size@?$Array@URTreeNodeQ@Gu@physx@@VNamedAllocator@shdfnd@3@@shdfnd@physx@@QEBAIXZ 0000000180014710 f i RTreeCooking.obj
 0001:00013730       ?size@?$Array@VPxVec3@physx@@VNamedAllocator@shdfnd@2@@shdfnd@physx@@QEBAIXZ 0000000180014730 f i RTreeCooking.obj
 0001:00013750       ?sort4@SubSortQuick@physx@@QEAAXPEIAIIAEAV?$Array@URTreeNodeNQ@physx@@VNamedAllocator@shdfnd@2@@shdfnd@2@AEAIAEAUPxBounds3V@2@I@Z 0000000180014750 f i RTreeCooking.obj
 0001:000143f0       ?sort4@SubSortSAH@physx@@QEAAXPEAIIAEAV?$Array@URTreeNodeNQ@physx@@VNamedAllocator@shdfnd@2@@shdfnd@2@AEAIIPEAURTreeNodeNQ@2@@Z 00000001800153f0 f i RTreeCooking.obj
 0001:00015590       ?split@SubSortSAH@physx@@QEAAIPEAII@Z 0000000180016590 f i RTreeCooking.obj
 0001:00016830       ?loadFromDesc@TriangleMeshBuilder@physx@@QEAA_NAEBVPxTriangleMeshDesc@2@AEBUPxCookingParams@2@_N@Z 0000000180017830 f   TriangleMeshBuilder.obj
 0001:00016b40       ?save@TriangleMeshBuilder@physx@@QEBA_NAEAVPxOutputStream@2@_NAEBUPxCookingParams@2@@Z 0000000180017b40 f   TriangleMeshBuilder.obj
 0001:00017350       ?computeLocalBounds@TriangleMeshBuilder@physx@@IEAAXXZ 0000000180018350 f   TriangleMeshBuilder.obj
 0001:00017470       ?importMesh@TriangleMeshBuilder@physx@@IEAA_NAEBVPxTriangleMeshDesc@2@AEBUPxCookingParams@2@_N@Z 0000000180018470 f   TriangleMeshBuilder.obj
 0001:00017f00       ??$?_UI@@YAPEAX_KV?$ReflectionAllocator@I@shdfnd@physx@@PEBDH@Z 0000000180018f00 f i TriangleMeshBuilder.obj
 0001:00017f50       ??0?$PxFlags@W4Enum@PxMeshFlag@physx@@G@physx@@QEAA@AEBV01@@Z 0000000180018f50 f i TriangleMeshBuilder.obj
 0001:00017f80       ??0?$PxFlags@W4Enum@PxMeshFlag@physx@@G@physx@@QEAA@W4Enum@PxMeshFlag@1@@Z 0000000180018f80 f i TriangleMeshBuilder.obj
 0001:00017fb0       ??0?$PxFlags@W4Enum@PxMeshFlag@physx@@G@physx@@QEAA@XZ 0000000180018fb0 f i TriangleMeshBuilder.obj
 0001:00017fd0       ??0?$PxFlags@W4Enum@PxMeshPreprocessingFlag@physx@@I@physx@@QEAA@AEBV01@@Z 0000000180018fd0 f i TriangleMeshBuilder.obj
 0001:00018000       ??0?$ReflectionAllocator@I@shdfnd@physx@@QEAA@PEBD@Z 0000000180019000 f i TriangleMeshBuilder.obj
 0001:00018020       ??0PxSimpleTriangleMesh@physx@@QEAA@AEBV01@@Z 0000000180019020 f i TriangleMeshBuilder.obj
 0001:000180a0       ??0PxTriangleMeshDesc@physx@@QEAA@AEBV01@@Z 00000001800190a0 f i TriangleMeshBuilder.obj
 0001:00018110       ??APxVec3@physx@@QEAAAEAMI@Z 0000000180019110 f i TriangleMeshBuilder.obj
 0001:000181a0       ??B?$PxFlags@W4Enum@PxMeshFlag@physx@@G@physx@@QEBA_NXZ 00000001800191a0 f i TriangleMeshBuilder.obj
 0001:000181e0       ??B?$PxFlags@W4Enum@PxMeshPreprocessingFlag@physx@@I@physx@@QEBA_NXZ 00000001800191e0 f i TriangleMeshBuilder.obj
 0001:00018210       ??I?$PxFlags@W4Enum@PxMeshFlag@physx@@G@physx@@QEBA?AV01@W4Enum@PxMeshFlag@1@@Z 0000000180019210 f i TriangleMeshBuilder.obj
 0001:00018280       ??I?$PxFlags@W4Enum@PxMeshPreprocessingFlag@physx@@I@physx@@QEBA?AV01@W4Enum@PxMeshPreprocessingFlag@1@@Z 0000000180019280 f i TriangleMeshBuilder.obj
 0001:000182e0       ??S?$PxFlags@W4Enum@PxMeshFlag@physx@@G@physx@@QEBA?AV01@XZ 00000001800192e0 f i TriangleMeshBuilder.obj
 0001:00018330       ??Sphysx@@YA?AV?$PxFlags@W4Enum@PxMeshFlag@physx@@G@0@W4Enum@PxMeshFlag@0@@Z 0000000180019330 f i TriangleMeshBuilder.obj
 0001:00018370       ??_4?$PxFlags@W4Enum@PxMeshFlag@physx@@G@physx@@QEAAAEAV01@AEBV01@@Z 0000000180019370 f i TriangleMeshBuilder.obj
 0001:000183b0       ??_H@YAXPEAX_K1P6APEAX0@Z@Z 00000001800193b0 f i TriangleMeshBuilder.obj
 0001:00018450       ?PxAbs@physx@@YAMM@Z       0000000180019450 f i TriangleMeshBuilder.obj
 0001:00018470       ?abs@intrinsics@physx@@YAMM@Z 0000000180019470 f i TriangleMeshBuilder.obj
 0001:00018490       ?allocate@?$ReflectionAllocator@I@shdfnd@physx@@QEAAPEAX_KPEBDH@Z 0000000180019490 f i TriangleMeshBuilder.obj
 0001:00018530       ?gatherStrided@shdfnd@physx@@YAXPEBXPEAXIII@Z 0000000180019530 f i TriangleMeshBuilder.obj
 0001:000185e0       ?getFoundation@shdfnd@physx@@YAAEAVFoundation@12@XZ 00000001800195e0 f i TriangleMeshBuilder.obj
 0001:00018600       ?getName@?$ReflectionAllocator@I@shdfnd@physx@@CAPEBDXZ 0000000180019600 f i TriangleMeshBuilder.obj
 0001:00018650       ?isValid@PxSimpleTriangleMesh@physx@@QEBA_NXZ 0000000180019650 f i TriangleMeshBuilder.obj
 0001:00018760       ?isValid@PxTriangleMeshDesc@physx@@QEBA_NXZ 0000000180019760 f i TriangleMeshBuilder.obj
 0001:000187f0       ?name@type_info@@QEBAPEBDXZ 00000001800197f0 f i TriangleMeshBuilder.obj
 0001:00018820       ?to16@shdfnd@physx@@YAGI@Z 0000000180019820 f i TriangleMeshBuilder.obj
 0001:000188a0       ?writeIntBuffer@physx@@YAXPEBII_NAEAVPxOutputStream@1@@Z 00000001800198a0 f i TriangleMeshBuilder.obj
 0001:000188f0       fabsf                      00000001800198f0 f i TriangleMeshBuilder.obj
 0001:00018920       ??0BigConvexDataBuilder@physx@@QEAA@PEBUConvexHullData@Gu@1@PEAVBigConvexData@1@PEBVPxVec3@1@@Z 0000000180019920 f   BigConvexDataBuilder.obj
 0001:00018970       ??1BigConvexDataBuilder@physx@@QEAA@XZ 0000000180019970 f   BigConvexDataBuilder.obj
 0001:00018980       ?Precompute@BigConvexDataBuilder@physx@@QEAA_NI@Z 0000000180019980 f   BigConvexDataBuilder.obj
 0001:00018d20       ?Initialize@BigConvexDataBuilder@physx@@QEAA_NXZ 0000000180019d20 f   BigConvexDataBuilder.obj
 0001:00018d90       ?PrecomputeSample@BigConvexDataBuilder@physx@@QEAA_NIAEBVPxVec3@2@@Z 0000000180019d90 f   BigConvexDataBuilder.obj
 0001:00018ee0       ?Save@BigConvexDataBuilder@physx@@QEBA_NAEAVPxOutputStream@2@_NIPEBUHullTriangleData@2@@Z 0000000180019ee0 f   BigConvexDataBuilder.obj
 0001:00019030       ?ComputeValencies@BigConvexDataBuilder@physx@@QEBA_NIPEBUHullTriangleData@2@@Z 000000018001a030 f   BigConvexDataBuilder.obj
 0001:000190a0       ?Compute@BigConvexDataBuilder@physx@@QEBA_NAEBUVALENCIESCREATE@2@@Z 000000018001a0a0 f   BigConvexDataBuilder.obj
 0001:00019750       ?Save@BigConvexDataBuilder@physx@@QEBA_NAEAVPxOutputStream@2@_N@Z 000000018001a750 f   BigConvexDataBuilder.obj
 0001:00019dc0       ??$?_UE@@YAPEAX_KV?$ReflectionAllocator@E@shdfnd@physx@@PEBDH@Z 000000018001adc0 f i BigConvexDataBuilder.obj
 0001:00019e10       ??$?_UG@@YAPEAX_KV?$ReflectionAllocator@G@shdfnd@physx@@PEBDH@Z 000000018001ae10 f i BigConvexDataBuilder.obj
 0001:00019e60       ??$?_UUValency@Gu@physx@@@@YAPEAX_KV?$ReflectionAllocator@UValency@Gu@physx@@@shdfnd@physx@@PEBDH@Z 000000018001ae60 f i BigConvexDataBuilder.obj
 0001:00019eb0       ??0?$ReflectionAllocator@E@shdfnd@physx@@QEAA@PEBD@Z 000000018001aeb0 f i BigConvexDataBuilder.obj
 0001:00019ed0       ??0?$ReflectionAllocator@G@shdfnd@physx@@QEAA@PEBD@Z 000000018001aed0 f i BigConvexDataBuilder.obj
 0001:00019ef0       ??0?$ReflectionAllocator@UValency@Gu@physx@@@shdfnd@physx@@QEAA@PEBD@Z 000000018001aef0 f i BigConvexDataBuilder.obj
 0001:00019f10       ??0EDGELISTCREATE@Gu@physx@@QEAA@XZ 000000018001af10 f i BigConvexDataBuilder.obj
 0001:00019f90       ??0PxVec3@physx@@QEAA@XZ   000000018001af90 f i BigConvexDataBuilder.obj
 0001:00019fa0       ??0VALENCIESCREATE@physx@@QEAA@XZ 000000018001afa0 f i BigConvexDataBuilder.obj
 0001:00019fd0       ??_0PxVec3@physx@@QEAAAEAV01@M@Z 000000018001afd0 f i BigConvexDataBuilder.obj
 0001:0001a060       ?GetEdge@EdgeList@Gu@physx@@QEBAAEBUEdgeData@23@I@Z 000000018001b060 f i BigConvexDataBuilder.obj
 0001:0001a090       ?GetNbEdges@EdgeList@Gu@physx@@QEBAIXZ 000000018001b090 f i BigConvexDataBuilder.obj
 0001:0001a0a0       ?PxMemZero@physx@@YAPEAXPEIAXI@Z 000000018001b0a0 f i BigConvexDataBuilder.obj
 0001:0001a0d0       ?PxSqrt@physx@@YAMM@Z      000000018001b0d0 f i BigConvexDataBuilder.obj
 0001:0001a0f0       ?allocate@?$ReflectionAllocator@E@shdfnd@physx@@QEAAPEAX_KPEBDH@Z 000000018001b0f0 f i BigConvexDataBuilder.obj
 0001:0001a190       ?allocate@?$ReflectionAllocator@G@shdfnd@physx@@QEAAPEAX_KPEBDH@Z 000000018001b190 f i BigConvexDataBuilder.obj
 0001:0001a230       ?allocate@?$ReflectionAllocator@UValency@Gu@physx@@@shdfnd@physx@@QEAAPEAX_KPEBDH@Z 000000018001b230 f i BigConvexDataBuilder.obj
 0001:0001a2d0       ?dot@PxVec3@physx@@QEBAMAEBV12@@Z 000000018001b2d0 f i BigConvexDataBuilder.obj
 0001:0001a330       ?getName@?$ReflectionAllocator@E@shdfnd@physx@@CAPEBDXZ 000000018001b330 f i BigConvexDataBuilder.obj
 0001:0001a380       ?getName@?$ReflectionAllocator@G@shdfnd@physx@@CAPEBDXZ 000000018001b380 f i BigConvexDataBuilder.obj
 0001:0001a3d0       ?getName@?$ReflectionAllocator@UValency@Gu@physx@@@shdfnd@physx@@CAPEBDXZ 000000018001b3d0 f i BigConvexDataBuilder.obj
 0001:0001a420       ?magnitude@PxVec3@physx@@QEBAMXZ 000000018001b420 f i BigConvexDataBuilder.obj
 0001:0001a450       ?magnitudeSquared@PxVec3@physx@@QEBAMXZ 000000018001b450 f i BigConvexDataBuilder.obj
 0001:0001a4b0       ?memZero@intrinsics@physx@@YAPEAXPEIAXI@Z 000000018001b4b0 f i BigConvexDataBuilder.obj
 0001:0001a4f0       ?normalize@PxVec3@physx@@QEAAMXZ 000000018001b4f0 f i BigConvexDataBuilder.obj
 0001:0001a550       ?sqrt@intrinsics@physx@@YAMM@Z 000000018001b550 f i BigConvexDataBuilder.obj
 0001:0001a5f0       ??0ConvexHullBuilder@physx@@QEAA@PEAUConvexHullData@Gu@1@@Z 000000018001b5f0 f   ConvexHullBuilder.obj
 0001:0001a690       ??1ConvexHullBuilder@physx@@QEAA@XZ 000000018001b690 f   ConvexHullBuilder.obj
 0001:0001a7e0       ?Init@ConvexHullBuilder@physx@@QEAA_NIPEBVPxVec3@2@IPEBIIPEBUPxHullPolygon@2@@Z 000000018001b7e0 f   ConvexHullBuilder.obj
 0001:0001b460       ?Save@ConvexHullBuilder@physx@@QEBA_NAEAVPxOutputStream@2@_N@Z 000000018001c460 f   ConvexHullBuilder.obj
 0001:0001b7a0       ?CreateEdgeList@ConvexHullBuilder@physx@@QEAA_NXZ 000000018001c7a0 f   ConvexHullBuilder.obj
 0001:0001c770       ?CreatePolygonData@ConvexHullBuilder@physx@@QEAA_NXZ 000000018001d770 f   ConvexHullBuilder.obj
 0001:0001d860       ?CheckHullPolygons@ConvexHullBuilder@physx@@QEBA_NXZ 000000018001e860 f   ConvexHullBuilder.obj
 0001:0001e010       ?CreateTrianglesFromPolygons@ConvexHullBuilder@physx@@QEAA_NXZ 000000018001f010 f   ConvexHullBuilder.obj
 0001:0001e6d0       ?ComputeGeomCenter@ConvexHullBuilder@physx@@QEBA_NAEAVPxVec3@2@@Z 000000018001f6d0 f   ConvexHullBuilder.obj
 0001:0001e890       ?CalculateVertexMapTable@ConvexHullBuilder@physx@@QEAA_NI_N@Z 000000018001f890 f   ConvexHullBuilder.obj
 0001:0001eb70       ?ComputeHullPolygons@ConvexHullBuilder@physx@@QEAA_NAEBIPEBVPxVec3@2@0PEBI@Z 000000018001fb70 f   ConvexHullBuilder.obj
 0001:00022900       ??$?_UUEdgeDescData@Gu@physx@@@@YAPEAX_KV?$ReflectionAllocator@UEdgeDescData@Gu@physx@@@shdfnd@physx@@PEBDH@Z 0000000180023900 f i ConvexHullBuilder.obj
 0001:00022950       ??$?_UUHullTriangleData@physx@@@@YAPEAX_KV?$ReflectionAllocator@UHullTriangleData@physx@@@shdfnd@physx@@PEBDH@Z 0000000180023950 f i ConvexHullBuilder.obj
 0001:000229a0       ??$PX_UNUSED@H@@YAXAEBH@Z  00000001800239a0 f i ConvexHullBuilder.obj
 0001:000229b0       ??$PlaneEquation@U?$TriangleT@I@Gu@physx@@@@YA?AVPxPlane@physx@@AEBU?$TriangleT@I@Gu@1@PEBVPxVec3@1@@Z 00000001800239b0 f i ConvexHullBuilder.obj
 0001:00022a80       ??$swap@E@shdfnd@physx@@YAXAEAE0@Z 0000000180023a80 f i ConvexHullBuilder.obj
 0001:00022ad0       ??0?$ReflectionAllocator@UEdgeDescData@Gu@physx@@@shdfnd@physx@@QEAA@PEBD@Z 0000000180023ad0 f i ConvexHullBuilder.obj
 0001:00022af0       ??0?$ReflectionAllocator@UHullTriangleData@physx@@@shdfnd@physx@@QEAA@PEBD@Z 0000000180023af0 f i ConvexHullBuilder.obj
 0001:00022b10       ??0?$TriangleT@I@Gu@physx@@QEAA@III@Z 0000000180023b10 f i ConvexHullBuilder.obj
 0001:00022b80       ??0ADJACENCIESCREATE@physx@@QEAA@XZ 0000000180023b80 f i ConvexHullBuilder.obj
 0001:00022bf0       ??0HullPolygonData@Gu@physx@@QEAA@AEBU012@@Z 0000000180023bf0 f i ConvexHullBuilder.obj
 0001:00022c70       ??0PxPlane@physx@@QEAA@AEBV01@@Z 0000000180023c70 f i ConvexHullBuilder.obj
 0001:00022cc0       ??0PxPlane@physx@@QEAA@AEBVPxVec3@1@00@Z 0000000180023cc0 f i ConvexHullBuilder.obj
 0001:00022db0       ??0PxPlane@physx@@QEAA@MMMM@Z 0000000180023db0 f i ConvexHullBuilder.obj
 0001:00022e20       ??4PxPlane@physx@@QEAAAEAV01@$$QEAV01@@Z 0000000180023e20 f i ConvexHullBuilder.obj
 0001:00022e70       ??DPxVec3@physx@@QEBA?AV01@M@Z 0000000180023e70 f i ConvexHullBuilder.obj
 0001:00022f00       ??GPxVec3@physx@@QEBA?AV01@AEBV01@@Z 0000000180023f00 f i ConvexHullBuilder.obj
 0001:00022fa0       ??GPxVec3@physx@@QEBA?AV01@XZ 0000000180023fa0 f i ConvexHullBuilder.obj
 0001:00023030       ??YPxVec3@physx@@QEAAAEAV01@AEBV01@@Z 0000000180024030 f i ConvexHullBuilder.obj
 0001:00023730       ?ComputeNbPolygons@ConvexHullBuilder@physx@@QEBAIXZ 0000000180024730 f i ConvexHullBuilder.obj
 0001:00023780       ?Flip@physx@@YAXAEAUHullTriangleData@1@@Z 0000000180024780 f i ConvexHullBuilder.obj
 0001:00023930       ?GetAdjTri@AdjTriangle@physx@@QEBAIW4SharedEdgeIndex@2@@Z 0000000180024930 f i ConvexHullBuilder.obj
 0001:00023960       ?GetFaces@ConvexHullBuilder@physx@@QEBAPEBUHullTriangleData@2@XZ 0000000180024960 f i ConvexHullBuilder.obj
 0001:00023980       ?GetNbFaces@ConvexHullBuilder@physx@@QEBAIXZ 0000000180024980 f i ConvexHullBuilder.obj
 0001:00023d80       ?HasActiveEdge01@AdjTriangle@physx@@QEBAHXZ 0000000180024d80 f i ConvexHullBuilder.obj
 0001:00023db0       ?HasActiveEdge12@AdjTriangle@physx@@QEBAHXZ 0000000180024db0 f i ConvexHullBuilder.obj
 0001:00023de0       ?HasActiveEdge20@AdjTriangle@physx@@QEBAHXZ 0000000180024de0 f i ConvexHullBuilder.obj
 0001:00023e10       ?HasActiveEdge@AdjTriangle@physx@@QEBAHI@Z 0000000180024e10 f i ConvexHullBuilder.obj
 0001:00023e40       ?PxRecipSqrt@physx@@YAMM@Z 0000000180024e40 f i ConvexHullBuilder.obj
 0001:00023e60       ?allocate@?$ReflectionAllocator@UEdgeDescData@Gu@physx@@@shdfnd@physx@@QEAAPEAX_KPEBDH@Z 0000000180024e60 f i ConvexHullBuilder.obj
 0001:00023f00       ?allocate@?$ReflectionAllocator@UHullTriangleData@physx@@@shdfnd@physx@@QEAAPEAX_KPEBDH@Z 0000000180024f00 f i ConvexHullBuilder.obj
 0001:00023fa0       ?area@?$TriangleT@I@Gu@physx@@QEBAMPEBVPxVec3@3@@Z 0000000180024fa0 f i ConvexHullBuilder.obj
 0001:000240c0       ?center@?$TriangleT@I@Gu@physx@@QEBAXPEBVPxVec3@3@AEAV43@@Z 00000001800250c0 f i ConvexHullBuilder.obj
 0001:000241d0       ?cross@PxVec3@physx@@QEBA?AV12@AEBV12@@Z 00000001800251d0 f i ConvexHullBuilder.obj
 0001:000242c0       ?distance@PxPlane@physx@@QEBAMAEBVPxVec3@2@@Z 00000001800252c0 f i ConvexHullBuilder.obj
 0001:00024300       ?flip@?$TriangleT@I@Gu@physx@@QEAAXXZ 0000000180025300 f i ConvexHullBuilder.obj
 0001:00024350       ?flip@physx@@YAXAEAG@Z     0000000180025350 f i ConvexHullBuilder.obj
 0001:000243d0       ?flip@physx@@YAXAEAM@Z     00000001800253d0 f i ConvexHullBuilder.obj
 0001:000244c0       ?flipData@Gu@physx@@YAXAEAUHullPolygonData@12@@Z 00000001800254c0 f i ConvexHullBuilder.obj
 0001:00024540       ?getName@?$ReflectionAllocator@UEdgeDescData@Gu@physx@@@shdfnd@physx@@CAPEBDXZ 0000000180025540 f i ConvexHullBuilder.obj
 0001:00024590       ?getName@?$ReflectionAllocator@UHullTriangleData@physx@@@shdfnd@physx@@CAPEBDXZ 0000000180025590 f i ConvexHullBuilder.obj
 0001:000245e0       ?getNormalized@PxVec3@physx@@QEBA?AV12@XZ 00000001800255e0 f i ConvexHullBuilder.obj
 0001:00024690       ?recipSqrt@intrinsics@physx@@YAMM@Z 0000000180025690 f i ConvexHullBuilder.obj
 0001:000246d0       ?to8@shdfnd@physx@@YAEI@Z  00000001800256d0 f i ConvexHullBuilder.obj
 0001:00024750       ??0ConvexMeshBuilder@physx@@QEAA@XZ 0000000180025750 f   ConvexMeshBuilder.obj
 0001:000247b0       ??1ConvexMeshBuilder@physx@@UEAA@XZ 00000001800257b0 f   ConvexMeshBuilder.obj
 0001:00024810       ?loadFromDesc@ConvexMeshBuilder@physx@@QEAA_NAEBVPxConvexMeshDesc@2@W4Enum@PxPlatform@2@@Z 0000000180025810 f   ConvexMeshBuilder.obj
 0001:000248f0       ?save@ConvexMeshBuilder@physx@@QEBA_NAEAVPxOutputStream@2@_N@Z 00000001800258f0 f   ConvexMeshBuilder.obj
 0001:00024ca0       ?loadConvexHull@ConvexMeshBuilder@physx@@QEAA_NAEBVPxConvexMeshDesc@2@@Z 0000000180025ca0 f   ConvexMeshBuilder.obj
 0001:00025130       ?computeHullPolygons@ConvexMeshBuilder@physx@@QEAA_NAEBIPEBVPxVec3@2@0PEBIAEAVPxAllocatorCallback@2@AEAIAEAPEAV32@4AEAPEAI4AEAPEAUPxHullPolygon@2@@Z 0000000180026130 f   ConvexMeshBuilder.obj
 0001:00025590       ?computeGaussMaps@ConvexMeshBuilder@physx@@QEAA_NXZ 0000000180026590 f   ConvexMeshBuilder.obj
 0001:000256d0       ?computeMassInfo@ConvexMeshBuilder@physx@@QEAAXXZ 00000001800266d0 f   ConvexMeshBuilder.obj
 0001:000259d0       ?computeInternalObjects@ConvexMeshBuilder@physx@@QEAAXXZ 00000001800269d0 f   ConvexMeshBuilder.obj
 0001:00026d60       ??0?$PxFlags@W4Enum@PxBaseFlag@physx@@G@physx@@QEAA@AEBV01@@Z 0000000180027d60 f i ConvexMeshBuilder.obj
 0001:00026d90       ??0?$PxFlags@W4Enum@PxConvexFlag@physx@@G@physx@@QEAA@AEBV01@@Z 0000000180027d90 f i ConvexMeshBuilder.obj
 0001:00026dc0       ??0?$ReflectionAllocator@VBigConvexData@physx@@@shdfnd@physx@@QEAA@PEBD@Z 0000000180027dc0 f i ConvexMeshBuilder.obj
 0001:00026de0       ??0PxBoundedData@physx@@QEAA@XZ 0000000180027de0 f i ConvexMeshBuilder.obj
 0001:00026e20       ??0PxIntegrals@physx@@QEAA@XZ 0000000180027e20 f i ConvexMeshBuilder.obj
 0001:00026e50       ??0PxMat33@physx@@QEAA@AEBVPxVec3@1@00@Z 0000000180027e50 f i ConvexMeshBuilder.obj
 0001:00026ed0       ??0PxSimpleTriangleMesh@physx@@QEAA@XZ 0000000180027ed0 f i ConvexMeshBuilder.obj
 0001:00026f30       ??0PxStridedData@physx@@QEAA@XZ 0000000180027f30 f i ConvexMeshBuilder.obj
 0001:00026f60       ??2UserAllocated@shdfnd@physx@@SAPEAX_KPEAX@Z 0000000180027f60 f i ConvexMeshBuilder.obj
 0001:00026f80       ??3UserAllocated@shdfnd@physx@@SAXPEAX@Z 0000000180027f80 f i ConvexMeshBuilder.obj
 0001:00026fc0       ??4PxMat33@physx@@QEAAAEAV01@AEBV01@@Z 0000000180027fc0 f i ConvexMeshBuilder.obj
 0001:00027040       ??APxMat33@physx@@QEAAAEAVPxVec3@1@I@Z 0000000180028040 f i ConvexMeshBuilder.obj
 0001:00027070       ??B?$PxFlags@W4Enum@PxBaseFlag@physx@@G@physx@@QEBA_NXZ 0000000180028070 f i ConvexMeshBuilder.obj
 0001:000270b0       ??B?$PxFlags@W4Enum@PxConvexFlag@physx@@G@physx@@QEBA_NXZ 00000001800280b0 f i ConvexMeshBuilder.obj
 0001:000270f0       ??GPxMat33@physx@@QEBA?AV01@XZ 00000001800280f0 f i ConvexMeshBuilder.obj
 0001:00027190       ??I?$PxFlags@W4Enum@PxBaseFlag@physx@@G@physx@@QEBA?AV01@W4Enum@PxBaseFlag@1@@Z 0000000180028190 f i ConvexMeshBuilder.obj
 0001:00027200       ??I?$PxFlags@W4Enum@PxConvexFlag@physx@@G@physx@@QEBA?AV01@W4Enum@PxConvexFlag@1@@Z 0000000180028200 f i ConvexMeshBuilder.obj
 0001:00027270       ??RPxMat33@physx@@QEAAAEAMII@Z 0000000180028270 f i ConvexMeshBuilder.obj
 0001:000272b0       ??XPxVec3@physx@@QEAAAEAV01@M@Z 00000001800282b0 f i ConvexMeshBuilder.obj
 0001:00027324       ??_EConvexMeshBuilder@physx@@WBA@EAAPEAXI@Z 0000000180028324 f i ConvexMeshBuilder.obj
 0001:00027330       ??_GBigConvexData@physx@@QEAAPEAXI@Z 0000000180028330 f i ConvexMeshBuilder.obj
 0001:000273a0       ??_EConvexMeshBuilder@physx@@UEAAPEAXI@Z 00000001800283a0 f i ConvexMeshBuilder.obj
 0001:000273a0       ??_GConvexMeshBuilder@physx@@UEAAPEAXI@Z 00000001800283a0 f i ConvexMeshBuilder.obj
 0001:00027410       ?PxGetGaussMapVertexLimitForPlatform@physx@@YAIW4Enum@PxPlatform@1@@Z 0000000180028410 f i ConvexMeshBuilder.obj
 0001:000274e0       ?allocate@?$ReflectionAllocator@VBigConvexData@physx@@@shdfnd@physx@@QEAAPEAX_KPEBDH@Z 00000001800284e0 f i ConvexMeshBuilder.obj
 0001:00027580       ?getName@?$ReflectionAllocator@VBigConvexData@physx@@@shdfnd@physx@@CAPEBDXZ 0000000180028580 f i ConvexMeshBuilder.obj
 0001:000275d0       ?getOriginInertia@PxIntegrals@physx@@QEAAXAEAVPxMat33@2@@Z 00000001800285d0 f i ConvexMeshBuilder.obj
 0001:00027680       ?isReleasable@PxBase@physx@@UEBA_NXZ 0000000180028680 f i ConvexMeshBuilder.obj
 0001:000276c0       ?isValid@PxConvexMeshDesc@physx@@QEBA_NXZ 00000001800286c0 f i ConvexMeshBuilder.obj
 0001:00027940       ?largestAxis@shdfnd@physx@@YAIAEBVPxVec3@2@@Z 0000000180028940 f i ConvexMeshBuilder.obj
 0001:000279d0       ?markSerializedMem@Cm@physx@@YAXPEAXI@Z 00000001800289d0 f i ConvexMeshBuilder.obj
 0001:00027a20       ?requires@ConvexMesh@Gu@physx@@UEAAXAEAVPxProcessPxBaseCallback@3@@Z 0000000180028a20 f i ConvexMeshBuilder.obj
 0001:00027a30       ??0HullLibrary@physx@@QEAA@XZ 0000000180028a30 f   hulllib.obj
 0001:00027ad0       ??1HullLibrary@physx@@QEAA@XZ 0000000180028ad0 f   hulllib.obj
 0001:00027b20       ?CreateConvexHull@HullLibrary@physx@@QEAA?AW4HullError@2@AEBVHullDesc@2@AEAVHullResult@2@@Z 0000000180028b20 f   hulllib.obj
 0001:000284a0       ?ReleaseResult@HullLibrary@physx@@QEAA?AW4HullError@2@AEAVHullResult@2@@Z 00000001800294a0 f   hulllib.obj
 0001:00028550       ?CreateTriangleMesh@HullLibrary@physx@@QEAA?AW4HullError@2@AEAVHullResult@2@PEAVConvexHullTriangleInterface@2@@Z 0000000180029550 f   hulllib.obj
 0001:00028730       ?b2bfix@HullLibrary@physx@@AEAAXPEAVTri@2@0@Z 0000000180029730 f   hulllib.obj
 0001:000289b0       ?removeb2b@HullLibrary@physx@@AEAAXPEAVTri@2@0@Z 00000001800299b0 f   hulllib.obj
 0001:00028a10       ?checkit@HullLibrary@physx@@AEBAXPEAVTri@2@@Z 0000000180029a10 f   hulllib.obj
 0001:00028c00       ?extrude@HullLibrary@physx@@AEAAXPEAVTri@2@H@Z 0000000180029c00 f   hulllib.obj
 0001:000292c0       ?extrudable@HullLibrary@physx@@AEBAPEAVTri@2@M@Z 000000018002a2c0 f   hulllib.obj
 0001:000293a0       ?calchullgen@HullLibrary@physx@@AEAA?AW4HullError@2@PEAVfloat3@2@HHM@Z 000000018002a3a0 f   hulllib.obj
 0001:0002a7f0       ?calchull@HullLibrary@physx@@AEAA?AW4HullError@2@PEAVfloat3@2@HAEAPEAHAEAHAEAPEAV42@2HM@Z 000000018002b7f0 f   hulllib.obj
 0001:0002ab60       ?expandhull@HullLibrary@physx@@AEAA?AW4HullError@2@PEAVfloat3@2@HAEAPEAV42@AEAHM@Z 000000018002bb60 f   hulllib.obj
 0001:0002b920       ?calchullpbev@HullLibrary@physx@@AEAA?AW4HullError@2@PEAVfloat3@2@HHAEAV?$Array@VPlane@physx@@@hullLibArray@2@M@Z 000000018002c920 f   hulllib.obj
 0001:0002c620       ?ComputeHull@HullLibrary@physx@@AEAA?AW4HullError@2@IPEBMAEAVPHullResult@2@IMM@Z 000000018002d620 f   hulllib.obj
 0001:0002cad0       ?overhullv@HullLibrary@physx@@AEAA?AW4HullError@2@PEAVfloat3@2@HHAEAPEAV42@AEAHAEAPEAH2MMHM@Z 000000018002dad0 f   hulllib.obj
 0001:0002dc60       ??0ConvexH@physx@@QEAA@HHH@Z 000000018002ec60 f   hulllib.obj
 0001:00031200       ?neib@Tri@physx@@QEAAAEAHHH@Z 0000000180032200 f   hulllib.obj
 0001:00037a20       ??$?2V?$ReflectionAllocator@VConvexH@physx@@@shdfnd@physx@@@UserAllocated@shdfnd@physx@@SAPEAX_KV?$ReflectionAllocator@VConvexH@physx@@@12@PEBDH@Z 0000000180038a20 f i hulllib.obj
 0001:00037a70       ??$?2V?$ReflectionAllocator@VTri@physx@@@shdfnd@physx@@@UserAllocated@shdfnd@physx@@SAPEAX_KV?$ReflectionAllocator@VTri@physx@@@12@PEBDH@Z 0000000180038a70 f i hulllib.obj
 0001:00037ac0       ??$?_UM@@YAPEAX_KV?$ReflectionAllocator@M@shdfnd@physx@@PEBDH@Z 0000000180038ac0 f i hulllib.obj
 0001:00037b10       ??$Max@M@physx@@YAMAEBM0@Z 0000000180038b10 f i hulllib.obj
 0001:00037b70       ??$Min@H@physx@@YAHAEBH0@Z 0000000180038b70 f i hulllib.obj
 0001:00037bc0       ??$Min@M@physx@@YAMAEBM0@Z 0000000180038bc0 f i hulllib.obj
 0001:00037c20       ??$Swap@H@physx@@YAXAEAH0@Z 0000000180038c20 f i hulllib.obj
 0001:00037c70       ??$__vcrt_va_start_verify_argument_type@QEBD@@YAXXZ 0000000180038c70 f i hulllib.obj
 0001:00037c80       ??$maxdir@Vfloat3@physx@@@physx@@YAHPEBVfloat3@0@HAEBV10@@Z 0000000180038c80 f i hulllib.obj
 0001:00037db0       ??$maxdirfiltered@Vfloat3@physx@@@physx@@YAHPEBVfloat3@0@HAEBV10@PEA_N@Z 0000000180038db0 f i hulllib.obj
 0001:00037f70       ??$maxdirsterid@Vfloat3@physx@@@physx@@YAHPEBVfloat3@0@HAEBV10@AEAV?$Array@H@hullLibArray@0@@Z 0000000180038f70 f i hulllib.obj
 0001:00038550       ??0?$Array@H@hullLibArray@physx@@QEAA@H@Z 0000000180039550 f i hulllib.obj
 0001:000385c0       ??0?$Array@PEAVTri@physx@@@hullLibArray@physx@@QEAA@H@Z 00000001800395c0 f i hulllib.obj
 0001:00038630       ??0?$Array@UExpandPlane@physx@@@hullLibArray@physx@@QEAA@H@Z 0000000180039630 f i hulllib.obj
 0001:000386a0       ??0?$Array@VHalfEdge@ConvexH@physx@@@hullLibArray@physx@@QEAA@H@Z 00000001800396a0 f i hulllib.obj
 0001:00038710       ??0?$Array@VPlane@physx@@@hullLibArray@physx@@QEAA@H@Z 0000000180039710 f i hulllib.obj
 0001:00038780       ??0?$Array@Vfloat3@physx@@@hullLibArray@physx@@QEAA@H@Z 0000000180039780 f i hulllib.obj
 0001:000387f0       ??0?$Array@Vint3@physx@@@hullLibArray@physx@@QEAA@H@Z 00000001800397f0 f i hulllib.obj
 0001:00038860       ??0?$ReflectionAllocator@M@shdfnd@physx@@QEAA@PEBD@Z 0000000180039860 f i hulllib.obj
 0001:00038880       ??0?$ReflectionAllocator@VConvexH@physx@@@shdfnd@physx@@QEAA@PEBD@Z 0000000180039880 f i hulllib.obj
 0001:000388a0       ??0?$ReflectionAllocator@VTri@physx@@@shdfnd@physx@@QEAA@PEBD@Z 00000001800398a0 f i hulllib.obj
 0001:000388c0       ??0?$ScopedPointer@_NVTempAllocator@shdfnd@physx@@@shdfnd@physx@@QEAA@XZ 00000001800398c0 f i hulllib.obj
 0001:000388f0       ??0ExpandPlane@physx@@QEAA@XZ 00000001800398f0 f i hulllib.obj
 0001:000389a0       ??0HalfEdge@ConvexH@physx@@QEAA@FEE@Z 00000001800399a0 f i hulllib.obj
 0001:00038a00       ??0HalfEdge@ConvexH@physx@@QEAA@XZ 0000000180039a00 f i hulllib.obj
 0001:00038a10       ??0PHullResult@physx@@QEAA@XZ 0000000180039a10 f i hulllib.obj
 0001:00038a70       ??0Plane@physx@@QEAA@AEBVfloat3@1@M@Z 0000000180039a70 f i hulllib.obj
 0001:00038ac0       ??0Plane@physx@@QEAA@XZ    0000000180039ac0 f i hulllib.obj
 0001:00038b00       ??0Tri@physx@@QEAA@HHHPEAV?$Array@PEAVTri@physx@@@hullLibArray@1@@Z 0000000180039b00 f i hulllib.obj
 0001:00038bc0       ??0float3@physx@@QEAA@MMM@Z 0000000180039bc0 f i hulllib.obj
 0001:00038c20       ??0float3@physx@@QEAA@XZ   0000000180039c20 f i hulllib.obj
 0001:00038c60       ??0float3x3@physx@@QEAA@Vfloat3@1@00@Z 0000000180039c60 f i hulllib.obj
 0001:00038cd0       ??0float3x3@physx@@QEAA@XZ 0000000180039cd0 f i hulllib.obj
 0001:00038d30       ??0int3@physx@@QEAA@HHH@Z  0000000180039d30 f i hulllib.obj
 0001:00038d80       ??0int4@physx@@QEAA@HHHH@Z 0000000180039d80 f i hulllib.obj
 0001:00038de0       ??1?$Array@H@hullLibArray@physx@@QEAA@XZ 0000000180039de0 f i hulllib.obj
 0001:00038e60       ??1?$Array@PEAVTri@physx@@@hullLibArray@physx@@QEAA@XZ 0000000180039e60 f i hulllib.obj
 0001:00038ee0       ??1?$Array@UExpandPlane@physx@@@hullLibArray@physx@@QEAA@XZ 0000000180039ee0 f i hulllib.obj
 0001:00038f60       ??1?$Array@VHalfEdge@ConvexH@physx@@@hullLibArray@physx@@QEAA@XZ 0000000180039f60 f i hulllib.obj
 0001:00038fe0       ??1?$Array@VPlane@physx@@@hullLibArray@physx@@QEAA@XZ 0000000180039fe0 f i hulllib.obj
 0001:00039060       ??1?$Array@Vfloat3@physx@@@hullLibArray@physx@@QEAA@XZ 000000018003a060 f i hulllib.obj
 0001:000390e0       ??1?$Array@Vint3@physx@@@hullLibArray@physx@@QEAA@XZ 000000018003a0e0 f i hulllib.obj
 0001:00039160       ??1?$ScopedPointer@_NVTempAllocator@shdfnd@physx@@@shdfnd@physx@@QEAA@XZ 000000018003a160 f i hulllib.obj
 0001:000391a0       ??1ConvexH@physx@@QEAA@XZ  000000018003a1a0 f i hulllib.obj
 0001:000391f0       ??1Tri@physx@@IEAA@XZ      000000018003a1f0 f i hulllib.obj
 0001:00039200       ??8physx@@YAHAEBVPlane@0@0@Z 000000018003a200 f i hulllib.obj
 0001:00039270       ??8physx@@YAHAEBVfloat3@0@0@Z 000000018003a270 f i hulllib.obj
 0001:000392f0       ??9physx@@YAHAEBVfloat3@0@0@Z 000000018003a2f0 f i hulllib.obj
 0001:00039370       ??A?$Array@H@hullLibArray@physx@@QEAAAEAHH@Z 000000018003a370 f i hulllib.obj
 0001:00039410       ??A?$Array@PEAVTri@physx@@@hullLibArray@physx@@QEAAAEAPEAVTri@2@H@Z 000000018003a410 f i hulllib.obj
 0001:000394b0       ??A?$Array@UExpandPlane@physx@@@hullLibArray@physx@@QEAAAEAUExpandPlane@2@H@Z 000000018003a4b0 f i hulllib.obj
 0001:00039550       ??A?$Array@VHalfEdge@ConvexH@physx@@@hullLibArray@physx@@QEAAAEAVHalfEdge@ConvexH@2@H@Z 000000018003a550 f i hulllib.obj
 0001:000395f0       ??A?$Array@VPlane@physx@@@hullLibArray@physx@@QEAAAEAVPlane@2@H@Z 000000018003a5f0 f i hulllib.obj
 0001:00039690       ??A?$Array@Vfloat3@physx@@@hullLibArray@physx@@QEAAAEAVfloat3@2@H@Z 000000018003a690 f i hulllib.obj
 0001:00039730       ??Afloat3@physx@@QEAAAEAMH@Z 000000018003a730 f i hulllib.obj
 0001:000397d0       ??Afloat3@physx@@QEBAAEBMH@Z 000000018003a7d0 f i hulllib.obj
 0001:00039870       ??Afloat3x3@physx@@QEAAAEAVfloat3@1@H@Z 000000018003a870 f i hulllib.obj
 0001:00039910       ??Afloat3x3@physx@@QEBAAEBVfloat3@1@H@Z 000000018003a910 f i hulllib.obj
 0001:000399b0       ??Aint3@physx@@QEAAAEAHH@Z 000000018003a9b0 f i hulllib.obj
 0001:000399d0       ??Aint3@physx@@QEBAAEBHH@Z 000000018003a9d0 f i hulllib.obj
 0001:000399f0       ??Aint4@physx@@QEAAAEAHH@Z 000000018003a9f0 f i hulllib.obj
 0001:00039a10       ??B?$ScopedPointer@_NVTempAllocator@shdfnd@physx@@@shdfnd@physx@@QEBAPEA_NXZ 000000018003aa10 f i hulllib.obj
 0001:00039a30       ??_G?$Array@PEAVTri@physx@@@hullLibArray@physx@@QEAAPEAXI@Z 000000018003aa30 f i hulllib.obj
 0001:00039a80       ??_GConvexH@physx@@QEAAPEAXI@Z 000000018003aa80 f i hulllib.obj
 0001:00039af0       ??_GTri@physx@@IEAAPEAXI@Z 000000018003aaf0 f i hulllib.obj
 0001:00039b60       ?Add@?$Array@H@hullLibArray@physx@@QEAAAEAHH@Z 000000018003ab60 f i hulllib.obj
 0001:00039c90       ?Add@?$Array@PEAVTri@physx@@@hullLibArray@physx@@QEAAAEAPEAVTri@3@PEAV43@@Z 000000018003ac90 f i hulllib.obj
 0001:00039dd0       ?Add@?$Array@UExpandPlane@physx@@@hullLibArray@physx@@QEAAAEAUExpandPlane@3@U43@@Z 000000018003add0 f i hulllib.obj
 0001:00039f20       ?Add@?$Array@VPlane@physx@@@hullLibArray@physx@@QEAAAEAVPlane@3@V43@@Z 000000018003af20 f i hulllib.obj
 0001:0003a070       ?Add@?$Array@Vfloat3@physx@@@hullLibArray@physx@@QEAAAEAVfloat3@3@V43@@Z 000000018003b070 f i hulllib.obj
 0001:0003a1c0       ?Add@?$Array@Vint3@physx@@@hullLibArray@physx@@QEAAAEAVint3@3@V43@@Z 000000018003b1c0 f i hulllib.obj
 0001:0003a310       ?HasHullFlag@HullDesc@physx@@QEBA_NW4HullFlag@2@@Z 000000018003b310 f i hulllib.obj
 0001:0003a4e0       ?PxMemSet@physx@@YAPEAXPEIAXHI@Z 000000018003b4e0 f i hulllib.obj
 0001:0003a520       ?SetSize@?$Array@PEAVTri@physx@@@hullLibArray@physx@@QEAAXH@Z 000000018003b520 f i hulllib.obj
 0001:0003a5d0       ?SetSize@?$Array@Vint3@physx@@@hullLibArray@physx@@QEAAXH@Z 000000018003b5d0 f i hulllib.obj
 0001:0003a680       ?allocate@?$Array@H@hullLibArray@physx@@QEAAXH@Z 000000018003b680 f i hulllib.obj
 0001:0003a900       ?allocate@?$Array@PEAVTri@physx@@@hullLibArray@physx@@QEAAXH@Z 000000018003b900 f i hulllib.obj
 0001:0003ab80       ?allocate@?$Array@UExpandPlane@physx@@@hullLibArray@physx@@QEAAXH@Z 000000018003bb80 f i hulllib.obj
 0001:0003ae40       ?allocate@?$Array@VHalfEdge@ConvexH@physx@@@hullLibArray@physx@@QEAAXH@Z 000000018003be40 f i hulllib.obj
 0001:0003b0c0       ?allocate@?$Array@VPlane@physx@@@hullLibArray@physx@@QEAAXH@Z 000000018003c0c0 f i hulllib.obj
 0001:0003b380       ?allocate@?$Array@Vfloat3@physx@@@hullLibArray@physx@@QEAAXH@Z 000000018003c380 f i hulllib.obj
 0001:0003b640       ?allocate@?$Array@Vint3@physx@@@hullLibArray@physx@@QEAAXH@Z 000000018003c640 f i hulllib.obj
 0001:0003b900       ?allocate@?$ReflectionAllocator@M@shdfnd@physx@@QEAAPEAX_KPEBDH@Z 000000018003c900 f i hulllib.obj
 0001:0003b9a0       ?allocate@?$ReflectionAllocator@VConvexH@physx@@@shdfnd@physx@@QEAAPEAX_KPEBDH@Z 000000018003c9a0 f i hulllib.obj
 0001:0003ba40       ?allocate@?$ReflectionAllocator@VTri@physx@@@shdfnd@physx@@QEAAPEAX_KPEBDH@Z 000000018003ca40 f i hulllib.obj
 0001:0003bae0       ?distance@Plane@physx@@QEBAMAEBVfloat3@2@@Z 000000018003cae0 f i hulllib.obj
 0001:0003bb50       ?getName@?$ReflectionAllocator@M@shdfnd@physx@@CAPEBDXZ 000000018003cb50 f i hulllib.obj
 0001:0003bba0       ?getName@?$ReflectionAllocator@VConvexH@physx@@@shdfnd@physx@@CAPEBDXZ 000000018003cba0 f i hulllib.obj
 0001:0003bbf0       ?getName@?$ReflectionAllocator@VTri@physx@@@shdfnd@physx@@CAPEBDXZ 000000018003cbf0 f i hulllib.obj
 0001:0003bc40       ?memSet@intrinsics@physx@@YAPEAXPEIAXHI@Z 000000018003cc40 f i hulllib.obj
 0001:0003bc90       ?to8@shdfnd@physx@@YAEG@Z  000000018003cc90 f i hulllib.obj
 0001:0003bd10       __local_stdio_printf_options 000000018003cd10 f i hulllib.obj
 0001:0003bd20       _vfprintf_l                000000018003cd20 f i hulllib.obj
 0001:0003bd80       printf                     000000018003cd80 f i hulllib.obj
 0001:0003be80       ?computeVolumeIntegrals@physx@@YA_NAEBVPxSimpleTriangleMesh@1@MAEAUPxIntegrals@1@@Z 000000018003ce80 f   VolumeIntegration.obj
 0001:0003bf10       ?computeVolumeIntegralsEberly@physx@@YA_NAEBVPxSimpleTriangleMesh@1@MAEAUPxIntegrals@1@AEBVPxVec3@1@@Z 000000018003cf10 f   VolumeIntegration.obj
 0001:00040b50       ??4?$PxFlags@W4Enum@PxMeshFlag@physx@@G@physx@@QEAAAEAV01@AEBV01@@Z 0000000180041b50 f i VolumeIntegration.obj
 0001:00040b80       ??4PxSimpleTriangleMesh@physx@@QEAAAEAV01@AEBV01@@Z 0000000180041b80 f i VolumeIntegration.obj
 0001:00040c00       ?isZero@PxVec3@physx@@QEBA_NXZ 0000000180041c00 f i VolumeIntegration.obj
 0001:00040c60       ?ComputeNbBoundaryEdges@AdjTriangle@physx@@QEBAIXZ 0000000180041c60 f   Adjacencies.obj
 0001:00040cf0       ?ComputeNbNeighbors@AdjTriangle@physx@@QEBAIXZ 0000000180041cf0 f   Adjacencies.obj
 0001:00040d80       ?HasNeighbor@AdjTriangle@physx@@QEBA_NIPEAI@Z 0000000180041d80 f   Adjacencies.obj
 0001:00040e90       ?Flip@AdjTriangle@physx@@QEAAXXZ 0000000180041e90 f   Adjacencies.obj
 0001:00040ee0       ??0Adjacencies@physx@@QEAA@XZ 0000000180041ee0 f   Adjacencies.obj
 0001:00040f10       ??1Adjacencies@physx@@QEAA@XZ 0000000180041f10 f   Adjacencies.obj
 0001:00040f70       ?Load@Adjacencies@physx@@QEAA_NAEAVPxInputStream@2@@Z 0000000180041f70 f   Adjacencies.obj
 0001:00041100       ?Walk@Adjacencies@physx@@QEAA_NP6AXAEBUCommonWalkParams@2@IIII@ZPEAX@Z 0000000180042100 f   Adjacencies.obj
 0001:000412a0       ?Walk2@Adjacencies@physx@@QEAA_NP6AXAEBUCommonWalkParams@2@IIII@ZPEAXPEBVPxVec3@2@PEBU?$TriangleT@I@Gu@2@@Z 00000001800422a0 f   Adjacencies.obj
 0001:000414a0       ?ComputeNbBoundaryEdges@Adjacencies@physx@@QEBAIXZ 00000001800424a0 f   Adjacencies.obj
 0001:00041520       ?GetBoundaryVertices@Adjacencies@physx@@QEBA_NIPEA_NPEBU?$TriangleT@I@Gu@2@@Z 0000000180042520 f   Adjacencies.obj
 0001:00041830       ?MakeLastRef@Adjacencies@physx@@QEAA_NAEAVAdjTriangle@2@IPEAU?$TriangleT@I@Gu@2@@Z 0000000180042830 f   Adjacencies.obj
 0001:00041b90       ?AssignNewEdgeCode@Adjacencies@physx@@AEAAXIE@Z 0000000180042b90 f   Adjacencies.obj
 0001:00041c30       ??0AdjacenciesBuilder@physx@@QEAA@XZ 0000000180042c30 f   Adjacencies.obj
 0001:00041c60       ??1AdjacenciesBuilder@physx@@QEAA@XZ 0000000180042c60 f   Adjacencies.obj
 0001:00041c80       ?Init@AdjacenciesBuilder@physx@@QEAA_NAEBUADJACENCIESCREATE@2@@Z 0000000180042c80 f   Adjacencies.obj
 0001:00043850       ??$?_UV?$ReflectionAllocator@VAdjEdge@@@shdfnd@physx@@@UserAllocated@shdfnd@physx@@SAPEAX_KV?$ReflectionAllocator@VAdjEdge@@@12@PEBDH@Z 0000000180044850 f i Adjacencies.obj
 0001:000438a0       ??$?_UV?$ReflectionAllocator@VAdjTriangle@physx@@@shdfnd@physx@@@UserAllocated@shdfnd@physx@@SAPEAX_KV?$ReflectionAllocator@VAdjTriangle@physx@@@12@PEBDH@Z 00000001800448a0 f i Adjacencies.obj
 0001:000438f0       ??$swap@M@shdfnd@physx@@YAXAEAM0@Z 00000001800448f0 f i Adjacencies.obj
 0001:00043950       ??0?$ReflectionAllocator@VAdjEdge@@@shdfnd@physx@@QEAA@PEBD@Z 0000000180044950 f i Adjacencies.obj
 0001:00043970       ??0?$ReflectionAllocator@VAdjTriangle@physx@@@shdfnd@physx@@QEAA@PEBD@Z 0000000180044970 f i Adjacencies.obj
 0001:00043990       ??0?$TriangleT@I@Gu@physx@@QEAA@XZ 0000000180044990 f i Adjacencies.obj
 0001:000439a0       ??0AdjEdge@@QEAA@XZ        00000001800449a0 f i Adjacencies.obj
 0001:000439b0       ??0AdjTriangle@physx@@QEAA@XZ 00000001800449b0 f i Adjacencies.obj
 0001:000439f0       ??1AdjEdge@@QEAA@XZ        00000001800449f0 f i Adjacencies.obj
 0001:00043a00       ??1AdjTriangle@physx@@QEAA@XZ 0000000180044a00 f i Adjacencies.obj
 0001:00043a10       ??_EAdjEdge@@QEAAPEAXI@Z   0000000180044a10 f i Adjacencies.obj
 0001:00043b20       ??_EAdjTriangle@physx@@QEAAPEAXI@Z 0000000180044b20 f i Adjacencies.obj
 0001:00043c30       ??_I@YAXPEAX_K1P6AX0@Z@Z   0000000180044c30 f i Adjacencies.obj
 0001:00043cf0       ??_VUserAllocated@shdfnd@physx@@SAXPEAX@Z 0000000180044cf0 f i Adjacencies.obj
 0001:00043d30       ?GetEdgeTriangle@EdgeList@Gu@physx@@QEBAAEBUEdgeTriangleData@23@I@Z 0000000180044d30 f i Adjacencies.obj
 0001:00043d60       ?HasActiveEdge01@EdgeTriangleAC@Gu@physx@@SAHAEBUEdgeTriangleData@23@@Z 0000000180044d60 f i Adjacencies.obj
 0001:00043d90       ?HasActiveEdge12@EdgeTriangleAC@Gu@physx@@SAHAEBUEdgeTriangleData@23@@Z 0000000180044d90 f i Adjacencies.obj
 0001:00043dc0       ?HasActiveEdge20@EdgeTriangleAC@Gu@physx@@SAHAEBUEdgeTriangleData@23@@Z 0000000180044dc0 f i Adjacencies.obj
 0001:00044650       ?allocate@?$ReflectionAllocator@VAdjEdge@@@shdfnd@physx@@QEAAPEAX_KPEBDH@Z 0000000180045650 f i Adjacencies.obj
 0001:000446f0       ?allocate@?$ReflectionAllocator@VAdjTriangle@physx@@@shdfnd@physx@@QEAAPEAX_KPEBDH@Z 00000001800456f0 f i Adjacencies.obj
 0001:00044790       ?findEdge@?$TriangleT@I@Gu@physx@@QEBAEII@Z 0000000180045790 f i Adjacencies.obj
 0001:00044940       ?getName@?$ReflectionAllocator@VAdjEdge@@@shdfnd@physx@@CAPEBDXZ 0000000180045940 f i Adjacencies.obj
 0001:00044990       ?getName@?$ReflectionAllocator@VAdjTriangle@physx@@@shdfnd@physx@@CAPEBDXZ 0000000180045990 f i Adjacencies.obj
 0001:000449e0       PxCreateCooking            00000001800459e0 f   Cooking.obj
 0001:00044ad0       ?release@Cooking@physx@@UEAAXXZ 0000000180045ad0 f   Cooking.obj
 0001:00044b30       ?setParams@Cooking@physx@@UEAAXAEBUPxCookingParams@2@@Z 0000000180045b30 f   Cooking.obj
 0001:00044b60       ?getParams@Cooking@physx@@UEAAAEBUPxCookingParams@2@XZ 0000000180045b60 f   Cooking.obj
 0001:00044b80       ?platformMismatch@Cooking@physx@@UEAA_NXZ 0000000180045b80 f   Cooking.obj
 0001:00044d00       ?cookTriangleMesh@Cooking@physx@@UEAA_NAEBVPxTriangleMeshDesc@2@AEAVPxOutputStream@2@@Z 0000000180045d00 f   Cooking.obj
 0001:00044f10       ?createTriangleMesh@Cooking@physx@@UEAAPEAVPxTriangleMesh@2@AEBVPxTriangleMeshDesc@2@AEAVPxPhysicsInsertionCallback@2@@Z 0000000180045f10 f   Cooking.obj
 0001:00045170       ?validateTriangleMesh@Cooking@physx@@UEAA_NAEBVPxTriangleMeshDesc@2@@Z 0000000180046170 f   Cooking.obj
 0001:00045230       ?cookConvexMesh@Cooking@physx@@UEAA_NAEBVPxConvexMeshDesc@2@AEAVPxOutputStream@2@PEAW4Enum@PxConvexMeshCookingResult@2@@Z 0000000180046230 f   Cooking.obj
 0001:00045860       ?computeHullPolygons@Cooking@physx@@UEAA_NAEBVPxSimpleTriangleMesh@2@AEAVPxAllocatorCallback@2@AEAIAEAPEAVPxVec3@2@2AEAPEAI2AEAPEAUPxHullPolygon@2@@Z 0000000180046860 f   Cooking.obj
 0001:00045b30       ?cookHeightField@Cooking@physx@@UEAA_NAEBVPxHeightFieldDesc@2@AEAVPxOutputStream@2@@Z 0000000180046b30 f   Cooking.obj
 0001:00045df0       ?createHeightField@Cooking@physx@@UEAAPEAVPxHeightField@2@AEBVPxHeightFieldDesc@2@AEAVPxPhysicsInsertionCallback@2@@Z 0000000180046df0 f   Cooking.obj
 0001:000460a0       ?loadTriangleMeshDesc@Cooking@physx@@AEAA_NAEBVPxTriangleMeshDesc@2@AEAVTriangleMeshBuilder@2@@Z 00000001800470a0 f   Cooking.obj
 0001:000467a0       ??$?2V?$ReflectionAllocator@VCooking@physx@@@shdfnd@physx@@@UserAllocated@shdfnd@physx@@SAPEAX_KV?$ReflectionAllocator@VCooking@physx@@@12@PEBDH@Z 00000001800477a0 f i Cooking.obj
 0001:000467f0       ??$PX_UNUSED@VPxFoundation@physx@@@@YAXAEBVPxFoundation@physx@@@Z 00000001800477f0 f i Cooking.obj
 0001:00046800       ??0?$PxFlags@W4Enum@PxConvexFlag@physx@@G@physx@@QEAA@W4Enum@PxConvexFlag@1@@Z 0000000180047800 f i Cooking.obj
 0001:00046830       ??0?$PxFlags@W4Enum@PxConvexFlag@physx@@G@physx@@QEAA@XZ 0000000180047830 f i Cooking.obj
 0001:00046850       ??0?$PxFlags@W4Enum@PxHeightFieldFlag@physx@@G@physx@@QEAA@AEBV01@@Z 0000000180047850 f i Cooking.obj
 0001:00046880       ??0?$ReflectionAllocator@VCooking@physx@@@shdfnd@physx@@QEAA@PEBD@Z 0000000180047880 f i Cooking.obj
 0001:000468a0       ??0?$ReflectionAllocator@VHeightField@Gu@physx@@@shdfnd@physx@@QEAA@PEBD@Z 00000001800478a0 f i Cooking.obj
 0001:000468c0       ??0?$ReflectionAllocator@VTriangleMeshBuilder@physx@@@shdfnd@physx@@QEAA@PEBD@Z 00000001800478c0 f i Cooking.obj
 0001:000468e0       ??0Cooking@physx@@QEAA@AEBUPxCookingParams@1@@Z 00000001800478e0 f i Cooking.obj
 0001:00046940       ??0HullDesc@physx@@QEAA@XZ 0000000180047940 f i Cooking.obj
 0001:000469d0       ??0HullResult@physx@@QEAA@XZ 00000001800479d0 f i Cooking.obj
 0001:00046a40       ??0PxConvexMeshDesc@physx@@QEAA@AEBV01@@Z 0000000180047a40 f i Cooking.obj
 0001:00046b10       ??0PxCooking@physx@@QEAA@XZ 0000000180047b10 f i Cooking.obj
 0001:00046b30       ??0PxCookingParams@physx@@QEAA@AEBU01@@Z 0000000180047b30 f i Cooking.obj
 0001:00046c50       ??0TriangleMeshBuilder@physx@@QEAA@XZ 0000000180047c50 f i Cooking.obj
 0001:00046ca0       ??1Cooking@physx@@UEAA@XZ  0000000180047ca0 f i Cooking.obj
 0001:00046cc0       ??1PxCooking@physx@@MEAA@XZ 0000000180047cc0 f i Cooking.obj
 0001:00046ce0       ??1TriangleMeshBuilder@physx@@UEAA@XZ 0000000180047ce0 f i Cooking.obj
 0001:00046d00       ??4?$PxFlags@W4Enum@PxMeshPreprocessingFlag@physx@@I@physx@@QEAAAEAV01@AEBV01@@Z 0000000180047d00 f i Cooking.obj
 0001:00046d30       ??4PxCookingParams@physx@@QEAAAEAU01@AEBU01@@Z 0000000180047d30 f i Cooking.obj
 0001:00046e50       ??9?$PxFlags@W4Enum@PxHeightFieldFlag@physx@@G@physx@@QEBA_NAEBV01@@Z 0000000180047e50 f i Cooking.obj
 0001:00046ea0       ??I?$PxFlags@W4Enum@PxHeightFieldFlag@physx@@G@physx@@QEBA?AV01@W4Enum@PxHeightFieldFlag@1@@Z 0000000180047ea0 f i Cooking.obj
 0001:00046f10       ??S?$PxFlags@W4Enum@PxConvexFlag@physx@@G@physx@@QEBA?AV01@XZ 0000000180047f10 f i Cooking.obj
 0001:00046f60       ??Sphysx@@YA?AV?$PxFlags@W4Enum@PxConvexFlag@physx@@G@0@W4Enum@PxConvexFlag@0@@Z 0000000180047f60 f i Cooking.obj
 0001:00046fa0       ??_4?$PxFlags@W4Enum@PxConvexFlag@physx@@G@physx@@QEAAAEAV01@AEBV01@@Z 0000000180047fa0 f i Cooking.obj
 0001:00046fd8       ??_ETriangleMeshBuilder@physx@@WBA@EAAPEAXI@Z 0000000180047fd8 f i Cooking.obj
 0001:00046ff0       ??_GCooking@physx@@UEAAPEAXI@Z 0000000180047ff0 f i Cooking.obj
 0001:00046ff0       ??_ECooking@physx@@UEAAPEAXI@Z 0000000180047ff0 f i Cooking.obj
 0001:00047060       ??_GPxCooking@physx@@MEAAPEAXI@Z 0000000180048060 f i Cooking.obj
 0001:00047060       ??_EPxCooking@physx@@MEAAPEAXI@Z 0000000180048060 f i Cooking.obj
 0001:000470b0       ??_ETriangleMeshBuilder@physx@@UEAAPEAXI@Z 00000001800480b0 f i Cooking.obj
 0001:000470b0       ??_GTriangleMeshBuilder@physx@@UEAAPEAXI@Z 00000001800480b0 f i Cooking.obj
 0001:00047120       ?allocate@?$ReflectionAllocator@VCooking@physx@@@shdfnd@physx@@QEAAPEAX_KPEBDH@Z 0000000180048120 f i Cooking.obj
 0001:000471c0       ?allocate@?$ReflectionAllocator@VHeightField@Gu@physx@@@shdfnd@physx@@QEAAPEAX_KPEBDH@Z 00000001800481c0 f i Cooking.obj
 0001:00047260       ?allocate@?$ReflectionAllocator@VTriangleMeshBuilder@physx@@@shdfnd@physx@@QEAAPEAX_KPEBDH@Z 0000000180048260 f i Cooking.obj
 0001:00047300       ?getName@?$ReflectionAllocator@VCooking@physx@@@shdfnd@physx@@CAPEBDXZ 0000000180048300 f i Cooking.obj
 0001:00047350       ?getName@?$ReflectionAllocator@VHeightField@Gu@physx@@@shdfnd@physx@@CAPEBDXZ 0000000180048350 f i Cooking.obj
 0001:000473a0       ?getName@?$ReflectionAllocator@VTriangleMeshBuilder@physx@@@shdfnd@physx@@CAPEBDXZ 00000001800483a0 f i Cooking.obj
 0001:000473f0       ?isValid@PxHeightFieldDesc@physx@@QEBA_NXZ 00000001800483f0 f i Cooking.obj
 0001:00047510       ?littleEndian@shdfnd@physx@@YADXZ 0000000180048510 f i Cooking.obj
 0001:00047530       ?requires@TriangleMesh@Gu@physx@@UEAAXAEAVPxProcessPxBaseCallback@3@@Z 0000000180048530 f i Cooking.obj
 0001:00047540       ??0ReducedVertexCloud@physx@@QEAA@PEBVPxVec3@1@I@Z 0000000180048540 f   CookingUtils.obj
 0001:000475a0       ??1ReducedVertexCloud@physx@@QEAA@XZ 00000001800485a0 f   CookingUtils.obj
 0001:000475c0       ?Clean@ReducedVertexCloud@physx@@QEAAAEAV12@XZ 00000001800485c0 f   CookingUtils.obj
 0001:00047640       ?Reduce@ReducedVertexCloud@physx@@QEAA_NPEAUREDUCEDCLOUD@2@@Z 0000000180048640 f   CookingUtils.obj
 0001:00047ca0       ??0EdgeList@Gu@physx@@QEAA@XZ 0000000180048ca0 f   EdgeList.obj
 0001:00047cf0       ??1EdgeList@Gu@physx@@QEAA@XZ 0000000180048cf0 f   EdgeList.obj
 0001:00047dc0       ?Load@EdgeList@Gu@physx@@QEAA_NAEAVPxInputStream@3@@Z 0000000180048dc0 f   EdgeList.obj
 0001:00048100       ??0EdgeListBuilder@Gu@physx@@QEAA@XZ 0000000180049100 f   EdgeList.obj
 0001:00048130       ??1EdgeListBuilder@Gu@physx@@QEAA@XZ 0000000180049130 f   EdgeList.obj
 0001:00048150       ?Init@EdgeListBuilder@Gu@physx@@QEAA_NAEBUEDGELISTCREATE@23@@Z 0000000180049150 f   EdgeList.obj
 0001:00048330       ?CreateFacesToEdges@EdgeListBuilder@Gu@physx@@AEAA_NIPEBIPEBG@Z 0000000180049330 f   EdgeList.obj
 0001:00048b10       ?CreateEdgesToFaces@EdgeListBuilder@Gu@physx@@AEAA_NIPEBIPEBG@Z 0000000180049b10 f   EdgeList.obj
 0001:000490b0       ?ComputeActiveEdges@EdgeListBuilder@Gu@physx@@AEAA_NIPEBIPEBGPEBVPxVec3@3@M@Z 000000018004a0b0 f   EdgeList.obj
 0001:0004b6d0       ??$?_UUEdgeData@Gu@physx@@@@YAPEAX_KV?$ReflectionAllocator@UEdgeData@Gu@physx@@@shdfnd@physx@@PEBDH@Z 000000018004c6d0 f i EdgeList.obj
 0001:0004b720       ??$?_UUEdgeTriangleData@Gu@physx@@@@YAPEAX_KV?$ReflectionAllocator@UEdgeTriangleData@Gu@physx@@@shdfnd@physx@@PEBDH@Z 000000018004c720 f i EdgeList.obj
 0001:0004b770       ??0?$ReflectionAllocator@UEdgeData@Gu@physx@@@shdfnd@physx@@QEAA@PEBD@Z 000000018004c770 f i EdgeList.obj
 0001:0004b790       ??0?$ReflectionAllocator@UEdgeTriangleData@Gu@physx@@@shdfnd@physx@@QEAA@PEBD@Z 000000018004c790 f i EdgeList.obj
 0001:0004b7b0       ??0PxTriangle@physx@@QEAA@AEBVPxVec3@1@00@Z 000000018004c7b0 f i EdgeList.obj
 0001:0004b880       ??1PxTriangle@physx@@QEAA@XZ 000000018004c880 f i EdgeList.obj
 0001:0004b890       ?GetEdgeToTriangles@EdgeList@Gu@physx@@QEBAPEBUEdgeDescData@23@XZ 000000018004c890 f i EdgeList.obj
 0001:0004b8b0       ?GetEdges@EdgeList@Gu@physx@@QEBAPEBUEdgeData@23@XZ 000000018004c8b0 f i EdgeList.obj
 0001:0004b8d0       ?GetFacesByEdges@EdgeList@Gu@physx@@QEBAPEBIXZ 000000018004c8d0 f i EdgeList.obj
 0001:0004b8f0       ?OppositeVertex@@YAIIIIII@Z 000000018004c8f0 f i EdgeList.obj
 0001:0004b9c0       ?PxAtan2@physx@@YAMMM@Z    000000018004c9c0 f i EdgeList.obj
 0001:0004b9f0       ?allocate@?$ReflectionAllocator@UEdgeData@Gu@physx@@@shdfnd@physx@@QEAAPEAX_KPEBDH@Z 000000018004c9f0 f i EdgeList.obj
 0001:0004ba90       ?allocate@?$ReflectionAllocator@UEdgeTriangleData@Gu@physx@@@shdfnd@physx@@QEAAPEAX_KPEBDH@Z 000000018004ca90 f i EdgeList.obj
 0001:0004bb30       ?angle@shdfnd@physx@@YAMAEBVPxVec3@2@0@Z 000000018004cb30 f i EdgeList.obj
 0001:0004bbb0       ?getName@?$ReflectionAllocator@UEdgeData@Gu@physx@@@shdfnd@physx@@CAPEBDXZ 000000018004cbb0 f i EdgeList.obj
 0001:0004bc00       ?getName@?$ReflectionAllocator@UEdgeTriangleData@Gu@physx@@@shdfnd@physx@@CAPEBDXZ 000000018004cc00 f i EdgeList.obj
 0001:0004bc50       ?normal@PxTriangle@physx@@QEBAXAEAVPxVec3@2@@Z 000000018004cc50 f i EdgeList.obj
 0001:0004bd40       ??0InternalTriangleMeshBuilder@physx@@QEAA@PEAVInternalTriangleMesh@1@AEBUPxCookingParams@1@@Z 000000018004cd40 f   InternalTriangleMeshBuilder.obj
 0001:0004bd90       ??1InternalTriangleMeshBuilder@physx@@QEAA@XZ 000000018004cd90 f   InternalTriangleMeshBuilder.obj
 0001:0004bdb0       ?cleanMesh@InternalTriangleMeshBuilder@physx@@QEAA_N_N@Z 000000018004cdb0 f   InternalTriangleMeshBuilder.obj
 0001:0004c5b0       ?fillRemapTable@InternalTriangleMeshBuilder@physx@@QEAAXXZ 000000018004d5b0 f   InternalTriangleMeshBuilder.obj
 0001:0004c6c0       ?remapTopology@InternalTriangleMeshBuilder@physx@@QEAAXPEBI@Z 000000018004d6c0 f   InternalTriangleMeshBuilder.obj
 0001:0004cb00       ?createRTree@InternalTriangleMeshBuilder@physx@@QEAA_NXZ 000000018004db00 f   InternalTriangleMeshBuilder.obj
 0001:0004cd00       ?createSharedEdgeData@InternalTriangleMeshBuilder@physx@@QEAAX_N0@Z 000000018004dd00 f   InternalTriangleMeshBuilder.obj
 0001:0004d690       ?releaseEdgeList@InternalTriangleMeshBuilder@physx@@AEAAXXZ 000000018004e690 f   InternalTriangleMeshBuilder.obj
 0001:0004d6f0       ?createEdgeList@InternalTriangleMeshBuilder@physx@@AEAAXXZ 000000018004e6f0 f   InternalTriangleMeshBuilder.obj
 0001:0004df40       ??$?2V?$ReflectionAllocator@VEdgeListBuilder@Gu@physx@@@shdfnd@physx@@@UserAllocated@shdfnd@physx@@SAPEAX_KV?$ReflectionAllocator@VEdgeListBuilder@Gu@physx@@@12@PEBDH@Z 000000018004ef40 f i InternalTriangleMeshBuilder.obj
 0001:0004df90       ??$PX_UNUSED@U?$TriangleT@I@Gu@physx@@@@YAXAEBU?$TriangleT@I@Gu@physx@@@Z 000000018004ef90 f i InternalTriangleMeshBuilder.obj
 0001:0004dfa0       ??0?$Array@IVNamedAllocator@shdfnd@physx@@@shdfnd@physx@@QEAA@AEBVNamedAllocator@12@@Z 000000018004efa0 f i InternalTriangleMeshBuilder.obj
 0001:0004e000       ??0?$ReflectionAllocator@VEdgeListBuilder@Gu@physx@@@shdfnd@physx@@QEAA@PEBD@Z 000000018004f000 f i InternalTriangleMeshBuilder.obj
 0001:0004e020       ??0RTreeCookerRemap@@QEAA@I@Z 000000018004f020 f i InternalTriangleMeshBuilder.obj
 0001:0004e070       ??0RemapCallback@RTreeCooker@physx@@QEAA@XZ 000000018004f070 f i InternalTriangleMeshBuilder.obj
 0001:0004e090       ??1RTreeCookerRemap@@UEAA@XZ 000000018004f090 f i InternalTriangleMeshBuilder.obj
 0001:0004e0b0       ??1RemapCallback@RTreeCooker@physx@@UEAA@XZ 000000018004f0b0 f i InternalTriangleMeshBuilder.obj
 0001:0004e0d0       ??_GEdgeListBuilder@Gu@physx@@QEAAPEAXI@Z 000000018004f0d0 f i InternalTriangleMeshBuilder.obj
 0001:0004e140       ??_ERTreeCookerRemap@@UEAAPEAXI@Z 000000018004f140 f i InternalTriangleMeshBuilder.obj
 0001:0004e140       ??_GRTreeCookerRemap@@UEAAPEAXI@Z 000000018004f140 f i InternalTriangleMeshBuilder.obj
 0001:0004e190       ??_ERemapCallback@RTreeCooker@physx@@UEAAPEAXI@Z 000000018004f190 f i InternalTriangleMeshBuilder.obj
 0001:0004e190       ??_GRemapCallback@RTreeCooker@physx@@UEAAPEAXI@Z 000000018004f190 f i InternalTriangleMeshBuilder.obj
 0001:0004e1e0       ?GetNbFaces@EdgeList@Gu@physx@@QEBAIXZ 000000018004f1e0 f i InternalTriangleMeshBuilder.obj
 0001:0004e200       ?LeafSetData@Gu@physx@@YAIII@Z 000000018004f200 f i InternalTriangleMeshBuilder.obj
 0001:0004e310       ?SetData@LeafTriangles@Gu@physx@@QEAAXII@Z 000000018004f310 f i InternalTriangleMeshBuilder.obj
 0001:0004e350       ?allocate@?$ReflectionAllocator@VEdgeListBuilder@Gu@physx@@@shdfnd@physx@@QEAAPEAX_KPEBDH@Z 000000018004f350 f i InternalTriangleMeshBuilder.obj
 0001:0004e3f0       ?findEdgeCCW@?$TriangleT@I@Gu@physx@@QEBAEII@Z 000000018004f3f0 f i InternalTriangleMeshBuilder.obj
 0001:0004e5a0       ?getName@?$ReflectionAllocator@VEdgeListBuilder@Gu@physx@@@shdfnd@physx@@CAPEBDXZ 000000018004f5a0 f i InternalTriangleMeshBuilder.obj
 0001:0004e5f0       ?remap@RTreeCookerRemap@@UEAAXPEAIII@Z 000000018004f5f0 f i InternalTriangleMeshBuilder.obj
 0001:0004e860       ??0MeshCleaner@physx@@QEAA@IPEBVPxVec3@1@IPEBIM@Z 000000018004f860 f   MeshCleaner.obj
 0001:0004f540       ??1MeshCleaner@physx@@QEAA@XZ 0000000180050540 f   MeshCleaner.obj
 0001:0004fc50       ??9Indices@@QEBA_NAEBU0@@Z 0000000180050c50 f i MeshCleaner.obj
 0001:0004fd10       ??9PxVec3@physx@@QEBA_NAEBV01@@Z 0000000180050d10 f i MeshCleaner.obj
 0001:0004fd90       ?PxFloor@physx@@YAMM@Z     0000000180050d90 f i MeshCleaner.obj
 0001:0004fdb0       ?nextPowerOfTwo@shdfnd@physx@@YAII@Z 0000000180050db0 f i MeshCleaner.obj
 0001:0004fe34       GetModuleFileNameA         0000000180050e34 f   kernel32:KERNEL32.dll
 0001:0004fe3a       LoadLibraryA               0000000180050e3a f   kernel32:KERNEL32.dll
 0001:0004fe40       __imp_load_?writeWord@physx@@YAXG_NAEAVPxOutputStream@1@@Z 0000000180050e40 f   PhysX3CommonDEBUG_x64:PhysX3CommonDEBUG_x64.dll
 0001:0004fe4c       __tailMerge_PhysX3CommonDEBUG_x64_dll 0000000180050e4c f i PhysX3CommonDEBUG_x64:PhysX3CommonDEBUG_x64.dll
 0001:0004fec5       ?writeWord@physx@@YAXG_NAEAVPxOutputStream@1@@Z 0000000180050ec5 f   PhysX3CommonDEBUG_x64:PhysX3CommonDEBUG_x64.dll
 0001:0004fecb       __imp_load_?writeDword@physx@@YAXI_NAEAVPxOutputStream@1@@Z 0000000180050ecb f   PhysX3CommonDEBUG_x64:PhysX3CommonDEBUG_x64.dll
 0001:0004fed7       ?writeDword@physx@@YAXI_NAEAVPxOutputStream@1@@Z 0000000180050ed7 f   PhysX3CommonDEBUG_x64:PhysX3CommonDEBUG_x64.dll
 0001:0004fedd       __imp_load_?writeFloat@physx@@YAXM_NAEAVPxOutputStream@1@@Z 0000000180050edd f   PhysX3CommonDEBUG_x64:PhysX3CommonDEBUG_x64.dll
 0001:0004fee9       ?writeFloat@physx@@YAXM_NAEAVPxOutputStream@1@@Z 0000000180050ee9 f   PhysX3CommonDEBUG_x64:PhysX3CommonDEBUG_x64.dll
 0001:0004feef       __imp_load_?writeHeader@physx@@YA_NCCCCI_NAEAVPxOutputStream@1@@Z 0000000180050eef f   PhysX3CommonDEBUG_x64:PhysX3CommonDEBUG_x64.dll
 0001:0004fefb       ?writeHeader@physx@@YA_NCCCCI_NAEAVPxOutputStream@1@@Z 0000000180050efb f   PhysX3CommonDEBUG_x64:PhysX3CommonDEBUG_x64.dll
 0001:0004ff01       __imp_load_??0Allocator@shdfnd@physx@@QEAA@PEBD@Z 0000000180050f01 f   PhysX3CommonDEBUG_x64:PhysX3CommonDEBUG_x64.dll
 0001:0004ff0d       ??0Allocator@shdfnd@physx@@QEAA@PEBD@Z 0000000180050f0d f   PhysX3CommonDEBUG_x64:PhysX3CommonDEBUG_x64.dll
 0001:0004ff13       __imp_load_?allocate@Allocator@shdfnd@physx@@QEAAPEAX_KPEBDH@Z 0000000180050f13 f   PhysX3CommonDEBUG_x64:PhysX3CommonDEBUG_x64.dll
 0001:0004ff1f       ?allocate@Allocator@shdfnd@physx@@QEAAPEAX_KPEBDH@Z 0000000180050f1f f   PhysX3CommonDEBUG_x64:PhysX3CommonDEBUG_x64.dll
 0001:0004ff25       __imp_load_??0NamedAllocator@shdfnd@physx@@QEAA@PEBD@Z 0000000180050f25 f   PhysX3CommonDEBUG_x64:PhysX3CommonDEBUG_x64.dll
 0001:0004ff31       ??0NamedAllocator@shdfnd@physx@@QEAA@PEBD@Z 0000000180050f31 f   PhysX3CommonDEBUG_x64:PhysX3CommonDEBUG_x64.dll
 0001:0004ff37       __imp_load_??0NamedAllocator@shdfnd@physx@@QEAA@AEBV012@@Z 0000000180050f37 f   PhysX3CommonDEBUG_x64:PhysX3CommonDEBUG_x64.dll
 0001:0004ff43       ??0NamedAllocator@shdfnd@physx@@QEAA@AEBV012@@Z 0000000180050f43 f   PhysX3CommonDEBUG_x64:PhysX3CommonDEBUG_x64.dll
 0001:0004ff49       __imp_load_??1NamedAllocator@shdfnd@physx@@QEAA@XZ 0000000180050f49 f   PhysX3CommonDEBUG_x64:PhysX3CommonDEBUG_x64.dll
 0001:0004ff55       ??1NamedAllocator@shdfnd@physx@@QEAA@XZ 0000000180050f55 f   PhysX3CommonDEBUG_x64:PhysX3CommonDEBUG_x64.dll
 0001:0004ff5b       __imp_load_?allocate@NamedAllocator@shdfnd@physx@@QEAAPEAX_KPEBDH@Z 0000000180050f5b f   PhysX3CommonDEBUG_x64:PhysX3CommonDEBUG_x64.dll
 0001:0004ff67       ?allocate@NamedAllocator@shdfnd@physx@@QEAAPEAX_KPEBDH@Z 0000000180050f67 f   PhysX3CommonDEBUG_x64:PhysX3CommonDEBUG_x64.dll
 0001:0004ff6d       __imp_load_?deallocate@NamedAllocator@shdfnd@physx@@QEAAXPEAX@Z 0000000180050f6d f   PhysX3CommonDEBUG_x64:PhysX3CommonDEBUG_x64.dll
 0001:0004ff79       ?deallocate@NamedAllocator@shdfnd@physx@@QEAAXPEAX@Z 0000000180050f79 f   PhysX3CommonDEBUG_x64:PhysX3CommonDEBUG_x64.dll
 0001:0004ff7f       __imp_load_?PxGetAssertHandler@physx@@YAAEAVPxAssertHandler@1@XZ 0000000180050f7f f   PhysX3CommonDEBUG_x64:PhysX3CommonDEBUG_x64.dll
 0001:0004ff8b       ?PxGetAssertHandler@physx@@YAAEAVPxAssertHandler@1@XZ 0000000180050f8b f   PhysX3CommonDEBUG_x64:PhysX3CommonDEBUG_x64.dll
 0001:0004ff91       __imp_load_?validate@RTree@Gu@physx@@QEAAXXZ 0000000180050f91 f   PhysX3CommonDEBUG_x64:PhysX3CommonDEBUG_x64.dll
 0001:0004ff9d       ?validate@RTree@Gu@physx@@QEAAXXZ 0000000180050f9d f   PhysX3CommonDEBUG_x64:PhysX3CommonDEBUG_x64.dll
 0001:0004ffa3       __imp_load_??0TempAllocator@shdfnd@physx@@QEAA@PEBD@Z 0000000180050fa3 f   PhysX3CommonDEBUG_x64:PhysX3CommonDEBUG_x64.dll
 0001:0004ffaf       ??0TempAllocator@shdfnd@physx@@QEAA@PEBD@Z 0000000180050faf f   PhysX3CommonDEBUG_x64:PhysX3CommonDEBUG_x64.dll
 0001:0004ffb5       __imp_load_?allocate@TempAllocator@shdfnd@physx@@QEAAPEAX_KPEBDH@Z 0000000180050fb5 f   PhysX3CommonDEBUG_x64:PhysX3CommonDEBUG_x64.dll
 0001:0004ffc1       ?allocate@TempAllocator@shdfnd@physx@@QEAAPEAX_KPEBDH@Z 0000000180050fc1 f   PhysX3CommonDEBUG_x64:PhysX3CommonDEBUG_x64.dll
 0001:0004ffc7       __imp_load_?deallocate@TempAllocator@shdfnd@physx@@QEAAXPEAX@Z 0000000180050fc7 f   PhysX3CommonDEBUG_x64:PhysX3CommonDEBUG_x64.dll
 0001:0004ffd3       ?deallocate@TempAllocator@shdfnd@physx@@QEAAXPEAX@Z 0000000180050fd3 f   PhysX3CommonDEBUG_x64:PhysX3CommonDEBUG_x64.dll
 0001:0004ffd9       __imp_load_?computeBoundsAroundVertices@Gu@physx@@YAXAEAVPxBounds3@2@IPEIBVPxVec3@2@@Z 0000000180050fd9 f   PhysX3CommonDEBUG_x64:PhysX3CommonDEBUG_x64.dll
 0001:0004ffe5       ?computeBoundsAroundVertices@Gu@physx@@YAXAEAVPxBounds3@2@IPEIBVPxVec3@2@@Z 0000000180050fe5 f   PhysX3CommonDEBUG_x64:PhysX3CommonDEBUG_x64.dll
 0001:0004ffeb       __imp_load_PxGetFoundation 0000000180050feb f   PhysX3CommonDEBUG_x64:PhysX3CommonDEBUG_x64.dll
 0001:0004fff7       PxGetFoundation            0000000180050ff7 f   PhysX3CommonDEBUG_x64:PhysX3CommonDEBUG_x64.dll
 0001:0004fffd       __imp_load_?getAllocator@shdfnd@physx@@YAAEAVPxAllocatorCallback@2@XZ 0000000180050ffd f   PhysX3CommonDEBUG_x64:PhysX3CommonDEBUG_x64.dll
 0001:00050009       ?getAllocator@shdfnd@physx@@YAAEAVPxAllocatorCallback@2@XZ 0000000180051009 f   PhysX3CommonDEBUG_x64:PhysX3CommonDEBUG_x64.dll
 0001:0005000f       __imp_load_?deallocate@Allocator@shdfnd@physx@@QEAAXPEAX@Z 000000018005100f f   PhysX3CommonDEBUG_x64:PhysX3CommonDEBUG_x64.dll
 0001:0005001b       ?deallocate@Allocator@shdfnd@physx@@QEAAXPEAX@Z 000000018005101b f   PhysX3CommonDEBUG_x64:PhysX3CommonDEBUG_x64.dll
 0001:00050021       __imp_load_?getInstance@Foundation@shdfnd@physx@@SAAEAV123@XZ 0000000180051021 f   PhysX3CommonDEBUG_x64:PhysX3CommonDEBUG_x64.dll
 0001:0005002d       ?getInstance@Foundation@shdfnd@physx@@SAAEAV123@XZ 000000018005102d f   PhysX3CommonDEBUG_x64:PhysX3CommonDEBUG_x64.dll
 0001:00050033       __imp_load_?error@Foundation@shdfnd@physx@@QEAAXW4Enum@PxErrorCode@3@PEBDH1ZZ 0000000180051033 f   PhysX3CommonDEBUG_x64:PhysX3CommonDEBUG_x64.dll
 0001:0005003f       ?error@Foundation@shdfnd@physx@@QEAAXW4Enum@PxErrorCode@3@PEBDH1ZZ 000000018005103f f   PhysX3CommonDEBUG_x64:PhysX3CommonDEBUG_x64.dll
 0001:00050045       __imp_load_?save@RTree@Gu@physx@@QEBA_NAEAVPxOutputStream@3@@Z 0000000180051045 f   PhysX3CommonDEBUG_x64:PhysX3CommonDEBUG_x64.dll
 0001:00050051       ?save@RTree@Gu@physx@@QEBA_NAEAVPxOutputStream@3@@Z 0000000180051051 f   PhysX3CommonDEBUG_x64:PhysX3CommonDEBUG_x64.dll
 0001:00050057       __imp_load_?release@InternalTriangleMesh@physx@@QEAAXXZ 0000000180051057 f   PhysX3CommonDEBUG_x64:PhysX3CommonDEBUG_x64.dll
 0001:00050063       ?release@InternalTriangleMesh@physx@@QEAAXXZ 0000000180051063 f   PhysX3CommonDEBUG_x64:PhysX3CommonDEBUG_x64.dll
 0001:00050069       __imp_load_?allocateVertices@InternalTriangleMesh@physx@@QEAAPEAVPxVec3@2@I@Z 0000000180051069 f   PhysX3CommonDEBUG_x64:PhysX3CommonDEBUG_x64.dll
 0001:00050075       ?allocateVertices@InternalTriangleMesh@physx@@QEAAPEAVPxVec3@2@I@Z 0000000180051075 f   PhysX3CommonDEBUG_x64:PhysX3CommonDEBUG_x64.dll
 0001:0005007b       __imp_load_?allocateTriangles@InternalTriangleMesh@physx@@QEAAPEAXI_N@Z 000000018005107b f   PhysX3CommonDEBUG_x64:PhysX3CommonDEBUG_x64.dll
 0001:00050087       ?allocateTriangles@InternalTriangleMesh@physx@@QEAAPEAXI_N@Z 0000000180051087 f   PhysX3CommonDEBUG_x64:PhysX3CommonDEBUG_x64.dll
 0001:0005008d       __imp_load_?allocateMaterials@InternalTriangleMesh@physx@@QEAAPEAGXZ 000000018005108d f   PhysX3CommonDEBUG_x64:PhysX3CommonDEBUG_x64.dll
 0001:00050099       ?allocateMaterials@InternalTriangleMesh@physx@@QEAAPEAGXZ 0000000180051099 f   PhysX3CommonDEBUG_x64:PhysX3CommonDEBUG_x64.dll
 0001:0005009f       __imp_load_?getNumVertices@InternalTriangleMesh@physx@@QEBAIXZ 000000018005109f f   PhysX3CommonDEBUG_x64:PhysX3CommonDEBUG_x64.dll
 0001:000500ab       ?getNumVertices@InternalTriangleMesh@physx@@QEBAIXZ 00000001800510ab f   PhysX3CommonDEBUG_x64:PhysX3CommonDEBUG_x64.dll
 0001:000500b1       __imp_load_?getNumTriangles@InternalTriangleMesh@physx@@QEBAIXZ 00000001800510b1 f   PhysX3CommonDEBUG_x64:PhysX3CommonDEBUG_x64.dll
 0001:000500bd       ?getNumTriangles@InternalTriangleMesh@physx@@QEBAIXZ 00000001800510bd f   PhysX3CommonDEBUG_x64:PhysX3CommonDEBUG_x64.dll
 0001:000500c3       __imp_load_?getVertices@InternalTriangleMesh@physx@@QEBAPEBVPxVec3@2@XZ 00000001800510c3 f   PhysX3CommonDEBUG_x64:PhysX3CommonDEBUG_x64.dll
 0001:000500cf       ?getVertices@InternalTriangleMesh@physx@@QEBAPEBVPxVec3@2@XZ 00000001800510cf f   PhysX3CommonDEBUG_x64:PhysX3CommonDEBUG_x64.dll
 0001:000500d5       __imp_load_?getTriangles@InternalTriangleMesh@physx@@QEBAPEBXXZ 00000001800510d5 f   PhysX3CommonDEBUG_x64:PhysX3CommonDEBUG_x64.dll
 0001:000500e1       ?getTriangles@InternalTriangleMesh@physx@@QEBAPEBXXZ 00000001800510e1 f   PhysX3CommonDEBUG_x64:PhysX3CommonDEBUG_x64.dll
 0001:000500e7       __imp_load_?getMaterials@InternalTriangleMesh@physx@@QEBAPEBGXZ 00000001800510e7 f   PhysX3CommonDEBUG_x64:PhysX3CommonDEBUG_x64.dll
 0001:000500f3       ?getMaterials@InternalTriangleMesh@physx@@QEBAPEBGXZ 00000001800510f3 f   PhysX3CommonDEBUG_x64:PhysX3CommonDEBUG_x64.dll
 0001:000500f9       __imp_load_?getFaceRemap@InternalTriangleMesh@physx@@QEBAPEBIXZ 00000001800510f9 f   PhysX3CommonDEBUG_x64:PhysX3CommonDEBUG_x64.dll
 0001:00050105       ?getFaceRemap@InternalTriangleMesh@physx@@QEBAPEBIXZ 0000000180051105 f   PhysX3CommonDEBUG_x64:PhysX3CommonDEBUG_x64.dll
 0001:0005010b       __imp_load_?getAdjacencies@InternalTriangleMesh@physx@@QEBAPEBIXZ 000000018005110b f   PhysX3CommonDEBUG_x64:PhysX3CommonDEBUG_x64.dll
 0001:00050117       ?getAdjacencies@InternalTriangleMesh@physx@@QEBAPEBIXZ 0000000180051117 f   PhysX3CommonDEBUG_x64:PhysX3CommonDEBUG_x64.dll
 0001:0005011d       __imp_load_?getCollisionModel@InternalTriangleMesh@physx@@QEBAAEBVRTreeMidphase@Gu@2@XZ 000000018005111d f   PhysX3CommonDEBUG_x64:PhysX3CommonDEBUG_x64.dll
 0001:00050129       ?getCollisionModel@InternalTriangleMesh@physx@@QEBAAEBVRTreeMidphase@Gu@2@XZ 0000000180051129 f   PhysX3CommonDEBUG_x64:PhysX3CommonDEBUG_x64.dll
 0001:0005012f       __imp_load_?writeWordBuffer@physx@@YAXPEBGI_NAEAVPxOutputStream@1@@Z 000000018005112f f   PhysX3CommonDEBUG_x64:PhysX3CommonDEBUG_x64.dll
 0001:0005013b       ?writeWordBuffer@physx@@YAXPEBGI_NAEAVPxOutputStream@1@@Z 000000018005113b f   PhysX3CommonDEBUG_x64:PhysX3CommonDEBUG_x64.dll
 0001:00050141       __imp_load_?writeFloatBuffer@physx@@YAXPEBMI_NAEAVPxOutputStream@1@@Z 0000000180051141 f   PhysX3CommonDEBUG_x64:PhysX3CommonDEBUG_x64.dll
 0001:0005014d       ?writeFloatBuffer@physx@@YAXPEBMI_NAEAVPxOutputStream@1@@Z 000000018005114d f   PhysX3CommonDEBUG_x64:PhysX3CommonDEBUG_x64.dll
 0001:00050153       __imp_load_?computeMaxIndex@physx@@YAIPEBII@Z 0000000180051153 f   PhysX3CommonDEBUG_x64:PhysX3CommonDEBUG_x64.dll
 0001:0005015f       ?computeMaxIndex@physx@@YAIPEBII@Z 000000018005115f f   PhysX3CommonDEBUG_x64:PhysX3CommonDEBUG_x64.dll
 0001:00050165       __imp_load_?storeIndices@physx@@YAXIIPEBIAEAVPxOutputStream@1@_N@Z 0000000180051165 f   PhysX3CommonDEBUG_x64:PhysX3CommonDEBUG_x64.dll
 0001:00050171       ?storeIndices@physx@@YAXIIPEBIAEAVPxOutputStream@1@_N@Z 0000000180051171 f   PhysX3CommonDEBUG_x64:PhysX3CommonDEBUG_x64.dll
 0001:00050177       __imp_load_?computeMaxIndex@physx@@YAGPEBGI@Z 0000000180051177 f   PhysX3CommonDEBUG_x64:PhysX3CommonDEBUG_x64.dll
 0001:00050183       ?computeMaxIndex@physx@@YAGPEBGI@Z 0000000180051183 f   PhysX3CommonDEBUG_x64:PhysX3CommonDEBUG_x64.dll
 0001:00050189       __imp_load_?WriteHeader@Gu@physx@@YA_NEEEEI_NAEAVPxOutputStream@2@@Z 0000000180051189 f   PhysX3CommonDEBUG_x64:PhysX3CommonDEBUG_x64.dll
 0001:00050195       ?WriteHeader@Gu@physx@@YA_NEEEEI_NAEAVPxOutputStream@2@@Z 0000000180051195 f   PhysX3CommonDEBUG_x64:PhysX3CommonDEBUG_x64.dll
 0001:0005019b       __imp_load_?StoreIndices@Gu@physx@@YAXGIPEBGAEAVPxOutputStream@2@_N@Z 000000018005119b f   PhysX3CommonDEBUG_x64:PhysX3CommonDEBUG_x64.dll
 0001:000501a7       ?StoreIndices@Gu@physx@@YAXGIPEBGAEAVPxOutputStream@2@_N@Z 00000001800511a7 f   PhysX3CommonDEBUG_x64:PhysX3CommonDEBUG_x64.dll
 0001:000501ad       __imp_load_?CreateOffsets@BigConvexData@physx@@IEAAXXZ 00000001800511ad f   PhysX3CommonDEBUG_x64:PhysX3CommonDEBUG_x64.dll
 0001:000501b9       ?CreateOffsets@BigConvexData@physx@@IEAAXXZ 00000001800511b9 f   PhysX3CommonDEBUG_x64:PhysX3CommonDEBUG_x64.dll
 0001:000501bf       __imp_load_?GetRanks@RadixSort@Gu@physx@@QEBAPEBIXZ 00000001800511bf f   PhysX3CommonDEBUG_x64:PhysX3CommonDEBUG_x64.dll
 0001:000501cb       ?GetRanks@RadixSort@Gu@physx@@QEBAPEBIXZ 00000001800511cb f   PhysX3CommonDEBUG_x64:PhysX3CommonDEBUG_x64.dll
 0001:000501d1       __imp_load_??0RadixSortBuffered@Gu@physx@@QEAA@XZ 00000001800511d1 f   PhysX3CommonDEBUG_x64:PhysX3CommonDEBUG_x64.dll
 0001:000501dd       ??0RadixSortBuffered@Gu@physx@@QEAA@XZ 00000001800511dd f   PhysX3CommonDEBUG_x64:PhysX3CommonDEBUG_x64.dll
 0001:000501e3       __imp_load_??1RadixSortBuffered@Gu@physx@@UEAA@XZ 00000001800511e3 f   PhysX3CommonDEBUG_x64:PhysX3CommonDEBUG_x64.dll
 0001:000501ef       ??1RadixSortBuffered@Gu@physx@@UEAA@XZ 00000001800511ef f   PhysX3CommonDEBUG_x64:PhysX3CommonDEBUG_x64.dll
 0001:000501f5       __imp_load_?Sort@RadixSortBuffered@Gu@physx@@QEAAAEAV123@PEBIIW4RadixHint@23@@Z 00000001800511f5 f   PhysX3CommonDEBUG_x64:PhysX3CommonDEBUG_x64.dll
 0001:00050201       ?Sort@RadixSortBuffered@Gu@physx@@QEAAAEAV123@PEBIIW4RadixHint@23@@Z 0000000180051201 f   PhysX3CommonDEBUG_x64:PhysX3CommonDEBUG_x64.dll
 0001:00050207       __imp_load_??0Container@Gu@physx@@QEAA@XZ 0000000180051207 f   PhysX3CommonDEBUG_x64:PhysX3CommonDEBUG_x64.dll
 0001:00050213       ??0Container@Gu@physx@@QEAA@XZ 0000000180051213 f   PhysX3CommonDEBUG_x64:PhysX3CommonDEBUG_x64.dll
 0001:00050219       __imp_load_??0Container@Gu@physx@@QEAA@AEBV012@@Z 0000000180051219 f   PhysX3CommonDEBUG_x64:PhysX3CommonDEBUG_x64.dll
 0001:00050225       ??0Container@Gu@physx@@QEAA@AEBV012@@Z 0000000180051225 f   PhysX3CommonDEBUG_x64:PhysX3CommonDEBUG_x64.dll
 0001:0005022b       __imp_load_??1Container@Gu@physx@@QEAA@XZ 000000018005122b f   PhysX3CommonDEBUG_x64:PhysX3CommonDEBUG_x64.dll
 0001:00050237       ??1Container@Gu@physx@@QEAA@XZ 0000000180051237 f   PhysX3CommonDEBUG_x64:PhysX3CommonDEBUG_x64.dll
 0001:0005023d       __imp_load_?Add@Container@Gu@physx@@QEAAAEAV123@I@Z 000000018005123d f   PhysX3CommonDEBUG_x64:PhysX3CommonDEBUG_x64.dll
 0001:00050249       ?Add@Container@Gu@physx@@QEAAAEAV123@I@Z 0000000180051249 f   PhysX3CommonDEBUG_x64:PhysX3CommonDEBUG_x64.dll
 0001:0005024f       __imp_load_?Add@Container@Gu@physx@@QEAAAEAV123@PEBII@Z 000000018005124f f   PhysX3CommonDEBUG_x64:PhysX3CommonDEBUG_x64.dll
 0001:0005025b       ?Add@Container@Gu@physx@@QEAAAEAV123@PEBII@Z 000000018005125b f   PhysX3CommonDEBUG_x64:PhysX3CommonDEBUG_x64.dll
 0001:00050261       __imp_load_?Add@Container@Gu@physx@@QEAAAEAV123@AEBV123@@Z 0000000180051261 f   PhysX3CommonDEBUG_x64:PhysX3CommonDEBUG_x64.dll
 0001:0005026d       ?Add@Container@Gu@physx@@QEAAAEAV123@AEBV123@@Z 000000018005126d f   PhysX3CommonDEBUG_x64:PhysX3CommonDEBUG_x64.dll
 0001:00050273       __imp_load_?AddUnique@Container@Gu@physx@@QEAAAEAV123@I@Z 0000000180051273 f   PhysX3CommonDEBUG_x64:PhysX3CommonDEBUG_x64.dll
 0001:0005027f       ?AddUnique@Container@Gu@physx@@QEAAAEAV123@I@Z 000000018005127f f   PhysX3CommonDEBUG_x64:PhysX3CommonDEBUG_x64.dll
 0001:00050285       __imp_load_?Empty@Container@Gu@physx@@QEAAAEAV123@XZ 0000000180051285 f   PhysX3CommonDEBUG_x64:PhysX3CommonDEBUG_x64.dll
 0001:00050291       ?Empty@Container@Gu@physx@@QEAAAEAV123@XZ 0000000180051291 f   PhysX3CommonDEBUG_x64:PhysX3CommonDEBUG_x64.dll
 0001:00050297       __imp_load_?Reset@Container@Gu@physx@@QEAAXXZ 0000000180051297 f   PhysX3CommonDEBUG_x64:PhysX3CommonDEBUG_x64.dll
 0001:000502a3       ?Reset@Container@Gu@physx@@QEAAXXZ 00000001800512a3 f   PhysX3CommonDEBUG_x64:PhysX3CommonDEBUG_x64.dll
 0001:000502a9       __imp_load_?Contains@Container@Gu@physx@@QEBA_NIPEAI@Z 00000001800512a9 f   PhysX3CommonDEBUG_x64:PhysX3CommonDEBUG_x64.dll
 0001:000502b5       ?Contains@Container@Gu@physx@@QEBA_NIPEAI@Z 00000001800512b5 f   PhysX3CommonDEBUG_x64:PhysX3CommonDEBUG_x64.dll
 0001:000502bb       __imp_load_?DeleteIndex@Container@Gu@physx@@QEAAXI@Z 00000001800512bb f   PhysX3CommonDEBUG_x64:PhysX3CommonDEBUG_x64.dll
 0001:000502c7       ?DeleteIndex@Container@Gu@physx@@QEAAXI@Z 00000001800512c7 f   PhysX3CommonDEBUG_x64:PhysX3CommonDEBUG_x64.dll
 0001:000502cd       __imp_load_?GetNbEntries@Container@Gu@physx@@QEBAIXZ 00000001800512cd f   PhysX3CommonDEBUG_x64:PhysX3CommonDEBUG_x64.dll
 0001:000502d9       ?GetNbEntries@Container@Gu@physx@@QEBAIXZ 00000001800512d9 f   PhysX3CommonDEBUG_x64:PhysX3CommonDEBUG_x64.dll
 0001:000502df       __imp_load_?GetEntry@Container@Gu@physx@@QEBAII@Z 00000001800512df f   PhysX3CommonDEBUG_x64:PhysX3CommonDEBUG_x64.dll
 0001:000502eb       ?GetEntry@Container@Gu@physx@@QEBAII@Z 00000001800512eb f   PhysX3CommonDEBUG_x64:PhysX3CommonDEBUG_x64.dll
 0001:000502f1       __imp_load_?GetEntries@Container@Gu@physx@@QEBAPEAIXZ 00000001800512f1 f   PhysX3CommonDEBUG_x64:PhysX3CommonDEBUG_x64.dll
 0001:000502fd       ?GetEntries@Container@Gu@physx@@QEBAPEAIXZ 00000001800512fd f   PhysX3CommonDEBUG_x64:PhysX3CommonDEBUG_x64.dll
 0001:00050303       __imp_load_??AContainer@Gu@physx@@QEAAAEAII@Z 0000000180051303 f   PhysX3CommonDEBUG_x64:PhysX3CommonDEBUG_x64.dll
 0001:0005030f       ??AContainer@Gu@physx@@QEAAAEAII@Z 000000018005130f f   PhysX3CommonDEBUG_x64:PhysX3CommonDEBUG_x64.dll
 0001:00050315       __imp_load_??4Container@Gu@physx@@QEAAXAEBV012@@Z 0000000180051315 f   PhysX3CommonDEBUG_x64:PhysX3CommonDEBUG_x64.dll
 0001:00050321       ??4Container@Gu@physx@@QEAAXAEBV012@@Z 0000000180051321 f   PhysX3CommonDEBUG_x64:PhysX3CommonDEBUG_x64.dll
 0001:00050327       __imp_load_??0ConvexMesh@Gu@physx@@QEAA@XZ 0000000180051327 f   PhysX3CommonDEBUG_x64:PhysX3CommonDEBUG_x64.dll
 0001:00050333       ??0ConvexMesh@Gu@physx@@QEAA@XZ 0000000180051333 f   PhysX3CommonDEBUG_x64:PhysX3CommonDEBUG_x64.dll
 0001:00050339       __imp_load_??1ConvexMesh@Gu@physx@@UEAA@XZ 0000000180051339 f   PhysX3CommonDEBUG_x64:PhysX3CommonDEBUG_x64.dll
 0001:00050345       ??1ConvexMesh@Gu@physx@@UEAA@XZ 0000000180051345 f   PhysX3CommonDEBUG_x64:PhysX3CommonDEBUG_x64.dll
 0001:0005034b       __imp_load_??0BigConvexData@physx@@QEAA@XZ 000000018005134b f   PhysX3CommonDEBUG_x64:PhysX3CommonDEBUG_x64.dll
 0001:00050357       ??0BigConvexData@physx@@QEAA@XZ 0000000180051357 f   PhysX3CommonDEBUG_x64:PhysX3CommonDEBUG_x64.dll
 0001:0005035d       __imp_load_??1BigConvexData@physx@@QEAA@XZ 000000018005135d f   PhysX3CommonDEBUG_x64:PhysX3CommonDEBUG_x64.dll
 0001:00050369       ??1BigConvexData@physx@@QEAA@XZ 0000000180051369 f   PhysX3CommonDEBUG_x64:PhysX3CommonDEBUG_x64.dll
 0001:0005036f       __imp_load_?exportExtraData@ConvexMesh@Gu@physx@@UEAAXAEAVPxSerializationContext@3@@Z 000000018005136f f   PhysX3CommonDEBUG_x64:PhysX3CommonDEBUG_x64.dll
 0001:0005037b       ?exportExtraData@ConvexMesh@Gu@physx@@UEAAXAEAVPxSerializationContext@3@@Z 000000018005137b f   PhysX3CommonDEBUG_x64:PhysX3CommonDEBUG_x64.dll
 0001:00050381       __imp_load_?getConcreteTypeName@PxConvexMesh@physx@@UEBAPEBDXZ 0000000180051381 f   PhysX3CommonDEBUG_x64:PhysX3CommonDEBUG_x64.dll
 0001:0005038d       ?getConcreteTypeName@PxConvexMesh@physx@@UEBAPEBDXZ 000000018005138d f   PhysX3CommonDEBUG_x64:PhysX3CommonDEBUG_x64.dll
 0001:00050393       __imp_load_?getIndexBuffer@ConvexMesh@Gu@physx@@UEBAPEBEXZ 0000000180051393 f   PhysX3CommonDEBUG_x64:PhysX3CommonDEBUG_x64.dll
 0001:0005039f       ?getIndexBuffer@ConvexMesh@Gu@physx@@UEBAPEBEXZ 000000018005139f f   PhysX3CommonDEBUG_x64:PhysX3CommonDEBUG_x64.dll
 0001:000503a5       __imp_load_?getLocalBounds@ConvexMesh@Gu@physx@@UEBA?AVPxBounds3@3@XZ 00000001800513a5 f   PhysX3CommonDEBUG_x64:PhysX3CommonDEBUG_x64.dll
 0001:000503b1       ?getLocalBounds@ConvexMesh@Gu@physx@@UEBA?AVPxBounds3@3@XZ 00000001800513b1 f   PhysX3CommonDEBUG_x64:PhysX3CommonDEBUG_x64.dll
 0001:000503b7       __imp_load_?getMassInformation@ConvexMesh@Gu@physx@@UEBAXAEAMAEAVPxMat33@3@AEAVPxVec3@3@@Z 00000001800513b7 f   PhysX3CommonDEBUG_x64:PhysX3CommonDEBUG_x64.dll
 0001:000503c3       ?getMassInformation@ConvexMesh@Gu@physx@@UEBAXAEAMAEAVPxMat33@3@AEAVPxVec3@3@@Z 00000001800513c3 f   PhysX3CommonDEBUG_x64:PhysX3CommonDEBUG_x64.dll
 0001:000503c9       __imp_load_?getNbPolygons@ConvexMesh@Gu@physx@@UEBAIXZ 00000001800513c9 f   PhysX3CommonDEBUG_x64:PhysX3CommonDEBUG_x64.dll
 0001:000503d5       ?getNbPolygons@ConvexMesh@Gu@physx@@UEBAIXZ 00000001800513d5 f   PhysX3CommonDEBUG_x64:PhysX3CommonDEBUG_x64.dll
 0001:000503db       __imp_load_?getNbVertices@ConvexMesh@Gu@physx@@UEBAIXZ 00000001800513db f   PhysX3CommonDEBUG_x64:PhysX3CommonDEBUG_x64.dll
 0001:000503e7       ?getNbVertices@ConvexMesh@Gu@physx@@UEBAIXZ 00000001800513e7 f   PhysX3CommonDEBUG_x64:PhysX3CommonDEBUG_x64.dll
 0001:000503ed       __imp_load_?getPolygonData@ConvexMesh@Gu@physx@@UEBA_NIAEAUPxHullPolygon@3@@Z 00000001800513ed f   PhysX3CommonDEBUG_x64:PhysX3CommonDEBUG_x64.dll
 0001:000503f9       ?getPolygonData@ConvexMesh@Gu@physx@@UEBA_NIAEAUPxHullPolygon@3@@Z 00000001800513f9 f   PhysX3CommonDEBUG_x64:PhysX3CommonDEBUG_x64.dll
 0001:000503ff       __imp_load_?getReferenceCount@ConvexMesh@Gu@physx@@UEBAIXZ 00000001800513ff f   PhysX3CommonDEBUG_x64:PhysX3CommonDEBUG_x64.dll
 0001:0005040b       ?getReferenceCount@ConvexMesh@Gu@physx@@UEBAIXZ 000000018005140b f   PhysX3CommonDEBUG_x64:PhysX3CommonDEBUG_x64.dll
 0001:00050411       __imp_load_?getVertices@ConvexMesh@Gu@physx@@UEBAPEBVPxVec3@3@XZ 0000000180051411 f   PhysX3CommonDEBUG_x64:PhysX3CommonDEBUG_x64.dll
 0001:0005041d       ?getVertices@ConvexMesh@Gu@physx@@UEBAPEBVPxVec3@3@XZ 000000018005141d f   PhysX3CommonDEBUG_x64:PhysX3CommonDEBUG_x64.dll
 0001:00050423       __imp_load_?isKindOf@PxConvexMesh@physx@@MEBA_NPEBD@Z 0000000180051423 f   PhysX3CommonDEBUG_x64:PhysX3CommonDEBUG_x64.dll
 0001:0005042f       ?isKindOf@PxConvexMesh@physx@@MEBA_NPEBD@Z 000000018005142f f   PhysX3CommonDEBUG_x64:PhysX3CommonDEBUG_x64.dll
 0001:00050435       __imp_load_?onRefCountZero@ConvexMesh@Gu@physx@@UEAAXXZ 0000000180051435 f   PhysX3CommonDEBUG_x64:PhysX3CommonDEBUG_x64.dll
 0001:00050441       ?onRefCountZero@ConvexMesh@Gu@physx@@UEAAXXZ 0000000180051441 f   PhysX3CommonDEBUG_x64:PhysX3CommonDEBUG_x64.dll
 0001:00050447       __imp_load_?release@ConvexMesh@Gu@physx@@UEAAXXZ 0000000180051447 f   PhysX3CommonDEBUG_x64:PhysX3CommonDEBUG_x64.dll
 0001:00050453       ?release@ConvexMesh@Gu@physx@@UEAAXXZ 0000000180051453 f   PhysX3CommonDEBUG_x64:PhysX3CommonDEBUG_x64.dll
 0001:00050459       __imp_load_?readDword@physx@@YAI_NAEAVPxInputStream@1@@Z 0000000180051459 f   PhysX3CommonDEBUG_x64:PhysX3CommonDEBUG_x64.dll
 0001:00050465       ?readDword@physx@@YAI_NAEAVPxInputStream@1@@Z 0000000180051465 f   PhysX3CommonDEBUG_x64:PhysX3CommonDEBUG_x64.dll
 0001:0005046b       __imp_load_?ReadHeader@Gu@physx@@YA_NEEEEAEAIAEA_NAEAVPxInputStream@2@@Z 000000018005146b f   PhysX3CommonDEBUG_x64:PhysX3CommonDEBUG_x64.dll
 0001:00050477       ?ReadHeader@Gu@physx@@YA_NEEEEAEAIAEA_NAEAVPxInputStream@2@@Z 0000000180051477 f   PhysX3CommonDEBUG_x64:PhysX3CommonDEBUG_x64.dll
 0001:0005047d       __imp_load_??0FPUGuard@shdfnd@physx@@QEAA@XZ 000000018005147d f   PhysX3CommonDEBUG_x64:PhysX3CommonDEBUG_x64.dll
 0001:00050489       ??0FPUGuard@shdfnd@physx@@QEAA@XZ 0000000180051489 f   PhysX3CommonDEBUG_x64:PhysX3CommonDEBUG_x64.dll
 0001:0005048f       __imp_load_??1FPUGuard@shdfnd@physx@@QEAA@XZ 000000018005148f f   PhysX3CommonDEBUG_x64:PhysX3CommonDEBUG_x64.dll
 0001:0005049b       ??1FPUGuard@shdfnd@physx@@QEAA@XZ 000000018005149b f   PhysX3CommonDEBUG_x64:PhysX3CommonDEBUG_x64.dll
 0001:000504a1       __imp_load_?incRefCount@Foundation@shdfnd@physx@@SAXXZ 00000001800514a1 f   PhysX3CommonDEBUG_x64:PhysX3CommonDEBUG_x64.dll
 0001:000504ad       ?incRefCount@Foundation@shdfnd@physx@@SAXXZ 00000001800514ad f   PhysX3CommonDEBUG_x64:PhysX3CommonDEBUG_x64.dll
 0001:000504b3       __imp_load_?decRefCount@Foundation@shdfnd@physx@@SAXXZ 00000001800514b3 f   PhysX3CommonDEBUG_x64:PhysX3CommonDEBUG_x64.dll
 0001:000504bf       ?decRefCount@Foundation@shdfnd@physx@@SAXXZ 00000001800514bf f   PhysX3CommonDEBUG_x64:PhysX3CommonDEBUG_x64.dll
 0001:000504c5       __imp_load_??0TriangleMesh@Gu@physx@@QEAA@XZ 00000001800514c5 f   PhysX3CommonDEBUG_x64:PhysX3CommonDEBUG_x64.dll
 0001:000504d1       ??0TriangleMesh@Gu@physx@@QEAA@XZ 00000001800514d1 f   PhysX3CommonDEBUG_x64:PhysX3CommonDEBUG_x64.dll
 0001:000504d7       __imp_load_?checkMeshIndicesSize@TriangleMesh@Gu@physx@@QEAAXXZ 00000001800514d7 f   PhysX3CommonDEBUG_x64:PhysX3CommonDEBUG_x64.dll
 0001:000504e3       ?checkMeshIndicesSize@TriangleMesh@Gu@physx@@QEAAXXZ 00000001800514e3 f   PhysX3CommonDEBUG_x64:PhysX3CommonDEBUG_x64.dll
 0001:000504e9       __imp_load_??1TriangleMesh@Gu@physx@@UEAA@XZ 00000001800514e9 f   PhysX3CommonDEBUG_x64:PhysX3CommonDEBUG_x64.dll
 0001:000504f5       ??1TriangleMesh@Gu@physx@@UEAA@XZ 00000001800514f5 f   PhysX3CommonDEBUG_x64:PhysX3CommonDEBUG_x64.dll
 0001:000504fb       __imp_load_??0HeightField@Gu@physx@@QEAA@PEAVGuMeshFactory@2@@Z 00000001800514fb f   PhysX3CommonDEBUG_x64:PhysX3CommonDEBUG_x64.dll
 0001:00050507       ??0HeightField@Gu@physx@@QEAA@PEAVGuMeshFactory@2@@Z 0000000180051507 f   PhysX3CommonDEBUG_x64:PhysX3CommonDEBUG_x64.dll
 0001:0005050d       __imp_load_?loadFromDesc@HeightField@Gu@physx@@QEAA_NAEBVPxHeightFieldDesc@3@_N@Z 000000018005150d f   PhysX3CommonDEBUG_x64:PhysX3CommonDEBUG_x64.dll
 0001:00050519       ?loadFromDesc@HeightField@Gu@physx@@QEAA_NAEBVPxHeightFieldDesc@3@_N@Z 0000000180051519 f   PhysX3CommonDEBUG_x64:PhysX3CommonDEBUG_x64.dll
 0001:0005051f       __imp_load_?releaseMemory@HeightField@Gu@physx@@QEAAX_N@Z 000000018005151f f   PhysX3CommonDEBUG_x64:PhysX3CommonDEBUG_x64.dll
 0001:0005052b       ?releaseMemory@HeightField@Gu@physx@@QEAAX_N@Z 000000018005152b f   PhysX3CommonDEBUG_x64:PhysX3CommonDEBUG_x64.dll
 0001:00050531       __imp_load_?exportExtraData@TriangleMesh@Gu@physx@@UEAAXAEAVPxSerializationContext@3@@Z 0000000180051531 f   PhysX3CommonDEBUG_x64:PhysX3CommonDEBUG_x64.dll
 0001:0005053d       ?exportExtraData@TriangleMesh@Gu@physx@@UEAAXAEAVPxSerializationContext@3@@Z 000000018005153d f   PhysX3CommonDEBUG_x64:PhysX3CommonDEBUG_x64.dll
 0001:00050543       __imp_load_?getConcreteTypeName@PxTriangleMesh@physx@@UEBAPEBDXZ 0000000180051543 f   PhysX3CommonDEBUG_x64:PhysX3CommonDEBUG_x64.dll
 0001:0005054f       ?getConcreteTypeName@PxTriangleMesh@physx@@UEBAPEBDXZ 000000018005154f f   PhysX3CommonDEBUG_x64:PhysX3CommonDEBUG_x64.dll
 0001:00050555       __imp_load_?getLocalBounds@TriangleMesh@Gu@physx@@UEBA?AVPxBounds3@3@XZ 0000000180051555 f   PhysX3CommonDEBUG_x64:PhysX3CommonDEBUG_x64.dll
 0001:00050561       ?getLocalBounds@TriangleMesh@Gu@physx@@UEBA?AVPxBounds3@3@XZ 0000000180051561 f   PhysX3CommonDEBUG_x64:PhysX3CommonDEBUG_x64.dll
 0001:00050567       __imp_load_?getNbTriangles@TriangleMesh@Gu@physx@@UEBAIXZ 0000000180051567 f   PhysX3CommonDEBUG_x64:PhysX3CommonDEBUG_x64.dll
 0001:00050573       ?getNbTriangles@TriangleMesh@Gu@physx@@UEBAIXZ 0000000180051573 f   PhysX3CommonDEBUG_x64:PhysX3CommonDEBUG_x64.dll
 0001:00050579       __imp_load_?getNbVertices@TriangleMesh@Gu@physx@@UEBAIXZ 0000000180051579 f   PhysX3CommonDEBUG_x64:PhysX3CommonDEBUG_x64.dll
 0001:00050585       ?getNbVertices@TriangleMesh@Gu@physx@@UEBAIXZ 0000000180051585 f   PhysX3CommonDEBUG_x64:PhysX3CommonDEBUG_x64.dll
 0001:0005058b       __imp_load_?getReferenceCount@TriangleMesh@Gu@physx@@UEBAIXZ 000000018005158b f   PhysX3CommonDEBUG_x64:PhysX3CommonDEBUG_x64.dll
 0001:00050597       ?getReferenceCount@TriangleMesh@Gu@physx@@UEBAIXZ 0000000180051597 f   PhysX3CommonDEBUG_x64:PhysX3CommonDEBUG_x64.dll
 0001:0005059d       __imp_load_?getTriangleMaterialIndex@TriangleMesh@Gu@physx@@UEBAGI@Z 000000018005159d f   PhysX3CommonDEBUG_x64:PhysX3CommonDEBUG_x64.dll
 0001:000505a9       ?getTriangleMaterialIndex@TriangleMesh@Gu@physx@@UEBAGI@Z 00000001800515a9 f   PhysX3CommonDEBUG_x64:PhysX3CommonDEBUG_x64.dll
 0001:000505af       __imp_load_?getTriangleMeshFlags@TriangleMesh@Gu@physx@@UEBA?AV?$PxFlags@W4Enum@PxTriangleMeshFlag@physx@@E@3@XZ 00000001800515af f   PhysX3CommonDEBUG_x64:PhysX3CommonDEBUG_x64.dll
 0001:000505bb       ?getTriangleMeshFlags@TriangleMesh@Gu@physx@@UEBA?AV?$PxFlags@W4Enum@PxTriangleMeshFlag@physx@@E@3@XZ 00000001800515bb f   PhysX3CommonDEBUG_x64:PhysX3CommonDEBUG_x64.dll
 0001:000505c1       __imp_load_?getTriangles@TriangleMesh@Gu@physx@@UEBAPEBXXZ 00000001800515c1 f   PhysX3CommonDEBUG_x64:PhysX3CommonDEBUG_x64.dll
 0001:000505cd       ?getTriangles@TriangleMesh@Gu@physx@@UEBAPEBXXZ 00000001800515cd f   PhysX3CommonDEBUG_x64:PhysX3CommonDEBUG_x64.dll
 0001:000505d3       __imp_load_?getTrianglesRemap@TriangleMesh@Gu@physx@@UEBAPEBIXZ 00000001800515d3 f   PhysX3CommonDEBUG_x64:PhysX3CommonDEBUG_x64.dll
 0001:000505df       ?getTrianglesRemap@TriangleMesh@Gu@physx@@UEBAPEBIXZ 00000001800515df f   PhysX3CommonDEBUG_x64:PhysX3CommonDEBUG_x64.dll
 0001:000505e5       __imp_load_?getVertices@TriangleMesh@Gu@physx@@UEBAPEBVPxVec3@3@XZ 00000001800515e5 f   PhysX3CommonDEBUG_x64:PhysX3CommonDEBUG_x64.dll
 0001:000505f1       ?getVertices@TriangleMesh@Gu@physx@@UEBAPEBVPxVec3@3@XZ 00000001800515f1 f   PhysX3CommonDEBUG_x64:PhysX3CommonDEBUG_x64.dll
 0001:000505f7       __imp_load_?isKindOf@PxTriangleMesh@physx@@MEBA_NPEBD@Z 00000001800515f7 f   PhysX3CommonDEBUG_x64:PhysX3CommonDEBUG_x64.dll
 0001:00050603       ?isKindOf@PxTriangleMesh@physx@@MEBA_NPEBD@Z 0000000180051603 f   PhysX3CommonDEBUG_x64:PhysX3CommonDEBUG_x64.dll
 0001:00050609       __imp_load_?onRefCountZero@TriangleMesh@Gu@physx@@UEAAXXZ 0000000180051609 f   PhysX3CommonDEBUG_x64:PhysX3CommonDEBUG_x64.dll
 0001:00050615       ?onRefCountZero@TriangleMesh@Gu@physx@@UEAAXXZ 0000000180051615 f   PhysX3CommonDEBUG_x64:PhysX3CommonDEBUG_x64.dll
 0001:0005061b       __imp_load_?release@TriangleMesh@Gu@physx@@UEAAXXZ 000000018005161b f   PhysX3CommonDEBUG_x64:PhysX3CommonDEBUG_x64.dll
 0001:00050627       ?release@TriangleMesh@Gu@physx@@UEAAXXZ 0000000180051627 f   PhysX3CommonDEBUG_x64:PhysX3CommonDEBUG_x64.dll
 0001:0005062d       __imp_load_?has16BitIndices@InternalTriangleMesh@physx@@QEBA_NXZ 000000018005162d f   PhysX3CommonDEBUG_x64:PhysX3CommonDEBUG_x64.dll
 0001:00050639       ?has16BitIndices@InternalTriangleMesh@physx@@QEBA_NXZ 0000000180051639 f   PhysX3CommonDEBUG_x64:PhysX3CommonDEBUG_x64.dll
 0001:0005063f       __imp_load_?setTriangleAdjacency@InternalTriangleMesh@physx@@QEAAXIII@Z 000000018005163f f   PhysX3CommonDEBUG_x64:PhysX3CommonDEBUG_x64.dll
 0001:0005064b       ?setTriangleAdjacency@InternalTriangleMesh@physx@@QEAAXIII@Z 000000018005164b f   PhysX3CommonDEBUG_x64:PhysX3CommonDEBUG_x64.dll
 0001:00050651       __imp_load_?setupMeshInterface@InternalTriangleMesh@physx@@QEAAXXZ 0000000180051651 f   PhysX3CommonDEBUG_x64:PhysX3CommonDEBUG_x64.dll
 0001:0005065d       ?setupMeshInterface@InternalTriangleMesh@physx@@QEAAXXZ 000000018005165d f   PhysX3CommonDEBUG_x64:PhysX3CommonDEBUG_x64.dll
 0001:00050664       ??$PFromRva@PEAP6A_JXZ@@YAPEAP6A_JXZK@Z 0000000180051664 f i delayimp:delayhlp.obj
 0001:00050674       ??$PFromRva@PEAPEAUHINSTANCE__@@@@YAPEAPEAUHINSTANCE__@@K@Z 0000000180051674 f i delayimp:delayhlp.obj
 0001:00050684       ??$PFromRva@PEAU_IMAGE_IMPORT_BY_NAME@@@@YAPEAU_IMAGE_IMPORT_BY_NAME@@K@Z 0000000180051684 f i delayimp:delayhlp.obj
 0001:00050694       ??$PFromRva@PEAU_IMAGE_THUNK_DATA64@@@@YAPEAU_IMAGE_THUNK_DATA64@@K@Z 0000000180051694 f i delayimp:delayhlp.obj
 0001:000506a4       ??$PFromRva@PEBD@@YAPEBDK@Z 00000001800516a4 f i delayimp:delayhlp.obj
 0001:000506b4       ??$PFromRva@PEBUImgDelayDescr@@@@YAPEBUImgDelayDescr@@K@Z 00000001800516b4 f i delayimp:delayhlp.obj
 0001:000506c4       ??$PFromRva@PEBU_IMAGE_THUNK_DATA64@@@@YAPEBU_IMAGE_THUNK_DATA64@@K@Z 00000001800516c4 f i delayimp:delayhlp.obj
 0001:000506d4       ?CountOfImports@@YAIPEBU_IMAGE_THUNK_DATA64@@@Z 00000001800516d4 f i delayimp:delayhlp.obj
 0001:000506f0       ?DloadAcquireSectionWriteAccess@@YAXXZ 00000001800516f0 f i delayimp:delayhlp.obj
 0001:000507d8       ?DloadGetSRWLockFunctionPointers@@YAEXZ 00000001800517d8 f i delayimp:delayhlp.obj
 0001:0005089c       ?DloadLock@@YAXXZ          000000018005189c f i delayimp:delayhlp.obj
 0001:00050904       ?DloadMakePermanentImageCommit@@YAXPEAX_K@Z 0000000180051904 f i delayimp:delayhlp.obj
 0001:000509c0       ?DloadObtainSection@@YAPEAXPEAK0@Z 00000001800519c0 f i delayimp:delayhlp.obj
 0001:00050a80       ?DloadProtectSection@@YAXKPEAK@Z 0000000180051a80 f i delayimp:delayhlp.obj
 0001:00050b34       ?DloadReleaseSectionWriteAccess@@YAXXZ 0000000180051b34 f i delayimp:delayhlp.obj
 0001:00050c04       ?DloadUnlock@@YAXXZ        0000000180051c04 f i delayimp:delayhlp.obj
 0001:00050c64       ?IndexFromPImgThunkData@@YAIPEBU_IMAGE_THUNK_DATA64@@0@Z 0000000180051c64 f i delayimp:delayhlp.obj
 0001:00050df8       HRESULT_FROM_WIN32         0000000180051df8 f i delayimp:delayhlp.obj
 0001:00050e0c       ReadAcquire64              0000000180051e0c f i delayimp:delayhlp.obj
 0001:00050e10       ReadPointerAcquire         0000000180051e10 f i delayimp:delayhlp.obj
 0001:00050e14       WritePointerRelease        0000000180051e14 f i delayimp:delayhlp.obj
 0001:00050e18       WriteRelease64             0000000180051e18 f i delayimp:delayhlp.obj
 0001:00050e1c       __FUnloadDelayLoadedDLL2   0000000180051e1c f   delayimp:delayhlp.obj
 0001:00050f04       __HrLoadAllImportsForDll   0000000180051f04 f   delayimp:delayhlp.obj
 0001:00050f94       __delayLoadHelper2         0000000180051f94 f   delayimp:delayhlp.obj
 0001:00051360       _CRT_RTC_INIT              0000000180052360 f   LIBCMTD:_init_.obj
 0001:00051370       _CRT_RTC_INITW             0000000180052370 f   LIBCMTD:_init_.obj
 0001:00051380       _RTC_InitBase              0000000180052380 f   LIBCMTD:_init_.obj
 0001:000513d0       _RTC_Shutdown              00000001800523d0 f   LIBCMTD:_init_.obj
 0001:00051400       ??_U@YAPEAX_K@Z            0000000180052400 f   LIBCMTD:new_array.obj
 0001:00051420       ??_V@YAXPEAX@Z             0000000180052420 f   LIBCMTD:delete_array.obj
 0001:00051450       _alloca_probe              0000000180052450 f   LIBCMTD:_chkstk_.obj
 0001:00051450       __chkstk                   0000000180052450 f   LIBCMTD:_chkstk_.obj
 0001:000514c0       ?__scrt_initialize_type_info@@YAXXZ 00000001800524c0 f   LIBCMTD:tncleanup.obj
 0001:000514e0       ?__scrt_uninitialize_type_info@@YAXXZ 00000001800524e0 f   LIBCMTD:tncleanup.obj
 0001:00051500       ??1type_info@@UEAA@XZ      0000000180052500 f   LIBCMTD:std_type_info_static.obj
 0001:00051520       ??_Gtype_info@@UEAAPEAXI@Z 0000000180052520 f i LIBCMTD:std_type_info_static.obj
 0001:00051520       ??_Etype_info@@UEAAPEAXI@Z 0000000180052520 f i LIBCMTD:std_type_info_static.obj
 0001:00051570       ??3@YAXPEAX_K@Z            0000000180052570 f   LIBCMTD:delete_scalar_size.obj
 0001:00051ab0       _CRT_INIT                  0000000180052ab0 f   LIBCMTD:dll_dllmain.obj
 0001:00051af0       _DllMainCRTStartup         0000000180052af0 f   LIBCMTD:dll_dllmain.obj
 0001:00051b40       _guard_check_icall_nop     0000000180052b40 f i LIBCMTD:guard_support.obj
 0001:00051b50       _guard_icall_checks_enforced 0000000180052b50 f i LIBCMTD:guard_support.obj
 0001:00051b90       ?_RTC_GetErrorFunc@@YAP6AHHPEBDH00ZZPEBX@Z 0000000180052b90 f   LIBCMTD:_userapi_.obj
 0001:00051ba0       ?_RTC_GetErrorFuncW@@YAP6AHHPEB_WH00ZZPEBX@Z 0000000180052ba0 f   LIBCMTD:_userapi_.obj
 0001:00051bb0       _RTC_GetErrDesc            0000000180052bb0 f   LIBCMTD:_userapi_.obj
 0001:00051bd0       _RTC_NumErrors             0000000180052bd0 f   LIBCMTD:_userapi_.obj
 0001:00051be0       _RTC_SetErrorFunc          0000000180052be0 f   LIBCMTD:_userapi_.obj
 0001:00051c00       _RTC_SetErrorFuncW         0000000180052c00 f   LIBCMTD:_userapi_.obj
 0001:00051c20       _RTC_SetErrorType          0000000180052c20 f   LIBCMTD:_userapi_.obj
 0001:00051c50       ??2@YAPEAX_K@Z             0000000180052c50 f   LIBCMTD:new_scalar.obj
 0001:00051cc0       ??3@YAXPEAX@Z              0000000180052cc0 f   LIBCMTD:delete_scalar.obj
 0001:00051cf0       ??$__crt_fast_decode_pointer@PEAP6AXXZ@@YAPEAP6AXXZQEAP6AXXZ@Z 0000000180052cf0 f i LIBCMTD:utility.obj
 0001:00051d40       ??$__crt_fast_encode_pointer@PEAP6AXXZ@@YAPEAP6AXXZQEAP6AXXZ@Z 0000000180052d40 f i LIBCMTD:utility.obj
 0001:00051d90       ?__crt_rotate_pointer_value@@YA_K_KH@Z 0000000180052d90 f i LIBCMTD:utility.obj
 0001:00051f60       NtCurrentTeb               0000000180052f60 f i LIBCMTD:utility.obj
 0001:00051f70       __scrt_acquire_startup_lock 0000000180052f70 f   LIBCMTD:utility.obj
 0001:00051ff0       __scrt_dllmain_after_initialize_c 0000000180052ff0 f   LIBCMTD:utility.obj
 0001:00052020       __scrt_dllmain_before_initialize_c 0000000180053020 f   LIBCMTD:utility.obj
 0001:00052050       __scrt_dllmain_crt_thread_attach 0000000180053050 f   LIBCMTD:utility.obj
 0001:00052090       __scrt_dllmain_crt_thread_detach 0000000180053090 f   LIBCMTD:utility.obj
 0001:000520b0       __scrt_dllmain_exception_filter 00000001800530b0 f   LIBCMTD:utility.obj
 0001:00052130       __scrt_dllmain_uninitialize_c 0000000180053130 f   LIBCMTD:utility.obj
 0001:00052170       __scrt_dllmain_uninitialize_critical 0000000180053170 f   LIBCMTD:utility.obj
 0001:00052190       __scrt_initialize_crt      0000000180053190 f   LIBCMTD:utility.obj
 0001:000521f0       __scrt_initialize_onexit_tables 00000001800531f0 f   LIBCMTD:utility.obj
 0001:00052330       __scrt_is_nonwritable_in_current_image 0000000180053330 f   LIBCMTD:utility.obj
 0001:000523e0       __scrt_release_startup_lock 00000001800533e0 f   LIBCMTD:utility.obj
 0001:00052420       __scrt_uninitialize_crt    0000000180053420 f   LIBCMTD:utility.obj
 0001:00052470       _onexit                    0000000180053470 f   LIBCMTD:utility.obj
 0001:00052520       at_quick_exit              0000000180053520 f   LIBCMTD:utility.obj
 0001:00052590       atexit                     0000000180053590 f   LIBCMTD:utility.obj
 0001:000525d0       __security_init_cookie     00000001800535d0 f   LIBCMTD:gs_support.obj
 0001:00052730       DllMain                    0000000180053730 f   LIBCMTD:dll_dllmain_stub.obj
 0001:00052750       __local_stdio_scanf_options 0000000180053750 f i LIBCMTD:default_local_stdio_options.obj
 0001:00052760       __scrt_initialize_default_local_stdio_options 0000000180053760 f   LIBCMTD:default_local_stdio_options.obj
 0001:000527c0       __scrt_get_dyn_tls_init_callback 00000001800537c0 f   LIBCMTD:dyn_tls_init.obj
 0001:000527d0       __crt_debugger_hook        00000001800537d0 f   LIBCMTD:utility_desktop.obj
 0001:000527f0       __scrt_fastfail            00000001800537f0 f   LIBCMTD:utility_desktop.obj
 0001:000529f0       __scrt_get_show_window_mode 00000001800539f0 f   LIBCMTD:utility_desktop.obj
 0001:00052a60       __scrt_initialize_winrt    0000000180053a60 f   LIBCMTD:utility_desktop.obj
 0001:00052a70       __scrt_is_managed_app      0000000180053a70 f   LIBCMTD:utility_desktop.obj
 0001:00052b40       __scrt_set_unhandled_exception_filter 0000000180053b40 f   LIBCMTD:utility_desktop.obj
 0001:00052b60       __scrt_unhandled_exception_filter 0000000180053b60 f   LIBCMTD:utility_desktop.obj
 0001:00052bf0       _RTC_Initialize            0000000180053bf0 f   LIBCMTD:_initsect_.obj
 0001:00052c50       _RTC_Terminate             0000000180053c50 f   LIBCMTD:_initsect_.obj
 0001:00052cb0       _guard_check_icall         0000000180053cb0 f i LIBCMTD:checkcfg.obj
 0001:00052da0       ?_RTC_AllocaFailure@@YAXPEAXPEAU_RTC_ALLOCA_NODE@@H@Z 0000000180053da0 f   LIBCMTD:_error_.obj
 0001:00052f90       ?_RTC_Failure@@YAXPEAXH@Z  0000000180053f90 f   LIBCMTD:_error_.obj
 0001:00053000       ?_RTC_StackFailure@@YAXPEAXPEBD@Z 0000000180054000 f   LIBCMTD:_error_.obj
 0001:00053590       _RTC_UninitUse             0000000180054590 f   LIBCMTD:_error_.obj
 0001:00053700       _vsprintf_s_l              0000000180054700 f i LIBCMTD:_error_.obj
 0001:00053780       sprintf_s                  0000000180054780 f i LIBCMTD:_error_.obj
 0001:000537d0       ??0bad_alloc@std@@AEAA@QEBD@Z 00000001800547d0 f i LIBCMTD:throw_bad_alloc.obj
 0001:00053820       ??0bad_alloc@std@@QEAA@AEBV01@@Z 0000000180054820 f i LIBCMTD:throw_bad_alloc.obj
 0001:00053870       ??0bad_alloc@std@@QEAA@XZ  0000000180054870 f i LIBCMTD:throw_bad_alloc.obj
 0001:000538c0       ??0bad_array_new_length@std@@QEAA@AEBV01@@Z 00000001800548c0 f i LIBCMTD:throw_bad_alloc.obj
 0001:00053910       ??0bad_array_new_length@std@@QEAA@XZ 0000000180054910 f i LIBCMTD:throw_bad_alloc.obj
 0001:00053950       ??0exception@std@@QEAA@AEBV01@@Z 0000000180054950 f i LIBCMTD:throw_bad_alloc.obj
 0001:000539c0       ??0exception@std@@QEAA@QEBDH@Z 00000001800549c0 f i LIBCMTD:throw_bad_alloc.obj
 0001:00053a20       ??1bad_alloc@std@@UEAA@XZ  0000000180054a20 f i LIBCMTD:throw_bad_alloc.obj
 0001:00053a40       ??1bad_array_new_length@std@@UEAA@XZ 0000000180054a40 f i LIBCMTD:throw_bad_alloc.obj
 0001:00053a60       ??1exception@std@@UEAA@XZ  0000000180054a60 f i LIBCMTD:throw_bad_alloc.obj
 0001:00053aa0       ??_Gbad_alloc@std@@UEAAPEAXI@Z 0000000180054aa0 f i LIBCMTD:throw_bad_alloc.obj
 0001:00053aa0       ??_Ebad_alloc@std@@UEAAPEAXI@Z 0000000180054aa0 f i LIBCMTD:throw_bad_alloc.obj
 0001:00053af0       ??_Gbad_array_new_length@std@@UEAAPEAXI@Z 0000000180054af0 f i LIBCMTD:throw_bad_alloc.obj
 0001:00053af0       ??_Ebad_array_new_length@std@@UEAAPEAXI@Z 0000000180054af0 f i LIBCMTD:throw_bad_alloc.obj
 0001:00053b40       ??_Eexception@std@@UEAAPEAXI@Z 0000000180054b40 f i LIBCMTD:throw_bad_alloc.obj
 0001:00053b40       ??_Gexception@std@@UEAAPEAXI@Z 0000000180054b40 f i LIBCMTD:throw_bad_alloc.obj
 0001:00053b90       ?__scrt_throw_std_bad_alloc@@YAXXZ 0000000180054b90 f   LIBCMTD:throw_bad_alloc.obj
 0001:00053bc0       ?__scrt_throw_std_bad_array_new_length@@YAXXZ 0000000180054bc0 f   LIBCMTD:throw_bad_alloc.obj
 0001:00053bf0       ?what@exception@std@@UEBAPEBDXZ 0000000180054bf0 f i LIBCMTD:throw_bad_alloc.obj
 0001:00053c40       __isa_available_init       0000000180054c40 f   LIBCMTD:_cpu_disp_.obj
 0001:000540a0       __scrt_is_ucrt_dll_in_use  00000001800550a0 f   LIBCMTD:ucrt_detection.obj
 0001:000546f0       ?_RTC_GetSrcLine@@YAHPEAEPEA_WKPEAH1K@Z 00000001800556f0 f   LIBCMTD:_pdblkup_.obj
 0001:00054ca0       __GSHandlerCheck           0000000180055ca0 f   LIBCMTD:_gshandler_.obj
 0001:00054cf0       __GSHandlerCheckCommon     0000000180055cf0 f   LIBCMTD:_gshandler_.obj
 0001:00054e40       __security_check_cookie    0000000180055e40 f   LIBCMTD:_amdsecgs_.obj
 0001:00054e70       __raise_securityfailure    0000000180055e70 f   LIBCMTD:gs_report.obj
 0001:00054ec0       __report_gsfailure         0000000180055ec0 f   LIBCMTD:gs_report.obj
 0001:00054fd0       __report_rangecheckfailure 0000000180055fd0 f   LIBCMTD:gs_report.obj
 0001:00054ff0       __report_securityfailure   0000000180055ff0 f   LIBCMTD:gs_report.obj
 0001:000550c0       __report_securityfailureEx 00000001800560c0 f   LIBCMTD:gs_report.obj
 0001:000553c0       strstr                     00000001800563c0 f   libvcruntimed:strstr.obj
 0001:00055bd0       ??$?RD@__crt_internal_free_policy@@QEBAXQEBD@Z 0000000180056bd0 f i libvcruntimed:std_type_info.obj
 0001:00055c00       ??$?RX@__crt_internal_free_policy@@QEBAXQEBX@Z 0000000180056c00 f i libvcruntimed:std_type_info.obj
 0001:00055c30       ??$__crt_interlocked_compare_exchange_pointer@$$CBD$$T$$T@@YAPEBDPEDSEBD$$T1@Z 0000000180056c30 f i libvcruntimed:std_type_info.obj
 0001:00055c80       ??$__crt_interlocked_compare_exchange_pointer@$$CBDPEAD$$T@@YAPEBDPEDSEBDQEAD$$T@Z 0000000180056c80 f i libvcruntimed:std_type_info.obj
 0001:00055cd0       ??$__crt_interlocked_read_pointer@$$CBD@@YAPEBDPEDSEBD@Z 0000000180056cd0 f i libvcruntimed:std_type_info.obj
 0001:00055d00       ??0?$__crt_unique_heap_ptr@DU__crt_internal_free_policy@@@@QEAA@QEAD@Z 0000000180056d00 f i libvcruntimed:std_type_info.obj
 0001:00055d30       ??0?$__crt_unique_heap_ptr@XU__crt_internal_free_policy@@@@QEAA@QEAX@Z 0000000180056d30 f i libvcruntimed:std_type_info.obj
 0001:00055d60       ??1?$__crt_unique_heap_ptr@DU__crt_internal_free_policy@@@@QEAA@XZ 0000000180056d60 f i libvcruntimed:std_type_info.obj
 0001:00055d80       ??1?$__crt_unique_heap_ptr@XU__crt_internal_free_policy@@@@QEAA@XZ 0000000180056d80 f i libvcruntimed:std_type_info.obj
 0001:00055dc0       ??B?$__crt_unique_heap_ptr@DU__crt_internal_free_policy@@@@QEBA_NXZ 0000000180056dc0 f i libvcruntimed:std_type_info.obj
 0001:00055de0       ??B?$__crt_unique_heap_ptr@XU__crt_internal_free_policy@@@@QEBA_NXZ 0000000180056de0 f i libvcruntimed:std_type_info.obj
 0001:00055e70       ?detach@?$__crt_unique_heap_ptr@XU__crt_internal_free_policy@@@@QEAAPEAXXZ 0000000180056e70 f i libvcruntimed:std_type_info.obj
 0001:00055eb0       ?get@?$__crt_unique_heap_ptr@DU__crt_internal_free_policy@@@@QEBAPEADXZ 0000000180056eb0 f i libvcruntimed:std_type_info.obj
 0001:00055ed0       ?get@?$__crt_unique_heap_ptr@XU__crt_internal_free_policy@@@@QEBAPEAXXZ 0000000180056ed0 f i libvcruntimed:std_type_info.obj
 0001:00055ef0       ?is_valid@?$__crt_unique_heap_ptr@DU__crt_internal_free_policy@@@@QEBA_NXZ 0000000180056ef0 f i libvcruntimed:std_type_info.obj
 0001:00055f30       ?is_valid@?$__crt_unique_heap_ptr@XU__crt_internal_free_policy@@@@QEBA_NXZ 0000000180056f30 f i libvcruntimed:std_type_info.obj
 0001:00055f70       ?release@?$__crt_unique_heap_ptr@DU__crt_internal_free_policy@@@@QEAAXXZ 0000000180056f70 f i libvcruntimed:std_type_info.obj
 0001:00055fb0       ?release@?$__crt_unique_heap_ptr@XU__crt_internal_free_policy@@@@QEAAXXZ 0000000180056fb0 f i libvcruntimed:std_type_info.obj
 0001:00055ff0       __std_type_info_compare    0000000180056ff0 f   libvcruntimed:std_type_info.obj
 0001:00056040       __std_type_info_destroy_list 0000000180057040 f   libvcruntimed:std_type_info.obj
 0001:000560b0       __std_type_info_hash       00000001800570b0 f   libvcruntimed:std_type_info.obj
 0001:00056190       __std_type_info_name       0000000180057190 f   libvcruntimed:std_type_info.obj
 0001:00056520       memcpy                     0000000180057520 f   libvcruntimed:memcpy.obj
 0001:00056520       memmove                    0000000180057520 f   libvcruntimed:memcpy.obj
 0001:00056a80       memset                     0000000180057a80 f   libvcruntimed:memset.obj
 0001:00056c90       ??$__crt_fast_decode_pointer@P6AXXZ@@YAP6AXXZQ6AXXZ@Z 0000000180057c90 f i libvcruntimed:purevirt.obj
 0001:00056ce0       ??$__crt_fast_encode_pointer@P6AXXZ@@YAP6AXXZQ6AXXZ@Z 0000000180057ce0 f i libvcruntimed:purevirt.obj
 0001:00056d30       ??$__crt_interlocked_compare_exchange_pointer@$$A6AXXZ$$T$$T@@YAP6AXXZPEDS6AXXZ$$T1@Z 0000000180057d30 f i libvcruntimed:purevirt.obj
 0001:00056d80       ??$__crt_interlocked_exchange_pointer@$$A6AXXZP6AXXZ@@YAP6AXXZPEDS6AXXZQ6AXXZ@Z 0000000180057d80 f i libvcruntimed:purevirt.obj
 0001:00056da0       ??$__crt_interlocked_read_pointer@$$A6AXXZ@@YAP6AXXZPEDS6AXXZ@Z 0000000180057da0 f i libvcruntimed:purevirt.obj
 0001:00056dd0       _get_purecall_handler      0000000180057dd0 f   libvcruntimed:purevirt.obj
 0001:00056e00       _purecall                  0000000180057e00 f   libvcruntimed:purevirt.obj
 0001:00056e50       _set_purecall_handler      0000000180057e50 f   libvcruntimed:purevirt.obj
 0001:00056f40       EventDataDescCreate        0000000180057f40 f i libvcruntimed:telemetry.obj
 0001:00056f90       __telemetry_main_invoke_trigger 0000000180057f90 f   libvcruntimed:telemetry.obj
 0001:00057120       __telemetry_main_return_trigger 0000000180058120 f   libvcruntimed:telemetry.obj
 0001:000572b0       __vcrt_initialize_telemetry_provider 00000001800582b0 f   libvcruntimed:telemetry.obj
 0001:000572e0       __vcrt_uninitialize_telemetry_provider 00000001800582e0 f   libvcruntimed:telemetry.obj
 0001:00057300       __C_specific_handler       0000000180058300 f   libvcruntimed:_chandler_.obj
 0001:00057830       __vcrt_initialize          0000000180058830 f   libvcruntimed:initialization.obj
 0001:00057890       __vcrt_thread_attach       0000000180058890 f   libvcruntimed:initialization.obj
 0001:000578b0       __vcrt_thread_detach       00000001800588b0 f   libvcruntimed:initialization.obj
 0001:000578d0       __vcrt_uninitialize        00000001800588d0 f   libvcruntimed:initialization.obj
 0001:00057910       __vcrt_uninitialize_critical 0000000180058910 f   libvcruntimed:initialization.obj
 0001:00057940       ??$?RD@__crt_public_free_policy@@QEBAXQEBD@Z 0000000180058940 f i libvcruntimed:std_exception.obj
 0001:00057970       ??0?$__crt_unique_heap_ptr@DU__crt_public_free_policy@@@@QEAA@QEAD@Z 0000000180058970 f i libvcruntimed:std_exception.obj
 0001:000579a0       ??1?$__crt_unique_heap_ptr@DU__crt_public_free_policy@@@@QEAA@XZ 00000001800589a0 f i libvcruntimed:std_exception.obj
 0001:000579c0       ??B?$__crt_unique_heap_ptr@DU__crt_public_free_policy@@@@QEBA_NXZ 00000001800589c0 f i libvcruntimed:std_exception.obj
 0001:000579e0       ?detach@?$__crt_unique_heap_ptr@DU__crt_public_free_policy@@@@QEAAPEADXZ 00000001800589e0 f i libvcruntimed:std_exception.obj
 0001:00057a20       ?get@?$__crt_unique_heap_ptr@DU__crt_public_free_policy@@@@QEBAPEADXZ 0000000180058a20 f i libvcruntimed:std_exception.obj
 0001:00057a40       ?is_valid@?$__crt_unique_heap_ptr@DU__crt_public_free_policy@@@@QEBA_NXZ 0000000180058a40 f i libvcruntimed:std_exception.obj
 0001:00057a80       ?release@?$__crt_unique_heap_ptr@DU__crt_public_free_policy@@@@QEAAXXZ 0000000180058a80 f i libvcruntimed:std_exception.obj
 0001:00057ac0       __std_exception_copy       0000000180058ac0 f   libvcruntimed:std_exception.obj
 0001:00057c40       __std_exception_destroy    0000000180058c40 f   libvcruntimed:std_exception.obj
 0001:00057c90       _CxxThrowException         0000000180058c90 f   libvcruntimed:throw.obj
 0001:00057e20       __vcrt_GetModuleFileNameW  0000000180058e20 f   libvcruntimed:winapi_thunks.obj
 0001:00057e60       __vcrt_GetModuleHandleW    0000000180058e60 f   libvcruntimed:winapi_thunks.obj
 0001:00057e80       __vcrt_LoadLibraryExW      0000000180058e80 f   libvcruntimed:winapi_thunks.obj
 0001:00057ec0       ??0Block@_HeapManager@@QEAA@XZ 0000000180058ec0 f i libvcruntimed:undname.obj
 0001:00057ee0       ??0DName@@QEAA@AEAPEBDD@Z  0000000180058ee0 f   libvcruntimed:undname.obj
 0001:00058300       ??0DName@@QEAA@AEBV0@@Z    0000000180059300 f i libvcruntimed:undname.obj
 0001:00058330       ??0DName@@QEAA@D@Z         0000000180059330 f   libvcruntimed:undname.obj
 0001:00058470       ??0DName@@QEAA@PEAV0@@Z    0000000180059470 f   libvcruntimed:undname.obj
 0001:00058650       ??0DName@@QEAA@PEBD@Z      0000000180059650 f   libvcruntimed:undname.obj
 0001:000587a0       ??0DName@@QEAA@W4DNameStatus@@@Z 00000001800597a0 f   libvcruntimed:undname.obj
 0001:00058940       ??0DName@@QEAA@XZ          0000000180059940 f i libvcruntimed:undname.obj
 0001:00058a40       ??0DName@@QEAA@_J@Z        0000000180059a40 f   libvcruntimed:undname.obj
 0001:00058c70       ??0DName@@QEAA@_K@Z        0000000180059c70 f   libvcruntimed:undname.obj
 0001:00058e50       ??0DNameNode@@IEAA@XZ      0000000180059e50 f   libvcruntimed:undname.obj
 0001:00058e70       ??0DNameStatusNode@@AEAA@W4DNameStatus@@@Z 0000000180059e70 f   libvcruntimed:undname.obj
 0001:00058ef0       ??0Replicator@@QEAA@XZ     0000000180059ef0 f i libvcruntimed:undname.obj
 0001:00058f10       ??0UnDecorator@@QEAA@PEADPEBDHP6APEADJ@ZK@Z 0000000180059f10 f i libvcruntimed:undname.obj
 0001:00059010       ??0charNode@@QEAA@D@Z      000000018005a010 f   libvcruntimed:undname.obj
 0001:00059060       ??0pDNameNode@@QEAA@PEAVDName@@@Z 000000018005a060 f   libvcruntimed:undname.obj
 0001:00059100       ??0pairNode@@QEAA@PEAVDNameNode@@0@Z 000000018005a100 f   libvcruntimed:undname.obj
 0001:00059180       ??0pcharNode@@QEAA@PEBDH@Z 000000018005a180 f   libvcruntimed:undname.obj
 0001:00059280       ??2@YAPEAX_KAEAV_HeapManager@@H@Z 000000018005a280 f i libvcruntimed:undname.obj
 0001:000592c0       ??4DName@@QEAAAEAV0@AEBV0@@Z 000000018005a2c0 f   libvcruntimed:undname.obj
 0001:000592f0       ??4DName@@QEAAAEAV0@D@Z    000000018005a2f0 f i libvcruntimed:undname.obj
 0001:00059430       ??4DName@@QEAAAEAV0@PEAV0@@Z 000000018005a430 f   libvcruntimed:undname.obj
 0001:00059600       ??4DName@@QEAAAEAV0@PEBD@Z 000000018005a600 f   libvcruntimed:undname.obj
 0001:00059740       ??4DName@@QEAAAEAV0@W4DNameStatus@@@Z 000000018005a740 f   libvcruntimed:undname.obj
 0001:000598b0       ??AReplicator@@QEBA?AVDName@@H@Z 000000018005a8b0 f   libvcruntimed:undname.obj
 0001:00059960       ??BUnDecorator@@QEAAPEADXZ 000000018005a960 f i libvcruntimed:undname.obj
 0001:00059d60       ??H@YA?AVDName@@DAEBV0@@Z  000000018005ad60 f i libvcruntimed:undname.obj
 0001:00059db0       ??H@YA?AVDName@@PEBDAEBV0@@Z 000000018005adb0 f i libvcruntimed:undname.obj
 0001:00059e00       ??H@YA?AVDName@@W4DNameStatus@@AEBV0@@Z 000000018005ae00 f i libvcruntimed:undname.obj
 0001:00059e50       ??HDName@@QEBA?AV0@AEBV0@@Z 000000018005ae50 f   libvcruntimed:undname.obj
 0001:00059eb0       ??HDName@@QEBA?AV0@D@Z     000000018005aeb0 f   libvcruntimed:undname.obj
 0001:00059f10       ??HDName@@QEBA?AV0@PEAV0@@Z 000000018005af10 f   libvcruntimed:undname.obj
 0001:00059f70       ??HDName@@QEBA?AV0@PEBD@Z  000000018005af70 f   libvcruntimed:undname.obj
 0001:00059fd0       ??HDName@@QEBA?AV0@W4DNameStatus@@@Z 000000018005afd0 f   libvcruntimed:undname.obj
 0001:0005a030       ??YDName@@QEAAAEAV0@AEBV0@@Z 000000018005b030 f   libvcruntimed:undname.obj
 0001:0005a0d0       ??YDName@@QEAAAEAV0@D@Z    000000018005b0d0 f   libvcruntimed:undname.obj
 0001:0005a1a0       ??YDName@@QEAAAEAV0@PEAV0@@Z 000000018005b1a0 f   libvcruntimed:undname.obj
 0001:0005a2c0       ??YDName@@QEAAAEAV0@PEBD@Z 000000018005b2c0 f   libvcruntimed:undname.obj
 0001:0005a3b0       ??YDName@@QEAAAEAV0@W4DNameStatus@@@Z 000000018005b3b0 f   libvcruntimed:undname.obj
 0001:0005a440       ??YReplicator@@QEAAAEAV0@AEBVDName@@@Z 000000018005b440 f   libvcruntimed:undname.obj
 0001:0005a530       ??_5DName@@QEAAAEAV0@AEBV0@@Z 000000018005b530 f   libvcruntimed:undname.obj
 0001:0005a5b0       ?Constructor@_HeapManager@@QEAAXP6APEAX_K@ZP6AXPEAX@Z@Z 000000018005b5b0 f i libvcruntimed:undname.obj
 0001:0005a620       ?Destructor@_HeapManager@@QEAAXXZ 000000018005b620 f i libvcruntimed:undname.obj
 0001:0005a6c0       ?UScore@UnDecorator@@SAPEBDW4Tokens@@@Z 000000018005b6c0 f   libvcruntimed:undname.obj
 0001:0005a710       ?append@DName@@AEAAXPEAVDNameNode@@@Z 000000018005b710 f   libvcruntimed:undname.obj
 0001:0005a7f0       ?composeDeclaration@UnDecorator@@CA?AVDName@@AEBV2@@Z 000000018005b7f0 f i libvcruntimed:undname.obj
 0001:0005d0e0       ?dbGetString@DName@@QEBAPEADXZ 000000018005e0e0 f   libvcruntimed:undname.obj
 0001:0005d120       ?doAccessSpecifiers@UnDecorator@@SAHXZ 000000018005e120 f i libvcruntimed:undname.obj
 0001:0005d160       ?doAllocationLanguage@UnDecorator@@SAHXZ 000000018005e160 f i libvcruntimed:undname.obj
 0001:0005d1a0       ?doAllocationModel@UnDecorator@@SAHXZ 000000018005e1a0 f i libvcruntimed:undname.obj
 0001:0005d1e0       ?doEcsu@UnDecorator@@SAHXZ 000000018005e1e0 f i libvcruntimed:undname.obj
 0001:0005d220       ?doEllipsis@UnDecorator@@SAHXZ 000000018005e220 f i libvcruntimed:undname.obj
 0001:0005d260       ?doFunctionReturns@UnDecorator@@SAHXZ 000000018005e260 f i libvcruntimed:undname.obj
 0001:0005d2a0       ?doMSKeywords@UnDecorator@@SAHXZ 000000018005e2a0 f i libvcruntimed:undname.obj
 0001:0005d2e0       ?doMemberTypes@UnDecorator@@SAHXZ 000000018005e2e0 f i libvcruntimed:undname.obj
 0001:0005d320       ?doNameOnly@UnDecorator@@SAHXZ 000000018005e320 f i libvcruntimed:undname.obj
 0001:0005d330       ?doNoIdentCharCheck@UnDecorator@@SAHXZ 000000018005e330 f i libvcruntimed:undname.obj
 0001:0005d340       ?doPchar@DName@@AEAAXPEBDH@Z 000000018005e340 f   libvcruntimed:undname.obj
 0001:0005d530       ?doPtr64@UnDecorator@@SAHXZ 000000018005e530 f i libvcruntimed:undname.obj
 0001:0005d570       ?doRestrictionSpec@UnDecorator@@SAHXZ 000000018005e570 f i libvcruntimed:undname.obj
 0001:0005d5b0       ?doThisTypes@UnDecorator@@SAHXZ 000000018005e5b0 f i libvcruntimed:undname.obj
 0001:0005d5f0       ?doThrowTypes@UnDecorator@@SAHXZ 000000018005e5f0 f i libvcruntimed:undname.obj
 0001:0005d630       ?doTypeOnly@UnDecorator@@SAHXZ 000000018005e630 f i libvcruntimed:undname.obj
 0001:0005d640       ?doUnderScore@UnDecorator@@SAHXZ 000000018005e640 f i libvcruntimed:undname.obj
 0001:0005d680       ?getArgumentList@UnDecorator@@CA?AVDName@@XZ 000000018005e680 f   libvcruntimed:undname.obj
 0001:0005d880       ?getArgumentTypes@UnDecorator@@CA?AVDName@@XZ 000000018005e880 f   libvcruntimed:undname.obj
 0001:0005dab0       ?getArrayType@UnDecorator@@CA?AVDName@@AEBV2@@Z 000000018005eab0 f i libvcruntimed:undname.obj
 0001:0005de60       ?getBasedType@UnDecorator@@CA?AVDName@@XZ 000000018005ee60 f   libvcruntimed:undname.obj
 0001:0005df90       ?getBasicDataType@UnDecorator@@CA?AVDName@@AEBV2@@Z 000000018005ef90 f   libvcruntimed:undname.obj
 0001:0005e8b0       ?getCallIndex@UnDecorator@@CA?AVDName@@XZ 000000018005f8b0 f i libvcruntimed:undname.obj
 0001:0005e8e0       ?getCallingConvention@UnDecorator@@CA?AVDName@@XZ 000000018005f8e0 f   libvcruntimed:undname.obj
 0001:0005eb50       ?getDataIndirectType@UnDecorator@@CA?AVDName@@AEBV2@PEBD0H@Z 000000018005fb50 f   libvcruntimed:undname.obj
 0001:0005f830       ?getDataIndirectType@UnDecorator@@CA?AVDName@@XZ 0000000180060830 f i libvcruntimed:undname.obj
 0001:0005f8a0       ?getDataType@UnDecorator@@CA?AVDName@@PEAV2@@Z 00000001800608a0 f   libvcruntimed:undname.obj
 0001:0005fa90       ?getDecoratedName@UnDecorator@@CA?AVDName@@XZ 0000000180060a90 f   libvcruntimed:undname.obj
 0001:0005ff90       ?getDimension@UnDecorator@@CA?AVDName@@_N@Z 0000000180060f90 f   libvcruntimed:undname.obj
 0001:000603d0       ?getDispatchTarget@UnDecorator@@CA?AVDName@@XZ 00000001800613d0 f   libvcruntimed:undname.obj
 0001:000604d0       ?getDisplacement@UnDecorator@@CA?AVDName@@XZ 00000001800614d0 f i libvcruntimed:undname.obj
 0001:00060500       ?getECSUDataType@UnDecorator@@CA?AVDName@@XZ 0000000180061500 f   libvcruntimed:undname.obj
 0001:000607d0       ?getECSUName@UnDecorator@@CA?AVDName@@XZ 00000001800617d0 f i libvcruntimed:undname.obj
 0001:00060800       ?getEnumType@UnDecorator@@CA?AVDName@@XZ 0000000180061800 f i libvcruntimed:undname.obj
 0001:000609e0       ?getExtendedDataIndirectType@UnDecorator@@CA?AVDName@@AEAPEBDAEA_NH@Z 00000001800619e0 f   libvcruntimed:undname.obj
 0001:00060dd0       ?getExternalDataType@UnDecorator@@CA?AVDName@@AEBV2@@Z 0000000180061dd0 f i libvcruntimed:undname.obj
 0001:00060ed0       ?getFunctionIndirectType@UnDecorator@@CA?AVDName@@AEBV2@@Z 0000000180061ed0 f   libvcruntimed:undname.obj
 0001:000615d0       ?getGuardNumber@UnDecorator@@CA?AVDName@@XZ 00000001800625d0 f i libvcruntimed:undname.obj
 0001:00061600       ?getLastChar@DName@@QEBADXZ 0000000180062600 f i libvcruntimed:undname.obj
 0001:00061670       ?getLastChar@DNameStatusNode@@UEBADXZ 0000000180062670 f i libvcruntimed:undname.obj
 0001:000616c0       ?getLastChar@charNode@@UEBADXZ 00000001800626c0 f i libvcruntimed:undname.obj
 0001:000616e0       ?getLastChar@pDNameNode@@UEBADXZ 00000001800626e0 f i libvcruntimed:undname.obj
 0001:00061730       ?getLastChar@pairNode@@UEBADXZ 0000000180062730 f i libvcruntimed:undname.obj
 0001:000617f0       ?getLastChar@pcharNode@@UEBADXZ 00000001800627f0 f i libvcruntimed:undname.obj
 0001:00061840       ?getLexicalFrame@UnDecorator@@CA?AVDName@@XZ 0000000180062840 f i libvcruntimed:undname.obj
 0001:00061890       ?getMemory@_HeapManager@@QEAAPEAX_KH@Z 0000000180062890 f   libvcruntimed:undname.obj
 0001:00061a70       ?getNumberOfDimensions@UnDecorator@@CAHXZ 0000000180062a70 f   libvcruntimed:undname.obj
 0001:00061be0       ?getOperatorName@UnDecorator@@CA?AVDName@@_NPEA_N@Z 0000000180062be0 f i libvcruntimed:undname.obj
 0001:00062cc0       ?getPointerType@UnDecorator@@CA?AVDName@@AEBV2@0@Z 0000000180063cc0 f i libvcruntimed:undname.obj
 0001:00062d20       ?getPointerTypeArray@UnDecorator@@CA?AVDName@@AEBV2@0@Z 0000000180063d20 f i libvcruntimed:undname.obj
 0001:00062d80       ?getPrimaryDataType@UnDecorator@@CA?AVDName@@AEBV2@@Z 0000000180063d80 f   libvcruntimed:undname.obj
 0001:00063360       ?getPtrRefDataType@UnDecorator@@CA?AVDName@@AEBV2@H@Z 0000000180064360 f   libvcruntimed:undname.obj
 0001:000635b0       ?getPtrRefType@UnDecorator@@CA?AVDName@@AEBV2@0PEBD@Z 00000001800645b0 f   libvcruntimed:undname.obj
 0001:00063850       ?getReferenceType@UnDecorator@@CA?AVDName@@AEBV2@0PEBD@Z 0000000180064850 f i libvcruntimed:undname.obj
 0001:000638a0       ?getRestrictionSpec@UnDecorator@@CA?AVDName@@XZ 00000001800648a0 f   libvcruntimed:undname.obj
 0001:00063aa0       ?getReturnType@UnDecorator@@CA?AVDName@@PEAV2@@Z 0000000180064aa0 f   libvcruntimed:undname.obj
 0001:00063b20       ?getScope@UnDecorator@@CA?AVDName@@XZ 0000000180064b20 f   libvcruntimed:undname.obj
 0001:00064290       ?getScopedName@UnDecorator@@CA?AVDName@@XZ 0000000180065290 f   libvcruntimed:undname.obj
 0001:00064450       ?getSignedDimension@UnDecorator@@CA?AVDName@@XZ 0000000180065450 f   libvcruntimed:undname.obj
 0001:00064500       ?getStorageConvention@UnDecorator@@CA?AVDName@@XZ 0000000180065500 f i libvcruntimed:undname.obj
 0001:00064530       ?getString@DName@@QEBAPEADPEAD0@Z 0000000180065530 f i libvcruntimed:undname.obj
 0001:000645c0       ?getString@DName@@QEBAPEADPEADH@Z 00000001800655c0 f i libvcruntimed:undname.obj
 0001:000646a0       ?getString@DNameStatusNode@@UEBAPEADPEAD0@Z 00000001800656a0 f i libvcruntimed:undname.obj
 0001:00064700       ?getString@charNode@@UEBAPEADPEAD0@Z 0000000180065700 f i libvcruntimed:undname.obj
 0001:00064750       ?getString@pDNameNode@@UEBAPEADPEAD0@Z 0000000180065750 f i libvcruntimed:undname.obj
 0001:000647c0       ?getString@pairNode@@UEBAPEADPEAD0@Z 00000001800657c0 f i libvcruntimed:undname.obj
 0001:000648b0       ?getString@pcharNode@@UEBAPEADPEAD0@Z 00000001800658b0 f i libvcruntimed:undname.obj
 0001:00064900       ?getStringEncoding@UnDecorator@@CA?AVDName@@PEADH@Z 0000000180065900 f   libvcruntimed:undname.obj
 0001:00064a90       ?getStringHelper@@YAPEADPEAD00H@Z 0000000180065a90 f i libvcruntimed:undname.obj
 0001:00064b10       ?getSymbolName@UnDecorator@@CA?AVDName@@XZ 0000000180065b10 f i libvcruntimed:undname.obj
 0001:00064bd0       ?getTemplateArgumentList@UnDecorator@@CA?AVDName@@XZ 0000000180065bd0 f   libvcruntimed:undname.obj
 0001:00065160       ?getTemplateConstant@UnDecorator@@CA?AVDName@@XZ 0000000180066160 f   libvcruntimed:undname.obj
 0001:000659b0       ?getTemplateName@UnDecorator@@CA?AVDName@@_N@Z 00000001800669b0 f   libvcruntimed:undname.obj
 0001:00065c80       ?getThisType@UnDecorator@@CA?AVDName@@XZ 0000000180066c80 f i libvcruntimed:undname.obj
 0001:00065cf0       ?getThrowTypes@UnDecorator@@CA?AVDName@@XZ 0000000180066cf0 f   libvcruntimed:undname.obj
 0001:00065e10       ?getTypeEncoding@UnDecorator@@CAHXZ 0000000180066e10 f i libvcruntimed:undname.obj
 0001:00066c90       ?getVCallThunkType@UnDecorator@@CA?AVDName@@XZ 0000000180067c90 f i libvcruntimed:undname.obj
 0001:00066d30       ?getVbTableType@UnDecorator@@CA?AVDName@@AEBV2@@Z 0000000180067d30 f i libvcruntimed:undname.obj
 0001:00066d60       ?getVdispMapType@UnDecorator@@CA?AVDName@@AEBV2@@Z 0000000180067d60 f i libvcruntimed:undname.obj
 0001:00066e10       ?getVfTableType@UnDecorator@@CA?AVDName@@AEBV2@@Z 0000000180067e10 f i libvcruntimed:undname.obj
 0001:000670c0       ?getZName@UnDecorator@@CA?AVDName@@_N0@Z 00000001800680c0 f   libvcruntimed:undname.obj
 0001:00067550       ?haveTemplateParameters@UnDecorator@@SAHXZ 0000000180068550 f i libvcruntimed:undname.obj
 0001:00067560       ?isArray@DName@@QEBAHXZ    0000000180068560 f i libvcruntimed:undname.obj
 0001:00067580       ?isComArray@DName@@QEBAHXZ 0000000180068580 f i libvcruntimed:undname.obj
 0001:000675a0       ?isEmpty@DName@@QEBAHXZ    00000001800685a0 f i libvcruntimed:undname.obj
 0001:000675e0       ?isFull@Replicator@@QEBAHXZ 00000001800685e0 f i libvcruntimed:undname.obj
 0001:00067620       ?isNoTE@DName@@QEBAHXZ     0000000180068620 f i libvcruntimed:undname.obj
 0001:00067640       ?isPinPtr@DName@@QEBAHXZ   0000000180068640 f i libvcruntimed:undname.obj
 0001:00067660       ?isPtrRef@DName@@QEBAHXZ   0000000180068660 f i libvcruntimed:undname.obj
 0001:00067680       ?isUDC@DName@@QEBAHXZ      0000000180068680 f i libvcruntimed:undname.obj
 0001:000676e0       ?isUDTThunk@DName@@QEBAHXZ 00000001800686e0 f i libvcruntimed:undname.obj
 0001:00067740       ?isVCallThunk@DName@@QEBAHXZ 0000000180068740 f i libvcruntimed:undname.obj
 0001:00067760       ?isValid@DName@@QEBAHXZ    0000000180068760 f i libvcruntimed:undname.obj
 0001:000677b0       ?length@DName@@QEBAHXZ     00000001800687b0 f i libvcruntimed:undname.obj
 0001:00067820       ?length@DNameStatusNode@@UEBAHXZ 0000000180068820 f i libvcruntimed:undname.obj
 0001:00067840       ?length@charNode@@UEBAHXZ  0000000180068840 f i libvcruntimed:undname.obj
 0001:00067850       ?length@pDNameNode@@UEBAHXZ 0000000180068850 f i libvcruntimed:undname.obj
 0001:000678a0       ?length@pairNode@@UEBAHXZ  00000001800688a0 f i libvcruntimed:undname.obj
 0001:00067980       ?length@pcharNode@@UEBAHXZ 0000000180068980 f i libvcruntimed:undname.obj
 0001:000679a0       ?make@DNameStatusNode@@SAPEAV1@W4DNameStatus@@@Z 00000001800689a0 f i libvcruntimed:undname.obj
 0001:00067a70       ?setIsArray@DName@@QEAAXXZ 0000000180068a70 f i libvcruntimed:undname.obj
 0001:00067a90       ?setIsComArray@DName@@QEAAXXZ 0000000180068a90 f i libvcruntimed:undname.obj
 0001:00067ab0       ?setIsNoTE@DName@@QEAAXXZ  0000000180068ab0 f i libvcruntimed:undname.obj
 0001:00067ad0       ?setIsPinPtr@DName@@QEAAXXZ 0000000180068ad0 f i libvcruntimed:undname.obj
 0001:00067af0       ?setIsUDC@DName@@QEAAXXZ   0000000180068af0 f i libvcruntimed:undname.obj
 0001:00067b30       ?setIsVCallThunk@DName@@QEAAXXZ 0000000180068b30 f i libvcruntimed:undname.obj
 0001:00067b50       ?setPtrRef@DName@@QEAAAEAV1@XZ 0000000180068b50 f i libvcruntimed:undname.obj
 0001:00067b80       ?status@DName@@QEBA?AW4DNameStatus@@XZ 0000000180068b80 f i libvcruntimed:undname.obj
 0001:00067cf0       __unDName                  0000000180068cf0 f   libvcruntimed:undname.obj
 0001:00067df0       __unDNameEx                0000000180068df0 f   libvcruntimed:undname.obj
 0001:00067ef0       ??$?B$$A6AXXZ@__crt_fast_encoded_nullptr_t@@QEBAP6AXXZXZ 0000000180068ef0 f i libvcruntimed:purevirt_data.obj
 0001:00067f10       ?__crt_fast_encode_pointer@@YA?AU__crt_fast_encoded_nullptr_t@@$$T@Z 0000000180068f10 f i libvcruntimed:purevirt_data.obj
 0001:00067f30       __vcrt_initialize_pure_virtual_call_handler 0000000180068f30 f   libvcruntimed:purevirt_data.obj
 0001:00067f60       ??$?BX@__crt_fast_encoded_nullptr_t@@QEBAPEAXXZ 0000000180068f60 f i libvcruntimed:winapi_downlevel.obj
 0001:00067f80       ??$__crt_fast_decode_pointer@PEAX@@YAPEAXQEAX@Z 0000000180068f80 f i libvcruntimed:winapi_downlevel.obj
 0001:00067fd0       ??$__crt_fast_encode_pointer@PEAX@@YAPEAXQEAX@Z 0000000180068fd0 f i libvcruntimed:winapi_downlevel.obj
 0001:00068020       ??$__crt_interlocked_compare_exchange_pointer@UHINSTANCE__@@$$T$$T@@YAPEAUHINSTANCE__@@PEDSEAU0@$$T1@Z 0000000180069020 f i libvcruntimed:winapi_downlevel.obj
 0001:00068070       ??$__crt_interlocked_compare_exchange_pointer@X$$T$$T@@YAPEAXPEDSEAX$$T1@Z 0000000180069070 f i libvcruntimed:winapi_downlevel.obj
 0001:000680c0       ??$__crt_interlocked_exchange_pointer@UHINSTANCE__@@PEAU1@@@YAPEAUHINSTANCE__@@PEDSEAU0@QEAU0@@Z 00000001800690c0 f i libvcruntimed:winapi_downlevel.obj
 0001:000680e0       ??$__crt_interlocked_exchange_pointer@UHINSTANCE__@@PEAX@@YAPEAUHINSTANCE__@@PEDSEAU0@QEAX@Z 00000001800690e0 f i libvcruntimed:winapi_downlevel.obj
 0001:00068100       ??$__crt_interlocked_exchange_pointer@XPEAX@@YAPEAXPEDSEAXQEAX@Z 0000000180069100 f i libvcruntimed:winapi_downlevel.obj
 0001:00068120       ??$__crt_interlocked_read_pointer@UHINSTANCE__@@@@YAPEAUHINSTANCE__@@PEDSEAU0@@Z 0000000180069120 f i libvcruntimed:winapi_downlevel.obj
 0001:00068150       ??$__crt_interlocked_read_pointer@X@@YAPEAXPEDSEAX@Z 0000000180069150 f i libvcruntimed:winapi_downlevel.obj
 0001:000688e0       __vcrt_EventRegister       00000001800698e0 f   libvcruntimed:winapi_downlevel.obj
 0001:00068960       __vcrt_EventSetInformation 0000000180069960 f   libvcruntimed:winapi_downlevel.obj
 0001:000689e0       __vcrt_EventUnregister     00000001800699e0 f   libvcruntimed:winapi_downlevel.obj
 0001:00068a40       __vcrt_EventWriteTransfer  0000000180069a40 f   libvcruntimed:winapi_downlevel.obj
 0001:00068ae0       __vcrt_FlsAlloc            0000000180069ae0 f   libvcruntimed:winapi_downlevel.obj
 0001:00068b40       __vcrt_FlsFree             0000000180069b40 f   libvcruntimed:winapi_downlevel.obj
 0001:00068ba0       __vcrt_FlsGetValue         0000000180069ba0 f   libvcruntimed:winapi_downlevel.obj
 0001:00068c00       __vcrt_FlsSetValue         0000000180069c00 f   libvcruntimed:winapi_downlevel.obj
 0001:00068c70       __vcrt_InitializeCriticalSectionEx 0000000180069c70 f   libvcruntimed:winapi_downlevel.obj
 0001:00068cf0       __vcrt_initialize_winapi_thunks 0000000180069cf0 f   libvcruntimed:winapi_downlevel.obj
 0001:00068d90       __vcrt_uninitialize_winapi_thunks 0000000180069d90 f   libvcruntimed:winapi_downlevel.obj
 0001:00068e60       _local_unwind              0000000180069e60 f   libvcruntimed:_jmpuwind_.obj
 0001:00068e90       _NLG_Notify                0000000180069e90 f   libvcruntimed:_jmpuwind_.obj
 0001:00068eb0       __NLG_Dispatch2            0000000180069eb0 f   libvcruntimed:_jmpuwind_.obj
 0001:00068ec0       __NLG_Return2              0000000180069ec0 f   libvcruntimed:_jmpuwind_.obj
 0001:00068ee0       __except_validate_context_record 0000000180069ee0 f   libvcruntimed:jbcxrval.obj
 0001:00068f50       __except_validate_jump_buffer 0000000180069f50 f   libvcruntimed:jbcxrval.obj
 0001:00068fe0       ??$?RU__vcrt_ptd@@@__crt_internal_free_policy@@QEBAXQEBU__vcrt_ptd@@@Z 0000000180069fe0 f i libvcruntimed:per_thread_data.obj
 0001:00069010       ??0?$__crt_unique_heap_ptr@U__vcrt_ptd@@U__crt_internal_free_policy@@@@QEAA@QEAU__vcrt_ptd@@@Z 000000018006a010 f i libvcruntimed:per_thread_data.obj
 0001:00069040       ??1?$__crt_unique_heap_ptr@U__vcrt_ptd@@U__crt_internal_free_policy@@@@QEAA@XZ 000000018006a040 f i libvcruntimed:per_thread_data.obj
 0001:00069060       ??B?$__crt_unique_heap_ptr@U__vcrt_ptd@@U__crt_internal_free_policy@@@@QEBA_NXZ 000000018006a060 f i libvcruntimed:per_thread_data.obj
 0001:00069080       ?detach@?$__crt_unique_heap_ptr@U__vcrt_ptd@@U__crt_internal_free_policy@@@@QEAAPEAU__vcrt_ptd@@XZ 000000018006a080 f i libvcruntimed:per_thread_data.obj
 0001:000690c0       ?get@?$__crt_unique_heap_ptr@U__vcrt_ptd@@U__crt_internal_free_policy@@@@QEBAPEAU__vcrt_ptd@@XZ 000000018006a0c0 f i libvcruntimed:per_thread_data.obj
 0001:000690e0       ?is_valid@?$__crt_unique_heap_ptr@U__vcrt_ptd@@U__crt_internal_free_policy@@@@QEBA_NXZ 000000018006a0e0 f i libvcruntimed:per_thread_data.obj
 0001:00069120       ?release@?$__crt_unique_heap_ptr@U__vcrt_ptd@@U__crt_internal_free_policy@@@@QEAAXXZ 000000018006a120 f i libvcruntimed:per_thread_data.obj
 0001:000691a0       __vcrt_freefls             000000018006a1a0 f   libvcruntimed:per_thread_data.obj
 0001:000691f0       __vcrt_freeptd             000000018006a1f0 f   libvcruntimed:per_thread_data.obj
 0001:00069270       __vcrt_getptd              000000018006a270 f   libvcruntimed:per_thread_data.obj
 0001:000692a0       __vcrt_getptd_noexit       000000018006a2a0 f   libvcruntimed:per_thread_data.obj
 0001:00069400       __vcrt_initialize_ptd      000000018006a400 f   libvcruntimed:per_thread_data.obj
 0001:00069460       __vcrt_uninitialize_ptd    000000018006a460 f   libvcruntimed:per_thread_data.obj
 0001:000694a0       __vcrt_initialize_locks    000000018006a4a0 f   libvcruntimed:locks.obj
 0001:00069530       __vcrt_lock                000000018006a530 f   libvcruntimed:locks.obj
 0001:00069570       __vcrt_uninitialize_locks  000000018006a570 f   libvcruntimed:locks.obj
 0001:000695e0       __vcrt_unlock              000000018006a5e0 f   libvcruntimed:locks.obj
 0001:00069630       strcmp                     000000018006a630 f   libucrtd:strcmp.obj
 0001:000696c0       _fpclass                   000000018006a6c0 f   libucrtd:ieeemisc.obj
 0001:000698f0       _fpclassf                  000000018006a8f0 f   libucrtd:ieeemisc.obj
 0001:00069a70       _isnan                     000000018006aa70 f   libucrtd:ieeemisc.obj
 0001:00069af0       _isnanf                    000000018006aaf0 f   libucrtd:ieeemisc.obj
 0001:00069b50       _nextafter                 000000018006ab50 f   libucrtd:ieeemisc.obj
 0001:00069b80       _nextafterf                000000018006ab80 f   libucrtd:ieeemisc.obj
 0001:00069bb0       _scalb                     000000018006abb0 f   libucrtd:ieeemisc.obj
 0001:0006a0c0       _scalbf                    000000018006b0c0 f   libucrtd:ieeemisc.obj
 0001:0006a510       fabs                       000000018006b510 f   libucrtd:fabs.obj
 0001:0006a670       powf                       000000018006b670 f   libucrtd:powf.obj
 0001:0006b8f0       sqrtf                      000000018006c8f0 f   libucrtd:sqrtf.obj
 0001:0006ba80       ??$?RPEAU__crt_stdio_stream_data@@@__crt_internal_free_policy@@QEBAXQEBQEAU__crt_stdio_stream_data@@@Z 000000018006ca80 f i libucrtd:_file.obj
 0001:0006bab0       ??0?$__crt_unique_heap_ptr@PEAU__crt_stdio_stream_data@@U__crt_internal_free_policy@@@@QEAA@QEAPEAU__crt_stdio_stream_data@@@Z 000000018006cab0 f i libucrtd:_file.obj
 0001:0006bae0       ??0__crt_stdio_stream@@QEAA@QEAU_iobuf@@@Z 000000018006cae0 f i libucrtd:_file.obj
 0001:0006bb10       ??1?$__crt_unique_heap_ptr@PEAU__crt_stdio_stream_data@@U__crt_internal_free_policy@@@@QEAA@XZ 000000018006cb10 f i libucrtd:_file.obj
 0001:0006bb30       ??C__crt_stdio_stream@@QEBAPEAU__crt_stdio_stream_data@@XZ 000000018006cb30 f i libucrtd:_file.obj
 0001:0006bb50       ?detach@?$__crt_unique_heap_ptr@PEAU__crt_stdio_stream_data@@U__crt_internal_free_policy@@@@QEAAPEAPEAU__crt_stdio_stream_data@@XZ 000000018006cb50 f i libucrtd:_file.obj
 0001:0006bb90       ?release@?$__crt_unique_heap_ptr@PEAU__crt_stdio_stream_data@@U__crt_internal_free_policy@@@@QEAAXXZ 000000018006cb90 f i libucrtd:_file.obj
 0001:0006bbe0       __acrt_initialize_stdio    000000018006cbe0 f   libucrtd:_file.obj
 0001:0006be40       __acrt_iob_func            000000018006ce40 f   libucrtd:_file.obj
 0001:0006be60       __acrt_uninitialize_stdio  000000018006ce60 f   libucrtd:_file.obj
 0001:0006bf10       _get_stream_buffer_pointers 000000018006cf10 f   libucrtd:_file.obj
 0001:0006c090       _lock_file                 000000018006d090 f   libucrtd:_file.obj
 0001:0006c0d0       _unlock_file               000000018006d0d0 f   libucrtd:_file.obj
 0001:0006c110       ??$?0AEBV?$stream_output_adapter@D@__crt_stdio_output@@AEB_KAEBQEBDAEBQEAU__crt_locale_pointers@@AEBQEAD@?$format_validation_base@DV?$stream_output_adapter@D@__crt_stdio_output@@@__crt_stdio_output@@IEAA@AEBV?$stream_output_adapter@D@1@AEB_KAEBQEBDAEBQEAU__crt_locale_pointers@@AEBQEAD@Z 000000018006d110 f i libucrtd:output.obj
 0001:0006c180       ??$?0AEBV?$stream_output_adapter@D@__crt_stdio_output@@AEB_KAEBQEBDAEBQEAU__crt_locale_pointers@@AEBQEAD@?$positional_parameter_base@DV?$stream_output_adapter@D@__crt_stdio_output@@@__crt_stdio_output@@IEAA@AEBV?$stream_output_adapter@D@1@AEB_KAEBQEBDAEBQEAU__crt_locale_pointers@@AEBQEAD@Z 000000018006d180 f i libucrtd:output.obj
 0001:0006c250       ??$?0AEBV?$stream_output_adapter@D@__crt_stdio_output@@AEB_KAEBQEBDAEBQEAU__crt_locale_pointers@@AEBQEAD@?$standard_base@DV?$stream_output_adapter@D@__crt_stdio_output@@@__crt_stdio_output@@IEAA@AEBV?$stream_output_adapter@D@1@AEB_KAEBQEBDAEBQEAU__crt_locale_pointers@@AEBQEAD@Z 000000018006d250 f i libucrtd:output.obj
 0001:0006c2e0       ??$?0AEBV?$stream_output_adapter@_W@__crt_stdio_output@@AEB_KAEBQEB_WAEBQEAU__crt_locale_pointers@@AEBQEAD@?$format_validation_base@_WV?$stream_output_adapter@_W@__crt_stdio_output@@@__crt_stdio_output@@IEAA@AEBV?$stream_output_adapter@_W@1@AEB_KAEBQEB_WAEBQEAU__crt_locale_pointers@@AEBQEAD@Z 000000018006d2e0 f i libucrtd:output.obj
 0001:0006c350       ??$?0AEBV?$stream_output_adapter@_W@__crt_stdio_output@@AEB_KAEBQEB_WAEBQEAU__crt_locale_pointers@@AEBQEAD@?$positional_parameter_base@_WV?$stream_output_adapter@_W@__crt_stdio_output@@@__crt_stdio_output@@IEAA@AEBV?$stream_output_adapter@_W@1@AEB_KAEBQEB_WAEBQEAU__crt_locale_pointers@@AEBQEAD@Z 000000018006d350 f i libucrtd:output.obj
 0001:0006c420       ??$?0AEBV?$stream_output_adapter@_W@__crt_stdio_output@@AEB_KAEBQEB_WAEBQEAU__crt_locale_pointers@@AEBQEAD@?$standard_base@_WV?$stream_output_adapter@_W@__crt_stdio_output@@@__crt_stdio_output@@IEAA@AEBV?$stream_output_adapter@_W@1@AEB_KAEBQEB_WAEBQEAU__crt_locale_pointers@@AEBQEAD@Z 000000018006d420 f i libucrtd:output.obj
 0001:0006c4b0       ??$?0AEBV?$string_output_adapter@D@__crt_stdio_output@@AEB_KAEBQEBDAEBQEAU__crt_locale_pointers@@AEBQEAD@?$format_validation_base@DV?$string_output_adapter@D@__crt_stdio_output@@@__crt_stdio_output@@IEAA@AEBV?$string_output_adapter@D@1@AEB_KAEBQEBDAEBQEAU__crt_locale_pointers@@AEBQEAD@Z 000000018006d4b0 f i libucrtd:output.obj
 0001:0006c520       ??$?0AEBV?$string_output_adapter@D@__crt_stdio_output@@AEB_KAEBQEBDAEBQEAU__crt_locale_pointers@@AEBQEAD@?$positional_parameter_base@DV?$string_output_adapter@D@__crt_stdio_output@@@__crt_stdio_output@@IEAA@AEBV?$string_output_adapter@D@1@AEB_KAEBQEBDAEBQEAU__crt_locale_pointers@@AEBQEAD@Z 000000018006d520 f i libucrtd:output.obj
 0001:0006c5f0       ??$?0AEBV?$string_output_adapter@D@__crt_stdio_output@@AEB_KAEBQEBDAEBQEAU__crt_locale_pointers@@AEBQEAD@?$standard_base@DV?$string_output_adapter@D@__crt_stdio_output@@@__crt_stdio_output@@IEAA@AEBV?$string_output_adapter@D@1@AEB_KAEBQEBDAEBQEAU__crt_locale_pointers@@AEBQEAD@Z 000000018006d5f0 f i libucrtd:output.obj
 0001:0006c680       ??$?0AEBV?$string_output_adapter@_W@__crt_stdio_output@@AEB_KAEBQEB_WAEBQEAU__crt_locale_pointers@@AEBQEAD@?$format_validation_base@_WV?$string_output_adapter@_W@__crt_stdio_output@@@__crt_stdio_output@@IEAA@AEBV?$string_output_adapter@_W@1@AEB_KAEBQEB_WAEBQEAU__crt_locale_pointers@@AEBQEAD@Z 000000018006d680 f i libucrtd:output.obj
 0001:0006c6f0       ??$?0AEBV?$string_output_adapter@_W@__crt_stdio_output@@AEB_KAEBQEB_WAEBQEAU__crt_locale_pointers@@AEBQEAD@?$positional_parameter_base@_WV?$string_output_adapter@_W@__crt_stdio_output@@@__crt_stdio_output@@IEAA@AEBV?$string_output_adapter@_W@1@AEB_KAEBQEB_WAEBQEAU__crt_locale_pointers@@AEBQEAD@Z 000000018006d6f0 f i libucrtd:output.obj
 0001:0006c7c0       ??$?0AEBV?$string_output_adapter@_W@__crt_stdio_output@@AEB_KAEBQEB_WAEBQEAU__crt_locale_pointers@@AEBQEAD@?$standard_base@_WV?$string_output_adapter@_W@__crt_stdio_output@@@__crt_stdio_output@@IEAA@AEBV?$string_output_adapter@_W@1@AEB_KAEBQEB_WAEBQEAU__crt_locale_pointers@@AEBQEAD@Z 000000018006d7c0 f i libucrtd:output.obj
 0001:0006c850       ??$?RV<lambda_2647abb55a408a205467c4169a724277>@@AEAV<lambda_576477a770bb5ab586b2d9569451c7f7>@@V<lambda_c2b006f504a10a4cf14b9a1fbce2a01e>@@@?$__crt_seh_guarded_call@H@@QEAAH$$QEAV<lambda_2647abb55a408a205467c4169a724277>@@AEAV<lambda_576477a770bb5ab586b2d9569451c7f7>@@$$QEAV<lambda_c2b006f504a10a4cf14b9a1fbce2a01e>@@@Z 000000018006d850 f i libucrtd:output.obj
 0001:0006c8b0       ??$?RV<lambda_2b8ba55cb2a29189d70f882b678c7350>@@AEAV<lambda_ab9668973a2a61b07c64846465621f55>@@V<lambda_748afda9c1ab82b4e15f74dcdf75db74>@@@?$__crt_seh_guarded_call@H@@QEAAH$$QEAV<lambda_2b8ba55cb2a29189d70f882b678c7350>@@AEAV<lambda_ab9668973a2a61b07c64846465621f55>@@$$QEAV<lambda_748afda9c1ab82b4e15f74dcdf75db74>@@@Z 000000018006d8b0 f i libucrtd:output.obj
 0001:0006c910       ??$?RV<lambda_4942f9dcb8a83a0b649775421cdab7f2>@@AEAV<lambda_9fdeb54d99e6c7e515b8c19e0613d470>@@V<lambda_f61bc4569557b8ad96931f67d51af400>@@@?$__crt_seh_guarded_call@H@@QEAAH$$QEAV<lambda_4942f9dcb8a83a0b649775421cdab7f2>@@AEAV<lambda_9fdeb54d99e6c7e515b8c19e0613d470>@@$$QEAV<lambda_f61bc4569557b8ad96931f67d51af400>@@@Z 000000018006d910 f i libucrtd:output.obj
 0001:0006c970       ??$?RV<lambda_7b91131dde12e1c3dfc74ff76b3f2eac>@@AEAV<lambda_dd75445284c072d0bd3768540cc698fa>@@V<lambda_16bc4ecb55b4718497c16bceaea2ceaf>@@@?$__crt_seh_guarded_call@H@@QEAAH$$QEAV<lambda_7b91131dde12e1c3dfc74ff76b3f2eac>@@AEAV<lambda_dd75445284c072d0bd3768540cc698fa>@@$$QEAV<lambda_16bc4ecb55b4718497c16bceaea2ceaf>@@@Z 000000018006d970 f i libucrtd:output.obj
 0001:0006c9d0       ??$?RV<lambda_aa279a7bcb127014629d5b1d62c7325d>@@AEAV<lambda_0a64b6a4deda75c01876f29c44fc5eb3>@@V<lambda_3323e69fbefe9d1a11713e670d47cdfa>@@@?$__crt_seh_guarded_call@H@@QEAAH$$QEAV<lambda_aa279a7bcb127014629d5b1d62c7325d>@@AEAV<lambda_0a64b6a4deda75c01876f29c44fc5eb3>@@$$QEAV<lambda_3323e69fbefe9d1a11713e670d47cdfa>@@@Z 000000018006d9d0 f i libucrtd:output.obj
 0001:0006ca30       ??$?RV<lambda_c232a0c49490a30f399a8430f51b50ba>@@AEAV<lambda_7b6c652cce95ef5b7c2ff34f92bf0578>@@V<lambda_c415c6f6d9d103d7e93818ef66b8cc8a>@@@?$__crt_seh_guarded_call@H@@QEAAH$$QEAV<lambda_c232a0c49490a30f399a8430f51b50ba>@@AEAV<lambda_7b6c652cce95ef5b7c2ff34f92bf0578>@@$$QEAV<lambda_c415c6f6d9d103d7e93818ef66b8cc8a>@@@Z 000000018006da30 f i libucrtd:output.obj
 0001:0006ca90       ??$__acrt_lock_stream_and_call@V<lambda_0a64b6a4deda75c01876f29c44fc5eb3>@@@@YAHQEAU_iobuf@@$$QEAV<lambda_0a64b6a4deda75c01876f29c44fc5eb3>@@@Z 000000018006da90 f i libucrtd:output.obj
 0001:0006cb10       ??$__acrt_lock_stream_and_call@V<lambda_576477a770bb5ab586b2d9569451c7f7>@@@@YAHQEAU_iobuf@@$$QEAV<lambda_576477a770bb5ab586b2d9569451c7f7>@@@Z 000000018006db10 f i libucrtd:output.obj
 0001:0006cb90       ??$__acrt_lock_stream_and_call@V<lambda_7b6c652cce95ef5b7c2ff34f92bf0578>@@@@YAHQEAU_iobuf@@$$QEAV<lambda_7b6c652cce95ef5b7c2ff34f92bf0578>@@@Z 000000018006db90 f i libucrtd:output.obj
 0001:0006cc10       ??$__acrt_lock_stream_and_call@V<lambda_9fdeb54d99e6c7e515b8c19e0613d470>@@@@YAHQEAU_iobuf@@$$QEAV<lambda_9fdeb54d99e6c7e515b8c19e0613d470>@@@Z 000000018006dc10 f i libucrtd:output.obj
 0001:0006cc90       ??$__acrt_lock_stream_and_call@V<lambda_ab9668973a2a61b07c64846465621f55>@@@@YAHQEAU_iobuf@@$$QEAV<lambda_ab9668973a2a61b07c64846465621f55>@@@Z 000000018006dc90 f i libucrtd:output.obj
 0001:0006cd10       ??$__acrt_lock_stream_and_call@V<lambda_dd75445284c072d0bd3768540cc698fa>@@@@YAHQEAU_iobuf@@$$QEAV<lambda_dd75445284c072d0bd3768540cc698fa>@@@Z 000000018006dd10 f i libucrtd:output.obj
 0001:0006cd90       ??$__crt_interlocked_read@J@@YAJPEDJ@Z 000000018006dd90 f i libucrtd:output.obj
 0001:00071700       ??$count@D@formatting_buffer@__crt_stdio_output@@QEBA_KXZ 0000000180072700 f i libucrtd:output.obj
 0001:00071760       ??$data@D@formatting_buffer@__crt_stdio_output@@QEAAPEADXZ 0000000180072760 f i libucrtd:output.obj
 0001:000717c0       ??$data@_W@formatting_buffer@__crt_stdio_output@@QEAAPEA_WXZ 00000001800727c0 f i libucrtd:output.obj
 0001:00071820       ??$ensure_buffer_is_big_enough@D@formatting_buffer@__crt_stdio_output@@QEAA_N_K@Z 0000000180072820 f i libucrtd:output.obj
 0001:00071990       ??$extract_argument_from_va_list@C_J@?$positional_parameter_base@DV?$stream_output_adapter@D@__crt_stdio_output@@@__crt_stdio_output@@IEAA_NAEA_J@Z 0000000180072990 f i libucrtd:output.obj
 0001:00071b70       ??$extract_argument_from_va_list@C_J@?$positional_parameter_base@DV?$string_output_adapter@D@__crt_stdio_output@@@__crt_stdio_output@@IEAA_NAEA_J@Z 0000000180072b70 f i libucrtd:output.obj
 0001:00071d50       ??$extract_argument_from_va_list@C_J@?$positional_parameter_base@_WV?$stream_output_adapter@_W@__crt_stdio_output@@@__crt_stdio_output@@IEAA_NAEA_J@Z 0000000180072d50 f i libucrtd:output.obj
 0001:00071f30       ??$extract_argument_from_va_list@C_J@?$positional_parameter_base@_WV?$string_output_adapter@_W@__crt_stdio_output@@@__crt_stdio_output@@IEAA_NAEA_J@Z 0000000180072f30 f i libucrtd:output.obj
 0001:00072110       ??$extract_argument_from_va_list@C_J@?$standard_base@DV?$stream_output_adapter@D@__crt_stdio_output@@@__crt_stdio_output@@IEAA_NAEA_J@Z 0000000180073110 f i libucrtd:output.obj
 0001:00072150       ??$extract_argument_from_va_list@C_J@?$standard_base@DV?$string_output_adapter@D@__crt_stdio_output@@@__crt_stdio_output@@IEAA_NAEA_J@Z 0000000180073150 f i libucrtd:output.obj
 0001:00072190       ??$extract_argument_from_va_list@C_J@?$standard_base@_WV?$stream_output_adapter@_W@__crt_stdio_output@@@__crt_stdio_output@@IEAA_NAEA_J@Z 0000000180073190 f i libucrtd:output.obj
 0001:000721d0       ??$extract_argument_from_va_list@C_J@?$standard_base@_WV?$string_output_adapter@_W@__crt_stdio_output@@@__crt_stdio_output@@IEAA_NAEA_J@Z 00000001800731d0 f i libucrtd:output.obj
 0001:00072210       ??$extract_argument_from_va_list@E_J@?$positional_parameter_base@DV?$stream_output_adapter@D@__crt_stdio_output@@@__crt_stdio_output@@IEAA_NAEA_J@Z 0000000180073210 f i libucrtd:output.obj
 0001:000723f0       ??$extract_argument_from_va_list@E_J@?$positional_parameter_base@DV?$string_output_adapter@D@__crt_stdio_output@@@__crt_stdio_output@@IEAA_NAEA_J@Z 00000001800733f0 f i libucrtd:output.obj
 0001:000725d0       ??$extract_argument_from_va_list@E_J@?$positional_parameter_base@_WV?$stream_output_adapter@_W@__crt_stdio_output@@@__crt_stdio_output@@IEAA_NAEA_J@Z 00000001800735d0 f i libucrtd:output.obj
 0001:000727b0       ??$extract_argument_from_va_list@E_J@?$positional_parameter_base@_WV?$string_output_adapter@_W@__crt_stdio_output@@@__crt_stdio_output@@IEAA_NAEA_J@Z 00000001800737b0 f i libucrtd:output.obj
 0001:00072990       ??$extract_argument_from_va_list@E_J@?$standard_base@DV?$stream_output_adapter@D@__crt_stdio_output@@@__crt_stdio_output@@IEAA_NAEA_J@Z 0000000180073990 f i libucrtd:output.obj
 0001:000729d0       ??$extract_argument_from_va_list@E_J@?$standard_base@DV?$string_output_adapter@D@__crt_stdio_output@@@__crt_stdio_output@@IEAA_NAEA_J@Z 00000001800739d0 f i libucrtd:output.obj
 0001:00072a10       ??$extract_argument_from_va_list@E_J@?$standard_base@_WV?$stream_output_adapter@_W@__crt_stdio_output@@@__crt_stdio_output@@IEAA_NAEA_J@Z 0000000180073a10 f i libucrtd:output.obj
 0001:00072a50       ??$extract_argument_from_va_list@E_J@?$standard_base@_WV?$string_output_adapter@_W@__crt_stdio_output@@@__crt_stdio_output@@IEAA_NAEA_J@Z 0000000180073a50 f i libucrtd:output.obj
 0001:00072a90       ??$extract_argument_from_va_list@F_J@?$positional_parameter_base@DV?$stream_output_adapter@D@__crt_stdio_output@@@__crt_stdio_output@@IEAA_NAEA_J@Z 0000000180073a90 f i libucrtd:output.obj
 0001:00072c70       ??$extract_argument_from_va_list@F_J@?$positional_parameter_base@DV?$string_output_adapter@D@__crt_stdio_output@@@__crt_stdio_output@@IEAA_NAEA_J@Z 0000000180073c70 f i libucrtd:output.obj
 0001:00072e50       ??$extract_argument_from_va_list@F_J@?$positional_parameter_base@_WV?$stream_output_adapter@_W@__crt_stdio_output@@@__crt_stdio_output@@IEAA_NAEA_J@Z 0000000180073e50 f i libucrtd:output.obj
 0001:00073030       ??$extract_argument_from_va_list@F_J@?$positional_parameter_base@_WV?$string_output_adapter@_W@__crt_stdio_output@@@__crt_stdio_output@@IEAA_NAEA_J@Z 0000000180074030 f i libucrtd:output.obj
 0001:00073210       ??$extract_argument_from_va_list@F_J@?$standard_base@DV?$stream_output_adapter@D@__crt_stdio_output@@@__crt_stdio_output@@IEAA_NAEA_J@Z 0000000180074210 f i libucrtd:output.obj
 0001:00073250       ??$extract_argument_from_va_list@F_J@?$standard_base@DV?$string_output_adapter@D@__crt_stdio_output@@@__crt_stdio_output@@IEAA_NAEA_J@Z 0000000180074250 f i libucrtd:output.obj
 0001:00073290       ??$extract_argument_from_va_list@F_J@?$standard_base@_WV?$stream_output_adapter@_W@__crt_stdio_output@@@__crt_stdio_output@@IEAA_NAEA_J@Z 0000000180074290 f i libucrtd:output.obj
 0001:000732d0       ??$extract_argument_from_va_list@F_J@?$standard_base@_WV?$string_output_adapter@_W@__crt_stdio_output@@@__crt_stdio_output@@IEAA_NAEA_J@Z 00000001800742d0 f i libucrtd:output.obj
 0001:00073310       ??$extract_argument_from_va_list@GD@?$positional_parameter_base@DV?$stream_output_adapter@D@__crt_stdio_output@@@__crt_stdio_output@@IEAA_NAEAD@Z 0000000180074310 f i libucrtd:output.obj
 0001:000734f0       ??$extract_argument_from_va_list@GD@?$positional_parameter_base@DV?$string_output_adapter@D@__crt_stdio_output@@@__crt_stdio_output@@IEAA_NAEAD@Z 00000001800744f0 f i libucrtd:output.obj
 0001:000736d0       ??$extract_argument_from_va_list@GD@?$standard_base@DV?$stream_output_adapter@D@__crt_stdio_output@@@__crt_stdio_output@@IEAA_NAEAD@Z 00000001800746d0 f i libucrtd:output.obj
 0001:00073710       ??$extract_argument_from_va_list@GD@?$standard_base@DV?$string_output_adapter@D@__crt_stdio_output@@@__crt_stdio_output@@IEAA_NAEAD@Z 0000000180074710 f i libucrtd:output.obj
 0001:00073750       ??$extract_argument_from_va_list@G_J@?$positional_parameter_base@DV?$stream_output_adapter@D@__crt_stdio_output@@@__crt_stdio_output@@IEAA_NAEA_J@Z 0000000180074750 f i libucrtd:output.obj
 0001:00073930       ??$extract_argument_from_va_list@G_J@?$positional_parameter_base@DV?$string_output_adapter@D@__crt_stdio_output@@@__crt_stdio_output@@IEAA_NAEA_J@Z 0000000180074930 f i libucrtd:output.obj
 0001:00073b10       ??$extract_argument_from_va_list@G_J@?$positional_parameter_base@_WV?$stream_output_adapter@_W@__crt_stdio_output@@@__crt_stdio_output@@IEAA_NAEA_J@Z 0000000180074b10 f i libucrtd:output.obj
 0001:00073cf0       ??$extract_argument_from_va_list@G_J@?$positional_parameter_base@_WV?$string_output_adapter@_W@__crt_stdio_output@@@__crt_stdio_output@@IEAA_NAEA_J@Z 0000000180074cf0 f i libucrtd:output.obj
 0001:00073ed0       ??$extract_argument_from_va_list@G_J@?$standard_base@DV?$stream_output_adapter@D@__crt_stdio_output@@@__crt_stdio_output@@IEAA_NAEA_J@Z 0000000180074ed0 f i libucrtd:output.obj
 0001:00073f10       ??$extract_argument_from_va_list@G_J@?$standard_base@DV?$string_output_adapter@D@__crt_stdio_output@@@__crt_stdio_output@@IEAA_NAEA_J@Z 0000000180074f10 f i libucrtd:output.obj
 0001:00073f50       ??$extract_argument_from_va_list@G_J@?$standard_base@_WV?$stream_output_adapter@_W@__crt_stdio_output@@@__crt_stdio_output@@IEAA_NAEA_J@Z 0000000180074f50 f i libucrtd:output.obj
 0001:00073f90       ??$extract_argument_from_va_list@G_J@?$standard_base@_WV?$string_output_adapter@_W@__crt_stdio_output@@@__crt_stdio_output@@IEAA_NAEA_J@Z 0000000180074f90 f i libucrtd:output.obj
 0001:00073fd0       ??$extract_argument_from_va_list@H_J@?$positional_parameter_base@DV?$stream_output_adapter@D@__crt_stdio_output@@@__crt_stdio_output@@IEAA_NAEA_J@Z 0000000180074fd0 f i libucrtd:output.obj
 0001:000741b0       ??$extract_argument_from_va_list@H_J@?$positional_parameter_base@DV?$string_output_adapter@D@__crt_stdio_output@@@__crt_stdio_output@@IEAA_NAEA_J@Z 00000001800751b0 f i libucrtd:output.obj
 0001:00074390       ??$extract_argument_from_va_list@H_J@?$positional_parameter_base@_WV?$stream_output_adapter@_W@__crt_stdio_output@@@__crt_stdio_output@@IEAA_NAEA_J@Z 0000000180075390 f i libucrtd:output.obj
 0001:00074570       ??$extract_argument_from_va_list@H_J@?$positional_parameter_base@_WV?$string_output_adapter@_W@__crt_stdio_output@@@__crt_stdio_output@@IEAA_NAEA_J@Z 0000000180075570 f i libucrtd:output.obj
 0001:00074750       ??$extract_argument_from_va_list@H_J@?$standard_base@DV?$stream_output_adapter@D@__crt_stdio_output@@@__crt_stdio_output@@IEAA_NAEA_J@Z 0000000180075750 f i libucrtd:output.obj
 0001:00074790       ??$extract_argument_from_va_list@H_J@?$standard_base@DV?$string_output_adapter@D@__crt_stdio_output@@@__crt_stdio_output@@IEAA_NAEA_J@Z 0000000180075790 f i libucrtd:output.obj
 0001:000747d0       ??$extract_argument_from_va_list@H_J@?$standard_base@_WV?$stream_output_adapter@_W@__crt_stdio_output@@@__crt_stdio_output@@IEAA_NAEA_J@Z 00000001800757d0 f i libucrtd:output.obj
 0001:00074810       ??$extract_argument_from_va_list@H_J@?$standard_base@_WV?$string_output_adapter@_W@__crt_stdio_output@@@__crt_stdio_output@@IEAA_NAEA_J@Z 0000000180075810 f i libucrtd:output.obj
 0001:00074850       ??$extract_argument_from_va_list@I_J@?$positional_parameter_base@DV?$stream_output_adapter@D@__crt_stdio_output@@@__crt_stdio_output@@IEAA_NAEA_J@Z 0000000180075850 f i libucrtd:output.obj
 0001:00074a30       ??$extract_argument_from_va_list@I_J@?$positional_parameter_base@DV?$string_output_adapter@D@__crt_stdio_output@@@__crt_stdio_output@@IEAA_NAEA_J@Z 0000000180075a30 f i libucrtd:output.obj
 0001:00074c10       ??$extract_argument_from_va_list@I_J@?$positional_parameter_base@_WV?$stream_output_adapter@_W@__crt_stdio_output@@@__crt_stdio_output@@IEAA_NAEA_J@Z 0000000180075c10 f i libucrtd:output.obj
 0001:00074df0       ??$extract_argument_from_va_list@I_J@?$positional_parameter_base@_WV?$string_output_adapter@_W@__crt_stdio_output@@@__crt_stdio_output@@IEAA_NAEA_J@Z 0000000180075df0 f i libucrtd:output.obj
 0001:00074fd0       ??$extract_argument_from_va_list@I_J@?$standard_base@DV?$stream_output_adapter@D@__crt_stdio_output@@@__crt_stdio_output@@IEAA_NAEA_J@Z 0000000180075fd0 f i libucrtd:output.obj
 0001:00075010       ??$extract_argument_from_va_list@I_J@?$standard_base@DV?$string_output_adapter@D@__crt_stdio_output@@@__crt_stdio_output@@IEAA_NAEA_J@Z 0000000180076010 f i libucrtd:output.obj
 0001:00075050       ??$extract_argument_from_va_list@I_J@?$standard_base@_WV?$stream_output_adapter@_W@__crt_stdio_output@@@__crt_stdio_output@@IEAA_NAEA_J@Z 0000000180076050 f i libucrtd:output.obj
 0001:00075090       ??$extract_argument_from_va_list@I_J@?$standard_base@_WV?$string_output_adapter@_W@__crt_stdio_output@@@__crt_stdio_output@@IEAA_NAEA_J@Z 0000000180076090 f i libucrtd:output.obj
 0001:000750d0       ??$extract_argument_from_va_list@PEADPEAD@?$positional_parameter_base@DV?$stream_output_adapter@D@__crt_stdio_output@@@__crt_stdio_output@@IEAA_NAEAPEAD@Z 00000001800760d0 f i libucrtd:output.obj
 0001:000752b0       ??$extract_argument_from_va_list@PEADPEAD@?$positional_parameter_base@DV?$string_output_adapter@D@__crt_stdio_output@@@__crt_stdio_output@@IEAA_NAEAPEAD@Z 00000001800762b0 f i libucrtd:output.obj
 0001:00075490       ??$extract_argument_from_va_list@PEADPEAD@?$positional_parameter_base@_WV?$stream_output_adapter@_W@__crt_stdio_output@@@__crt_stdio_output@@IEAA_NAEAPEAD@Z 0000000180076490 f i libucrtd:output.obj
 0001:00075670       ??$extract_argument_from_va_list@PEADPEAD@?$positional_parameter_base@_WV?$string_output_adapter@_W@__crt_stdio_output@@@__crt_stdio_output@@IEAA_NAEAPEAD@Z 0000000180076670 f i libucrtd:output.obj
 0001:00075850       ??$extract_argument_from_va_list@PEADPEAD@?$standard_base@DV?$stream_output_adapter@D@__crt_stdio_output@@@__crt_stdio_output@@IEAA_NAEAPEAD@Z 0000000180076850 f i libucrtd:output.obj
 0001:00075890       ??$extract_argument_from_va_list@PEADPEAD@?$standard_base@DV?$string_output_adapter@D@__crt_stdio_output@@@__crt_stdio_output@@IEAA_NAEAPEAD@Z 0000000180076890 f i libucrtd:output.obj
 0001:000758d0       ??$extract_argument_from_va_list@PEADPEAD@?$standard_base@_WV?$stream_output_adapter@_W@__crt_stdio_output@@@__crt_stdio_output@@IEAA_NAEAPEAD@Z 00000001800768d0 f i libucrtd:output.obj
 0001:00075910       ??$extract_argument_from_va_list@PEADPEAD@?$standard_base@_WV?$string_output_adapter@_W@__crt_stdio_output@@@__crt_stdio_output@@IEAA_NAEAPEAD@Z 0000000180076910 f i libucrtd:output.obj
 0001:00075950       ??$extract_argument_from_va_list@PEAUansi_string@?1??type_case_Z@?$output_processor@DV?$stream_output_adapter@D@__crt_stdio_output@@V?$format_validation_base@DV?$stream_output_adapter@D@__crt_stdio_output@@@2@@__crt_stdio_output@@AEAA_NXZ@PEAU1?1??234@AEAA_NXZ@@?$standard_base@DV?$stream_output_adapter@D@__crt_stdio_output@@@__crt_stdio_output@@IEAA_NAEAPEAUansi_string@?1??type_case_Z@?$output_processor@DV?$stream_output_adapter@D@__crt_stdio_output@@V?$format_validation_base@DV?$stream_output_adapter@D@__crt_stdio_output@@@2@@1@AEAA_NXZ@@Z 0000000180076950 f i libucrtd:output.obj
 0001:00075990       ??$extract_argument_from_va_list@PEAUansi_string@?1??type_case_Z@?$output_processor@DV?$stream_output_adapter@D@__crt_stdio_output@@V?$positional_parameter_base@DV?$stream_output_adapter@D@__crt_stdio_output@@@2@@__crt_stdio_output@@AEAA_NXZ@PEAU1?1??234@AEAA_NXZ@@?$positional_parameter_base@DV?$stream_output_adapter@D@__crt_stdio_output@@@__crt_stdio_output@@IEAA_NAEAPEAUansi_string@?1??type_case_Z@?$output_processor@DV?$stream_output_adapter@D@__crt_stdio_output@@V?$positional_parameter_base@DV?$stream_output_adapter@D@__crt_stdio_output@@@2@@1@AEAA_NXZ@@Z 0000000180076990 f i libucrtd:output.obj
 0001:00075b70       ??$extract_argument_from_va_list@PEAUansi_string@?1??type_case_Z@?$output_processor@DV?$stream_output_adapter@D@__crt_stdio_output@@V?$positional_parameter_base@DV?$stream_output_adapter@D@__crt_stdio_output@@@2@@__crt_stdio_output@@AEAA_NXZ@PEAU1?1??234@AEAA_NXZ@@?$standard_base@DV?$stream_output_adapter@D@__crt_stdio_output@@@__crt_stdio_output@@IEAA_NAEAPEAUansi_string@?1??type_case_Z@?$output_processor@DV?$stream_output_adapter@D@__crt_stdio_output@@V?$positional_parameter_base@DV?$stream_output_adapter@D@__crt_stdio_output@@@2@@1@AEAA_NXZ@@Z 0000000180076b70 f i libucrtd:output.obj
 0001:00075bb0       ??$extract_argument_from_va_list@PEAUansi_string@?1??type_case_Z@?$output_processor@DV?$stream_output_adapter@D@__crt_stdio_output@@V?$standard_base@DV?$stream_output_adapter@D@__crt_stdio_output@@@2@@__crt_stdio_output@@AEAA_NXZ@PEAU1?1??234@AEAA_NXZ@@?$standard_base@DV?$stream_output_adapter@D@__crt_stdio_output@@@__crt_stdio_output@@IEAA_NAEAPEAUansi_string@?1??type_case_Z@?$output_processor@DV?$stream_output_adapter@D@__crt_stdio_output@@V?$standard_base@DV?$stream_output_adapter@D@__crt_stdio_output@@@2@@1@AEAA_NXZ@@Z 0000000180076bb0 f i libucrtd:output.obj
 0001:00075bf0       ??$extract_argument_from_va_list@PEAUansi_string@?1??type_case_Z@?$output_processor@DV?$string_output_adapter@D@__crt_stdio_output@@V?$format_validation_base@DV?$string_output_adapter@D@__crt_stdio_output@@@2@@__crt_stdio_output@@AEAA_NXZ@PEAU1?1??234@AEAA_NXZ@@?$standard_base@DV?$string_output_adapter@D@__crt_stdio_output@@@__crt_stdio_output@@IEAA_NAEAPEAUansi_string@?1??type_case_Z@?$output_processor@DV?$string_output_adapter@D@__crt_stdio_output@@V?$format_validation_base@DV?$string_output_adapter@D@__crt_stdio_output@@@2@@1@AEAA_NXZ@@Z 0000000180076bf0 f i libucrtd:output.obj
 0001:00075c30       ??$extract_argument_from_va_list@PEAUansi_string@?1??type_case_Z@?$output_processor@DV?$string_output_adapter@D@__crt_stdio_output@@V?$positional_parameter_base@DV?$string_output_adapter@D@__crt_stdio_output@@@2@@__crt_stdio_output@@AEAA_NXZ@PEAU1?1??234@AEAA_NXZ@@?$positional_parameter_base@DV?$string_output_adapter@D@__crt_stdio_output@@@__crt_stdio_output@@IEAA_NAEAPEAUansi_string@?1??type_case_Z@?$output_processor@DV?$string_output_adapter@D@__crt_stdio_output@@V?$positional_parameter_base@DV?$string_output_adapter@D@__crt_stdio_output@@@2@@1@AEAA_NXZ@@Z 0000000180076c30 f i libucrtd:output.obj
 0001:00075e10       ??$extract_argument_from_va_list@PEAUansi_string@?1??type_case_Z@?$output_processor@DV?$string_output_adapter@D@__crt_stdio_output@@V?$positional_parameter_base@DV?$string_output_adapter@D@__crt_stdio_output@@@2@@__crt_stdio_output@@AEAA_NXZ@PEAU1?1??234@AEAA_NXZ@@?$standard_base@DV?$string_output_adapter@D@__crt_stdio_output@@@__crt_stdio_output@@IEAA_NAEAPEAUansi_string@?1??type_case_Z@?$output_processor@DV?$string_output_adapter@D@__crt_stdio_output@@V?$positional_parameter_base@DV?$string_output_adapter@D@__crt_stdio_output@@@2@@1@AEAA_NXZ@@Z 0000000180076e10 f i libucrtd:output.obj
 0001:00075e50       ??$extract_argument_from_va_list@PEAUansi_string@?1??type_case_Z@?$output_processor@DV?$string_output_adapter@D@__crt_stdio_output@@V?$standard_base@DV?$string_output_adapter@D@__crt_stdio_output@@@2@@__crt_stdio_output@@AEAA_NXZ@PEAU1?1??234@AEAA_NXZ@@?$standard_base@DV?$string_output_adapter@D@__crt_stdio_output@@@__crt_stdio_output@@IEAA_NAEAPEAUansi_string@?1??type_case_Z@?$output_processor@DV?$string_output_adapter@D@__crt_stdio_output@@V?$standard_base@DV?$string_output_adapter@D@__crt_stdio_output@@@2@@1@AEAA_NXZ@@Z 0000000180076e50 f i libucrtd:output.obj
 0001:00075e90       ??$extract_argument_from_va_list@PEAUansi_string@?1??type_case_Z@?$output_processor@_WV?$stream_output_adapter@_W@__crt_stdio_output@@V?$format_validation_base@_WV?$stream_output_adapter@_W@__crt_stdio_output@@@2@@__crt_stdio_output@@AEAA_NXZ@PEAU1?1??234@AEAA_NXZ@@?$standard_base@_WV?$stream_output_adapter@_W@__crt_stdio_output@@@__crt_stdio_output@@IEAA_NAEAPEAUansi_string@?1??type_case_Z@?$output_processor@_WV?$stream_output_adapter@_W@__crt_stdio_output@@V?$format_validation_base@_WV?$stream_output_adapter@_W@__crt_stdio_output@@@2@@1@AEAA_NXZ@@Z 0000000180076e90 f i libucrtd:output.obj
 0001:00075ed0       ??$extract_argument_from_va_list@PEAUansi_string@?1??type_case_Z@?$output_processor@_WV?$stream_output_adapter@_W@__crt_stdio_output@@V?$positional_parameter_base@_WV?$stream_output_adapter@_W@__crt_stdio_output@@@2@@__crt_stdio_output@@AEAA_NXZ@PEAU1?1??234@AEAA_NXZ@@?$positional_parameter_base@_WV?$stream_output_adapter@_W@__crt_stdio_output@@@__crt_stdio_output@@IEAA_NAEAPEAUansi_string@?1??type_case_Z@?$output_processor@_WV?$stream_output_adapter@_W@__crt_stdio_output@@V?$positional_parameter_base@_WV?$stream_output_adapter@_W@__crt_stdio_output@@@2@@1@AEAA_NXZ@@Z 0000000180076ed0 f i libucrtd:output.obj
 0001:000760b0       ??$extract_argument_from_va_list@PEAUansi_string@?1??type_case_Z@?$output_processor@_WV?$stream_output_adapter@_W@__crt_stdio_output@@V?$positional_parameter_base@_WV?$stream_output_adapter@_W@__crt_stdio_output@@@2@@__crt_stdio_output@@AEAA_NXZ@PEAU1?1??234@AEAA_NXZ@@?$standard_base@_WV?$stream_output_adapter@_W@__crt_stdio_output@@@__crt_stdio_output@@IEAA_NAEAPEAUansi_string@?1??type_case_Z@?$output_processor@_WV?$stream_output_adapter@_W@__crt_stdio_output@@V?$positional_parameter_base@_WV?$stream_output_adapter@_W@__crt_stdio_output@@@2@@1@AEAA_NXZ@@Z 00000001800770b0 f i libucrtd:output.obj
 0001:000760f0       ??$extract_argument_from_va_list@PEAUansi_string@?1??type_case_Z@?$output_processor@_WV?$stream_output_adapter@_W@__crt_stdio_output@@V?$standard_base@_WV?$stream_output_adapter@_W@__crt_stdio_output@@@2@@__crt_stdio_output@@AEAA_NXZ@PEAU1?1??234@AEAA_NXZ@@?$standard_base@_WV?$stream_output_adapter@_W@__crt_stdio_output@@@__crt_stdio_output@@IEAA_NAEAPEAUansi_string@?1??type_case_Z@?$output_processor@_WV?$stream_output_adapter@_W@__crt_stdio_output@@V?$standard_base@_WV?$stream_output_adapter@_W@__crt_stdio_output@@@2@@1@AEAA_NXZ@@Z 00000001800770f0 f i libucrtd:output.obj
 0001:00076130       ??$extract_argument_from_va_list@PEAUansi_string@?1??type_case_Z@?$output_processor@_WV?$string_output_adapter@_W@__crt_stdio_output@@V?$format_validation_base@_WV?$string_output_adapter@_W@__crt_stdio_output@@@2@@__crt_stdio_output@@AEAA_NXZ@PEAU1?1??234@AEAA_NXZ@@?$standard_base@_WV?$string_output_adapter@_W@__crt_stdio_output@@@__crt_stdio_output@@IEAA_NAEAPEAUansi_string@?1??type_case_Z@?$output_processor@_WV?$string_output_adapter@_W@__crt_stdio_output@@V?$format_validation_base@_WV?$string_output_adapter@_W@__crt_stdio_output@@@2@@1@AEAA_NXZ@@Z 0000000180077130 f i libucrtd:output.obj
 0001:00076170       ??$extract_argument_from_va_list@PEAUansi_string@?1??type_case_Z@?$output_processor@_WV?$string_output_adapter@_W@__crt_stdio_output@@V?$positional_parameter_base@_WV?$string_output_adapter@_W@__crt_stdio_output@@@2@@__crt_stdio_output@@AEAA_NXZ@PEAU1?1??234@AEAA_NXZ@@?$positional_parameter_base@_WV?$string_output_adapter@_W@__crt_stdio_output@@@__crt_stdio_output@@IEAA_NAEAPEAUansi_string@?1??type_case_Z@?$output_processor@_WV?$string_output_adapter@_W@__crt_stdio_output@@V?$positional_parameter_base@_WV?$string_output_adapter@_W@__crt_stdio_output@@@2@@1@AEAA_NXZ@@Z 0000000180077170 f i libucrtd:output.obj
 0001:00076350       ??$extract_argument_from_va_list@PEAUansi_string@?1??type_case_Z@?$output_processor@_WV?$string_output_adapter@_W@__crt_stdio_output@@V?$positional_parameter_base@_WV?$string_output_adapter@_W@__crt_stdio_output@@@2@@__crt_stdio_output@@AEAA_NXZ@PEAU1?1??234@AEAA_NXZ@@?$standard_base@_WV?$string_output_adapter@_W@__crt_stdio_output@@@__crt_stdio_output@@IEAA_NAEAPEAUansi_string@?1??type_case_Z@?$output_processor@_WV?$string_output_adapter@_W@__crt_stdio_output@@V?$positional_parameter_base@_WV?$string_output_adapter@_W@__crt_stdio_output@@@2@@1@AEAA_NXZ@@Z 0000000180077350 f i libucrtd:output.obj
 0001:00076390       ??$extract_argument_from_va_list@PEAUansi_string@?1??type_case_Z@?$output_processor@_WV?$string_output_adapter@_W@__crt_stdio_output@@V?$standard_base@_WV?$string_output_adapter@_W@__crt_stdio_output@@@2@@__crt_stdio_output@@AEAA_NXZ@PEAU1?1??234@AEAA_NXZ@@?$standard_base@_WV?$string_output_adapter@_W@__crt_stdio_output@@@__crt_stdio_output@@IEAA_NAEAPEAUansi_string@?1??type_case_Z@?$output_processor@_WV?$string_output_adapter@_W@__crt_stdio_output@@V?$standard_base@_WV?$string_output_adapter@_W@__crt_stdio_output@@@2@@1@AEAA_NXZ@@Z 0000000180077390 f i libucrtd:output.obj
 0001:000763d0       ??$extract_argument_from_va_list@PEAXPEAX@?$positional_parameter_base@DV?$stream_output_adapter@D@__crt_stdio_output@@@__crt_stdio_output@@IEAA_NAEAPEAX@Z 00000001800773d0 f i libucrtd:output.obj
 0001:000765b0       ??$extract_argument_from_va_list@PEAXPEAX@?$positional_parameter_base@DV?$string_output_adapter@D@__crt_stdio_output@@@__crt_stdio_output@@IEAA_NAEAPEAX@Z 00000001800775b0 f i libucrtd:output.obj
 0001:00076790       ??$extract_argument_from_va_list@PEAXPEAX@?$positional_parameter_base@_WV?$stream_output_adapter@_W@__crt_stdio_output@@@__crt_stdio_output@@IEAA_NAEAPEAX@Z 0000000180077790 f i libucrtd:output.obj
 0001:00076970       ??$extract_argument_from_va_list@PEAXPEAX@?$positional_parameter_base@_WV?$string_output_adapter@_W@__crt_stdio_output@@@__crt_stdio_output@@IEAA_NAEAPEAX@Z 0000000180077970 f i libucrtd:output.obj
 0001:00076b50       ??$extract_argument_from_va_list@PEAXPEAX@?$standard_base@DV?$stream_output_adapter@D@__crt_stdio_output@@@__crt_stdio_output@@IEAA_NAEAPEAX@Z 0000000180077b50 f i libucrtd:output.obj
 0001:00076b90       ??$extract_argument_from_va_list@PEAXPEAX@?$standard_base@DV?$string_output_adapter@D@__crt_stdio_output@@@__crt_stdio_output@@IEAA_NAEAPEAX@Z 0000000180077b90 f i libucrtd:output.obj
 0001:00076bd0       ??$extract_argument_from_va_list@PEAXPEAX@?$standard_base@_WV?$stream_output_adapter@_W@__crt_stdio_output@@@__crt_stdio_output@@IEAA_NAEAPEAX@Z 0000000180077bd0 f i libucrtd:output.obj
 0001:00076c10       ??$extract_argument_from_va_list@PEAXPEAX@?$standard_base@_WV?$string_output_adapter@_W@__crt_stdio_output@@@__crt_stdio_output@@IEAA_NAEAPEAX@Z 0000000180077c10 f i libucrtd:output.obj
 0001:00076c50       ??$extract_argument_from_va_list@U_CRT_DOUBLE@@U1@@?$positional_parameter_base@DV?$stream_output_adapter@D@__crt_stdio_output@@@__crt_stdio_output@@IEAA_NAEAU_CRT_DOUBLE@@@Z 0000000180077c50 f i libucrtd:output.obj
 0001:00076e60       ??$extract_argument_from_va_list@U_CRT_DOUBLE@@U1@@?$positional_parameter_base@DV?$string_output_adapter@D@__crt_stdio_output@@@__crt_stdio_output@@IEAA_NAEAU_CRT_DOUBLE@@@Z 0000000180077e60 f i libucrtd:output.obj
 0001:00077070       ??$extract_argument_from_va_list@U_CRT_DOUBLE@@U1@@?$positional_parameter_base@_WV?$stream_output_adapter@_W@__crt_stdio_output@@@__crt_stdio_output@@IEAA_NAEAU_CRT_DOUBLE@@@Z 0000000180078070 f i libucrtd:output.obj
 0001:00077280       ??$extract_argument_from_va_list@U_CRT_DOUBLE@@U1@@?$positional_parameter_base@_WV?$string_output_adapter@_W@__crt_stdio_output@@@__crt_stdio_output@@IEAA_NAEAU_CRT_DOUBLE@@@Z 0000000180078280 f i libucrtd:output.obj
 0001:00077490       ??$extract_argument_from_va_list@U_CRT_DOUBLE@@U1@@?$standard_base@DV?$stream_output_adapter@D@__crt_stdio_output@@@__crt_stdio_output@@IEAA_NAEAU_CRT_DOUBLE@@@Z 0000000180078490 f i libucrtd:output.obj
 0001:000774f0       ??$extract_argument_from_va_list@U_CRT_DOUBLE@@U1@@?$standard_base@DV?$string_output_adapter@D@__crt_stdio_output@@@__crt_stdio_output@@IEAA_NAEAU_CRT_DOUBLE@@@Z 00000001800784f0 f i libucrtd:output.obj
 0001:00077550       ??$extract_argument_from_va_list@U_CRT_DOUBLE@@U1@@?$standard_base@_WV?$stream_output_adapter@_W@__crt_stdio_output@@@__crt_stdio_output@@IEAA_NAEAU_CRT_DOUBLE@@@Z 0000000180078550 f i libucrtd:output.obj
 0001:000775b0       ??$extract_argument_from_va_list@U_CRT_DOUBLE@@U1@@?$standard_base@_WV?$string_output_adapter@_W@__crt_stdio_output@@@__crt_stdio_output@@IEAA_NAEAU_CRT_DOUBLE@@@Z 00000001800785b0 f i libucrtd:output.obj
 0001:00077610       ??$extract_argument_from_va_list@_J_J@?$positional_parameter_base@DV?$stream_output_adapter@D@__crt_stdio_output@@@__crt_stdio_output@@IEAA_NAEA_J@Z 0000000180078610 f i libucrtd:output.obj
 0001:000777f0       ??$extract_argument_from_va_list@_J_J@?$positional_parameter_base@DV?$string_output_adapter@D@__crt_stdio_output@@@__crt_stdio_output@@IEAA_NAEA_J@Z 00000001800787f0 f i libucrtd:output.obj
 0001:000779d0       ??$extract_argument_from_va_list@_J_J@?$positional_parameter_base@_WV?$stream_output_adapter@_W@__crt_stdio_output@@@__crt_stdio_output@@IEAA_NAEA_J@Z 00000001800789d0 f i libucrtd:output.obj
 0001:00077bb0       ??$extract_argument_from_va_list@_J_J@?$positional_parameter_base@_WV?$string_output_adapter@_W@__crt_stdio_output@@@__crt_stdio_output@@IEAA_NAEA_J@Z 0000000180078bb0 f i libucrtd:output.obj
 0001:00077d90       ??$extract_argument_from_va_list@_J_J@?$standard_base@DV?$stream_output_adapter@D@__crt_stdio_output@@@__crt_stdio_output@@IEAA_NAEA_J@Z 0000000180078d90 f i libucrtd:output.obj
 0001:00077dd0       ??$extract_argument_from_va_list@_J_J@?$standard_base@DV?$string_output_adapter@D@__crt_stdio_output@@@__crt_stdio_output@@IEAA_NAEA_J@Z 0000000180078dd0 f i libucrtd:output.obj
 0001:00077e10       ??$extract_argument_from_va_list@_J_J@?$standard_base@_WV?$stream_output_adapter@_W@__crt_stdio_output@@@__crt_stdio_output@@IEAA_NAEA_J@Z 0000000180078e10 f i libucrtd:output.obj
 0001:00077e50       ??$extract_argument_from_va_list@_J_J@?$standard_base@_WV?$string_output_adapter@_W@__crt_stdio_output@@@__crt_stdio_output@@IEAA_NAEA_J@Z 0000000180078e50 f i libucrtd:output.obj
 0001:00077e90       ??$extract_argument_from_va_list@_K_J@?$positional_parameter_base@DV?$stream_output_adapter@D@__crt_stdio_output@@@__crt_stdio_output@@IEAA_NAEA_J@Z 0000000180078e90 f i libucrtd:output.obj
 0001:00078070       ??$extract_argument_from_va_list@_K_J@?$positional_parameter_base@DV?$string_output_adapter@D@__crt_stdio_output@@@__crt_stdio_output@@IEAA_NAEA_J@Z 0000000180079070 f i libucrtd:output.obj
 0001:00078250       ??$extract_argument_from_va_list@_K_J@?$positional_parameter_base@_WV?$stream_output_adapter@_W@__crt_stdio_output@@@__crt_stdio_output@@IEAA_NAEA_J@Z 0000000180079250 f i libucrtd:output.obj
 0001:00078430       ??$extract_argument_from_va_list@_K_J@?$positional_parameter_base@_WV?$string_output_adapter@_W@__crt_stdio_output@@@__crt_stdio_output@@IEAA_NAEA_J@Z 0000000180079430 f i libucrtd:output.obj
 0001:00078610       ??$extract_argument_from_va_list@_K_J@?$standard_base@DV?$stream_output_adapter@D@__crt_stdio_output@@@__crt_stdio_output@@IEAA_NAEA_J@Z 0000000180079610 f i libucrtd:output.obj
 0001:00078650       ??$extract_argument_from_va_list@_K_J@?$standard_base@DV?$string_output_adapter@D@__crt_stdio_output@@@__crt_stdio_output@@IEAA_NAEA_J@Z 0000000180079650 f i libucrtd:output.obj
 0001:00078690       ??$extract_argument_from_va_list@_K_J@?$standard_base@_WV?$stream_output_adapter@_W@__crt_stdio_output@@@__crt_stdio_output@@IEAA_NAEA_J@Z 0000000180079690 f i libucrtd:output.obj
 0001:000786d0       ??$extract_argument_from_va_list@_K_J@?$standard_base@_WV?$string_output_adapter@_W@__crt_stdio_output@@@__crt_stdio_output@@IEAA_NAEA_J@Z 00000001800796d0 f i libucrtd:output.obj
 0001:00078710       ??$extract_argument_from_va_list@_W_W@?$positional_parameter_base@DV?$stream_output_adapter@D@__crt_stdio_output@@@__crt_stdio_output@@IEAA_NAEA_W@Z 0000000180079710 f i libucrtd:output.obj
 0001:000788f0       ??$extract_argument_from_va_list@_W_W@?$positional_parameter_base@DV?$string_output_adapter@D@__crt_stdio_output@@@__crt_stdio_output@@IEAA_NAEA_W@Z 00000001800798f0 f i libucrtd:output.obj
 0001:00078ad0       ??$extract_argument_from_va_list@_W_W@?$positional_parameter_base@_WV?$stream_output_adapter@_W@__crt_stdio_output@@@__crt_stdio_output@@IEAA_NAEA_W@Z 0000000180079ad0 f i libucrtd:output.obj
 0001:00078cb0       ??$extract_argument_from_va_list@_W_W@?$positional_parameter_base@_WV?$string_output_adapter@_W@__crt_stdio_output@@@__crt_stdio_output@@IEAA_NAEA_W@Z 0000000180079cb0 f i libucrtd:output.obj
 0001:00078e90       ??$extract_argument_from_va_list@_W_W@?$standard_base@DV?$stream_output_adapter@D@__crt_stdio_output@@@__crt_stdio_output@@IEAA_NAEA_W@Z 0000000180079e90 f i libucrtd:output.obj
 0001:00078ed0       ??$extract_argument_from_va_list@_W_W@?$standard_base@DV?$string_output_adapter@D@__crt_stdio_output@@@__crt_stdio_output@@IEAA_NAEA_W@Z 0000000180079ed0 f i libucrtd:output.obj
 0001:00078f10       ??$extract_argument_from_va_list@_W_W@?$standard_base@_WV?$stream_output_adapter@_W@__crt_stdio_output@@@__crt_stdio_output@@IEAA_NAEA_W@Z 0000000180079f10 f i libucrtd:output.obj
 0001:00078f50       ??$extract_argument_from_va_list@_W_W@?$standard_base@_WV?$string_output_adapter@_W@__crt_stdio_output@@@__crt_stdio_output@@IEAA_NAEA_W@Z 0000000180079f50 f i libucrtd:output.obj
 0001:00078f90       ??$get_parameter_type@D@?$positional_parameter_base@DV?$stream_output_adapter@D@__crt_stdio_output@@@__crt_stdio_output@@CA?AW4parameter_type@01@PEAD@Z 0000000180079f90 f i libucrtd:output.obj
 0001:00078fa0       ??$get_parameter_type@D@?$positional_parameter_base@DV?$string_output_adapter@D@__crt_stdio_output@@@__crt_stdio_output@@CA?AW4parameter_type@01@PEAD@Z 0000000180079fa0 f i libucrtd:output.obj
 0001:00078fb0       ??$get_parameter_type@D@?$positional_parameter_base@_WV?$stream_output_adapter@_W@__crt_stdio_output@@@__crt_stdio_output@@CA?AW4parameter_type@01@PEAD@Z 0000000180079fb0 f i libucrtd:output.obj
 0001:00078fc0       ??$get_parameter_type@D@?$positional_parameter_base@_WV?$string_output_adapter@_W@__crt_stdio_output@@@__crt_stdio_output@@CA?AW4parameter_type@01@PEAD@Z 0000000180079fc0 f i libucrtd:output.obj
 0001:00078fd0       ??$get_parameter_type@Uansi_string@?1??type_case_Z@?$output_processor@DV?$stream_output_adapter@D@__crt_stdio_output@@V?$positional_parameter_base@DV?$stream_output_adapter@D@__crt_stdio_output@@@2@@__crt_stdio_output@@AEAA_NXZ@@?$positional_parameter_base@DV?$stream_output_adapter@D@__crt_stdio_output@@@__crt_stdio_output@@CA?AW4parameter_type@01@PEAUansi_string@?1??type_case_Z@?$output_processor@DV?$stream_output_adapter@D@__crt_stdio_output@@V?$positional_parameter_base@DV?$stream_output_adapter@D@__crt_stdio_output@@@2@@1@AEAA_NXZ@@Z 0000000180079fd0 f i libucrtd:output.obj
 0001:00078fe0       ??$get_parameter_type@Uansi_string@?1??type_case_Z@?$output_processor@DV?$string_output_adapter@D@__crt_stdio_output@@V?$positional_parameter_base@DV?$string_output_adapter@D@__crt_stdio_output@@@2@@__crt_stdio_output@@AEAA_NXZ@@?$positional_parameter_base@DV?$string_output_adapter@D@__crt_stdio_output@@@__crt_stdio_output@@CA?AW4parameter_type@01@PEAUansi_string@?1??type_case_Z@?$output_processor@DV?$string_output_adapter@D@__crt_stdio_output@@V?$positional_parameter_base@DV?$string_output_adapter@D@__crt_stdio_output@@@2@@1@AEAA_NXZ@@Z 0000000180079fe0 f i libucrtd:output.obj
 0001:00078ff0       ??$get_parameter_type@Uansi_string@?1??type_case_Z@?$output_processor@_WV?$stream_output_adapter@_W@__crt_stdio_output@@V?$positional_parameter_base@_WV?$stream_output_adapter@_W@__crt_stdio_output@@@2@@__crt_stdio_output@@AEAA_NXZ@@?$positional_parameter_base@_WV?$stream_output_adapter@_W@__crt_stdio_output@@@__crt_stdio_output@@CA?AW4parameter_type@01@PEAUansi_string@?1??type_case_Z@?$output_processor@_WV?$stream_output_adapter@_W@__crt_stdio_output@@V?$positional_parameter_base@_WV?$stream_output_adapter@_W@__crt_stdio_output@@@2@@1@AEAA_NXZ@@Z 0000000180079ff0 f i libucrtd:output.obj
 0001:00079000       ??$get_parameter_type@Uansi_string@?1??type_case_Z@?$output_processor@_WV?$string_output_adapter@_W@__crt_stdio_output@@V?$positional_parameter_base@_WV?$string_output_adapter@_W@__crt_stdio_output@@@2@@__crt_stdio_output@@AEAA_NXZ@@?$positional_parameter_base@_WV?$string_output_adapter@_W@__crt_stdio_output@@@__crt_stdio_output@@CA?AW4parameter_type@01@PEAUansi_string@?1??type_case_Z@?$output_processor@_WV?$string_output_adapter@_W@__crt_stdio_output@@V?$positional_parameter_base@_WV?$string_output_adapter@_W@__crt_stdio_output@@@2@@1@AEAA_NXZ@@Z 000000018007a000 f i libucrtd:output.obj
 0001:00079010       ??$get_parameter_type@X@?$positional_parameter_base@DV?$stream_output_adapter@D@__crt_stdio_output@@@__crt_stdio_output@@CA?AW4parameter_type@01@PEAX@Z 000000018007a010 f i libucrtd:output.obj
 0001:00079020       ??$get_parameter_type@X@?$positional_parameter_base@DV?$string_output_adapter@D@__crt_stdio_output@@@__crt_stdio_output@@CA?AW4parameter_type@01@PEAX@Z 000000018007a020 f i libucrtd:output.obj
 0001:00079030       ??$get_parameter_type@X@?$positional_parameter_base@_WV?$stream_output_adapter@_W@__crt_stdio_output@@@__crt_stdio_output@@CA?AW4parameter_type@01@PEAX@Z 000000018007a030 f i libucrtd:output.obj
 0001:00079040       ??$get_parameter_type@X@?$positional_parameter_base@_WV?$string_output_adapter@_W@__crt_stdio_output@@@__crt_stdio_output@@CA?AW4parameter_type@01@PEAX@Z 000000018007a040 f i libucrtd:output.obj
 0001:00079050       ??$is_character_specifier@D@?$positional_parameter_base@DV?$stream_output_adapter@D@__crt_stdio_output@@@__crt_stdio_output@@CA_ND@Z 000000018007a050 f i libucrtd:output.obj
 0001:000790a0       ??$is_character_specifier@D@?$positional_parameter_base@DV?$string_output_adapter@D@__crt_stdio_output@@@__crt_stdio_output@@CA_ND@Z 000000018007a0a0 f i libucrtd:output.obj
 0001:000790f0       ??$is_character_specifier@_W@?$positional_parameter_base@_WV?$stream_output_adapter@_W@__crt_stdio_output@@@__crt_stdio_output@@CA_N_W@Z 000000018007a0f0 f i libucrtd:output.obj
 0001:00079140       ??$is_character_specifier@_W@?$positional_parameter_base@_WV?$string_output_adapter@_W@__crt_stdio_output@@@__crt_stdio_output@@CA_N_W@Z 000000018007a140 f i libucrtd:output.obj
 0001:00079190       ??$is_integral_specifier@D@?$positional_parameter_base@DV?$stream_output_adapter@D@__crt_stdio_output@@@__crt_stdio_output@@CA_ND@Z 000000018007a190 f i libucrtd:output.obj
 0001:00079210       ??$is_integral_specifier@D@?$positional_parameter_base@DV?$string_output_adapter@D@__crt_stdio_output@@@__crt_stdio_output@@CA_ND@Z 000000018007a210 f i libucrtd:output.obj
 0001:00079290       ??$is_integral_specifier@_W@?$positional_parameter_base@_WV?$stream_output_adapter@_W@__crt_stdio_output@@@__crt_stdio_output@@CA_N_W@Z 000000018007a290 f i libucrtd:output.obj
 0001:00079320       ??$is_integral_specifier@_W@?$positional_parameter_base@_WV?$string_output_adapter@_W@__crt_stdio_output@@@__crt_stdio_output@@CA_N_W@Z 000000018007a320 f i libucrtd:output.obj
 0001:000793b0       ??$is_pointer_specifier@D@?$positional_parameter_base@DV?$stream_output_adapter@D@__crt_stdio_output@@@__crt_stdio_output@@CA_ND@Z 000000018007a3b0 f i libucrtd:output.obj
 0001:000793f0       ??$is_pointer_specifier@D@?$positional_parameter_base@DV?$string_output_adapter@D@__crt_stdio_output@@@__crt_stdio_output@@CA_ND@Z 000000018007a3f0 f i libucrtd:output.obj
 0001:00079430       ??$is_pointer_specifier@_W@?$positional_parameter_base@_WV?$stream_output_adapter@_W@__crt_stdio_output@@@__crt_stdio_output@@CA_N_W@Z 000000018007a430 f i libucrtd:output.obj
 0001:00079470       ??$is_pointer_specifier@_W@?$positional_parameter_base@_WV?$string_output_adapter@_W@__crt_stdio_output@@@__crt_stdio_output@@CA_N_W@Z 000000018007a470 f i libucrtd:output.obj
 0001:000794b0       ??$is_string_specifier@D@?$positional_parameter_base@DV?$stream_output_adapter@D@__crt_stdio_output@@@__crt_stdio_output@@CA_ND@Z 000000018007a4b0 f i libucrtd:output.obj
 0001:00079500       ??$is_string_specifier@D@?$positional_parameter_base@DV?$string_output_adapter@D@__crt_stdio_output@@@__crt_stdio_output@@CA_ND@Z 000000018007a500 f i libucrtd:output.obj
 0001:00079550       ??$is_string_specifier@_W@?$positional_parameter_base@_WV?$stream_output_adapter@_W@__crt_stdio_output@@@__crt_stdio_output@@CA_N_W@Z 000000018007a550 f i libucrtd:output.obj
 0001:000795a0       ??$is_string_specifier@_W@?$positional_parameter_base@_WV?$string_output_adapter@_W@__crt_stdio_output@@@__crt_stdio_output@@CA_N_W@Z 000000018007a5a0 f i libucrtd:output.obj
 0001:000795f0       ??$is_wide_character_specifier@D@__crt_stdio_output@@YA_N_KDW4length_modifier@0@@Z 000000018007a5f0 f i libucrtd:output.obj
 0001:000796b0       ??$is_wide_character_specifier@_W@__crt_stdio_output@@YA_N_K_WW4length_modifier@0@@Z 000000018007a6b0 f i libucrtd:output.obj
 0001:000797b0       ??$peek_va_arg@C@__crt_stdio_output@@YACPEAD@Z 000000018007a7b0 f i libucrtd:output.obj
 0001:00079820       ??$peek_va_arg@E@__crt_stdio_output@@YAEPEAD@Z 000000018007a820 f i libucrtd:output.obj
 0001:00079890       ??$peek_va_arg@F@__crt_stdio_output@@YAFPEAD@Z 000000018007a890 f i libucrtd:output.obj
 0001:00079900       ??$peek_va_arg@G@__crt_stdio_output@@YAGPEAD@Z 000000018007a900 f i libucrtd:output.obj
 0001:00079970       ??$peek_va_arg@H@__crt_stdio_output@@YAHPEAD@Z 000000018007a970 f i libucrtd:output.obj
 0001:000799e0       ??$peek_va_arg@I@__crt_stdio_output@@YAIPEAD@Z 000000018007a9e0 f i libucrtd:output.obj
 0001:00079a50       ??$peek_va_arg@PEAD@__crt_stdio_output@@YAPEADPEAD@Z 000000018007aa50 f i libucrtd:output.obj
 0001:00079ac0       ??$peek_va_arg@PEAUansi_string@?1??type_case_Z@?$output_processor@DV?$stream_output_adapter@D@__crt_stdio_output@@V?$positional_parameter_base@DV?$stream_output_adapter@D@__crt_stdio_output@@@2@@__crt_stdio_output@@AEAA_NXZ@@__crt_stdio_output@@YAPEAUansi_string@?1??type_case_Z@?$output_processor@DV?$stream_output_adapter@D@__crt_stdio_output@@V?$positional_parameter_base@DV?$stream_output_adapter@D@__crt_stdio_output@@@2@@0@AEAA_NXZ@PEAD@Z 000000018007aac0 f i libucrtd:output.obj
 0001:00079b30       ??$peek_va_arg@PEAUansi_string@?1??type_case_Z@?$output_processor@DV?$string_output_adapter@D@__crt_stdio_output@@V?$positional_parameter_base@DV?$string_output_adapter@D@__crt_stdio_output@@@2@@__crt_stdio_output@@AEAA_NXZ@@__crt_stdio_output@@YAPEAUansi_string@?1??type_case_Z@?$output_processor@DV?$string_output_adapter@D@__crt_stdio_output@@V?$positional_parameter_base@DV?$string_output_adapter@D@__crt_stdio_output@@@2@@0@AEAA_NXZ@PEAD@Z 000000018007ab30 f i libucrtd:output.obj
 0001:00079ba0       ??$peek_va_arg@PEAUansi_string@?1??type_case_Z@?$output_processor@_WV?$stream_output_adapter@_W@__crt_stdio_output@@V?$positional_parameter_base@_WV?$stream_output_adapter@_W@__crt_stdio_output@@@2@@__crt_stdio_output@@AEAA_NXZ@@__crt_stdio_output@@YAPEAUansi_string@?1??type_case_Z@?$output_processor@_WV?$stream_output_adapter@_W@__crt_stdio_output@@V?$positional_parameter_base@_WV?$stream_output_adapter@_W@__crt_stdio_output@@@2@@0@AEAA_NXZ@PEAD@Z 000000018007aba0 f i libucrtd:output.obj
 0001:00079c10       ??$peek_va_arg@PEAUansi_string@?1??type_case_Z@?$output_processor@_WV?$string_output_adapter@_W@__crt_stdio_output@@V?$positional_parameter_base@_WV?$string_output_adapter@_W@__crt_stdio_output@@@2@@__crt_stdio_output@@AEAA_NXZ@@__crt_stdio_output@@YAPEAUansi_string@?1??type_case_Z@?$output_processor@_WV?$string_output_adapter@_W@__crt_stdio_output@@V?$positional_parameter_base@_WV?$string_output_adapter@_W@__crt_stdio_output@@@2@@0@AEAA_NXZ@PEAD@Z 000000018007ac10 f i libucrtd:output.obj
 0001:00079c80       ??$peek_va_arg@PEAX@__crt_stdio_output@@YAPEAXPEAD@Z 000000018007ac80 f i libucrtd:output.obj
 0001:00079cf0       ??$peek_va_arg@U_CRT_DOUBLE@@@__crt_stdio_output@@YA?AU_CRT_DOUBLE@@PEAD@Z 000000018007acf0 f i libucrtd:output.obj
 0001:00079d60       ??$peek_va_arg@_J@__crt_stdio_output@@YA_JPEAD@Z 000000018007ad60 f i libucrtd:output.obj
 0001:00079dd0       ??$peek_va_arg@_K@__crt_stdio_output@@YA_KPEAD@Z 000000018007add0 f i libucrtd:output.obj
 0001:00079e40       ??$peek_va_arg@_W@__crt_stdio_output@@YA_WPEAD@Z 000000018007ae40 f i libucrtd:output.obj
 0001:00079eb0       ??$puttc_nolock@AEBDPEAU_iobuf@@@?$__crt_char_traits@D@@SAHAEBD$$QEAPEAU_iobuf@@@Z 000000018007aeb0 f i libucrtd:output.obj
 0001:00079ef0       ??$puttc_nolock@AEB_WPEAU_iobuf@@@?$__crt_char_traits@_W@@SAGAEB_W$$QEAPEAU_iobuf@@@Z 000000018007aef0 f i libucrtd:output.obj
 0001:00079f30       ??$read_va_arg@C@__crt_stdio_output@@YACAEAPEAD@Z 000000018007af30 f i libucrtd:output.obj
 0001:00079fb0       ??$read_va_arg@E@__crt_stdio_output@@YAEAEAPEAD@Z 000000018007afb0 f i libucrtd:output.obj
 0001:0007a030       ??$read_va_arg@F@__crt_stdio_output@@YAFAEAPEAD@Z 000000018007b030 f i libucrtd:output.obj
 0001:0007a0b0       ??$read_va_arg@G@__crt_stdio_output@@YAGAEAPEAD@Z 000000018007b0b0 f i libucrtd:output.obj
 0001:0007a130       ??$read_va_arg@H@__crt_stdio_output@@YAHAEAPEAD@Z 000000018007b130 f i libucrtd:output.obj
 0001:0007a1b0       ??$read_va_arg@I@__crt_stdio_output@@YAIAEAPEAD@Z 000000018007b1b0 f i libucrtd:output.obj
 0001:0007a230       ??$read_va_arg@PEAD@__crt_stdio_output@@YAPEADAEAPEAD@Z 000000018007b230 f i libucrtd:output.obj
 0001:0007a2b0       ??$read_va_arg@PEAUansi_string@?1??type_case_Z@?$output_processor@DV?$stream_output_adapter@D@__crt_stdio_output@@V?$format_validation_base@DV?$stream_output_adapter@D@__crt_stdio_output@@@2@@__crt_stdio_output@@AEAA_NXZ@@__crt_stdio_output@@YAPEAUansi_string@?1??type_case_Z@?$output_processor@DV?$stream_output_adapter@D@__crt_stdio_output@@V?$format_validation_base@DV?$stream_output_adapter@D@__crt_stdio_output@@@2@@0@AEAA_NXZ@AEAPEAD@Z 000000018007b2b0 f i libucrtd:output.obj
 0001:0007a330       ??$read_va_arg@PEAUansi_string@?1??type_case_Z@?$output_processor@DV?$stream_output_adapter@D@__crt_stdio_output@@V?$positional_parameter_base@DV?$stream_output_adapter@D@__crt_stdio_output@@@2@@__crt_stdio_output@@AEAA_NXZ@@__crt_stdio_output@@YAPEAUansi_string@?1??type_case_Z@?$output_processor@DV?$stream_output_adapter@D@__crt_stdio_output@@V?$positional_parameter_base@DV?$stream_output_adapter@D@__crt_stdio_output@@@2@@0@AEAA_NXZ@AEAPEAD@Z 000000018007b330 f i libucrtd:output.obj
 0001:0007a3b0       ??$read_va_arg@PEAUansi_string@?1??type_case_Z@?$output_processor@DV?$stream_output_adapter@D@__crt_stdio_output@@V?$standard_base@DV?$stream_output_adapter@D@__crt_stdio_output@@@2@@__crt_stdio_output@@AEAA_NXZ@@__crt_stdio_output@@YAPEAUansi_string@?1??type_case_Z@?$output_processor@DV?$stream_output_adapter@D@__crt_stdio_output@@V?$standard_base@DV?$stream_output_adapter@D@__crt_stdio_output@@@2@@0@AEAA_NXZ@AEAPEAD@Z 000000018007b3b0 f i libucrtd:output.obj
 0001:0007a430       ??$read_va_arg@PEAUansi_string@?1??type_case_Z@?$output_processor@DV?$string_output_adapter@D@__crt_stdio_output@@V?$format_validation_base@DV?$string_output_adapter@D@__crt_stdio_output@@@2@@__crt_stdio_output@@AEAA_NXZ@@__crt_stdio_output@@YAPEAUansi_string@?1??type_case_Z@?$output_processor@DV?$string_output_adapter@D@__crt_stdio_output@@V?$format_validation_base@DV?$string_output_adapter@D@__crt_stdio_output@@@2@@0@AEAA_NXZ@AEAPEAD@Z 000000018007b430 f i libucrtd:output.obj
 0001:0007a4b0       ??$read_va_arg@PEAUansi_string@?1??type_case_Z@?$output_processor@DV?$string_output_adapter@D@__crt_stdio_output@@V?$positional_parameter_base@DV?$string_output_adapter@D@__crt_stdio_output@@@2@@__crt_stdio_output@@AEAA_NXZ@@__crt_stdio_output@@YAPEAUansi_string@?1??type_case_Z@?$output_processor@DV?$string_output_adapter@D@__crt_stdio_output@@V?$positional_parameter_base@DV?$string_output_adapter@D@__crt_stdio_output@@@2@@0@AEAA_NXZ@AEAPEAD@Z 000000018007b4b0 f i libucrtd:output.obj
 0001:0007a530       ??$read_va_arg@PEAUansi_string@?1??type_case_Z@?$output_processor@DV?$string_output_adapter@D@__crt_stdio_output@@V?$standard_base@DV?$string_output_adapter@D@__crt_stdio_output@@@2@@__crt_stdio_output@@AEAA_NXZ@@__crt_stdio_output@@YAPEAUansi_string@?1??type_case_Z@?$output_processor@DV?$string_output_adapter@D@__crt_stdio_output@@V?$standard_base@DV?$string_output_adapter@D@__crt_stdio_output@@@2@@0@AEAA_NXZ@AEAPEAD@Z 000000018007b530 f i libucrtd:output.obj
 0001:0007a5b0       ??$read_va_arg@PEAUansi_string@?1??type_case_Z@?$output_processor@_WV?$stream_output_adapter@_W@__crt_stdio_output@@V?$format_validation_base@_WV?$stream_output_adapter@_W@__crt_stdio_output@@@2@@__crt_stdio_output@@AEAA_NXZ@@__crt_stdio_output@@YAPEAUansi_string@?1??type_case_Z@?$output_processor@_WV?$stream_output_adapter@_W@__crt_stdio_output@@V?$format_validation_base@_WV?$stream_output_adapter@_W@__crt_stdio_output@@@2@@0@AEAA_NXZ@AEAPEAD@Z 000000018007b5b0 f i libucrtd:output.obj
 0001:0007a630       ??$read_va_arg@PEAUansi_string@?1??type_case_Z@?$output_processor@_WV?$stream_output_adapter@_W@__crt_stdio_output@@V?$positional_parameter_base@_WV?$stream_output_adapter@_W@__crt_stdio_output@@@2@@__crt_stdio_output@@AEAA_NXZ@@__crt_stdio_output@@YAPEAUansi_string@?1??type_case_Z@?$output_processor@_WV?$stream_output_adapter@_W@__crt_stdio_output@@V?$positional_parameter_base@_WV?$stream_output_adapter@_W@__crt_stdio_output@@@2@@0@AEAA_NXZ@AEAPEAD@Z 000000018007b630 f i libucrtd:output.obj
 0001:0007a6b0       ??$read_va_arg@PEAUansi_string@?1??type_case_Z@?$output_processor@_WV?$stream_output_adapter@_W@__crt_stdio_output@@V?$standard_base@_WV?$stream_output_adapter@_W@__crt_stdio_output@@@2@@__crt_stdio_output@@AEAA_NXZ@@__crt_stdio_output@@YAPEAUansi_string@?1??type_case_Z@?$output_processor@_WV?$stream_output_adapter@_W@__crt_stdio_output@@V?$standard_base@_WV?$stream_output_adapter@_W@__crt_stdio_output@@@2@@0@AEAA_NXZ@AEAPEAD@Z 000000018007b6b0 f i libucrtd:output.obj
 0001:0007a730       ??$read_va_arg@PEAUansi_string@?1??type_case_Z@?$output_processor@_WV?$string_output_adapter@_W@__crt_stdio_output@@V?$format_validation_base@_WV?$string_output_adapter@_W@__crt_stdio_output@@@2@@__crt_stdio_output@@AEAA_NXZ@@__crt_stdio_output@@YAPEAUansi_string@?1??type_case_Z@?$output_processor@_WV?$string_output_adapter@_W@__crt_stdio_output@@V?$format_validation_base@_WV?$string_output_adapter@_W@__crt_stdio_output@@@2@@0@AEAA_NXZ@AEAPEAD@Z 000000018007b730 f i libucrtd:output.obj
 0001:0007a7b0       ??$read_va_arg@PEAUansi_string@?1??type_case_Z@?$output_processor@_WV?$string_output_adapter@_W@__crt_stdio_output@@V?$positional_parameter_base@_WV?$string_output_adapter@_W@__crt_stdio_output@@@2@@__crt_stdio_output@@AEAA_NXZ@@__crt_stdio_output@@YAPEAUansi_string@?1??type_case_Z@?$output_processor@_WV?$string_output_adapter@_W@__crt_stdio_output@@V?$positional_parameter_base@_WV?$string_output_adapter@_W@__crt_stdio_output@@@2@@0@AEAA_NXZ@AEAPEAD@Z 000000018007b7b0 f i libucrtd:output.obj
 0001:0007a830       ??$read_va_arg@PEAUansi_string@?1??type_case_Z@?$output_processor@_WV?$string_output_adapter@_W@__crt_stdio_output@@V?$standard_base@_WV?$string_output_adapter@_W@__crt_stdio_output@@@2@@__crt_stdio_output@@AEAA_NXZ@@__crt_stdio_output@@YAPEAUansi_string@?1??type_case_Z@?$output_processor@_WV?$string_output_adapter@_W@__crt_stdio_output@@V?$standard_base@_WV?$string_output_adapter@_W@__crt_stdio_output@@@2@@0@AEAA_NXZ@AEAPEAD@Z 000000018007b830 f i libucrtd:output.obj
 0001:0007a8b0       ??$read_va_arg@PEAX@__crt_stdio_output@@YAPEAXAEAPEAD@Z 000000018007b8b0 f i libucrtd:output.obj
 0001:0007a930       ??$read_va_arg@U_CRT_DOUBLE@@@__crt_stdio_output@@YA?AU_CRT_DOUBLE@@AEAPEAD@Z 000000018007b930 f i libucrtd:output.obj
 0001:0007a9b0       ??$read_va_arg@_J@__crt_stdio_output@@YA_JAEAPEAD@Z 000000018007b9b0 f i libucrtd:output.obj
 0001:0007aa30       ??$read_va_arg@_K@__crt_stdio_output@@YA_KAEAPEAD@Z 000000018007ba30 f i libucrtd:output.obj
 0001:0007aab0       ??$read_va_arg@_W@__crt_stdio_output@@YA_WAEAPEAD@Z 000000018007bab0 f i libucrtd:output.obj
 0001:0007ab30       ??$scratch_count@D@formatting_buffer@__crt_stdio_output@@QEBA_KXZ 000000018007bb30 f i libucrtd:output.obj
 0001:0007ab50       ??$scratch_data@D@formatting_buffer@__crt_stdio_output@@QEAAPEADXZ 000000018007bb50 f i libucrtd:output.obj
 0001:0007abe0       ??$tcstol@AEAPEBDPEAPEADH@?$__crt_char_traits@D@@SAJAEAPEBD$$QEAPEAPEAD$$QEAH@Z 000000018007bbe0 f i libucrtd:output.obj
 0001:0007ac30       ??$tcstol@AEAPEB_WPEAPEA_WH@?$__crt_char_traits@_W@@SAJAEAPEB_W$$QEAPEAPEA_W$$QEAH@Z 000000018007bc30 f i libucrtd:output.obj
 0001:0007ac80       ??$tcstol@PEBDPEAPEADH@?$__crt_char_traits@D@@SAJ$$QEAPEBD$$QEAPEAPEAD$$QEAH@Z 000000018007bc80 f i libucrtd:output.obj
 0001:0007acd0       ??$tcstol@PEB_WPEAPEA_WH@?$__crt_char_traits@_W@@SAJ$$QEAPEB_W$$QEAPEAPEA_W$$QEAH@Z 000000018007bcd0 f i libucrtd:output.obj
 0001:0007ad20       ??$type_case_integer_parse_into_buffer@I@?$output_processor@DV?$stream_output_adapter@D@__crt_stdio_output@@V?$format_validation_base@DV?$stream_output_adapter@D@__crt_stdio_output@@@2@@__crt_stdio_output@@AEAAXII_N@Z 000000018007bd20 f i libucrtd:output.obj
 0001:0007ae90       ??$type_case_integer_parse_into_buffer@I@?$output_processor@DV?$stream_output_adapter@D@__crt_stdio_output@@V?$positional_parameter_base@DV?$stream_output_adapter@D@__crt_stdio_output@@@2@@__crt_stdio_output@@AEAAXII_N@Z 000000018007be90 f i libucrtd:output.obj
 0001:0007b000       ??$type_case_integer_parse_into_buffer@I@?$output_processor@DV?$stream_output_adapter@D@__crt_stdio_output@@V?$standard_base@DV?$stream_output_adapter@D@__crt_stdio_output@@@2@@__crt_stdio_output@@AEAAXII_N@Z 000000018007c000 f i libucrtd:output.obj
 0001:0007b170       ??$type_case_integer_parse_into_buffer@I@?$output_processor@DV?$string_output_adapter@D@__crt_stdio_output@@V?$format_validation_base@DV?$string_output_adapter@D@__crt_stdio_output@@@2@@__crt_stdio_output@@AEAAXII_N@Z 000000018007c170 f i libucrtd:output.obj
 0001:0007b2e0       ??$type_case_integer_parse_into_buffer@I@?$output_processor@DV?$string_output_adapter@D@__crt_stdio_output@@V?$positional_parameter_base@DV?$string_output_adapter@D@__crt_stdio_output@@@2@@__crt_stdio_output@@AEAAXII_N@Z 000000018007c2e0 f i libucrtd:output.obj
 0001:0007b450       ??$type_case_integer_parse_into_buffer@I@?$output_processor@DV?$string_output_adapter@D@__crt_stdio_output@@V?$standard_base@DV?$string_output_adapter@D@__crt_stdio_output@@@2@@__crt_stdio_output@@AEAAXII_N@Z 000000018007c450 f i libucrtd:output.obj
 0001:0007b5c0       ??$type_case_integer_parse_into_buffer@I@?$output_processor@_WV?$stream_output_adapter@_W@__crt_stdio_output@@V?$format_validation_base@_WV?$stream_output_adapter@_W@__crt_stdio_output@@@2@@__crt_stdio_output@@AEAAXII_N@Z 000000018007c5c0 f i libucrtd:output.obj
 0001:0007b730       ??$type_case_integer_parse_into_buffer@I@?$output_processor@_WV?$stream_output_adapter@_W@__crt_stdio_output@@V?$positional_parameter_base@_WV?$stream_output_adapter@_W@__crt_stdio_output@@@2@@__crt_stdio_output@@AEAAXII_N@Z 000000018007c730 f i libucrtd:output.obj
 0001:0007b8a0       ??$type_case_integer_parse_into_buffer@I@?$output_processor@_WV?$stream_output_adapter@_W@__crt_stdio_output@@V?$standard_base@_WV?$stream_output_adapter@_W@__crt_stdio_output@@@2@@__crt_stdio_output@@AEAAXII_N@Z 000000018007c8a0 f i libucrtd:output.obj
 0001:0007ba10       ??$type_case_integer_parse_into_buffer@I@?$output_processor@_WV?$string_output_adapter@_W@__crt_stdio_output@@V?$format_validation_base@_WV?$string_output_adapter@_W@__crt_stdio_output@@@2@@__crt_stdio_output@@AEAAXII_N@Z 000000018007ca10 f i libucrtd:output.obj
 0001:0007bb80       ??$type_case_integer_parse_into_buffer@I@?$output_processor@_WV?$string_output_adapter@_W@__crt_stdio_output@@V?$positional_parameter_base@_WV?$string_output_adapter@_W@__crt_stdio_output@@@2@@__crt_stdio_output@@AEAAXII_N@Z 000000018007cb80 f i libucrtd:output.obj
 0001:0007bcf0       ??$type_case_integer_parse_into_buffer@I@?$output_processor@_WV?$string_output_adapter@_W@__crt_stdio_output@@V?$standard_base@_WV?$string_output_adapter@_W@__crt_stdio_output@@@2@@__crt_stdio_output@@AEAAXII_N@Z 000000018007ccf0 f i libucrtd:output.obj
 0001:0007be60       ??$type_case_integer_parse_into_buffer@_K@?$output_processor@DV?$stream_output_adapter@D@__crt_stdio_output@@V?$format_validation_base@DV?$stream_output_adapter@D@__crt_stdio_output@@@2@@__crt_stdio_output@@AEAAX_KI_N@Z 000000018007ce60 f i libucrtd:output.obj
 0001:0007c000       ??$type_case_integer_parse_into_buffer@_K@?$output_processor@DV?$stream_output_adapter@D@__crt_stdio_output@@V?$positional_parameter_base@DV?$stream_output_adapter@D@__crt_stdio_output@@@2@@__crt_stdio_output@@AEAAX_KI_N@Z 000000018007d000 f i libucrtd:output.obj
 0001:0007c1a0       ??$type_case_integer_parse_into_buffer@_K@?$output_processor@DV?$stream_output_adapter@D@__crt_stdio_output@@V?$standard_base@DV?$stream_output_adapter@D@__crt_stdio_output@@@2@@__crt_stdio_output@@AEAAX_KI_N@Z 000000018007d1a0 f i libucrtd:output.obj
 0001:0007c340       ??$type_case_integer_parse_into_buffer@_K@?$output_processor@DV?$string_output_adapter@D@__crt_stdio_output@@V?$format_validation_base@DV?$string_output_adapter@D@__crt_stdio_output@@@2@@__crt_stdio_output@@AEAAX_KI_N@Z 000000018007d340 f i libucrtd:output.obj
 0001:0007c4e0       ??$type_case_integer_parse_into_buffer@_K@?$output_processor@DV?$string_output_adapter@D@__crt_stdio_output@@V?$positional_parameter_base@DV?$string_output_adapter@D@__crt_stdio_output@@@2@@__crt_stdio_output@@AEAAX_KI_N@Z 000000018007d4e0 f i libucrtd:output.obj
 0001:0007c680       ??$type_case_integer_parse_into_buffer@_K@?$output_processor@DV?$string_output_adapter@D@__crt_stdio_output@@V?$standard_base@DV?$string_output_adapter@D@__crt_stdio_output@@@2@@__crt_stdio_output@@AEAAX_KI_N@Z 000000018007d680 f i libucrtd:output.obj
 0001:0007c820       ??$type_case_integer_parse_into_buffer@_K@?$output_processor@_WV?$stream_output_adapter@_W@__crt_stdio_output@@V?$format_validation_base@_WV?$stream_output_adapter@_W@__crt_stdio_output@@@2@@__crt_stdio_output@@AEAAX_KI_N@Z 000000018007d820 f i libucrtd:output.obj
 0001:0007c9c0       ??$type_case_integer_parse_into_buffer@_K@?$output_processor@_WV?$stream_output_adapter@_W@__crt_stdio_output@@V?$positional_parameter_base@_WV?$stream_output_adapter@_W@__crt_stdio_output@@@2@@__crt_stdio_output@@AEAAX_KI_N@Z 000000018007d9c0 f i libucrtd:output.obj
 0001:0007cb60       ??$type_case_integer_parse_into_buffer@_K@?$output_processor@_WV?$stream_output_adapter@_W@__crt_stdio_output@@V?$standard_base@_WV?$stream_output_adapter@_W@__crt_stdio_output@@@2@@__crt_stdio_output@@AEAAX_KI_N@Z 000000018007db60 f i libucrtd:output.obj
 0001:0007cd00       ??$type_case_integer_parse_into_buffer@_K@?$output_processor@_WV?$string_output_adapter@_W@__crt_stdio_output@@V?$format_validation_base@_WV?$string_output_adapter@_W@__crt_stdio_output@@@2@@__crt_stdio_output@@AEAAX_KI_N@Z 000000018007dd00 f i libucrtd:output.obj
 0001:0007cea0       ??$type_case_integer_parse_into_buffer@_K@?$output_processor@_WV?$string_output_adapter@_W@__crt_stdio_output@@V?$positional_parameter_base@_WV?$string_output_adapter@_W@__crt_stdio_output@@@2@@__crt_stdio_output@@AEAAX_KI_N@Z 000000018007dea0 f i libucrtd:output.obj
 0001:0007d040       ??$type_case_integer_parse_into_buffer@_K@?$output_processor@_WV?$string_output_adapter@_W@__crt_stdio_output@@V?$standard_base@_WV?$string_output_adapter@_W@__crt_stdio_output@@@2@@__crt_stdio_output@@AEAAX_KI_N@Z 000000018007e040 f i libucrtd:output.obj
 0001:0007d1e0       ??$write_multiple_characters@V?$stream_output_adapter@D@__crt_stdio_output@@D@__crt_stdio_output@@YAXAEBV?$stream_output_adapter@D@0@DHQEAH@Z 000000018007e1e0 f i libucrtd:output.obj
 0001:0007d260       ??$write_multiple_characters@V?$stream_output_adapter@_W@__crt_stdio_output@@D@__crt_stdio_output@@YAXAEBV?$stream_output_adapter@_W@0@DHQEAH@Z 000000018007e260 f i libucrtd:output.obj
 0001:0007d2e0       ??$write_multiple_characters@V?$string_output_adapter@D@__crt_stdio_output@@D@__crt_stdio_output@@YAXAEBV?$string_output_adapter@D@0@DHQEAH@Z 000000018007e2e0 f i libucrtd:output.obj
 0001:0007d360       ??$write_multiple_characters@V?$string_output_adapter@_W@__crt_stdio_output@@D@__crt_stdio_output@@YAXAEBV?$string_output_adapter@_W@0@DHQEAH@Z 000000018007e360 f i libucrtd:output.obj
 0001:0007d920       ??0?$common_data@D@__crt_stdio_output@@IEAA@XZ 000000018007e920 f i libucrtd:output.obj
 0001:0007da20       ??0?$common_data@_W@__crt_stdio_output@@IEAA@XZ 000000018007ea20 f i libucrtd:output.obj
 0001:0007db20       ??0?$output_adapter_data@DV?$stream_output_adapter@D@__crt_stdio_output@@@__crt_stdio_output@@IEAA@AEBV?$stream_output_adapter@D@1@_KQEBDQEAU__crt_locale_pointers@@QEAD@Z 000000018007eb20 f i libucrtd:output.obj
 0001:0007dbc0       ??0?$output_adapter_data@DV?$string_output_adapter@D@__crt_stdio_output@@@__crt_stdio_output@@IEAA@AEBV?$string_output_adapter@D@1@_KQEBDQEAU__crt_locale_pointers@@QEAD@Z 000000018007ebc0 f i libucrtd:output.obj
 0001:0007dc60       ??0?$output_adapter_data@_WV?$stream_output_adapter@_W@__crt_stdio_output@@@__crt_stdio_output@@IEAA@AEBV?$stream_output_adapter@_W@1@_KQEB_WQEAU__crt_locale_pointers@@QEAD@Z 000000018007ec60 f i libucrtd:output.obj
 0001:0007dd00       ??0?$output_adapter_data@_WV?$string_output_adapter@_W@__crt_stdio_output@@@__crt_stdio_output@@IEAA@AEBV?$string_output_adapter@_W@1@_KQEB_WQEAU__crt_locale_pointers@@QEAD@Z 000000018007ed00 f i libucrtd:output.obj
 0001:0007dda0       ??0?$output_processor@DV?$stream_output_adapter@D@__crt_stdio_output@@V?$format_validation_base@DV?$stream_output_adapter@D@__crt_stdio_output@@@2@@__crt_stdio_output@@QEAA@AEBV?$stream_output_adapter@D@1@_KQEBDQEAU__crt_locale_pointers@@QEAD@Z 000000018007eda0 f i libucrtd:output.obj
 0001:0007de20       ??0?$output_processor@DV?$stream_output_adapter@D@__crt_stdio_output@@V?$positional_parameter_base@DV?$stream_output_adapter@D@__crt_stdio_output@@@2@@__crt_stdio_output@@QEAA@AEBV?$stream_output_adapter@D@1@_KQEBDQEAU__crt_locale_pointers@@QEAD@Z 000000018007ee20 f i libucrtd:output.obj
 0001:0007dea0       ??0?$output_processor@DV?$stream_output_adapter@D@__crt_stdio_output@@V?$standard_base@DV?$stream_output_adapter@D@__crt_stdio_output@@@2@@__crt_stdio_output@@QEAA@AEBV?$stream_output_adapter@D@1@_KQEBDQEAU__crt_locale_pointers@@QEAD@Z 000000018007eea0 f i libucrtd:output.obj
 0001:0007df20       ??0?$output_processor@DV?$string_output_adapter@D@__crt_stdio_output@@V?$format_validation_base@DV?$string_output_adapter@D@__crt_stdio_output@@@2@@__crt_stdio_output@@QEAA@AEBV?$string_output_adapter@D@1@_KQEBDQEAU__crt_locale_pointers@@QEAD@Z 000000018007ef20 f i libucrtd:output.obj
 0001:0007dfa0       ??0?$output_processor@DV?$string_output_adapter@D@__crt_stdio_output@@V?$positional_parameter_base@DV?$string_output_adapter@D@__crt_stdio_output@@@2@@__crt_stdio_output@@QEAA@AEBV?$string_output_adapter@D@1@_KQEBDQEAU__crt_locale_pointers@@QEAD@Z 000000018007efa0 f i libucrtd:output.obj
 0001:0007e020       ??0?$output_processor@DV?$string_output_adapter@D@__crt_stdio_output@@V?$standard_base@DV?$string_output_adapter@D@__crt_stdio_output@@@2@@__crt_stdio_output@@QEAA@AEBV?$string_output_adapter@D@1@_KQEBDQEAU__crt_locale_pointers@@QEAD@Z 000000018007f020 f i libucrtd:output.obj
 0001:0007e0a0       ??0?$output_processor@_WV?$stream_output_adapter@_W@__crt_stdio_output@@V?$format_validation_base@_WV?$stream_output_adapter@_W@__crt_stdio_output@@@2@@__crt_stdio_output@@QEAA@AEBV?$stream_output_adapter@_W@1@_KQEB_WQEAU__crt_locale_pointers@@QEAD@Z 000000018007f0a0 f i libucrtd:output.obj
 0001:0007e120       ??0?$output_processor@_WV?$stream_output_adapter@_W@__crt_stdio_output@@V?$positional_parameter_base@_WV?$stream_output_adapter@_W@__crt_stdio_output@@@2@@__crt_stdio_output@@QEAA@AEBV?$stream_output_adapter@_W@1@_KQEB_WQEAU__crt_locale_pointers@@QEAD@Z 000000018007f120 f i libucrtd:output.obj
 0001:0007e1a0       ??0?$output_processor@_WV?$stream_output_adapter@_W@__crt_stdio_output@@V?$standard_base@_WV?$stream_output_adapter@_W@__crt_stdio_output@@@2@@__crt_stdio_output@@QEAA@AEBV?$stream_output_adapter@_W@1@_KQEB_WQEAU__crt_locale_pointers@@QEAD@Z 000000018007f1a0 f i libucrtd:output.obj
 0001:0007e220       ??0?$output_processor@_WV?$string_output_adapter@_W@__crt_stdio_output@@V?$format_validation_base@_WV?$string_output_adapter@_W@__crt_stdio_output@@@2@@__crt_stdio_output@@QEAA@AEBV?$string_output_adapter@_W@1@_KQEB_WQEAU__crt_locale_pointers@@QEAD@Z 000000018007f220 f i libucrtd:output.obj
 0001:0007e2a0       ??0?$output_processor@_WV?$string_output_adapter@_W@__crt_stdio_output@@V?$positional_parameter_base@_WV?$string_output_adapter@_W@__crt_stdio_output@@@2@@__crt_stdio_output@@QEAA@AEBV?$string_output_adapter@_W@1@_KQEB_WQEAU__crt_locale_pointers@@QEAD@Z 000000018007f2a0 f i libucrtd:output.obj
 0001:0007e320       ??0?$output_processor@_WV?$string_output_adapter@_W@__crt_stdio_output@@V?$standard_base@_WV?$string_output_adapter@_W@__crt_stdio_output@@@2@@__crt_stdio_output@@QEAA@AEBV?$string_output_adapter@_W@1@_KQEB_WQEAU__crt_locale_pointers@@QEAD@Z 000000018007f320 f i libucrtd:output.obj
 0001:0007e3a0       ??0?$stream_output_adapter@D@__crt_stdio_output@@QEAA@QEAU_iobuf@@@Z 000000018007f3a0 f i libucrtd:output.obj
 0001:0007e3e0       ??0?$stream_output_adapter@_W@__crt_stdio_output@@QEAA@QEAU_iobuf@@@Z 000000018007f3e0 f i libucrtd:output.obj
 0001:0007e420       ??0?$string_output_adapter@D@__crt_stdio_output@@QEAA@QEAU?$string_output_adapter_context@D@1@@Z 000000018007f420 f i libucrtd:output.obj
 0001:0007e450       ??0?$string_output_adapter@_W@__crt_stdio_output@@QEAA@QEAU?$string_output_adapter_context@_W@1@@Z 000000018007f450 f i libucrtd:output.obj
 0001:0007e480       ??0_LocaleUpdate@@QEAA@QEAU__crt_locale_pointers@@@Z 000000018007f480 f i libucrtd:output.obj
 0001:0007e5f0       ??0__acrt_stdio_temporary_buffering_guard@@QEAA@QEAU_iobuf@@@Z 000000018007f5f0 f i libucrtd:output.obj
 0001:0007e640       ??0__crt_errno_guard@@QEAA@QEAH@Z 000000018007f640 f i libucrtd:output.obj
 0001:0007e690       ??0formatting_buffer@__crt_stdio_output@@QEAA@XZ 000000018007f690 f i libucrtd:output.obj
 0001:0007e6e0       ??1?$common_data@D@__crt_stdio_output@@QEAA@XZ 000000018007f6e0 f i libucrtd:output.obj
 0001:0007e710       ??1?$common_data@_W@__crt_stdio_output@@QEAA@XZ 000000018007f710 f i libucrtd:output.obj
 0001:0007e740       ??1?$format_validation_base@DV?$stream_output_adapter@D@__crt_stdio_output@@@__crt_stdio_output@@QEAA@XZ 000000018007f740 f i libucrtd:output.obj
 0001:0007e760       ??1?$format_validation_base@DV?$string_output_adapter@D@__crt_stdio_output@@@__crt_stdio_output@@QEAA@XZ 000000018007f760 f i libucrtd:output.obj
 0001:0007e780       ??1?$format_validation_base@_WV?$stream_output_adapter@_W@__crt_stdio_output@@@__crt_stdio_output@@QEAA@XZ 000000018007f780 f i libucrtd:output.obj
 0001:0007e7a0       ??1?$format_validation_base@_WV?$string_output_adapter@_W@__crt_stdio_output@@@__crt_stdio_output@@QEAA@XZ 000000018007f7a0 f i libucrtd:output.obj
 0001:0007e7c0       ??1?$output_adapter_data@DV?$stream_output_adapter@D@__crt_stdio_output@@@__crt_stdio_output@@QEAA@XZ 000000018007f7c0 f i libucrtd:output.obj
 0001:0007e7e0       ??1?$output_adapter_data@DV?$string_output_adapter@D@__crt_stdio_output@@@__crt_stdio_output@@QEAA@XZ 000000018007f7e0 f i libucrtd:output.obj
 0001:0007e800       ??1?$output_adapter_data@_WV?$stream_output_adapter@_W@__crt_stdio_output@@@__crt_stdio_output@@QEAA@XZ 000000018007f800 f i libucrtd:output.obj
 0001:0007e820       ??1?$output_adapter_data@_WV?$string_output_adapter@_W@__crt_stdio_output@@@__crt_stdio_output@@QEAA@XZ 000000018007f820 f i libucrtd:output.obj
 0001:0007e840       ??1?$output_processor@DV?$stream_output_adapter@D@__crt_stdio_output@@V?$format_validation_base@DV?$stream_output_adapter@D@__crt_stdio_output@@@2@@__crt_stdio_output@@QEAA@XZ 000000018007f840 f i libucrtd:output.obj
 0001:0007e860       ??1?$output_processor@DV?$stream_output_adapter@D@__crt_stdio_output@@V?$positional_parameter_base@DV?$stream_output_adapter@D@__crt_stdio_output@@@2@@__crt_stdio_output@@QEAA@XZ 000000018007f860 f i libucrtd:output.obj
 0001:0007e880       ??1?$output_processor@DV?$stream_output_adapter@D@__crt_stdio_output@@V?$standard_base@DV?$stream_output_adapter@D@__crt_stdio_output@@@2@@__crt_stdio_output@@QEAA@XZ 000000018007f880 f i libucrtd:output.obj
 0001:0007e8a0       ??1?$output_processor@DV?$string_output_adapter@D@__crt_stdio_output@@V?$format_validation_base@DV?$string_output_adapter@D@__crt_stdio_output@@@2@@__crt_stdio_output@@QEAA@XZ 000000018007f8a0 f i libucrtd:output.obj
 0001:0007e8c0       ??1?$output_processor@DV?$string_output_adapter@D@__crt_stdio_output@@V?$positional_parameter_base@DV?$string_output_adapter@D@__crt_stdio_output@@@2@@__crt_stdio_output@@QEAA@XZ 000000018007f8c0 f i libucrtd:output.obj
 0001:0007e8e0       ??1?$output_processor@DV?$string_output_adapter@D@__crt_stdio_output@@V?$standard_base@DV?$string_output_adapter@D@__crt_stdio_output@@@2@@__crt_stdio_output@@QEAA@XZ 000000018007f8e0 f i libucrtd:output.obj
 0001:0007e900       ??1?$output_processor@_WV?$stream_output_adapter@_W@__crt_stdio_output@@V?$format_validation_base@_WV?$stream_output_adapter@_W@__crt_stdio_output@@@2@@__crt_stdio_output@@QEAA@XZ 000000018007f900 f i libucrtd:output.obj
 0001:0007e920       ??1?$output_processor@_WV?$stream_output_adapter@_W@__crt_stdio_output@@V?$positional_parameter_base@_WV?$stream_output_adapter@_W@__crt_stdio_output@@@2@@__crt_stdio_output@@QEAA@XZ 000000018007f920 f i libucrtd:output.obj
 0001:0007e940       ??1?$output_processor@_WV?$stream_output_adapter@_W@__crt_stdio_output@@V?$standard_base@_WV?$stream_output_adapter@_W@__crt_stdio_output@@@2@@__crt_stdio_output@@QEAA@XZ 000000018007f940 f i libucrtd:output.obj
 0001:0007e960       ??1?$output_processor@_WV?$string_output_adapter@_W@__crt_stdio_output@@V?$format_validation_base@_WV?$string_output_adapter@_W@__crt_stdio_output@@@2@@__crt_stdio_output@@QEAA@XZ 000000018007f960 f i libucrtd:output.obj
 0001:0007e980       ??1?$output_processor@_WV?$string_output_adapter@_W@__crt_stdio_output@@V?$positional_parameter_base@_WV?$string_output_adapter@_W@__crt_stdio_output@@@2@@__crt_stdio_output@@QEAA@XZ 000000018007f980 f i libucrtd:output.obj
 0001:0007e9a0       ??1?$output_processor@_WV?$string_output_adapter@_W@__crt_stdio_output@@V?$standard_base@_WV?$string_output_adapter@_W@__crt_stdio_output@@@2@@__crt_stdio_output@@QEAA@XZ 000000018007f9a0 f i libucrtd:output.obj
 0001:0007e9c0       ??1?$positional_parameter_base@DV?$stream_output_adapter@D@__crt_stdio_output@@@__crt_stdio_output@@QEAA@XZ 000000018007f9c0 f i libucrtd:output.obj
 0001:0007e9e0       ??1?$positional_parameter_base@DV?$string_output_adapter@D@__crt_stdio_output@@@__crt_stdio_output@@QEAA@XZ 000000018007f9e0 f i libucrtd:output.obj
 0001:0007ea00       ??1?$positional_parameter_base@_WV?$stream_output_adapter@_W@__crt_stdio_output@@@__crt_stdio_output@@QEAA@XZ 000000018007fa00 f i libucrtd:output.obj
 0001:0007ea20       ??1?$positional_parameter_base@_WV?$string_output_adapter@_W@__crt_stdio_output@@@__crt_stdio_output@@QEAA@XZ 000000018007fa20 f i libucrtd:output.obj
 0001:0007ea40       ??1?$standard_base@DV?$stream_output_adapter@D@__crt_stdio_output@@@__crt_stdio_output@@QEAA@XZ 000000018007fa40 f i libucrtd:output.obj
 0001:0007ea60       ??1?$standard_base@DV?$string_output_adapter@D@__crt_stdio_output@@@__crt_stdio_output@@QEAA@XZ 000000018007fa60 f i libucrtd:output.obj
 0001:0007ea80       ??1?$standard_base@_WV?$stream_output_adapter@_W@__crt_stdio_output@@@__crt_stdio_output@@QEAA@XZ 000000018007fa80 f i libucrtd:output.obj
 0001:0007eaa0       ??1?$standard_base@_WV?$string_output_adapter@_W@__crt_stdio_output@@@__crt_stdio_output@@QEAA@XZ 000000018007faa0 f i libucrtd:output.obj
 0001:0007eac0       ??1_LocaleUpdate@@QEAA@XZ  000000018007fac0 f i libucrtd:output.obj
 0001:0007eb00       ??1__acrt_stdio_temporary_buffering_guard@@QEAA@XZ 000000018007fb00 f i libucrtd:output.obj
 0001:0007eb30       ??1__crt_errno_guard@@QEAA@XZ 000000018007fb30 f i libucrtd:output.obj
 0001:0007eb70       ??1formatting_buffer@__crt_stdio_output@@QEAA@XZ 000000018007fb70 f i libucrtd:output.obj
 0001:0007eba0       ??4?$__crt_unique_heap_ptr@DU__crt_internal_free_policy@@@@QEAAAEAV0@$$QEAV0@@Z 000000018007fba0 f i libucrtd:output.obj
 0001:0007f730       ?GetLocaleT@_LocaleUpdate@@QEAAPEAU__crt_locale_pointers@@XZ 0000000180080730 f i libucrtd:output.obj
 0001:0007f750       ?__crt_interlocked_read_32@@YAHPEDH@Z 0000000180080750 f i libucrtd:output.obj
 0001:0007f780       ?adjust_hexit@?$output_processor@DV?$stream_output_adapter@D@__crt_stdio_output@@V?$format_validation_base@DV?$stream_output_adapter@D@__crt_stdio_output@@@2@@__crt_stdio_output@@CADH_N@Z 0000000180080780 f i libucrtd:output.obj
 0001:0007f7e0       ?adjust_hexit@?$output_processor@DV?$stream_output_adapter@D@__crt_stdio_output@@V?$positional_parameter_base@DV?$stream_output_adapter@D@__crt_stdio_output@@@2@@__crt_stdio_output@@CADH_N@Z 00000001800807e0 f i libucrtd:output.obj
 0001:0007f840       ?adjust_hexit@?$output_processor@DV?$stream_output_adapter@D@__crt_stdio_output@@V?$standard_base@DV?$stream_output_adapter@D@__crt_stdio_output@@@2@@__crt_stdio_output@@CADH_N@Z 0000000180080840 f i libucrtd:output.obj
 0001:0007f8a0       ?adjust_hexit@?$output_processor@DV?$string_output_adapter@D@__crt_stdio_output@@V?$format_validation_base@DV?$string_output_adapter@D@__crt_stdio_output@@@2@@__crt_stdio_output@@CADH_N@Z 00000001800808a0 f i libucrtd:output.obj
 0001:0007f900       ?adjust_hexit@?$output_processor@DV?$string_output_adapter@D@__crt_stdio_output@@V?$positional_parameter_base@DV?$string_output_adapter@D@__crt_stdio_output@@@2@@__crt_stdio_output@@CADH_N@Z 0000000180080900 f i libucrtd:output.obj
 0001:0007f960       ?adjust_hexit@?$output_processor@DV?$string_output_adapter@D@__crt_stdio_output@@V?$standard_base@DV?$string_output_adapter@D@__crt_stdio_output@@@2@@__crt_stdio_output@@CADH_N@Z 0000000180080960 f i libucrtd:output.obj
 0001:0007f9c0       ?adjust_hexit@?$output_processor@_WV?$stream_output_adapter@_W@__crt_stdio_output@@V?$format_validation_base@_WV?$stream_output_adapter@_W@__crt_stdio_output@@@2@@__crt_stdio_output@@CADH_N@Z 00000001800809c0 f i libucrtd:output.obj
 0001:0007fa20       ?adjust_hexit@?$output_processor@_WV?$stream_output_adapter@_W@__crt_stdio_output@@V?$positional_parameter_base@_WV?$stream_output_adapter@_W@__crt_stdio_output@@@2@@__crt_stdio_output@@CADH_N@Z 0000000180080a20 f i libucrtd:output.obj
 0001:0007fa80       ?adjust_hexit@?$output_processor@_WV?$stream_output_adapter@_W@__crt_stdio_output@@V?$standard_base@_WV?$stream_output_adapter@_W@__crt_stdio_output@@@2@@__crt_stdio_output@@CADH_N@Z 0000000180080a80 f i libucrtd:output.obj
 0001:0007fae0       ?adjust_hexit@?$output_processor@_WV?$string_output_adapter@_W@__crt_stdio_output@@V?$format_validation_base@_WV?$string_output_adapter@_W@__crt_stdio_output@@@2@@__crt_stdio_output@@CADH_N@Z 0000000180080ae0 f i libucrtd:output.obj
 0001:0007fb40       ?adjust_hexit@?$output_processor@_WV?$string_output_adapter@_W@__crt_stdio_output@@V?$positional_parameter_base@_WV?$string_output_adapter@_W@__crt_stdio_output@@@2@@__crt_stdio_output@@CADH_N@Z 0000000180080b40 f i libucrtd:output.obj
 0001:0007fba0       ?adjust_hexit@?$output_processor@_WV?$string_output_adapter@_W@__crt_stdio_output@@V?$standard_base@_WV?$string_output_adapter@_W@__crt_stdio_output@@@2@@__crt_stdio_output@@CADH_N@Z 0000000180080ba0 f i libucrtd:output.obj
 0001:0007fc00       ?advance_to_next_pass@?$positional_parameter_base@DV?$stream_output_adapter@D@__crt_stdio_output@@@__crt_stdio_output@@IEAA_NXZ 0000000180080c00 f i libucrtd:output.obj
 0001:0007fce0       ?advance_to_next_pass@?$positional_parameter_base@DV?$string_output_adapter@D@__crt_stdio_output@@@__crt_stdio_output@@IEAA_NXZ 0000000180080ce0 f i libucrtd:output.obj
 0001:0007fdc0       ?advance_to_next_pass@?$positional_parameter_base@_WV?$stream_output_adapter@_W@__crt_stdio_output@@@__crt_stdio_output@@IEAA_NXZ 0000000180080dc0 f i libucrtd:output.obj
 0001:0007fea0       ?advance_to_next_pass@?$positional_parameter_base@_WV?$string_output_adapter@_W@__crt_stdio_output@@@__crt_stdio_output@@IEAA_NXZ 0000000180080ea0 f i libucrtd:output.obj
 0001:0007ff80       ?advance_to_next_pass@?$standard_base@DV?$stream_output_adapter@D@__crt_stdio_output@@@__crt_stdio_output@@IEAA_NXZ 0000000180080f80 f i libucrtd:output.obj
 0001:0007ffe0       ?advance_to_next_pass@?$standard_base@DV?$string_output_adapter@D@__crt_stdio_output@@@__crt_stdio_output@@IEAA_NXZ 0000000180080fe0 f i libucrtd:output.obj
 0001:00080040       ?advance_to_next_pass@?$standard_base@_WV?$stream_output_adapter@_W@__crt_stdio_output@@@__crt_stdio_output@@IEAA_NXZ 0000000180081040 f i libucrtd:output.obj
 0001:000800a0       ?advance_to_next_pass@?$standard_base@_WV?$string_output_adapter@_W@__crt_stdio_output@@@__crt_stdio_output@@IEAA_NXZ 00000001800810a0 f i libucrtd:output.obj
 0001:00080100       ?crop_zeroes@__crt_stdio_output@@YAXPEADQEAU__crt_locale_pointers@@@Z 0000000180081100 f i libucrtd:output.obj
 0001:00080290       ?find_next_state@?$output_processor@DV?$stream_output_adapter@D@__crt_stdio_output@@V?$format_validation_base@DV?$stream_output_adapter@D@__crt_stdio_output@@@2@@__crt_stdio_output@@AEBA?AW4state@2@DW432@@Z 0000000180081290 f i libucrtd:output.obj
 0001:00080350       ?find_next_state@?$output_processor@DV?$stream_output_adapter@D@__crt_stdio_output@@V?$positional_parameter_base@DV?$stream_output_adapter@D@__crt_stdio_output@@@2@@__crt_stdio_output@@AEBA?AW4state@2@DW432@@Z 0000000180081350 f i libucrtd:output.obj
 0001:00080410       ?find_next_state@?$output_processor@DV?$stream_output_adapter@D@__crt_stdio_output@@V?$standard_base@DV?$stream_output_adapter@D@__crt_stdio_output@@@2@@__crt_stdio_output@@AEBA?AW4state@2@DW432@@Z 0000000180081410 f i libucrtd:output.obj
 0001:000804d0       ?find_next_state@?$output_processor@DV?$string_output_adapter@D@__crt_stdio_output@@V?$format_validation_base@DV?$string_output_adapter@D@__crt_stdio_output@@@2@@__crt_stdio_output@@AEBA?AW4state@2@DW432@@Z 00000001800814d0 f i libucrtd:output.obj
 0001:00080590       ?find_next_state@?$output_processor@DV?$string_output_adapter@D@__crt_stdio_output@@V?$positional_parameter_base@DV?$string_output_adapter@D@__crt_stdio_output@@@2@@__crt_stdio_output@@AEBA?AW4state@2@DW432@@Z 0000000180081590 f i libucrtd:output.obj
 0001:00080650       ?find_next_state@?$output_processor@DV?$string_output_adapter@D@__crt_stdio_output@@V?$standard_base@DV?$string_output_adapter@D@__crt_stdio_output@@@2@@__crt_stdio_output@@AEBA?AW4state@2@DW432@@Z 0000000180081650 f i libucrtd:output.obj
 0001:00080710       ?find_next_state@?$output_processor@_WV?$stream_output_adapter@_W@__crt_stdio_output@@V?$format_validation_base@_WV?$stream_output_adapter@_W@__crt_stdio_output@@@2@@__crt_stdio_output@@AEBA?AW4state@2@_WW432@@Z 0000000180081710 f i libucrtd:output.obj
 0001:000807d0       ?find_next_state@?$output_processor@_WV?$stream_output_adapter@_W@__crt_stdio_output@@V?$positional_parameter_base@_WV?$stream_output_adapter@_W@__crt_stdio_output@@@2@@__crt_stdio_output@@AEBA?AW4state@2@_WW432@@Z 00000001800817d0 f i libucrtd:output.obj
 0001:00080890       ?find_next_state@?$output_processor@_WV?$stream_output_adapter@_W@__crt_stdio_output@@V?$standard_base@_WV?$stream_output_adapter@_W@__crt_stdio_output@@@2@@__crt_stdio_output@@AEBA?AW4state@2@_WW432@@Z 0000000180081890 f i libucrtd:output.obj
 0001:00080950       ?find_next_state@?$output_processor@_WV?$string_output_adapter@_W@__crt_stdio_output@@V?$format_validation_base@_WV?$string_output_adapter@_W@__crt_stdio_output@@@2@@__crt_stdio_output@@AEBA?AW4state@2@_WW432@@Z 0000000180081950 f i libucrtd:output.obj
 0001:00080a10       ?find_next_state@?$output_processor@_WV?$string_output_adapter@_W@__crt_stdio_output@@V?$positional_parameter_base@_WV?$string_output_adapter@_W@__crt_stdio_output@@@2@@__crt_stdio_output@@AEBA?AW4state@2@_WW432@@Z 0000000180081a10 f i libucrtd:output.obj
 0001:00080ad0       ?find_next_state@?$output_processor@_WV?$string_output_adapter@_W@__crt_stdio_output@@V?$standard_base@_WV?$string_output_adapter@_W@__crt_stdio_output@@@2@@__crt_stdio_output@@AEBA?AW4state@2@_WW432@@Z 0000000180081ad0 f i libucrtd:output.obj
 0001:00080b90       ?force_decimal_point@__crt_stdio_output@@YAXPEADQEAU__crt_locale_pointers@@@Z 0000000180081b90 f i libucrtd:output.obj
 0001:00080cb0       ?get_flags@__crt_stdio_stream@@QEBAJXZ 0000000180081cb0 f i libucrtd:output.obj
 0001:00080ce0       ?get_parameter_type@?$positional_parameter_base@DV?$stream_output_adapter@D@__crt_stdio_output@@@__crt_stdio_output@@CA?AW4parameter_type@12@F@Z 0000000180081ce0 f i libucrtd:output.obj
 0001:00080cf0       ?get_parameter_type@?$positional_parameter_base@DV?$stream_output_adapter@D@__crt_stdio_output@@@__crt_stdio_output@@CA?AW4parameter_type@12@G@Z 0000000180081cf0 f i libucrtd:output.obj
 0001:00080d00       ?get_parameter_type@?$positional_parameter_base@DV?$stream_output_adapter@D@__crt_stdio_output@@@__crt_stdio_output@@CA?AW4parameter_type@12@H@Z 0000000180081d00 f i libucrtd:output.obj
 0001:00080d10       ?get_parameter_type@?$positional_parameter_base@DV?$stream_output_adapter@D@__crt_stdio_output@@@__crt_stdio_output@@CA?AW4parameter_type@12@I@Z 0000000180081d10 f i libucrtd:output.obj
 0001:00080d20       ?get_parameter_type@?$positional_parameter_base@DV?$stream_output_adapter@D@__crt_stdio_output@@@__crt_stdio_output@@CA?AW4parameter_type@12@U_CRT_DOUBLE@@@Z 0000000180081d20 f i libucrtd:output.obj
 0001:00080d30       ?get_parameter_type@?$positional_parameter_base@DV?$stream_output_adapter@D@__crt_stdio_output@@@__crt_stdio_output@@CA?AW4parameter_type@12@_J@Z 0000000180081d30 f i libucrtd:output.obj
 0001:00080d40       ?get_parameter_type@?$positional_parameter_base@DV?$stream_output_adapter@D@__crt_stdio_output@@@__crt_stdio_output@@CA?AW4parameter_type@12@_K@Z 0000000180081d40 f i libucrtd:output.obj
 0001:00080d50       ?get_parameter_type@?$positional_parameter_base@DV?$stream_output_adapter@D@__crt_stdio_output@@@__crt_stdio_output@@CA?AW4parameter_type@12@_W@Z 0000000180081d50 f i libucrtd:output.obj
 0001:00080d60       ?get_parameter_type@?$positional_parameter_base@DV?$string_output_adapter@D@__crt_stdio_output@@@__crt_stdio_output@@CA?AW4parameter_type@12@F@Z 0000000180081d60 f i libucrtd:output.obj
 0001:00080d70       ?get_parameter_type@?$positional_parameter_base@DV?$string_output_adapter@D@__crt_stdio_output@@@__crt_stdio_output@@CA?AW4parameter_type@12@G@Z 0000000180081d70 f i libucrtd:output.obj
 0001:00080d80       ?get_parameter_type@?$positional_parameter_base@DV?$string_output_adapter@D@__crt_stdio_output@@@__crt_stdio_output@@CA?AW4parameter_type@12@H@Z 0000000180081d80 f i libucrtd:output.obj
 0001:00080d90       ?get_parameter_type@?$positional_parameter_base@DV?$string_output_adapter@D@__crt_stdio_output@@@__crt_stdio_output@@CA?AW4parameter_type@12@I@Z 0000000180081d90 f i libucrtd:output.obj
 0001:00080da0       ?get_parameter_type@?$positional_parameter_base@DV?$string_output_adapter@D@__crt_stdio_output@@@__crt_stdio_output@@CA?AW4parameter_type@12@U_CRT_DOUBLE@@@Z 0000000180081da0 f i libucrtd:output.obj
 0001:00080db0       ?get_parameter_type@?$positional_parameter_base@DV?$string_output_adapter@D@__crt_stdio_output@@@__crt_stdio_output@@CA?AW4parameter_type@12@_J@Z 0000000180081db0 f i libucrtd:output.obj
 0001:00080dc0       ?get_parameter_type@?$positional_parameter_base@DV?$string_output_adapter@D@__crt_stdio_output@@@__crt_stdio_output@@CA?AW4parameter_type@12@_K@Z 0000000180081dc0 f i libucrtd:output.obj
 0001:00080dd0       ?get_parameter_type@?$positional_parameter_base@DV?$string_output_adapter@D@__crt_stdio_output@@@__crt_stdio_output@@CA?AW4parameter_type@12@_W@Z 0000000180081dd0 f i libucrtd:output.obj
 0001:00080de0       ?get_parameter_type@?$positional_parameter_base@_WV?$stream_output_adapter@_W@__crt_stdio_output@@@__crt_stdio_output@@CA?AW4parameter_type@12@F@Z 0000000180081de0 f i libucrtd:output.obj
 0001:00080df0       ?get_parameter_type@?$positional_parameter_base@_WV?$stream_output_adapter@_W@__crt_stdio_output@@@__crt_stdio_output@@CA?AW4parameter_type@12@G@Z 0000000180081df0 f i libucrtd:output.obj
 0001:00080e00       ?get_parameter_type@?$positional_parameter_base@_WV?$stream_output_adapter@_W@__crt_stdio_output@@@__crt_stdio_output@@CA?AW4parameter_type@12@H@Z 0000000180081e00 f i libucrtd:output.obj
 0001:00080e10       ?get_parameter_type@?$positional_parameter_base@_WV?$stream_output_adapter@_W@__crt_stdio_output@@@__crt_stdio_output@@CA?AW4parameter_type@12@I@Z 0000000180081e10 f i libucrtd:output.obj
 0001:00080e20       ?get_parameter_type@?$positional_parameter_base@_WV?$stream_output_adapter@_W@__crt_stdio_output@@@__crt_stdio_output@@CA?AW4parameter_type@12@U_CRT_DOUBLE@@@Z 0000000180081e20 f i libucrtd:output.obj
 0001:00080e30       ?get_parameter_type@?$positional_parameter_base@_WV?$stream_output_adapter@_W@__crt_stdio_output@@@__crt_stdio_output@@CA?AW4parameter_type@12@_J@Z 0000000180081e30 f i libucrtd:output.obj
 0001:00080e40       ?get_parameter_type@?$positional_parameter_base@_WV?$stream_output_adapter@_W@__crt_stdio_output@@@__crt_stdio_output@@CA?AW4parameter_type@12@_K@Z 0000000180081e40 f i libucrtd:output.obj
 0001:00080e50       ?get_parameter_type@?$positional_parameter_base@_WV?$stream_output_adapter@_W@__crt_stdio_output@@@__crt_stdio_output@@CA?AW4parameter_type@12@_W@Z 0000000180081e50 f i libucrtd:output.obj
 0001:00080e60       ?get_parameter_type@?$positional_parameter_base@_WV?$string_output_adapter@_W@__crt_stdio_output@@@__crt_stdio_output@@CA?AW4parameter_type@12@F@Z 0000000180081e60 f i libucrtd:output.obj
 0001:00080e70       ?get_parameter_type@?$positional_parameter_base@_WV?$string_output_adapter@_W@__crt_stdio_output@@@__crt_stdio_output@@CA?AW4parameter_type@12@G@Z 0000000180081e70 f i libucrtd:output.obj
 0001:00080e80       ?get_parameter_type@?$positional_parameter_base@_WV?$string_output_adapter@_W@__crt_stdio_output@@@__crt_stdio_output@@CA?AW4parameter_type@12@H@Z 0000000180081e80 f i libucrtd:output.obj
 0001:00080e90       ?get_parameter_type@?$positional_parameter_base@_WV?$string_output_adapter@_W@__crt_stdio_output@@@__crt_stdio_output@@CA?AW4parameter_type@12@I@Z 0000000180081e90 f i libucrtd:output.obj
 0001:00080ea0       ?get_parameter_type@?$positional_parameter_base@_WV?$string_output_adapter@_W@__crt_stdio_output@@@__crt_stdio_output@@CA?AW4parameter_type@12@U_CRT_DOUBLE@@@Z 0000000180081ea0 f i libucrtd:output.obj
 0001:00080eb0       ?get_parameter_type@?$positional_parameter_base@_WV?$string_output_adapter@_W@__crt_stdio_output@@@__crt_stdio_output@@CA?AW4parameter_type@12@_J@Z 0000000180081eb0 f i libucrtd:output.obj
 0001:00080ec0       ?get_parameter_type@?$positional_parameter_base@_WV?$string_output_adapter@_W@__crt_stdio_output@@@__crt_stdio_output@@CA?AW4parameter_type@12@_K@Z 0000000180081ec0 f i libucrtd:output.obj
 0001:00080ed0       ?get_parameter_type@?$positional_parameter_base@_WV?$string_output_adapter@_W@__crt_stdio_output@@@__crt_stdio_output@@CA?AW4parameter_type@12@_W@Z 0000000180081ed0 f i libucrtd:output.obj
 0001:00080ee0       ?has_flag@?$output_processor@DV?$stream_output_adapter@D@__crt_stdio_output@@V?$format_validation_base@DV?$stream_output_adapter@D@__crt_stdio_output@@@2@@__crt_stdio_output@@AEBA_NI@Z 0000000180081ee0 f i libucrtd:output.obj
 0001:00080f30       ?has_flag@?$output_processor@DV?$stream_output_adapter@D@__crt_stdio_output@@V?$positional_parameter_base@DV?$stream_output_adapter@D@__crt_stdio_output@@@2@@__crt_stdio_output@@AEBA_NI@Z 0000000180081f30 f i libucrtd:output.obj
 0001:00080f80       ?has_flag@?$output_processor@DV?$stream_output_adapter@D@__crt_stdio_output@@V?$standard_base@DV?$stream_output_adapter@D@__crt_stdio_output@@@2@@__crt_stdio_output@@AEBA_NI@Z 0000000180081f80 f i libucrtd:output.obj
 0001:00080fd0       ?has_flag@?$output_processor@DV?$string_output_adapter@D@__crt_stdio_output@@V?$format_validation_base@DV?$string_output_adapter@D@__crt_stdio_output@@@2@@__crt_stdio_output@@AEBA_NI@Z 0000000180081fd0 f i libucrtd:output.obj
 0001:00081020       ?has_flag@?$output_processor@DV?$string_output_adapter@D@__crt_stdio_output@@V?$positional_parameter_base@DV?$string_output_adapter@D@__crt_stdio_output@@@2@@__crt_stdio_output@@AEBA_NI@Z 0000000180082020 f i libucrtd:output.obj
 0001:00081070       ?has_flag@?$output_processor@DV?$string_output_adapter@D@__crt_stdio_output@@V?$standard_base@DV?$string_output_adapter@D@__crt_stdio_output@@@2@@__crt_stdio_output@@AEBA_NI@Z 0000000180082070 f i libucrtd:output.obj
 0001:000810c0       ?has_flag@?$output_processor@_WV?$stream_output_adapter@_W@__crt_stdio_output@@V?$format_validation_base@_WV?$stream_output_adapter@_W@__crt_stdio_output@@@2@@__crt_stdio_output@@AEBA_NI@Z 00000001800820c0 f i libucrtd:output.obj
 0001:00081110       ?has_flag@?$output_processor@_WV?$stream_output_adapter@_W@__crt_stdio_output@@V?$positional_parameter_base@_WV?$stream_output_adapter@_W@__crt_stdio_output@@@2@@__crt_stdio_output@@AEBA_NI@Z 0000000180082110 f i libucrtd:output.obj
 0001:00081160       ?has_flag@?$output_processor@_WV?$stream_output_adapter@_W@__crt_stdio_output@@V?$standard_base@_WV?$stream_output_adapter@_W@__crt_stdio_output@@@2@@__crt_stdio_output@@AEBA_NI@Z 0000000180082160 f i libucrtd:output.obj
 0001:000811b0       ?has_flag@?$output_processor@_WV?$string_output_adapter@_W@__crt_stdio_output@@V?$format_validation_base@_WV?$string_output_adapter@_W@__crt_stdio_output@@@2@@__crt_stdio_output@@AEBA_NI@Z 00000001800821b0 f i libucrtd:output.obj
 0001:00081200       ?has_flag@?$output_processor@_WV?$string_output_adapter@_W@__crt_stdio_output@@V?$positional_parameter_base@_WV?$string_output_adapter@_W@__crt_stdio_output@@@2@@__crt_stdio_output@@AEBA_NI@Z 0000000180082200 f i libucrtd:output.obj
 0001:00081250       ?has_flag@?$output_processor@_WV?$string_output_adapter@_W@__crt_stdio_output@@V?$standard_base@_WV?$string_output_adapter@_W@__crt_stdio_output@@@2@@__crt_stdio_output@@AEBA_NI@Z 0000000180082250 f i libucrtd:output.obj
 0001:000812a0       ?is_positional_parameter_reappearance_consistent@?$positional_parameter_base@DV?$stream_output_adapter@D@__crt_stdio_output@@@__crt_stdio_output@@AEAA_NAEBUparameter_data@12@W4parameter_type@12@DW4length_modifier@2@@Z 00000001800822a0 f i libucrtd:output.obj
 0001:00081590       ?is_positional_parameter_reappearance_consistent@?$positional_parameter_base@DV?$string_output_adapter@D@__crt_stdio_output@@@__crt_stdio_output@@AEAA_NAEBUparameter_data@12@W4parameter_type@12@DW4length_modifier@2@@Z 0000000180082590 f i libucrtd:output.obj
 0001:00081880       ?is_positional_parameter_reappearance_consistent@?$positional_parameter_base@_WV?$stream_output_adapter@_W@__crt_stdio_output@@@__crt_stdio_output@@AEAA_NAEBUparameter_data@12@W4parameter_type@12@_WW4length_modifier@2@@Z 0000000180082880 f i libucrtd:output.obj
 0001:00081b70       ?is_positional_parameter_reappearance_consistent@?$positional_parameter_base@_WV?$string_output_adapter@_W@__crt_stdio_output@@@__crt_stdio_output@@AEAA_NAEBUparameter_data@12@W4parameter_type@12@_WW4length_modifier@2@@Z 0000000180082b70 f i libucrtd:output.obj
 0001:00081e60       ?is_string_backed@__crt_stdio_stream@@QEBA_NXZ 0000000180082e60 f i libucrtd:output.obj
 0001:00081eb0       ?narrow_null_string@?$output_processor@DV?$stream_output_adapter@D@__crt_stdio_output@@V?$format_validation_base@DV?$stream_output_adapter@D@__crt_stdio_output@@@2@@__crt_stdio_output@@CAPEADXZ 0000000180082eb0 f i libucrtd:output.obj
 0001:00081ec0       ?narrow_null_string@?$output_processor@DV?$stream_output_adapter@D@__crt_stdio_output@@V?$positional_parameter_base@DV?$stream_output_adapter@D@__crt_stdio_output@@@2@@__crt_stdio_output@@CAPEADXZ 0000000180082ec0 f i libucrtd:output.obj
 0001:00081ed0       ?narrow_null_string@?$output_processor@DV?$stream_output_adapter@D@__crt_stdio_output@@V?$standard_base@DV?$stream_output_adapter@D@__crt_stdio_output@@@2@@__crt_stdio_output@@CAPEADXZ 0000000180082ed0 f i libucrtd:output.obj
 0001:00081ee0       ?narrow_null_string@?$output_processor@DV?$string_output_adapter@D@__crt_stdio_output@@V?$format_validation_base@DV?$string_output_adapter@D@__crt_stdio_output@@@2@@__crt_stdio_output@@CAPEADXZ 0000000180082ee0 f i libucrtd:output.obj
 0001:00081ef0       ?narrow_null_string@?$output_processor@DV?$string_output_adapter@D@__crt_stdio_output@@V?$positional_parameter_base@DV?$string_output_adapter@D@__crt_stdio_output@@@2@@__crt_stdio_output@@CAPEADXZ 0000000180082ef0 f i libucrtd:output.obj
 0001:00081f00       ?narrow_null_string@?$output_processor@DV?$string_output_adapter@D@__crt_stdio_output@@V?$standard_base@DV?$string_output_adapter@D@__crt_stdio_output@@@2@@__crt_stdio_output@@CAPEADXZ 0000000180082f00 f i libucrtd:output.obj
 0001:00081f10       ?narrow_null_string@?$output_processor@_WV?$stream_output_adapter@_W@__crt_stdio_output@@V?$format_validation_base@_WV?$stream_output_adapter@_W@__crt_stdio_output@@@2@@__crt_stdio_output@@CAPEADXZ 0000000180082f10 f i libucrtd:output.obj
 0001:00081f20       ?narrow_null_string@?$output_processor@_WV?$stream_output_adapter@_W@__crt_stdio_output@@V?$positional_parameter_base@_WV?$stream_output_adapter@_W@__crt_stdio_output@@@2@@__crt_stdio_output@@CAPEADXZ 0000000180082f20 f i libucrtd:output.obj
 0001:00081f30       ?narrow_null_string@?$output_processor@_WV?$stream_output_adapter@_W@__crt_stdio_output@@V?$standard_base@_WV?$stream_output_adapter@_W@__crt_stdio_output@@@2@@__crt_stdio_output@@CAPEADXZ 0000000180082f30 f i libucrtd:output.obj
 0001:00081f40       ?narrow_null_string@?$output_processor@_WV?$string_output_adapter@_W@__crt_stdio_output@@V?$format_validation_base@_WV?$string_output_adapter@_W@__crt_stdio_output@@@2@@__crt_stdio_output@@CAPEADXZ 0000000180082f40 f i libucrtd:output.obj
 0001:00081f50       ?narrow_null_string@?$output_processor@_WV?$string_output_adapter@_W@__crt_stdio_output@@V?$positional_parameter_base@_WV?$string_output_adapter@_W@__crt_stdio_output@@@2@@__crt_stdio_output@@CAPEADXZ 0000000180082f50 f i libucrtd:output.obj
 0001:00081f60       ?narrow_null_string@?$output_processor@_WV?$string_output_adapter@_W@__crt_stdio_output@@V?$standard_base@_WV?$string_output_adapter@_W@__crt_stdio_output@@@2@@__crt_stdio_output@@CAPEADXZ 0000000180082f60 f i libucrtd:output.obj
 0001:00081f70       ?parse_int_from_format_string@?$output_processor@DV?$stream_output_adapter@D@__crt_stdio_output@@V?$format_validation_base@DV?$stream_output_adapter@D@__crt_stdio_output@@@2@@__crt_stdio_output@@AEAA_NQEAH@Z 0000000180082f70 f i libucrtd:output.obj
 0001:00082080       ?parse_int_from_format_string@?$output_processor@DV?$stream_output_adapter@D@__crt_stdio_output@@V?$positional_parameter_base@DV?$stream_output_adapter@D@__crt_stdio_output@@@2@@__crt_stdio_output@@AEAA_NQEAH@Z 0000000180083080 f i libucrtd:output.obj
 0001:00082190       ?parse_int_from_format_string@?$output_processor@DV?$stream_output_adapter@D@__crt_stdio_output@@V?$standard_base@DV?$stream_output_adapter@D@__crt_stdio_output@@@2@@__crt_stdio_output@@AEAA_NQEAH@Z 0000000180083190 f i libucrtd:output.obj
 0001:000822a0       ?parse_int_from_format_string@?$output_processor@DV?$string_output_adapter@D@__crt_stdio_output@@V?$format_validation_base@DV?$string_output_adapter@D@__crt_stdio_output@@@2@@__crt_stdio_output@@AEAA_NQEAH@Z 00000001800832a0 f i libucrtd:output.obj
 0001:000823b0       ?parse_int_from_format_string@?$output_processor@DV?$string_output_adapter@D@__crt_stdio_output@@V?$positional_parameter_base@DV?$string_output_adapter@D@__crt_stdio_output@@@2@@__crt_stdio_output@@AEAA_NQEAH@Z 00000001800833b0 f i libucrtd:output.obj
 0001:000824c0       ?parse_int_from_format_string@?$output_processor@DV?$string_output_adapter@D@__crt_stdio_output@@V?$standard_base@DV?$string_output_adapter@D@__crt_stdio_output@@@2@@__crt_stdio_output@@AEAA_NQEAH@Z 00000001800834c0 f i libucrtd:output.obj
 0001:000825d0       ?parse_int_from_format_string@?$output_processor@_WV?$stream_output_adapter@_W@__crt_stdio_output@@V?$format_validation_base@_WV?$stream_output_adapter@_W@__crt_stdio_output@@@2@@__crt_stdio_output@@AEAA_NQEAH@Z 00000001800835d0 f i libucrtd:output.obj
 0001:000826e0       ?parse_int_from_format_string@?$output_processor@_WV?$stream_output_adapter@_W@__crt_stdio_output@@V?$positional_parameter_base@_WV?$stream_output_adapter@_W@__crt_stdio_output@@@2@@__crt_stdio_output@@AEAA_NQEAH@Z 00000001800836e0 f i libucrtd:output.obj
 0001:000827f0       ?parse_int_from_format_string@?$output_processor@_WV?$stream_output_adapter@_W@__crt_stdio_output@@V?$standard_base@_WV?$stream_output_adapter@_W@__crt_stdio_output@@@2@@__crt_stdio_output@@AEAA_NQEAH@Z 00000001800837f0 f i libucrtd:output.obj
 0001:00082900       ?parse_int_from_format_string@?$output_processor@_WV?$string_output_adapter@_W@__crt_stdio_output@@V?$format_validation_base@_WV?$string_output_adapter@_W@__crt_stdio_output@@@2@@__crt_stdio_output@@AEAA_NQEAH@Z 0000000180083900 f i libucrtd:output.obj
 0001:00082a10       ?parse_int_from_format_string@?$output_processor@_WV?$string_output_adapter@_W@__crt_stdio_output@@V?$positional_parameter_base@_WV?$string_output_adapter@_W@__crt_stdio_output@@@2@@__crt_stdio_output@@AEAA_NQEAH@Z 0000000180083a10 f i libucrtd:output.obj
 0001:00082b20       ?parse_int_from_format_string@?$output_processor@_WV?$string_output_adapter@_W@__crt_stdio_output@@V?$standard_base@_WV?$string_output_adapter@_W@__crt_stdio_output@@@2@@__crt_stdio_output@@AEAA_NQEAH@Z 0000000180083b20 f i libucrtd:output.obj
 0001:00082c30       ?process@?$output_processor@DV?$stream_output_adapter@D@__crt_stdio_output@@V?$format_validation_base@DV?$stream_output_adapter@D@__crt_stdio_output@@@2@@__crt_stdio_output@@QEAAHXZ 0000000180083c30 f i libucrtd:output.obj
 0001:00083070       ?process@?$output_processor@DV?$stream_output_adapter@D@__crt_stdio_output@@V?$positional_parameter_base@DV?$stream_output_adapter@D@__crt_stdio_output@@@2@@__crt_stdio_output@@QEAAHXZ 0000000180084070 f i libucrtd:output.obj
 0001:000834b0       ?process@?$output_processor@DV?$stream_output_adapter@D@__crt_stdio_output@@V?$standard_base@DV?$stream_output_adapter@D@__crt_stdio_output@@@2@@__crt_stdio_output@@QEAAHXZ 00000001800844b0 f i libucrtd:output.obj
 0001:000838f0       ?process@?$output_processor@DV?$string_output_adapter@D@__crt_stdio_output@@V?$format_validation_base@DV?$string_output_adapter@D@__crt_stdio_output@@@2@@__crt_stdio_output@@QEAAHXZ 00000001800848f0 f i libucrtd:output.obj
 0001:00083d30       ?process@?$output_processor@DV?$string_output_adapter@D@__crt_stdio_output@@V?$positional_parameter_base@DV?$string_output_adapter@D@__crt_stdio_output@@@2@@__crt_stdio_output@@QEAAHXZ 0000000180084d30 f i libucrtd:output.obj
 0001:00084170       ?process@?$output_processor@DV?$string_output_adapter@D@__crt_stdio_output@@V?$standard_base@DV?$string_output_adapter@D@__crt_stdio_output@@@2@@__crt_stdio_output@@QEAAHXZ 0000000180085170 f i libucrtd:output.obj
 0001:000845b0       ?process@?$output_processor@_WV?$stream_output_adapter@_W@__crt_stdio_output@@V?$format_validation_base@_WV?$stream_output_adapter@_W@__crt_stdio_output@@@2@@__crt_stdio_output@@QEAAHXZ 00000001800855b0 f i libucrtd:output.obj
 0001:000849f0       ?process@?$output_processor@_WV?$stream_output_adapter@_W@__crt_stdio_output@@V?$positional_parameter_base@_WV?$stream_output_adapter@_W@__crt_stdio_output@@@2@@__crt_stdio_output@@QEAAHXZ 00000001800859f0 f i libucrtd:output.obj
 0001:00084e30       ?process@?$output_processor@_WV?$stream_output_adapter@_W@__crt_stdio_output@@V?$standard_base@_WV?$stream_output_adapter@_W@__crt_stdio_output@@@2@@__crt_stdio_output@@QEAAHXZ 0000000180085e30 f i libucrtd:output.obj
 0001:00085270       ?process@?$output_processor@_WV?$string_output_adapter@_W@__crt_stdio_output@@V?$format_validation_base@_WV?$string_output_adapter@_W@__crt_stdio_output@@@2@@__crt_stdio_output@@QEAAHXZ 0000000180086270 f i libucrtd:output.obj
 0001:000856b0       ?process@?$output_processor@_WV?$string_output_adapter@_W@__crt_stdio_output@@V?$positional_parameter_base@_WV?$string_output_adapter@_W@__crt_stdio_output@@@2@@__crt_stdio_output@@QEAAHXZ 00000001800866b0 f i libucrtd:output.obj
 0001:00085af0       ?process@?$output_processor@_WV?$string_output_adapter@_W@__crt_stdio_output@@V?$standard_base@_WV?$string_output_adapter@_W@__crt_stdio_output@@@2@@__crt_stdio_output@@QEAAHXZ 0000000180086af0 f i libucrtd:output.obj
 0001:00085f30       ?public_stream@__crt_stdio_stream@@QEBAPEAU_iobuf@@XZ 0000000180086f30 f i libucrtd:output.obj
 0001:00085f50       ?set_flag@?$output_processor@DV?$stream_output_adapter@D@__crt_stdio_output@@V?$format_validation_base@DV?$stream_output_adapter@D@__crt_stdio_output@@@2@@__crt_stdio_output@@AEAAXI@Z 0000000180086f50 f i libucrtd:output.obj
 0001:00085f80       ?set_flag@?$output_processor@DV?$stream_output_adapter@D@__crt_stdio_output@@V?$positional_parameter_base@DV?$stream_output_adapter@D@__crt_stdio_output@@@2@@__crt_stdio_output@@AEAAXI@Z 0000000180086f80 f i libucrtd:output.obj
 0001:00085fb0       ?set_flag@?$output_processor@DV?$stream_output_adapter@D@__crt_stdio_output@@V?$standard_base@DV?$stream_output_adapter@D@__crt_stdio_output@@@2@@__crt_stdio_output@@AEAAXI@Z 0000000180086fb0 f i libucrtd:output.obj
 0001:00085fe0       ?set_flag@?$output_processor@DV?$string_output_adapter@D@__crt_stdio_output@@V?$format_validation_base@DV?$string_output_adapter@D@__crt_stdio_output@@@2@@__crt_stdio_output@@AEAAXI@Z 0000000180086fe0 f i libucrtd:output.obj
 0001:00086010       ?set_flag@?$output_processor@DV?$string_output_adapter@D@__crt_stdio_output@@V?$positional_parameter_base@DV?$string_output_adapter@D@__crt_stdio_output@@@2@@__crt_stdio_output@@AEAAXI@Z 0000000180087010 f i libucrtd:output.obj
 0001:00086040       ?set_flag@?$output_processor@DV?$string_output_adapter@D@__crt_stdio_output@@V?$standard_base@DV?$string_output_adapter@D@__crt_stdio_output@@@2@@__crt_stdio_output@@AEAAXI@Z 0000000180087040 f i libucrtd:output.obj
 0001:00086070       ?set_flag@?$output_processor@_WV?$stream_output_adapter@_W@__crt_stdio_output@@V?$format_validation_base@_WV?$stream_output_adapter@_W@__crt_stdio_output@@@2@@__crt_stdio_output@@AEAAXI@Z 0000000180087070 f i libucrtd:output.obj
 0001:000860a0       ?set_flag@?$output_processor@_WV?$stream_output_adapter@_W@__crt_stdio_output@@V?$positional_parameter_base@_WV?$stream_output_adapter@_W@__crt_stdio_output@@@2@@__crt_stdio_output@@AEAAXI@Z 00000001800870a0 f i libucrtd:output.obj
 0001:000860d0       ?set_flag@?$output_processor@_WV?$stream_output_adapter@_W@__crt_stdio_output@@V?$standard_base@_WV?$stream_output_adapter@_W@__crt_stdio_output@@@2@@__crt_stdio_output@@AEAAXI@Z 00000001800870d0 f i libucrtd:output.obj
 0001:00086100       ?set_flag@?$output_processor@_WV?$string_output_adapter@_W@__crt_stdio_output@@V?$format_validation_base@_WV?$string_output_adapter@_W@__crt_stdio_output@@@2@@__crt_stdio_output@@AEAAXI@Z 0000000180087100 f i libucrtd:output.obj
 0001:00086130       ?set_flag@?$output_processor@_WV?$string_output_adapter@_W@__crt_stdio_output@@V?$positional_parameter_base@_WV?$string_output_adapter@_W@__crt_stdio_output@@@2@@__crt_stdio_output@@AEAAXI@Z 0000000180087130 f i libucrtd:output.obj
 0001:00086160       ?set_flag@?$output_processor@_WV?$string_output_adapter@_W@__crt_stdio_output@@V?$standard_base@_WV?$string_output_adapter@_W@__crt_stdio_output@@@2@@__crt_stdio_output@@AEAAXI@Z 0000000180087160 f i libucrtd:output.obj
 0001:00086190       ?should_format@?$positional_parameter_base@DV?$stream_output_adapter@D@__crt_stdio_output@@@__crt_stdio_output@@IEAA_NXZ 0000000180087190 f i libucrtd:output.obj
 0001:000861e0       ?should_format@?$positional_parameter_base@DV?$string_output_adapter@D@__crt_stdio_output@@@__crt_stdio_output@@IEAA_NXZ 00000001800871e0 f i libucrtd:output.obj
 0001:00086230       ?should_format@?$positional_parameter_base@_WV?$stream_output_adapter@_W@__crt_stdio_output@@@__crt_stdio_output@@IEAA_NXZ 0000000180087230 f i libucrtd:output.obj
 0001:00086280       ?should_format@?$positional_parameter_base@_WV?$string_output_adapter@_W@__crt_stdio_output@@@__crt_stdio_output@@IEAA_NXZ 0000000180087280 f i libucrtd:output.obj
 0001:000862d0       ?should_format@?$standard_base@DV?$stream_output_adapter@D@__crt_stdio_output@@@__crt_stdio_output@@IEAA_NXZ 00000001800872d0 f i libucrtd:output.obj
 0001:000862e0       ?should_format@?$standard_base@DV?$string_output_adapter@D@__crt_stdio_output@@@__crt_stdio_output@@IEAA_NXZ 00000001800872e0 f i libucrtd:output.obj
 0001:000862f0       ?should_format@?$standard_base@_WV?$stream_output_adapter@_W@__crt_stdio_output@@@__crt_stdio_output@@IEAA_NXZ 00000001800872f0 f i libucrtd:output.obj
 0001:00086300       ?should_format@?$standard_base@_WV?$string_output_adapter@_W@__crt_stdio_output@@@__crt_stdio_output@@IEAA_NXZ 0000000180087300 f i libucrtd:output.obj
 0001:00086310       ?should_skip_normal_state_processing@?$positional_parameter_base@DV?$stream_output_adapter@D@__crt_stdio_output@@@__crt_stdio_output@@IEAA_NXZ 0000000180087310 f i libucrtd:output.obj
 0001:00086370       ?should_skip_normal_state_processing@?$positional_parameter_base@DV?$string_output_adapter@D@__crt_stdio_output@@@__crt_stdio_output@@IEAA_NXZ 0000000180087370 f i libucrtd:output.obj
 0001:000863d0       ?should_skip_normal_state_processing@?$positional_parameter_base@_WV?$stream_output_adapter@_W@__crt_stdio_output@@@__crt_stdio_output@@IEAA_NXZ 00000001800873d0 f i libucrtd:output.obj
 0001:00086430       ?should_skip_normal_state_processing@?$positional_parameter_base@_WV?$string_output_adapter@_W@__crt_stdio_output@@@__crt_stdio_output@@IEAA_NXZ 0000000180087430 f i libucrtd:output.obj
 0001:00086490       ?should_skip_normal_state_processing@?$standard_base@DV?$stream_output_adapter@D@__crt_stdio_output@@@__crt_stdio_output@@IEAA_NXZ 0000000180087490 f i libucrtd:output.obj
 0001:000864a0       ?should_skip_normal_state_processing@?$standard_base@DV?$string_output_adapter@D@__crt_stdio_output@@@__crt_stdio_output@@IEAA_NXZ 00000001800874a0 f i libucrtd:output.obj
 0001:000864b0       ?should_skip_normal_state_processing@?$standard_base@_WV?$stream_output_adapter@_W@__crt_stdio_output@@@__crt_stdio_output@@IEAA_NXZ 00000001800874b0 f i libucrtd:output.obj
 0001:000864c0       ?should_skip_normal_state_processing@?$standard_base@_WV?$string_output_adapter@_W@__crt_stdio_output@@@__crt_stdio_output@@IEAA_NXZ 00000001800874c0 f i libucrtd:output.obj
 0001:000864d0       ?should_skip_type_state_output@?$positional_parameter_base@DV?$stream_output_adapter@D@__crt_stdio_output@@@__crt_stdio_output@@IEBA_NXZ 00000001800874d0 f i libucrtd:output.obj
 0001:00086520       ?should_skip_type_state_output@?$positional_parameter_base@DV?$string_output_adapter@D@__crt_stdio_output@@@__crt_stdio_output@@IEBA_NXZ 0000000180087520 f i libucrtd:output.obj
 0001:00086570       ?should_skip_type_state_output@?$positional_parameter_base@_WV?$stream_output_adapter@_W@__crt_stdio_output@@@__crt_stdio_output@@IEBA_NXZ 0000000180087570 f i libucrtd:output.obj
 0001:000865c0       ?should_skip_type_state_output@?$positional_parameter_base@_WV?$string_output_adapter@_W@__crt_stdio_output@@@__crt_stdio_output@@IEBA_NXZ 00000001800875c0 f i libucrtd:output.obj
 0001:00086610       ?should_skip_type_state_output@?$standard_base@DV?$stream_output_adapter@D@__crt_stdio_output@@@__crt_stdio_output@@IEBA_NXZ 0000000180087610 f i libucrtd:output.obj
 0001:00086620       ?should_skip_type_state_output@?$standard_base@DV?$string_output_adapter@D@__crt_stdio_output@@@__crt_stdio_output@@IEBA_NXZ 0000000180087620 f i libucrtd:output.obj
 0001:00086630       ?should_skip_type_state_output@?$standard_base@_WV?$stream_output_adapter@_W@__crt_stdio_output@@@__crt_stdio_output@@IEBA_NXZ 0000000180087630 f i libucrtd:output.obj
 0001:00086640       ?should_skip_type_state_output@?$standard_base@_WV?$string_output_adapter@_W@__crt_stdio_output@@@__crt_stdio_output@@IEBA_NXZ 0000000180087640 f i libucrtd:output.obj
 0001:00086650       ?state_case_dot@?$output_processor@DV?$stream_output_adapter@D@__crt_stdio_output@@V?$format_validation_base@DV?$stream_output_adapter@D@__crt_stdio_output@@@2@@__crt_stdio_output@@AEAA_NXZ 0000000180087650 f i libucrtd:output.obj
 0001:00086670       ?state_case_dot@?$output_processor@DV?$stream_output_adapter@D@__crt_stdio_output@@V?$positional_parameter_base@DV?$stream_output_adapter@D@__crt_stdio_output@@@2@@__crt_stdio_output@@AEAA_NXZ 0000000180087670 f i libucrtd:output.obj
 0001:00086690       ?state_case_dot@?$output_processor@DV?$stream_output_adapter@D@__crt_stdio_output@@V?$standard_base@DV?$stream_output_adapter@D@__crt_stdio_output@@@2@@__crt_stdio_output@@AEAA_NXZ 0000000180087690 f i libucrtd:output.obj
 0001:000866b0       ?state_case_dot@?$output_processor@DV?$string_output_adapter@D@__crt_stdio_output@@V?$format_validation_base@DV?$string_output_adapter@D@__crt_stdio_output@@@2@@__crt_stdio_output@@AEAA_NXZ 00000001800876b0 f i libucrtd:output.obj
 0001:000866d0       ?state_case_dot@?$output_processor@DV?$string_output_adapter@D@__crt_stdio_output@@V?$positional_parameter_base@DV?$string_output_adapter@D@__crt_stdio_output@@@2@@__crt_stdio_output@@AEAA_NXZ 00000001800876d0 f i libucrtd:output.obj
 0001:000866f0       ?state_case_dot@?$output_processor@DV?$string_output_adapter@D@__crt_stdio_output@@V?$standard_base@DV?$string_output_adapter@D@__crt_stdio_output@@@2@@__crt_stdio_output@@AEAA_NXZ 00000001800876f0 f i libucrtd:output.obj
 0001:00086710       ?state_case_dot@?$output_processor@_WV?$stream_output_adapter@_W@__crt_stdio_output@@V?$format_validation_base@_WV?$stream_output_adapter@_W@__crt_stdio_output@@@2@@__crt_stdio_output@@AEAA_NXZ 0000000180087710 f i libucrtd:output.obj
 0001:00086730       ?state_case_dot@?$output_processor@_WV?$stream_output_adapter@_W@__crt_stdio_output@@V?$positional_parameter_base@_WV?$stream_output_adapter@_W@__crt_stdio_output@@@2@@__crt_stdio_output@@AEAA_NXZ 0000000180087730 f i libucrtd:output.obj
 0001:00086750       ?state_case_dot@?$output_processor@_WV?$stream_output_adapter@_W@__crt_stdio_output@@V?$standard_base@_WV?$stream_output_adapter@_W@__crt_stdio_output@@@2@@__crt_stdio_output@@AEAA_NXZ 0000000180087750 f i libucrtd:output.obj
 0001:00086770       ?state_case_dot@?$output_processor@_WV?$string_output_adapter@_W@__crt_stdio_output@@V?$format_validation_base@_WV?$string_output_adapter@_W@__crt_stdio_output@@@2@@__crt_stdio_output@@AEAA_NXZ 0000000180087770 f i libucrtd:output.obj
 0001:00086790       ?state_case_dot@?$output_processor@_WV?$string_output_adapter@_W@__crt_stdio_output@@V?$positional_parameter_base@_WV?$string_output_adapter@_W@__crt_stdio_output@@@2@@__crt_stdio_output@@AEAA_NXZ 0000000180087790 f i libucrtd:output.obj
 0001:000867b0       ?state_case_dot@?$output_processor@_WV?$string_output_adapter@_W@__crt_stdio_output@@V?$standard_base@_WV?$string_output_adapter@_W@__crt_stdio_output@@@2@@__crt_stdio_output@@AEAA_NXZ 00000001800877b0 f i libucrtd:output.obj
 0001:000867d0       ?state_case_flag@?$output_processor@DV?$stream_output_adapter@D@__crt_stdio_output@@V?$format_validation_base@DV?$stream_output_adapter@D@__crt_stdio_output@@@2@@__crt_stdio_output@@AEAA_NXZ 00000001800877d0 f i libucrtd:output.obj
 0001:00086890       ?state_case_flag@?$output_processor@DV?$stream_output_adapter@D@__crt_stdio_output@@V?$positional_parameter_base@DV?$stream_output_adapter@D@__crt_stdio_output@@@2@@__crt_stdio_output@@AEAA_NXZ 0000000180087890 f i libucrtd:output.obj
 0001:00086950       ?state_case_flag@?$output_processor@DV?$stream_output_adapter@D@__crt_stdio_output@@V?$standard_base@DV?$stream_output_adapter@D@__crt_stdio_output@@@2@@__crt_stdio_output@@AEAA_NXZ 0000000180087950 f i libucrtd:output.obj
 0001:00086a10       ?state_case_flag@?$output_processor@DV?$string_output_adapter@D@__crt_stdio_output@@V?$format_validation_base@DV?$string_output_adapter@D@__crt_stdio_output@@@2@@__crt_stdio_output@@AEAA_NXZ 0000000180087a10 f i libucrtd:output.obj
 0001:00086ad0       ?state_case_flag@?$output_processor@DV?$string_output_adapter@D@__crt_stdio_output@@V?$positional_parameter_base@DV?$string_output_adapter@D@__crt_stdio_output@@@2@@__crt_stdio_output@@AEAA_NXZ 0000000180087ad0 f i libucrtd:output.obj
 0001:00086b90       ?state_case_flag@?$output_processor@DV?$string_output_adapter@D@__crt_stdio_output@@V?$standard_base@DV?$string_output_adapter@D@__crt_stdio_output@@@2@@__crt_stdio_output@@AEAA_NXZ 0000000180087b90 f i libucrtd:output.obj
 0001:00086c50       ?state_case_flag@?$output_processor@_WV?$stream_output_adapter@_W@__crt_stdio_output@@V?$format_validation_base@_WV?$stream_output_adapter@_W@__crt_stdio_output@@@2@@__crt_stdio_output@@AEAA_NXZ 0000000180087c50 f i libucrtd:output.obj
 0001:00086d10       ?state_case_flag@?$output_processor@_WV?$stream_output_adapter@_W@__crt_stdio_output@@V?$positional_parameter_base@_WV?$stream_output_adapter@_W@__crt_stdio_output@@@2@@__crt_stdio_output@@AEAA_NXZ 0000000180087d10 f i libucrtd:output.obj
 0001:00086dd0       ?state_case_flag@?$output_processor@_WV?$stream_output_adapter@_W@__crt_stdio_output@@V?$standard_base@_WV?$stream_output_adapter@_W@__crt_stdio_output@@@2@@__crt_stdio_output@@AEAA_NXZ 0000000180087dd0 f i libucrtd:output.obj
 0001:00086e90       ?state_case_flag@?$output_processor@_WV?$string_output_adapter@_W@__crt_stdio_output@@V?$format_validation_base@_WV?$string_output_adapter@_W@__crt_stdio_output@@@2@@__crt_stdio_output@@AEAA_NXZ 0000000180087e90 f i libucrtd:output.obj
 0001:00086f50       ?state_case_flag@?$output_processor@_WV?$string_output_adapter@_W@__crt_stdio_output@@V?$positional_parameter_base@_WV?$string_output_adapter@_W@__crt_stdio_output@@@2@@__crt_stdio_output@@AEAA_NXZ 0000000180087f50 f i libucrtd:output.obj
 0001:00087010       ?state_case_flag@?$output_processor@_WV?$string_output_adapter@_W@__crt_stdio_output@@V?$standard_base@_WV?$string_output_adapter@_W@__crt_stdio_output@@@2@@__crt_stdio_output@@AEAA_NXZ 0000000180088010 f i libucrtd:output.obj
 0001:000870d0       ?state_case_normal@?$output_processor@DV?$stream_output_adapter@D@__crt_stdio_output@@V?$format_validation_base@DV?$stream_output_adapter@D@__crt_stdio_output@@@2@@__crt_stdio_output@@AEAA_NXZ 00000001800880d0 f i libucrtd:output.obj
 0001:000871e0       ?state_case_normal@?$output_processor@DV?$stream_output_adapter@D@__crt_stdio_output@@V?$positional_parameter_base@DV?$stream_output_adapter@D@__crt_stdio_output@@@2@@__crt_stdio_output@@AEAA_NXZ 00000001800881e0 f i libucrtd:output.obj
 0001:000872f0       ?state_case_normal@?$output_processor@DV?$stream_output_adapter@D@__crt_stdio_output@@V?$standard_base@DV?$stream_output_adapter@D@__crt_stdio_output@@@2@@__crt_stdio_output@@AEAA_NXZ 00000001800882f0 f i libucrtd:output.obj
 0001:00087400       ?state_case_normal@?$output_processor@DV?$string_output_adapter@D@__crt_stdio_output@@V?$format_validation_base@DV?$string_output_adapter@D@__crt_stdio_output@@@2@@__crt_stdio_output@@AEAA_NXZ 0000000180088400 f i libucrtd:output.obj
 0001:00087510       ?state_case_normal@?$output_processor@DV?$string_output_adapter@D@__crt_stdio_output@@V?$positional_parameter_base@DV?$string_output_adapter@D@__crt_stdio_output@@@2@@__crt_stdio_output@@AEAA_NXZ 0000000180088510 f i libucrtd:output.obj
 0001:00087620       ?state_case_normal@?$output_processor@DV?$string_output_adapter@D@__crt_stdio_output@@V?$standard_base@DV?$string_output_adapter@D@__crt_stdio_output@@@2@@__crt_stdio_output@@AEAA_NXZ 0000000180088620 f i libucrtd:output.obj
 0001:00087730       ?state_case_normal@?$output_processor@_WV?$stream_output_adapter@_W@__crt_stdio_output@@V?$format_validation_base@_WV?$stream_output_adapter@_W@__crt_stdio_output@@@2@@__crt_stdio_output@@AEAA_NXZ 0000000180088730 f i libucrtd:output.obj
 0001:00087840       ?state_case_normal@?$output_processor@_WV?$stream_output_adapter@_W@__crt_stdio_output@@V?$positional_parameter_base@_WV?$stream_output_adapter@_W@__crt_stdio_output@@@2@@__crt_stdio_output@@AEAA_NXZ 0000000180088840 f i libucrtd:output.obj
 0001:00087950       ?state_case_normal@?$output_processor@_WV?$stream_output_adapter@_W@__crt_stdio_output@@V?$standard_base@_WV?$stream_output_adapter@_W@__crt_stdio_output@@@2@@__crt_stdio_output@@AEAA_NXZ 0000000180088950 f i libucrtd:output.obj
 0001:00087a60       ?state_case_normal@?$output_processor@_WV?$string_output_adapter@_W@__crt_stdio_output@@V?$format_validation_base@_WV?$string_output_adapter@_W@__crt_stdio_output@@@2@@__crt_stdio_output@@AEAA_NXZ 0000000180088a60 f i libucrtd:output.obj
 0001:00087b70       ?state_case_normal@?$output_processor@_WV?$string_output_adapter@_W@__crt_stdio_output@@V?$positional_parameter_base@_WV?$string_output_adapter@_W@__crt_stdio_output@@@2@@__crt_stdio_output@@AEAA_NXZ 0000000180088b70 f i libucrtd:output.obj
 0001:00087c80       ?state_case_normal@?$output_processor@_WV?$string_output_adapter@_W@__crt_stdio_output@@V?$standard_base@_WV?$string_output_adapter@_W@__crt_stdio_output@@@2@@__crt_stdio_output@@AEAA_NXZ 0000000180088c80 f i libucrtd:output.obj
 0001:00087d90       ?state_case_normal_common@?$output_processor@DV?$stream_output_adapter@D@__crt_stdio_output@@V?$format_validation_base@DV?$stream_output_adapter@D@__crt_stdio_output@@@2@@__crt_stdio_output@@AEAA_NXZ 0000000180088d90 f i libucrtd:output.obj
 0001:00087df0       ?state_case_normal_common@?$output_processor@DV?$stream_output_adapter@D@__crt_stdio_output@@V?$positional_parameter_base@DV?$stream_output_adapter@D@__crt_stdio_output@@@2@@__crt_stdio_output@@AEAA_NXZ 0000000180088df0 f i libucrtd:output.obj
 0001:00087e50       ?state_case_normal_common@?$output_processor@DV?$stream_output_adapter@D@__crt_stdio_output@@V?$standard_base@DV?$stream_output_adapter@D@__crt_stdio_output@@@2@@__crt_stdio_output@@AEAA_NXZ 0000000180088e50 f i libucrtd:output.obj
 0001:00087eb0       ?state_case_normal_common@?$output_processor@DV?$string_output_adapter@D@__crt_stdio_output@@V?$format_validation_base@DV?$string_output_adapter@D@__crt_stdio_output@@@2@@__crt_stdio_output@@AEAA_NXZ 0000000180088eb0 f i libucrtd:output.obj
 0001:00087f10       ?state_case_normal_common@?$output_processor@DV?$string_output_adapter@D@__crt_stdio_output@@V?$positional_parameter_base@DV?$string_output_adapter@D@__crt_stdio_output@@@2@@__crt_stdio_output@@AEAA_NXZ 0000000180088f10 f i libucrtd:output.obj
 0001:00087f70       ?state_case_normal_common@?$output_processor@DV?$string_output_adapter@D@__crt_stdio_output@@V?$standard_base@DV?$string_output_adapter@D@__crt_stdio_output@@@2@@__crt_stdio_output@@AEAA_NXZ 0000000180088f70 f i libucrtd:output.obj
 0001:00087fd0       ?state_case_normal_common@?$output_processor@_WV?$stream_output_adapter@_W@__crt_stdio_output@@V?$format_validation_base@_WV?$stream_output_adapter@_W@__crt_stdio_output@@@2@@__crt_stdio_output@@AEAA_NXZ 0000000180088fd0 f i libucrtd:output.obj
 0001:00088030       ?state_case_normal_common@?$output_processor@_WV?$stream_output_adapter@_W@__crt_stdio_output@@V?$positional_parameter_base@_WV?$stream_output_adapter@_W@__crt_stdio_output@@@2@@__crt_stdio_output@@AEAA_NXZ 0000000180089030 f i libucrtd:output.obj
 0001:00088090       ?state_case_normal_common@?$output_processor@_WV?$stream_output_adapter@_W@__crt_stdio_output@@V?$standard_base@_WV?$stream_output_adapter@_W@__crt_stdio_output@@@2@@__crt_stdio_output@@AEAA_NXZ 0000000180089090 f i libucrtd:output.obj
 0001:000880f0       ?state_case_normal_common@?$output_processor@_WV?$string_output_adapter@_W@__crt_stdio_output@@V?$format_validation_base@_WV?$string_output_adapter@_W@__crt_stdio_output@@@2@@__crt_stdio_output@@AEAA_NXZ 00000001800890f0 f i libucrtd:output.obj
 0001:00088150       ?state_case_normal_common@?$output_processor@_WV?$string_output_adapter@_W@__crt_stdio_output@@V?$positional_parameter_base@_WV?$string_output_adapter@_W@__crt_stdio_output@@@2@@__crt_stdio_output@@AEAA_NXZ 0000000180089150 f i libucrtd:output.obj
 0001:000881b0       ?state_case_normal_common@?$output_processor@_WV?$string_output_adapter@_W@__crt_stdio_output@@V?$standard_base@_WV?$string_output_adapter@_W@__crt_stdio_output@@@2@@__crt_stdio_output@@AEAA_NXZ 00000001800891b0 f i libucrtd:output.obj
 0001:00088210       ?state_case_normal_tchar@?$output_processor@DV?$stream_output_adapter@D@__crt_stdio_output@@V?$format_validation_base@DV?$stream_output_adapter@D@__crt_stdio_output@@@2@@__crt_stdio_output@@AEAA_ND@Z 0000000180089210 f i libucrtd:output.obj
 0001:000883a0       ?state_case_normal_tchar@?$output_processor@DV?$stream_output_adapter@D@__crt_stdio_output@@V?$positional_parameter_base@DV?$stream_output_adapter@D@__crt_stdio_output@@@2@@__crt_stdio_output@@AEAA_ND@Z 00000001800893a0 f i libucrtd:output.obj
 0001:00088530       ?state_case_normal_tchar@?$output_processor@DV?$stream_output_adapter@D@__crt_stdio_output@@V?$standard_base@DV?$stream_output_adapter@D@__crt_stdio_output@@@2@@__crt_stdio_output@@AEAA_ND@Z 0000000180089530 f i libucrtd:output.obj
 0001:000886c0       ?state_case_normal_tchar@?$output_processor@DV?$string_output_adapter@D@__crt_stdio_output@@V?$format_validation_base@DV?$string_output_adapter@D@__crt_stdio_output@@@2@@__crt_stdio_output@@AEAA_ND@Z 00000001800896c0 f i libucrtd:output.obj
 0001:00088850       ?state_case_normal_tchar@?$output_processor@DV?$string_output_adapter@D@__crt_stdio_output@@V?$positional_parameter_base@DV?$string_output_adapter@D@__crt_stdio_output@@@2@@__crt_stdio_output@@AEAA_ND@Z 0000000180089850 f i libucrtd:output.obj
 0001:000889e0       ?state_case_normal_tchar@?$output_processor@DV?$string_output_adapter@D@__crt_stdio_output@@V?$standard_base@DV?$string_output_adapter@D@__crt_stdio_output@@@2@@__crt_stdio_output@@AEAA_ND@Z 00000001800899e0 f i libucrtd:output.obj
 0001:00088b70       ?state_case_normal_tchar@?$output_processor@_WV?$stream_output_adapter@_W@__crt_stdio_output@@V?$format_validation_base@_WV?$stream_output_adapter@_W@__crt_stdio_output@@@2@@__crt_stdio_output@@AEAA_N_W@Z 0000000180089b70 f i libucrtd:output.obj
 0001:00088b90       ?state_case_normal_tchar@?$output_processor@_WV?$stream_output_adapter@_W@__crt_stdio_output@@V?$positional_parameter_base@_WV?$stream_output_adapter@_W@__crt_stdio_output@@@2@@__crt_stdio_output@@AEAA_N_W@Z 0000000180089b90 f i libucrtd:output.obj
 0001:00088bb0       ?state_case_normal_tchar@?$output_processor@_WV?$stream_output_adapter@_W@__crt_stdio_output@@V?$standard_base@_WV?$stream_output_adapter@_W@__crt_stdio_output@@@2@@__crt_stdio_output@@AEAA_N_W@Z 0000000180089bb0 f i libucrtd:output.obj
 0001:00088bd0       ?state_case_normal_tchar@?$output_processor@_WV?$string_output_adapter@_W@__crt_stdio_output@@V?$format_validation_base@_WV?$string_output_adapter@_W@__crt_stdio_output@@@2@@__crt_stdio_output@@AEAA_N_W@Z 0000000180089bd0 f i libucrtd:output.obj
 0001:00088bf0       ?state_case_normal_tchar@?$output_processor@_WV?$string_output_adapter@_W@__crt_stdio_output@@V?$positional_parameter_base@_WV?$string_output_adapter@_W@__crt_stdio_output@@@2@@__crt_stdio_output@@AEAA_N_W@Z 0000000180089bf0 f i libucrtd:output.obj
 0001:00088c10       ?state_case_normal_tchar@?$output_processor@_WV?$string_output_adapter@_W@__crt_stdio_output@@V?$standard_base@_WV?$string_output_adapter@_W@__crt_stdio_output@@@2@@__crt_stdio_output@@AEAA_N_W@Z 0000000180089c10 f i libucrtd:output.obj
 0001:00088c30       ?state_case_percent@?$output_processor@DV?$stream_output_adapter@D@__crt_stdio_output@@V?$format_validation_base@DV?$stream_output_adapter@D@__crt_stdio_output@@@2@@__crt_stdio_output@@AEAA_NXZ 0000000180089c30 f i libucrtd:output.obj
 0001:00088c90       ?state_case_percent@?$output_processor@DV?$stream_output_adapter@D@__crt_stdio_output@@V?$positional_parameter_base@DV?$stream_output_adapter@D@__crt_stdio_output@@@2@@__crt_stdio_output@@AEAA_NXZ 0000000180089c90 f i libucrtd:output.obj
 0001:00088cf0       ?state_case_percent@?$output_processor@DV?$stream_output_adapter@D@__crt_stdio_output@@V?$standard_base@DV?$stream_output_adapter@D@__crt_stdio_output@@@2@@__crt_stdio_output@@AEAA_NXZ 0000000180089cf0 f i libucrtd:output.obj
 0001:00088d50       ?state_case_percent@?$output_processor@DV?$string_output_adapter@D@__crt_stdio_output@@V?$format_validation_base@DV?$string_output_adapter@D@__crt_stdio_output@@@2@@__crt_stdio_output@@AEAA_NXZ 0000000180089d50 f i libucrtd:output.obj
 0001:00088db0       ?state_case_percent@?$output_processor@DV?$string_output_adapter@D@__crt_stdio_output@@V?$positional_parameter_base@DV?$string_output_adapter@D@__crt_stdio_output@@@2@@__crt_stdio_output@@AEAA_NXZ 0000000180089db0 f i libucrtd:output.obj
 0001:00088e10       ?state_case_percent@?$output_processor@DV?$string_output_adapter@D@__crt_stdio_output@@V?$standard_base@DV?$string_output_adapter@D@__crt_stdio_output@@@2@@__crt_stdio_output@@AEAA_NXZ 0000000180089e10 f i libucrtd:output.obj
 0001:00088e70       ?state_case_percent@?$output_processor@_WV?$stream_output_adapter@_W@__crt_stdio_output@@V?$format_validation_base@_WV?$stream_output_adapter@_W@__crt_stdio_output@@@2@@__crt_stdio_output@@AEAA_NXZ 0000000180089e70 f i libucrtd:output.obj
 0001:00088ed0       ?state_case_percent@?$output_processor@_WV?$stream_output_adapter@_W@__crt_stdio_output@@V?$positional_parameter_base@_WV?$stream_output_adapter@_W@__crt_stdio_output@@@2@@__crt_stdio_output@@AEAA_NXZ 0000000180089ed0 f i libucrtd:output.obj
 0001:00088f30       ?state_case_percent@?$output_processor@_WV?$stream_output_adapter@_W@__crt_stdio_output@@V?$standard_base@_WV?$stream_output_adapter@_W@__crt_stdio_output@@@2@@__crt_stdio_output@@AEAA_NXZ 0000000180089f30 f i libucrtd:output.obj
 0001:00088f90       ?state_case_percent@?$output_processor@_WV?$string_output_adapter@_W@__crt_stdio_output@@V?$format_validation_base@_WV?$string_output_adapter@_W@__crt_stdio_output@@@2@@__crt_stdio_output@@AEAA_NXZ 0000000180089f90 f i libucrtd:output.obj
 0001:00088ff0       ?state_case_percent@?$output_processor@_WV?$string_output_adapter@_W@__crt_stdio_output@@V?$positional_parameter_base@_WV?$string_output_adapter@_W@__crt_stdio_output@@@2@@__crt_stdio_output@@AEAA_NXZ 0000000180089ff0 f i libucrtd:output.obj
 0001:00089050       ?state_case_percent@?$output_processor@_WV?$string_output_adapter@_W@__crt_stdio_output@@V?$standard_base@_WV?$string_output_adapter@_W@__crt_stdio_output@@@2@@__crt_stdio_output@@AEAA_NXZ 000000018008a050 f i libucrtd:output.obj
 0001:000890b0       ?state_case_precision@?$output_processor@DV?$stream_output_adapter@D@__crt_stdio_output@@V?$format_validation_base@DV?$stream_output_adapter@D@__crt_stdio_output@@@2@@__crt_stdio_output@@AEAA_NXZ 000000018008a0b0 f i libucrtd:output.obj
 0001:00089150       ?state_case_precision@?$output_processor@DV?$stream_output_adapter@D@__crt_stdio_output@@V?$positional_parameter_base@DV?$stream_output_adapter@D@__crt_stdio_output@@@2@@__crt_stdio_output@@AEAA_NXZ 000000018008a150 f i libucrtd:output.obj
 0001:000891f0       ?state_case_precision@?$output_processor@DV?$stream_output_adapter@D@__crt_stdio_output@@V?$standard_base@DV?$stream_output_adapter@D@__crt_stdio_output@@@2@@__crt_stdio_output@@AEAA_NXZ 000000018008a1f0 f i libucrtd:output.obj
 0001:00089290       ?state_case_precision@?$output_processor@DV?$string_output_adapter@D@__crt_stdio_output@@V?$format_validation_base@DV?$string_output_adapter@D@__crt_stdio_output@@@2@@__crt_stdio_output@@AEAA_NXZ 000000018008a290 f i libucrtd:output.obj
 0001:00089330       ?state_case_precision@?$output_processor@DV?$string_output_adapter@D@__crt_stdio_output@@V?$positional_parameter_base@DV?$string_output_adapter@D@__crt_stdio_output@@@2@@__crt_stdio_output@@AEAA_NXZ 000000018008a330 f i libucrtd:output.obj
 0001:000893d0       ?state_case_precision@?$output_processor@DV?$string_output_adapter@D@__crt_stdio_output@@V?$standard_base@DV?$string_output_adapter@D@__crt_stdio_output@@@2@@__crt_stdio_output@@AEAA_NXZ 000000018008a3d0 f i libucrtd:output.obj
 0001:00089470       ?state_case_precision@?$output_processor@_WV?$stream_output_adapter@_W@__crt_stdio_output@@V?$format_validation_base@_WV?$stream_output_adapter@_W@__crt_stdio_output@@@2@@__crt_stdio_output@@AEAA_NXZ 000000018008a470 f i libucrtd:output.obj
 0001:00089510       ?state_case_precision@?$output_processor@_WV?$stream_output_adapter@_W@__crt_stdio_output@@V?$positional_parameter_base@_WV?$stream_output_adapter@_W@__crt_stdio_output@@@2@@__crt_stdio_output@@AEAA_NXZ 000000018008a510 f i libucrtd:output.obj
 0001:000895b0       ?state_case_precision@?$output_processor@_WV?$stream_output_adapter@_W@__crt_stdio_output@@V?$standard_base@_WV?$stream_output_adapter@_W@__crt_stdio_output@@@2@@__crt_stdio_output@@AEAA_NXZ 000000018008a5b0 f i libucrtd:output.obj
 0001:00089650       ?state_case_precision@?$output_processor@_WV?$string_output_adapter@_W@__crt_stdio_output@@V?$format_validation_base@_WV?$string_output_adapter@_W@__crt_stdio_output@@@2@@__crt_stdio_output@@AEAA_NXZ 000000018008a650 f i libucrtd:output.obj
 0001:000896f0       ?state_case_precision@?$output_processor@_WV?$string_output_adapter@_W@__crt_stdio_output@@V?$positional_parameter_base@_WV?$string_output_adapter@_W@__crt_stdio_output@@@2@@__crt_stdio_output@@AEAA_NXZ 000000018008a6f0 f i libucrtd:output.obj
 0001:00089790       ?state_case_precision@?$output_processor@_WV?$string_output_adapter@_W@__crt_stdio_output@@V?$standard_base@_WV?$string_output_adapter@_W@__crt_stdio_output@@@2@@__crt_stdio_output@@AEAA_NXZ 000000018008a790 f i libucrtd:output.obj
 0001:00089830       ?state_case_size@?$output_processor@DV?$stream_output_adapter@D@__crt_stdio_output@@V?$format_validation_base@DV?$stream_output_adapter@D@__crt_stdio_output@@@2@@__crt_stdio_output@@AEAA_NXZ 000000018008a830 f i libucrtd:output.obj
 0001:00089dc0       ?state_case_size@?$output_processor@DV?$stream_output_adapter@D@__crt_stdio_output@@V?$positional_parameter_base@DV?$stream_output_adapter@D@__crt_stdio_output@@@2@@__crt_stdio_output@@AEAA_NXZ 000000018008adc0 f i libucrtd:output.obj
 0001:0008a350       ?state_case_size@?$output_processor@DV?$stream_output_adapter@D@__crt_stdio_output@@V?$standard_base@DV?$stream_output_adapter@D@__crt_stdio_output@@@2@@__crt_stdio_output@@AEAA_NXZ 000000018008b350 f i libucrtd:output.obj
 0001:0008a8e0       ?state_case_size@?$output_processor@DV?$string_output_adapter@D@__crt_stdio_output@@V?$format_validation_base@DV?$string_output_adapter@D@__crt_stdio_output@@@2@@__crt_stdio_output@@AEAA_NXZ 000000018008b8e0 f i libucrtd:output.obj
 0001:0008ae70       ?state_case_size@?$output_processor@DV?$string_output_adapter@D@__crt_stdio_output@@V?$positional_parameter_base@DV?$string_output_adapter@D@__crt_stdio_output@@@2@@__crt_stdio_output@@AEAA_NXZ 000000018008be70 f i libucrtd:output.obj
 0001:0008b400       ?state_case_size@?$output_processor@DV?$string_output_adapter@D@__crt_stdio_output@@V?$standard_base@DV?$string_output_adapter@D@__crt_stdio_output@@@2@@__crt_stdio_output@@AEAA_NXZ 000000018008c400 f i libucrtd:output.obj
 0001:0008b990       ?state_case_size@?$output_processor@_WV?$stream_output_adapter@_W@__crt_stdio_output@@V?$format_validation_base@_WV?$stream_output_adapter@_W@__crt_stdio_output@@@2@@__crt_stdio_output@@AEAA_NXZ 000000018008c990 f i libucrtd:output.obj
 0001:0008bf20       ?state_case_size@?$output_processor@_WV?$stream_output_adapter@_W@__crt_stdio_output@@V?$positional_parameter_base@_WV?$stream_output_adapter@_W@__crt_stdio_output@@@2@@__crt_stdio_output@@AEAA_NXZ 000000018008cf20 f i libucrtd:output.obj
 0001:0008c4b0       ?state_case_size@?$output_processor@_WV?$stream_output_adapter@_W@__crt_stdio_output@@V?$standard_base@_WV?$stream_output_adapter@_W@__crt_stdio_output@@@2@@__crt_stdio_output@@AEAA_NXZ 000000018008d4b0 f i libucrtd:output.obj
 0001:0008ca40       ?state_case_size@?$output_processor@_WV?$string_output_adapter@_W@__crt_stdio_output@@V?$format_validation_base@_WV?$string_output_adapter@_W@__crt_stdio_output@@@2@@__crt_stdio_output@@AEAA_NXZ 000000018008da40 f i libucrtd:output.obj
 0001:0008cfd0       ?state_case_size@?$output_processor@_WV?$string_output_adapter@_W@__crt_stdio_output@@V?$positional_parameter_base@_WV?$string_output_adapter@_W@__crt_stdio_output@@@2@@__crt_stdio_output@@AEAA_NXZ 000000018008dfd0 f i libucrtd:output.obj
 0001:0008d560       ?state_case_size@?$output_processor@_WV?$string_output_adapter@_W@__crt_stdio_output@@V?$standard_base@_WV?$string_output_adapter@_W@__crt_stdio_output@@@2@@__crt_stdio_output@@AEAA_NXZ 000000018008e560 f i libucrtd:output.obj
 0001:0008daf0       ?state_case_type@?$output_processor@DV?$stream_output_adapter@D@__crt_stdio_output@@V?$format_validation_base@DV?$stream_output_adapter@D@__crt_stdio_output@@@2@@__crt_stdio_output@@AEAA_NXZ 000000018008eaf0 f i libucrtd:output.obj
 0001:0008e0a0       ?state_case_type@?$output_processor@DV?$stream_output_adapter@D@__crt_stdio_output@@V?$positional_parameter_base@DV?$stream_output_adapter@D@__crt_stdio_output@@@2@@__crt_stdio_output@@AEAA_NXZ 000000018008f0a0 f i libucrtd:output.obj
 0001:0008e650       ?state_case_type@?$output_processor@DV?$stream_output_adapter@D@__crt_stdio_output@@V?$standard_base@DV?$stream_output_adapter@D@__crt_stdio_output@@@2@@__crt_stdio_output@@AEAA_NXZ 000000018008f650 f i libucrtd:output.obj
 0001:0008ec00       ?state_case_type@?$output_processor@DV?$string_output_adapter@D@__crt_stdio_output@@V?$format_validation_base@DV?$string_output_adapter@D@__crt_stdio_output@@@2@@__crt_stdio_output@@AEAA_NXZ 000000018008fc00 f i libucrtd:output.obj
 0001:0008f1b0       ?state_case_type@?$output_processor@DV?$string_output_adapter@D@__crt_stdio_output@@V?$positional_parameter_base@DV?$string_output_adapter@D@__crt_stdio_output@@@2@@__crt_stdio_output@@AEAA_NXZ 00000001800901b0 f i libucrtd:output.obj
 0001:0008f760       ?state_case_type@?$output_processor@DV?$string_output_adapter@D@__crt_stdio_output@@V?$standard_base@DV?$string_output_adapter@D@__crt_stdio_output@@@2@@__crt_stdio_output@@AEAA_NXZ 0000000180090760 f i libucrtd:output.obj
 0001:0008fd10       ?state_case_type@?$output_processor@_WV?$stream_output_adapter@_W@__crt_stdio_output@@V?$format_validation_base@_WV?$stream_output_adapter@_W@__crt_stdio_output@@@2@@__crt_stdio_output@@AEAA_NXZ 0000000180090d10 f i libucrtd:output.obj
 0001:00090310       ?state_case_type@?$output_processor@_WV?$stream_output_adapter@_W@__crt_stdio_output@@V?$positional_parameter_base@_WV?$stream_output_adapter@_W@__crt_stdio_output@@@2@@__crt_stdio_output@@AEAA_NXZ 0000000180091310 f i libucrtd:output.obj
 0001:00090910       ?state_case_type@?$output_processor@_WV?$stream_output_adapter@_W@__crt_stdio_output@@V?$standard_base@_WV?$stream_output_adapter@_W@__crt_stdio_output@@@2@@__crt_stdio_output@@AEAA_NXZ 0000000180091910 f i libucrtd:output.obj
 0001:00090f10       ?state_case_type@?$output_processor@_WV?$string_output_adapter@_W@__crt_stdio_output@@V?$format_validation_base@_WV?$string_output_adapter@_W@__crt_stdio_output@@@2@@__crt_stdio_output@@AEAA_NXZ 0000000180091f10 f i libucrtd:output.obj
 0001:00091510       ?state_case_type@?$output_processor@_WV?$string_output_adapter@_W@__crt_stdio_output@@V?$positional_parameter_base@_WV?$string_output_adapter@_W@__crt_stdio_output@@@2@@__crt_stdio_output@@AEAA_NXZ 0000000180092510 f i libucrtd:output.obj
 0001:00091b10       ?state_case_type@?$output_processor@_WV?$string_output_adapter@_W@__crt_stdio_output@@V?$standard_base@_WV?$string_output_adapter@_W@__crt_stdio_output@@@2@@__crt_stdio_output@@AEAA_NXZ 0000000180092b10 f i libucrtd:output.obj
 0001:00092110       ?state_case_width@?$output_processor@DV?$stream_output_adapter@D@__crt_stdio_output@@V?$format_validation_base@DV?$stream_output_adapter@D@__crt_stdio_output@@@2@@__crt_stdio_output@@AEAA_NXZ 0000000180093110 f i libucrtd:output.obj
 0001:000921c0       ?state_case_width@?$output_processor@DV?$stream_output_adapter@D@__crt_stdio_output@@V?$positional_parameter_base@DV?$stream_output_adapter@D@__crt_stdio_output@@@2@@__crt_stdio_output@@AEAA_NXZ 00000001800931c0 f i libucrtd:output.obj
 0001:00092270       ?state_case_width@?$output_processor@DV?$stream_output_adapter@D@__crt_stdio_output@@V?$standard_base@DV?$stream_output_adapter@D@__crt_stdio_output@@@2@@__crt_stdio_output@@AEAA_NXZ 0000000180093270 f i libucrtd:output.obj
 0001:00092320       ?state_case_width@?$output_processor@DV?$string_output_adapter@D@__crt_stdio_output@@V?$format_validation_base@DV?$string_output_adapter@D@__crt_stdio_output@@@2@@__crt_stdio_output@@AEAA_NXZ 0000000180093320 f i libucrtd:output.obj
 0001:000923d0       ?state_case_width@?$output_processor@DV?$string_output_adapter@D@__crt_stdio_output@@V?$positional_parameter_base@DV?$string_output_adapter@D@__crt_stdio_output@@@2@@__crt_stdio_output@@AEAA_NXZ 00000001800933d0 f i libucrtd:output.obj
 0001:00092480       ?state_case_width@?$output_processor@DV?$string_output_adapter@D@__crt_stdio_output@@V?$standard_base@DV?$string_output_adapter@D@__crt_stdio_output@@@2@@__crt_stdio_output@@AEAA_NXZ 0000000180093480 f i libucrtd:output.obj
 0001:00092530       ?state_case_width@?$output_processor@_WV?$stream_output_adapter@_W@__crt_stdio_output@@V?$format_validation_base@_WV?$stream_output_adapter@_W@__crt_stdio_output@@@2@@__crt_stdio_output@@AEAA_NXZ 0000000180093530 f i libucrtd:output.obj
 0001:000925e0       ?state_case_width@?$output_processor@_WV?$stream_output_adapter@_W@__crt_stdio_output@@V?$positional_parameter_base@_WV?$stream_output_adapter@_W@__crt_stdio_output@@@2@@__crt_stdio_output@@AEAA_NXZ 00000001800935e0 f i libucrtd:output.obj
 0001:00092690       ?state_case_width@?$output_processor@_WV?$stream_output_adapter@_W@__crt_stdio_output@@V?$standard_base@_WV?$stream_output_adapter@_W@__crt_stdio_output@@@2@@__crt_stdio_output@@AEAA_NXZ 0000000180093690 f i libucrtd:output.obj
 0001:00092740       ?state_case_width@?$output_processor@_WV?$string_output_adapter@_W@__crt_stdio_output@@V?$format_validation_base@_WV?$string_output_adapter@_W@__crt_stdio_output@@@2@@__crt_stdio_output@@AEAA_NXZ 0000000180093740 f i libucrtd:output.obj
 0001:000927f0       ?state_case_width@?$output_processor@_WV?$string_output_adapter@_W@__crt_stdio_output@@V?$positional_parameter_base@_WV?$string_output_adapter@_W@__crt_stdio_output@@@2@@__crt_stdio_output@@AEAA_NXZ 00000001800937f0 f i libucrtd:output.obj
 0001:000928a0       ?state_case_width@?$output_processor@_WV?$string_output_adapter@_W@__crt_stdio_output@@V?$standard_base@_WV?$string_output_adapter@_W@__crt_stdio_output@@@2@@__crt_stdio_output@@AEAA_NXZ 00000001800938a0 f i libucrtd:output.obj
 0001:00092950       ?state_count@?$format_validation_base@DV?$stream_output_adapter@D@__crt_stdio_output@@@__crt_stdio_output@@KAIXZ 0000000180093950 f i libucrtd:output.obj
 0001:00092960       ?state_count@?$format_validation_base@DV?$string_output_adapter@D@__crt_stdio_output@@@__crt_stdio_output@@KAIXZ 0000000180093960 f i libucrtd:output.obj
 0001:00092970       ?state_count@?$format_validation_base@_WV?$stream_output_adapter@_W@__crt_stdio_output@@@__crt_stdio_output@@KAIXZ 0000000180093970 f i libucrtd:output.obj
 0001:00092980       ?state_count@?$format_validation_base@_WV?$string_output_adapter@_W@__crt_stdio_output@@@__crt_stdio_output@@KAIXZ 0000000180093980 f i libucrtd:output.obj
 0001:00092990       ?state_count@?$standard_base@DV?$stream_output_adapter@D@__crt_stdio_output@@@__crt_stdio_output@@KAIXZ 0000000180093990 f i libucrtd:output.obj
 0001:000929a0       ?state_count@?$standard_base@DV?$string_output_adapter@D@__crt_stdio_output@@@__crt_stdio_output@@KAIXZ 00000001800939a0 f i libucrtd:output.obj
 0001:000929b0       ?state_count@?$standard_base@_WV?$stream_output_adapter@_W@__crt_stdio_output@@@__crt_stdio_output@@KAIXZ 00000001800939b0 f i libucrtd:output.obj
 0001:000929c0       ?state_count@?$standard_base@_WV?$string_output_adapter@_W@__crt_stdio_output@@@__crt_stdio_output@@KAIXZ 00000001800939c0 f i libucrtd:output.obj
 0001:000929d0       ?state_transition_table@?$format_validation_base@DV?$stream_output_adapter@D@__crt_stdio_output@@@__crt_stdio_output@@KAPEBEXZ 00000001800939d0 f i libucrtd:output.obj
 0001:000929e0       ?state_transition_table@?$format_validation_base@DV?$string_output_adapter@D@__crt_stdio_output@@@__crt_stdio_output@@KAPEBEXZ 00000001800939e0 f i libucrtd:output.obj
 0001:000929f0       ?state_transition_table@?$format_validation_base@_WV?$stream_output_adapter@_W@__crt_stdio_output@@@__crt_stdio_output@@KAPEBEXZ 00000001800939f0 f i libucrtd:output.obj
 0001:00092a00       ?state_transition_table@?$format_validation_base@_WV?$string_output_adapter@_W@__crt_stdio_output@@@__crt_stdio_output@@KAPEBEXZ 0000000180093a00 f i libucrtd:output.obj
 0001:00092a10       ?state_transition_table@?$standard_base@DV?$stream_output_adapter@D@__crt_stdio_output@@@__crt_stdio_output@@KAPEBEXZ 0000000180093a10 f i libucrtd:output.obj
 0001:00092a20       ?state_transition_table@?$standard_base@DV?$string_output_adapter@D@__crt_stdio_output@@@__crt_stdio_output@@KAPEBEXZ 0000000180093a20 f i libucrtd:output.obj
 0001:00092a30       ?state_transition_table@?$standard_base@_WV?$stream_output_adapter@_W@__crt_stdio_output@@@__crt_stdio_output@@KAPEBEXZ 0000000180093a30 f i libucrtd:output.obj
 0001:00092a40       ?state_transition_table@?$standard_base@_WV?$string_output_adapter@_W@__crt_stdio_output@@@__crt_stdio_output@@KAPEBEXZ 0000000180093a40 f i libucrtd:output.obj
 0001:00092a50       ?to_integer_size@__crt_stdio_output@@YA_KW4length_modifier@1@@Z 0000000180093a50 f i libucrtd:output.obj
 0001:00092b30       ?type_case_X@?$output_processor@DV?$stream_output_adapter@D@__crt_stdio_output@@V?$format_validation_base@DV?$stream_output_adapter@D@__crt_stdio_output@@@2@@__crt_stdio_output@@AEAA_NXZ 0000000180093b30 f i libucrtd:output.obj
 0001:00092b60       ?type_case_X@?$output_processor@DV?$stream_output_adapter@D@__crt_stdio_output@@V?$positional_parameter_base@DV?$stream_output_adapter@D@__crt_stdio_output@@@2@@__crt_stdio_output@@AEAA_NXZ 0000000180093b60 f i libucrtd:output.obj
 0001:00092b90       ?type_case_X@?$output_processor@DV?$stream_output_adapter@D@__crt_stdio_output@@V?$standard_base@DV?$stream_output_adapter@D@__crt_stdio_output@@@2@@__crt_stdio_output@@AEAA_NXZ 0000000180093b90 f i libucrtd:output.obj
 0001:00092bc0       ?type_case_X@?$output_processor@DV?$string_output_adapter@D@__crt_stdio_output@@V?$format_validation_base@DV?$string_output_adapter@D@__crt_stdio_output@@@2@@__crt_stdio_output@@AEAA_NXZ 0000000180093bc0 f i libucrtd:output.obj
 0001:00092bf0       ?type_case_X@?$output_processor@DV?$string_output_adapter@D@__crt_stdio_output@@V?$positional_parameter_base@DV?$string_output_adapter@D@__crt_stdio_output@@@2@@__crt_stdio_output@@AEAA_NXZ 0000000180093bf0 f i libucrtd:output.obj
 0001:00092c20       ?type_case_X@?$output_processor@DV?$string_output_adapter@D@__crt_stdio_output@@V?$standard_base@DV?$string_output_adapter@D@__crt_stdio_output@@@2@@__crt_stdio_output@@AEAA_NXZ 0000000180093c20 f i libucrtd:output.obj
 0001:00092c50       ?type_case_X@?$output_processor@_WV?$stream_output_adapter@_W@__crt_stdio_output@@V?$format_validation_base@_WV?$stream_output_adapter@_W@__crt_stdio_output@@@2@@__crt_stdio_output@@AEAA_NXZ 0000000180093c50 f i libucrtd:output.obj
 0001:00092c80       ?type_case_X@?$output_processor@_WV?$stream_output_adapter@_W@__crt_stdio_output@@V?$positional_parameter_base@_WV?$stream_output_adapter@_W@__crt_stdio_output@@@2@@__crt_stdio_output@@AEAA_NXZ 0000000180093c80 f i libucrtd:output.obj
 0001:00092cb0       ?type_case_X@?$output_processor@_WV?$stream_output_adapter@_W@__crt_stdio_output@@V?$standard_base@_WV?$stream_output_adapter@_W@__crt_stdio_output@@@2@@__crt_stdio_output@@AEAA_NXZ 0000000180093cb0 f i libucrtd:output.obj
 0001:00092ce0       ?type_case_X@?$output_processor@_WV?$string_output_adapter@_W@__crt_stdio_output@@V?$format_validation_base@_WV?$string_output_adapter@_W@__crt_stdio_output@@@2@@__crt_stdio_output@@AEAA_NXZ 0000000180093ce0 f i libucrtd:output.obj
 0001:00092d10       ?type_case_X@?$output_processor@_WV?$string_output_adapter@_W@__crt_stdio_output@@V?$positional_parameter_base@_WV?$string_output_adapter@_W@__crt_stdio_output@@@2@@__crt_stdio_output@@AEAA_NXZ 0000000180093d10 f i libucrtd:output.obj
 0001:00092d40       ?type_case_X@?$output_processor@_WV?$string_output_adapter@_W@__crt_stdio_output@@V?$standard_base@_WV?$string_output_adapter@_W@__crt_stdio_output@@@2@@__crt_stdio_output@@AEAA_NXZ 0000000180093d40 f i libucrtd:output.obj
 0001:00092d70       ?type_case_Z@?$output_processor@DV?$stream_output_adapter@D@__crt_stdio_output@@V?$format_validation_base@DV?$stream_output_adapter@D@__crt_stdio_output@@@2@@__crt_stdio_output@@AEAA_NXZ 0000000180093d70 f i libucrtd:output.obj
 0001:00092ed0       ?type_case_Z@?$output_processor@DV?$stream_output_adapter@D@__crt_stdio_output@@V?$positional_parameter_base@DV?$stream_output_adapter@D@__crt_stdio_output@@@2@@__crt_stdio_output@@AEAA_NXZ 0000000180093ed0 f i libucrtd:output.obj
 0001:00093030       ?type_case_Z@?$output_processor@DV?$stream_output_adapter@D@__crt_stdio_output@@V?$standard_base@DV?$stream_output_adapter@D@__crt_stdio_output@@@2@@__crt_stdio_output@@AEAA_NXZ 0000000180094030 f i libucrtd:output.obj
 0001:00093190       ?type_case_Z@?$output_processor@DV?$string_output_adapter@D@__crt_stdio_output@@V?$format_validation_base@DV?$string_output_adapter@D@__crt_stdio_output@@@2@@__crt_stdio_output@@AEAA_NXZ 0000000180094190 f i libucrtd:output.obj
 0001:000932f0       ?type_case_Z@?$output_processor@DV?$string_output_adapter@D@__crt_stdio_output@@V?$positional_parameter_base@DV?$string_output_adapter@D@__crt_stdio_output@@@2@@__crt_stdio_output@@AEAA_NXZ 00000001800942f0 f i libucrtd:output.obj
 0001:00093450       ?type_case_Z@?$output_processor@DV?$string_output_adapter@D@__crt_stdio_output@@V?$standard_base@DV?$string_output_adapter@D@__crt_stdio_output@@@2@@__crt_stdio_output@@AEAA_NXZ 0000000180094450 f i libucrtd:output.obj
 0001:000935b0       ?type_case_Z@?$output_processor@_WV?$stream_output_adapter@_W@__crt_stdio_output@@V?$format_validation_base@_WV?$stream_output_adapter@_W@__crt_stdio_output@@@2@@__crt_stdio_output@@AEAA_NXZ 00000001800945b0 f i libucrtd:output.obj
 0001:00093710       ?type_case_Z@?$output_processor@_WV?$stream_output_adapter@_W@__crt_stdio_output@@V?$positional_parameter_base@_WV?$stream_output_adapter@_W@__crt_stdio_output@@@2@@__crt_stdio_output@@AEAA_NXZ 0000000180094710 f i libucrtd:output.obj
 0001:00093870       ?type_case_Z@?$output_processor@_WV?$stream_output_adapter@_W@__crt_stdio_output@@V?$standard_base@_WV?$stream_output_adapter@_W@__crt_stdio_output@@@2@@__crt_stdio_output@@AEAA_NXZ 0000000180094870 f i libucrtd:output.obj
 0001:000939d0       ?type_case_Z@?$output_processor@_WV?$string_output_adapter@_W@__crt_stdio_output@@V?$format_validation_base@_WV?$string_output_adapter@_W@__crt_stdio_output@@@2@@__crt_stdio_output@@AEAA_NXZ 00000001800949d0 f i libucrtd:output.obj
 0001:00093b30       ?type_case_Z@?$output_processor@_WV?$string_output_adapter@_W@__crt_stdio_output@@V?$positional_parameter_base@_WV?$string_output_adapter@_W@__crt_stdio_output@@@2@@__crt_stdio_output@@AEAA_NXZ 0000000180094b30 f i libucrtd:output.obj
 0001:00093c90       ?type_case_Z@?$output_processor@_WV?$string_output_adapter@_W@__crt_stdio_output@@V?$standard_base@_WV?$string_output_adapter@_W@__crt_stdio_output@@@2@@__crt_stdio_output@@AEAA_NXZ 0000000180094c90 f i libucrtd:output.obj
 0001:00093df0       ?type_case_a@?$output_processor@DV?$stream_output_adapter@D@__crt_stdio_output@@V?$format_validation_base@DV?$stream_output_adapter@D@__crt_stdio_output@@@2@@__crt_stdio_output@@AEAA_NXZ 0000000180094df0 f i libucrtd:output.obj
 0001:00094290       ?type_case_a@?$output_processor@DV?$stream_output_adapter@D@__crt_stdio_output@@V?$positional_parameter_base@DV?$stream_output_adapter@D@__crt_stdio_output@@@2@@__crt_stdio_output@@AEAA_NXZ 0000000180095290 f i libucrtd:output.obj
 0001:00094730       ?type_case_a@?$output_processor@DV?$stream_output_adapter@D@__crt_stdio_output@@V?$standard_base@DV?$stream_output_adapter@D@__crt_stdio_output@@@2@@__crt_stdio_output@@AEAA_NXZ 0000000180095730 f i libucrtd:output.obj
 0001:00094bd0       ?type_case_a@?$output_processor@DV?$string_output_adapter@D@__crt_stdio_output@@V?$format_validation_base@DV?$string_output_adapter@D@__crt_stdio_output@@@2@@__crt_stdio_output@@AEAA_NXZ 0000000180095bd0 f i libucrtd:output.obj
 0001:00095070       ?type_case_a@?$output_processor@DV?$string_output_adapter@D@__crt_stdio_output@@V?$positional_parameter_base@DV?$string_output_adapter@D@__crt_stdio_output@@@2@@__crt_stdio_output@@AEAA_NXZ 0000000180096070 f i libucrtd:output.obj
 0001:00095510       ?type_case_a@?$output_processor@DV?$string_output_adapter@D@__crt_stdio_output@@V?$standard_base@DV?$string_output_adapter@D@__crt_stdio_output@@@2@@__crt_stdio_output@@AEAA_NXZ 0000000180096510 f i libucrtd:output.obj
 0001:000959b0       ?type_case_a@?$output_processor@_WV?$stream_output_adapter@_W@__crt_stdio_output@@V?$format_validation_base@_WV?$stream_output_adapter@_W@__crt_stdio_output@@@2@@__crt_stdio_output@@AEAA_NXZ 00000001800969b0 f i libucrtd:output.obj
 0001:00095e50       ?type_case_a@?$output_processor@_WV?$stream_output_adapter@_W@__crt_stdio_output@@V?$positional_parameter_base@_WV?$stream_output_adapter@_W@__crt_stdio_output@@@2@@__crt_stdio_output@@AEAA_NXZ 0000000180096e50 f i libucrtd:output.obj
 0001:000962f0       ?type_case_a@?$output_processor@_WV?$stream_output_adapter@_W@__crt_stdio_output@@V?$standard_base@_WV?$stream_output_adapter@_W@__crt_stdio_output@@@2@@__crt_stdio_output@@AEAA_NXZ 00000001800972f0 f i libucrtd:output.obj
 0001:00096790       ?type_case_a@?$output_processor@_WV?$string_output_adapter@_W@__crt_stdio_output@@V?$format_validation_base@_WV?$string_output_adapter@_W@__crt_stdio_output@@@2@@__crt_stdio_output@@AEAA_NXZ 0000000180097790 f i libucrtd:output.obj
 0001:00096c30       ?type_case_a@?$output_processor@_WV?$string_output_adapter@_W@__crt_stdio_output@@V?$positional_parameter_base@_WV?$string_output_adapter@_W@__crt_stdio_output@@@2@@__crt_stdio_output@@AEAA_NXZ 0000000180097c30 f i libucrtd:output.obj
 0001:000970d0       ?type_case_a@?$output_processor@_WV?$string_output_adapter@_W@__crt_stdio_output@@V?$standard_base@_WV?$string_output_adapter@_W@__crt_stdio_output@@@2@@__crt_stdio_output@@AEAA_NXZ 00000001800980d0 f i libucrtd:output.obj
 0001:00097570       ?type_case_c@?$output_processor@DV?$stream_output_adapter@D@__crt_stdio_output@@V?$format_validation_base@DV?$stream_output_adapter@D@__crt_stdio_output@@@2@@__crt_stdio_output@@AEAA_NXZ 0000000180098570 f i libucrtd:output.obj
 0001:00097590       ?type_case_c@?$output_processor@DV?$stream_output_adapter@D@__crt_stdio_output@@V?$positional_parameter_base@DV?$stream_output_adapter@D@__crt_stdio_output@@@2@@__crt_stdio_output@@AEAA_NXZ 0000000180098590 f i libucrtd:output.obj
 0001:000975b0       ?type_case_c@?$output_processor@DV?$stream_output_adapter@D@__crt_stdio_output@@V?$standard_base@DV?$stream_output_adapter@D@__crt_stdio_output@@@2@@__crt_stdio_output@@AEAA_NXZ 00000001800985b0 f i libucrtd:output.obj
 0001:000975d0       ?type_case_c@?$output_processor@DV?$string_output_adapter@D@__crt_stdio_output@@V?$format_validation_base@DV?$string_output_adapter@D@__crt_stdio_output@@@2@@__crt_stdio_output@@AEAA_NXZ 00000001800985d0 f i libucrtd:output.obj
 0001:000975f0       ?type_case_c@?$output_processor@DV?$string_output_adapter@D@__crt_stdio_output@@V?$positional_parameter_base@DV?$string_output_adapter@D@__crt_stdio_output@@@2@@__crt_stdio_output@@AEAA_NXZ 00000001800985f0 f i libucrtd:output.obj
 0001:00097610       ?type_case_c@?$output_processor@DV?$string_output_adapter@D@__crt_stdio_output@@V?$standard_base@DV?$string_output_adapter@D@__crt_stdio_output@@@2@@__crt_stdio_output@@AEAA_NXZ 0000000180098610 f i libucrtd:output.obj
 0001:00097630       ?type_case_c@?$output_processor@_WV?$stream_output_adapter@_W@__crt_stdio_output@@V?$format_validation_base@_WV?$stream_output_adapter@_W@__crt_stdio_output@@@2@@__crt_stdio_output@@AEAA_NXZ 0000000180098630 f i libucrtd:output.obj
 0001:00097650       ?type_case_c@?$output_processor@_WV?$stream_output_adapter@_W@__crt_stdio_output@@V?$positional_parameter_base@_WV?$stream_output_adapter@_W@__crt_stdio_output@@@2@@__crt_stdio_output@@AEAA_NXZ 0000000180098650 f i libucrtd:output.obj
 0001:00097670       ?type_case_c@?$output_processor@_WV?$stream_output_adapter@_W@__crt_stdio_output@@V?$standard_base@_WV?$stream_output_adapter@_W@__crt_stdio_output@@@2@@__crt_stdio_output@@AEAA_NXZ 0000000180098670 f i libucrtd:output.obj
 0001:00097690       ?type_case_c@?$output_processor@_WV?$string_output_adapter@_W@__crt_stdio_output@@V?$format_validation_base@_WV?$string_output_adapter@_W@__crt_stdio_output@@@2@@__crt_stdio_output@@AEAA_NXZ 0000000180098690 f i libucrtd:output.obj
 0001:000976b0       ?type_case_c@?$output_processor@_WV?$string_output_adapter@_W@__crt_stdio_output@@V?$positional_parameter_base@_WV?$string_output_adapter@_W@__crt_stdio_output@@@2@@__crt_stdio_output@@AEAA_NXZ 00000001800986b0 f i libucrtd:output.obj
 0001:000976d0       ?type_case_c@?$output_processor@_WV?$string_output_adapter@_W@__crt_stdio_output@@V?$standard_base@_WV?$string_output_adapter@_W@__crt_stdio_output@@@2@@__crt_stdio_output@@AEAA_NXZ 00000001800986d0 f i libucrtd:output.obj
 0001:000976f0       ?type_case_c_tchar@?$output_processor@DV?$stream_output_adapter@D@__crt_stdio_output@@V?$format_validation_base@DV?$stream_output_adapter@D@__crt_stdio_output@@@2@@__crt_stdio_output@@AEAA_ND@Z 00000001800986f0 f i libucrtd:output.obj
 0001:00097890       ?type_case_c_tchar@?$output_processor@DV?$stream_output_adapter@D@__crt_stdio_output@@V?$positional_parameter_base@DV?$stream_output_adapter@D@__crt_stdio_output@@@2@@__crt_stdio_output@@AEAA_ND@Z 0000000180098890 f i libucrtd:output.obj
 0001:00097a30       ?type_case_c_tchar@?$output_processor@DV?$stream_output_adapter@D@__crt_stdio_output@@V?$standard_base@DV?$stream_output_adapter@D@__crt_stdio_output@@@2@@__crt_stdio_output@@AEAA_ND@Z 0000000180098a30 f i libucrtd:output.obj
 0001:00097bd0       ?type_case_c_tchar@?$output_processor@DV?$string_output_adapter@D@__crt_stdio_output@@V?$format_validation_base@DV?$string_output_adapter@D@__crt_stdio_output@@@2@@__crt_stdio_output@@AEAA_ND@Z 0000000180098bd0 f i libucrtd:output.obj
 0001:00097d70       ?type_case_c_tchar@?$output_processor@DV?$string_output_adapter@D@__crt_stdio_output@@V?$positional_parameter_base@DV?$string_output_adapter@D@__crt_stdio_output@@@2@@__crt_stdio_output@@AEAA_ND@Z 0000000180098d70 f i libucrtd:output.obj
 0001:00097f10       ?type_case_c_tchar@?$output_processor@DV?$string_output_adapter@D@__crt_stdio_output@@V?$standard_base@DV?$string_output_adapter@D@__crt_stdio_output@@@2@@__crt_stdio_output@@AEAA_ND@Z 0000000180098f10 f i libucrtd:output.obj
 0001:000980b0       ?type_case_c_tchar@?$output_processor@_WV?$stream_output_adapter@_W@__crt_stdio_output@@V?$format_validation_base@_WV?$stream_output_adapter@_W@__crt_stdio_output@@@2@@__crt_stdio_output@@AEAA_N_W@Z 00000001800990b0 f i libucrtd:output.obj
 0001:00098230       ?type_case_c_tchar@?$output_processor@_WV?$stream_output_adapter@_W@__crt_stdio_output@@V?$positional_parameter_base@_WV?$stream_output_adapter@_W@__crt_stdio_output@@@2@@__crt_stdio_output@@AEAA_N_W@Z 0000000180099230 f i libucrtd:output.obj
 0001:000983b0       ?type_case_c_tchar@?$output_processor@_WV?$stream_output_adapter@_W@__crt_stdio_output@@V?$standard_base@_WV?$stream_output_adapter@_W@__crt_stdio_output@@@2@@__crt_stdio_output@@AEAA_N_W@Z 00000001800993b0 f i libucrtd:output.obj
 0001:00098530       ?type_case_c_tchar@?$output_processor@_WV?$string_output_adapter@_W@__crt_stdio_output@@V?$format_validation_base@_WV?$string_output_adapter@_W@__crt_stdio_output@@@2@@__crt_stdio_output@@AEAA_N_W@Z 0000000180099530 f i libucrtd:output.obj
 0001:000986b0       ?type_case_c_tchar@?$output_processor@_WV?$string_output_adapter@_W@__crt_stdio_output@@V?$positional_parameter_base@_WV?$string_output_adapter@_W@__crt_stdio_output@@@2@@__crt_stdio_output@@AEAA_N_W@Z 00000001800996b0 f i libucrtd:output.obj
 0001:00098830       ?type_case_c_tchar@?$output_processor@_WV?$string_output_adapter@_W@__crt_stdio_output@@V?$standard_base@_WV?$string_output_adapter@_W@__crt_stdio_output@@@2@@__crt_stdio_output@@AEAA_N_W@Z 0000000180099830 f i libucrtd:output.obj
 0001:000989b0       ?type_case_d@?$output_processor@DV?$stream_output_adapter@D@__crt_stdio_output@@V?$format_validation_base@DV?$stream_output_adapter@D@__crt_stdio_output@@@2@@__crt_stdio_output@@AEAA_NXZ 00000001800999b0 f i libucrtd:output.obj
 0001:000989f0       ?type_case_d@?$output_processor@DV?$stream_output_adapter@D@__crt_stdio_output@@V?$positional_parameter_base@DV?$stream_output_adapter@D@__crt_stdio_output@@@2@@__crt_stdio_output@@AEAA_NXZ 00000001800999f0 f i libucrtd:output.obj
 0001:00098a30       ?type_case_d@?$output_processor@DV?$stream_output_adapter@D@__crt_stdio_output@@V?$standard_base@DV?$stream_output_adapter@D@__crt_stdio_output@@@2@@__crt_stdio_output@@AEAA_NXZ 0000000180099a30 f i libucrtd:output.obj
 0001:00098a70       ?type_case_d@?$output_processor@DV?$string_output_adapter@D@__crt_stdio_output@@V?$format_validation_base@DV?$string_output_adapter@D@__crt_stdio_output@@@2@@__crt_stdio_output@@AEAA_NXZ 0000000180099a70 f i libucrtd:output.obj
 0001:00098ab0       ?type_case_d@?$output_processor@DV?$string_output_adapter@D@__crt_stdio_output@@V?$positional_parameter_base@DV?$string_output_adapter@D@__crt_stdio_output@@@2@@__crt_stdio_output@@AEAA_NXZ 0000000180099ab0 f i libucrtd:output.obj
 0001:00098af0       ?type_case_d@?$output_processor@DV?$string_output_adapter@D@__crt_stdio_output@@V?$standard_base@DV?$string_output_adapter@D@__crt_stdio_output@@@2@@__crt_stdio_output@@AEAA_NXZ 0000000180099af0 f i libucrtd:output.obj
 0001:00098b30       ?type_case_d@?$output_processor@_WV?$stream_output_adapter@_W@__crt_stdio_output@@V?$format_validation_base@_WV?$stream_output_adapter@_W@__crt_stdio_output@@@2@@__crt_stdio_output@@AEAA_NXZ 0000000180099b30 f i libucrtd:output.obj
 0001:00098b70       ?type_case_d@?$output_processor@_WV?$stream_output_adapter@_W@__crt_stdio_output@@V?$positional_parameter_base@_WV?$stream_output_adapter@_W@__crt_stdio_output@@@2@@__crt_stdio_output@@AEAA_NXZ 0000000180099b70 f i libucrtd:output.obj
 0001:00098bb0       ?type_case_d@?$output_processor@_WV?$stream_output_adapter@_W@__crt_stdio_output@@V?$standard_base@_WV?$stream_output_adapter@_W@__crt_stdio_output@@@2@@__crt_stdio_output@@AEAA_NXZ 0000000180099bb0 f i libucrtd:output.obj
 0001:00098bf0       ?type_case_d@?$output_processor@_WV?$string_output_adapter@_W@__crt_stdio_output@@V?$format_validation_base@_WV?$string_output_adapter@_W@__crt_stdio_output@@@2@@__crt_stdio_output@@AEAA_NXZ 0000000180099bf0 f i libucrtd:output.obj
 0001:00098c30       ?type_case_d@?$output_processor@_WV?$string_output_adapter@_W@__crt_stdio_output@@V?$positional_parameter_base@_WV?$string_output_adapter@_W@__crt_stdio_output@@@2@@__crt_stdio_output@@AEAA_NXZ 0000000180099c30 f i libucrtd:output.obj
 0001:00098c70       ?type_case_d@?$output_processor@_WV?$string_output_adapter@_W@__crt_stdio_output@@V?$standard_base@_WV?$string_output_adapter@_W@__crt_stdio_output@@@2@@__crt_stdio_output@@AEAA_NXZ 0000000180099c70 f i libucrtd:output.obj
 0001:00098cb0       ?type_case_integer@?$output_processor@DV?$stream_output_adapter@D@__crt_stdio_output@@V?$format_validation_base@DV?$stream_output_adapter@D@__crt_stdio_output@@@2@@__crt_stdio_output@@AEAA_NI_N@Z 0000000180099cb0 f i libucrtd:output.obj
 0001:000991f0       ?type_case_integer@?$output_processor@DV?$stream_output_adapter@D@__crt_stdio_output@@V?$positional_parameter_base@DV?$stream_output_adapter@D@__crt_stdio_output@@@2@@__crt_stdio_output@@AEAA_NI_N@Z 000000018009a1f0 f i libucrtd:output.obj
 0001:00099730       ?type_case_integer@?$output_processor@DV?$stream_output_adapter@D@__crt_stdio_output@@V?$standard_base@DV?$stream_output_adapter@D@__crt_stdio_output@@@2@@__crt_stdio_output@@AEAA_NI_N@Z 000000018009a730 f i libucrtd:output.obj
 0001:00099c70       ?type_case_integer@?$output_processor@DV?$string_output_adapter@D@__crt_stdio_output@@V?$format_validation_base@DV?$string_output_adapter@D@__crt_stdio_output@@@2@@__crt_stdio_output@@AEAA_NI_N@Z 000000018009ac70 f i libucrtd:output.obj
 0001:0009a1b0       ?type_case_integer@?$output_processor@DV?$string_output_adapter@D@__crt_stdio_output@@V?$positional_parameter_base@DV?$string_output_adapter@D@__crt_stdio_output@@@2@@__crt_stdio_output@@AEAA_NI_N@Z 000000018009b1b0 f i libucrtd:output.obj
 0001:0009a6f0       ?type_case_integer@?$output_processor@DV?$string_output_adapter@D@__crt_stdio_output@@V?$standard_base@DV?$string_output_adapter@D@__crt_stdio_output@@@2@@__crt_stdio_output@@AEAA_NI_N@Z 000000018009b6f0 f i libucrtd:output.obj
 0001:0009ac30       ?type_case_integer@?$output_processor@_WV?$stream_output_adapter@_W@__crt_stdio_output@@V?$format_validation_base@_WV?$stream_output_adapter@_W@__crt_stdio_output@@@2@@__crt_stdio_output@@AEAA_NI_N@Z 000000018009bc30 f i libucrtd:output.obj
 0001:0009b170       ?type_case_integer@?$output_processor@_WV?$stream_output_adapter@_W@__crt_stdio_output@@V?$positional_parameter_base@_WV?$stream_output_adapter@_W@__crt_stdio_output@@@2@@__crt_stdio_output@@AEAA_NI_N@Z 000000018009c170 f i libucrtd:output.obj
 0001:0009b6b0       ?type_case_integer@?$output_processor@_WV?$stream_output_adapter@_W@__crt_stdio_output@@V?$standard_base@_WV?$stream_output_adapter@_W@__crt_stdio_output@@@2@@__crt_stdio_output@@AEAA_NI_N@Z 000000018009c6b0 f i libucrtd:output.obj
 0001:0009bbf0       ?type_case_integer@?$output_processor@_WV?$string_output_adapter@_W@__crt_stdio_output@@V?$format_validation_base@_WV?$string_output_adapter@_W@__crt_stdio_output@@@2@@__crt_stdio_output@@AEAA_NI_N@Z 000000018009cbf0 f i libucrtd:output.obj
 0001:0009c130       ?type_case_integer@?$output_processor@_WV?$string_output_adapter@_W@__crt_stdio_output@@V?$positional_parameter_base@_WV?$string_output_adapter@_W@__crt_stdio_output@@@2@@__crt_stdio_output@@AEAA_NI_N@Z 000000018009d130 f i libucrtd:output.obj
 0001:0009c670       ?type_case_integer@?$output_processor@_WV?$string_output_adapter@_W@__crt_stdio_output@@V?$standard_base@_WV?$string_output_adapter@_W@__crt_stdio_output@@@2@@__crt_stdio_output@@AEAA_NI_N@Z 000000018009d670 f i libucrtd:output.obj
 0001:0009cbb0       ?type_case_n@?$output_processor@DV?$stream_output_adapter@D@__crt_stdio_output@@V?$format_validation_base@DV?$stream_output_adapter@D@__crt_stdio_output@@@2@@__crt_stdio_output@@AEAA_NXZ 000000018009dbb0 f i libucrtd:output.obj
 0001:0009ce80       ?type_case_n@?$output_processor@DV?$stream_output_adapter@D@__crt_stdio_output@@V?$positional_parameter_base@DV?$stream_output_adapter@D@__crt_stdio_output@@@2@@__crt_stdio_output@@AEAA_NXZ 000000018009de80 f i libucrtd:output.obj
 0001:0009d150       ?type_case_n@?$output_processor@DV?$stream_output_adapter@D@__crt_stdio_output@@V?$standard_base@DV?$stream_output_adapter@D@__crt_stdio_output@@@2@@__crt_stdio_output@@AEAA_NXZ 000000018009e150 f i libucrtd:output.obj
 0001:0009d420       ?type_case_n@?$output_processor@DV?$string_output_adapter@D@__crt_stdio_output@@V?$format_validation_base@DV?$string_output_adapter@D@__crt_stdio_output@@@2@@__crt_stdio_output@@AEAA_NXZ 000000018009e420 f i libucrtd:output.obj
 0001:0009d6f0       ?type_case_n@?$output_processor@DV?$string_output_adapter@D@__crt_stdio_output@@V?$positional_parameter_base@DV?$string_output_adapter@D@__crt_stdio_output@@@2@@__crt_stdio_output@@AEAA_NXZ 000000018009e6f0 f i libucrtd:output.obj
 0001:0009d9c0       ?type_case_n@?$output_processor@DV?$string_output_adapter@D@__crt_stdio_output@@V?$standard_base@DV?$string_output_adapter@D@__crt_stdio_output@@@2@@__crt_stdio_output@@AEAA_NXZ 000000018009e9c0 f i libucrtd:output.obj
 0001:0009dc90       ?type_case_n@?$output_processor@_WV?$stream_output_adapter@_W@__crt_stdio_output@@V?$format_validation_base@_WV?$stream_output_adapter@_W@__crt_stdio_output@@@2@@__crt_stdio_output@@AEAA_NXZ 000000018009ec90 f i libucrtd:output.obj
 0001:0009df60       ?type_case_n@?$output_processor@_WV?$stream_output_adapter@_W@__crt_stdio_output@@V?$positional_parameter_base@_WV?$stream_output_adapter@_W@__crt_stdio_output@@@2@@__crt_stdio_output@@AEAA_NXZ 000000018009ef60 f i libucrtd:output.obj
 0001:0009e230       ?type_case_n@?$output_processor@_WV?$stream_output_adapter@_W@__crt_stdio_output@@V?$standard_base@_WV?$stream_output_adapter@_W@__crt_stdio_output@@@2@@__crt_stdio_output@@AEAA_NXZ 000000018009f230 f i libucrtd:output.obj
 0001:0009e500       ?type_case_n@?$output_processor@_WV?$string_output_adapter@_W@__crt_stdio_output@@V?$format_validation_base@_WV?$string_output_adapter@_W@__crt_stdio_output@@@2@@__crt_stdio_output@@AEAA_NXZ 000000018009f500 f i libucrtd:output.obj
 0001:0009e7d0       ?type_case_n@?$output_processor@_WV?$string_output_adapter@_W@__crt_stdio_output@@V?$positional_parameter_base@_WV?$string_output_adapter@_W@__crt_stdio_output@@@2@@__crt_stdio_output@@AEAA_NXZ 000000018009f7d0 f i libucrtd:output.obj
 0001:0009eaa0       ?type_case_n@?$output_processor@_WV?$string_output_adapter@_W@__crt_stdio_output@@V?$standard_base@_WV?$string_output_adapter@_W@__crt_stdio_output@@@2@@__crt_stdio_output@@AEAA_NXZ 000000018009faa0 f i libucrtd:output.obj
 0001:0009ed70       ?type_case_o@?$output_processor@DV?$stream_output_adapter@D@__crt_stdio_output@@V?$format_validation_base@DV?$stream_output_adapter@D@__crt_stdio_output@@@2@@__crt_stdio_output@@AEAA_NXZ 000000018009fd70 f i libucrtd:output.obj
 0001:0009edd0       ?type_case_o@?$output_processor@DV?$stream_output_adapter@D@__crt_stdio_output@@V?$positional_parameter_base@DV?$stream_output_adapter@D@__crt_stdio_output@@@2@@__crt_stdio_output@@AEAA_NXZ 000000018009fdd0 f i libucrtd:output.obj
 0001:0009ee30       ?type_case_o@?$output_processor@DV?$stream_output_adapter@D@__crt_stdio_output@@V?$standard_base@DV?$stream_output_adapter@D@__crt_stdio_output@@@2@@__crt_stdio_output@@AEAA_NXZ 000000018009fe30 f i libucrtd:output.obj
 0001:0009ee90       ?type_case_o@?$output_processor@DV?$string_output_adapter@D@__crt_stdio_output@@V?$format_validation_base@DV?$string_output_adapter@D@__crt_stdio_output@@@2@@__crt_stdio_output@@AEAA_NXZ 000000018009fe90 f i libucrtd:output.obj
 0001:0009eef0       ?type_case_o@?$output_processor@DV?$string_output_adapter@D@__crt_stdio_output@@V?$positional_parameter_base@DV?$string_output_adapter@D@__crt_stdio_output@@@2@@__crt_stdio_output@@AEAA_NXZ 000000018009fef0 f i libucrtd:output.obj
 0001:0009ef50       ?type_case_o@?$output_processor@DV?$string_output_adapter@D@__crt_stdio_output@@V?$standard_base@DV?$string_output_adapter@D@__crt_stdio_output@@@2@@__crt_stdio_output@@AEAA_NXZ 000000018009ff50 f i libucrtd:output.obj
 0001:0009efb0       ?type_case_o@?$output_processor@_WV?$stream_output_adapter@_W@__crt_stdio_output@@V?$format_validation_base@_WV?$stream_output_adapter@_W@__crt_stdio_output@@@2@@__crt_stdio_output@@AEAA_NXZ 000000018009ffb0 f i libucrtd:output.obj
 0001:0009f010       ?type_case_o@?$output_processor@_WV?$stream_output_adapter@_W@__crt_stdio_output@@V?$positional_parameter_base@_WV?$stream_output_adapter@_W@__crt_stdio_output@@@2@@__crt_stdio_output@@AEAA_NXZ 00000001800a0010 f i libucrtd:output.obj
 0001:0009f070       ?type_case_o@?$output_processor@_WV?$stream_output_adapter@_W@__crt_stdio_output@@V?$standard_base@_WV?$stream_output_adapter@_W@__crt_stdio_output@@@2@@__crt_stdio_output@@AEAA_NXZ 00000001800a0070 f i libucrtd:output.obj
 0001:0009f0d0       ?type_case_o@?$output_processor@_WV?$string_output_adapter@_W@__crt_stdio_output@@V?$format_validation_base@_WV?$string_output_adapter@_W@__crt_stdio_output@@@2@@__crt_stdio_output@@AEAA_NXZ 00000001800a00d0 f i libucrtd:output.obj
 0001:0009f130       ?type_case_o@?$output_processor@_WV?$string_output_adapter@_W@__crt_stdio_output@@V?$positional_parameter_base@_WV?$string_output_adapter@_W@__crt_stdio_output@@@2@@__crt_stdio_output@@AEAA_NXZ 00000001800a0130 f i libucrtd:output.obj
 0001:0009f190       ?type_case_o@?$output_processor@_WV?$string_output_adapter@_W@__crt_stdio_output@@V?$standard_base@_WV?$string_output_adapter@_W@__crt_stdio_output@@@2@@__crt_stdio_output@@AEAA_NXZ 00000001800a0190 f i libucrtd:output.obj
 0001:0009f1f0       ?type_case_p@?$output_processor@DV?$stream_output_adapter@D@__crt_stdio_output@@V?$format_validation_base@DV?$stream_output_adapter@D@__crt_stdio_output@@@2@@__crt_stdio_output@@AEAA_NXZ 00000001800a01f0 f i libucrtd:output.obj
 0001:0009f240       ?type_case_p@?$output_processor@DV?$stream_output_adapter@D@__crt_stdio_output@@V?$positional_parameter_base@DV?$stream_output_adapter@D@__crt_stdio_output@@@2@@__crt_stdio_output@@AEAA_NXZ 00000001800a0240 f i libucrtd:output.obj
 0001:0009f290       ?type_case_p@?$output_processor@DV?$stream_output_adapter@D@__crt_stdio_output@@V?$standard_base@DV?$stream_output_adapter@D@__crt_stdio_output@@@2@@__crt_stdio_output@@AEAA_NXZ 00000001800a0290 f i libucrtd:output.obj
 0001:0009f2e0       ?type_case_p@?$output_processor@DV?$string_output_adapter@D@__crt_stdio_output@@V?$format_validation_base@DV?$string_output_adapter@D@__crt_stdio_output@@@2@@__crt_stdio_output@@AEAA_NXZ 00000001800a02e0 f i libucrtd:output.obj
 0001:0009f330       ?type_case_p@?$output_processor@DV?$string_output_adapter@D@__crt_stdio_output@@V?$positional_parameter_base@DV?$string_output_adapter@D@__crt_stdio_output@@@2@@__crt_stdio_output@@AEAA_NXZ 00000001800a0330 f i libucrtd:output.obj
 0001:0009f380       ?type_case_p@?$output_processor@DV?$string_output_adapter@D@__crt_stdio_output@@V?$standard_base@DV?$string_output_adapter@D@__crt_stdio_output@@@2@@__crt_stdio_output@@AEAA_NXZ 00000001800a0380 f i libucrtd:output.obj
 0001:0009f3d0       ?type_case_p@?$output_processor@_WV?$stream_output_adapter@_W@__crt_stdio_output@@V?$format_validation_base@_WV?$stream_output_adapter@_W@__crt_stdio_output@@@2@@__crt_stdio_output@@AEAA_NXZ 00000001800a03d0 f i libucrtd:output.obj
 0001:0009f420       ?type_case_p@?$output_processor@_WV?$stream_output_adapter@_W@__crt_stdio_output@@V?$positional_parameter_base@_WV?$stream_output_adapter@_W@__crt_stdio_output@@@2@@__crt_stdio_output@@AEAA_NXZ 00000001800a0420 f i libucrtd:output.obj
 0001:0009f470       ?type_case_p@?$output_processor@_WV?$stream_output_adapter@_W@__crt_stdio_output@@V?$standard_base@_WV?$stream_output_adapter@_W@__crt_stdio_output@@@2@@__crt_stdio_output@@AEAA_NXZ 00000001800a0470 f i libucrtd:output.obj
 0001:0009f4c0       ?type_case_p@?$output_processor@_WV?$string_output_adapter@_W@__crt_stdio_output@@V?$format_validation_base@_WV?$string_output_adapter@_W@__crt_stdio_output@@@2@@__crt_stdio_output@@AEAA_NXZ 00000001800a04c0 f i libucrtd:output.obj
 0001:0009f510       ?type_case_p@?$output_processor@_WV?$string_output_adapter@_W@__crt_stdio_output@@V?$positional_parameter_base@_WV?$string_output_adapter@_W@__crt_stdio_output@@@2@@__crt_stdio_output@@AEAA_NXZ 00000001800a0510 f i libucrtd:output.obj
 0001:0009f560       ?type_case_p@?$output_processor@_WV?$string_output_adapter@_W@__crt_stdio_output@@V?$standard_base@_WV?$string_output_adapter@_W@__crt_stdio_output@@@2@@__crt_stdio_output@@AEAA_NXZ 00000001800a0560 f i libucrtd:output.obj
 0001:0009f5b0       ?type_case_s@?$output_processor@DV?$stream_output_adapter@D@__crt_stdio_output@@V?$format_validation_base@DV?$stream_output_adapter@D@__crt_stdio_output@@@2@@__crt_stdio_output@@AEAA_NXZ 00000001800a05b0 f i libucrtd:output.obj
 0001:0009f710       ?type_case_s@?$output_processor@DV?$stream_output_adapter@D@__crt_stdio_output@@V?$positional_parameter_base@DV?$stream_output_adapter@D@__crt_stdio_output@@@2@@__crt_stdio_output@@AEAA_NXZ 00000001800a0710 f i libucrtd:output.obj
 0001:0009f870       ?type_case_s@?$output_processor@DV?$stream_output_adapter@D@__crt_stdio_output@@V?$standard_base@DV?$stream_output_adapter@D@__crt_stdio_output@@@2@@__crt_stdio_output@@AEAA_NXZ 00000001800a0870 f i libucrtd:output.obj
 0001:0009f9d0       ?type_case_s@?$output_processor@DV?$string_output_adapter@D@__crt_stdio_output@@V?$format_validation_base@DV?$string_output_adapter@D@__crt_stdio_output@@@2@@__crt_stdio_output@@AEAA_NXZ 00000001800a09d0 f i libucrtd:output.obj
 0001:0009fb30       ?type_case_s@?$output_processor@DV?$string_output_adapter@D@__crt_stdio_output@@V?$positional_parameter_base@DV?$string_output_adapter@D@__crt_stdio_output@@@2@@__crt_stdio_output@@AEAA_NXZ 00000001800a0b30 f i libucrtd:output.obj
 0001:0009fc90       ?type_case_s@?$output_processor@DV?$string_output_adapter@D@__crt_stdio_output@@V?$standard_base@DV?$string_output_adapter@D@__crt_stdio_output@@@2@@__crt_stdio_output@@AEAA_NXZ 00000001800a0c90 f i libucrtd:output.obj
 0001:0009fdf0       ?type_case_s@?$output_processor@_WV?$stream_output_adapter@_W@__crt_stdio_output@@V?$format_validation_base@_WV?$stream_output_adapter@_W@__crt_stdio_output@@@2@@__crt_stdio_output@@AEAA_NXZ 00000001800a0df0 f i libucrtd:output.obj
 0001:0009ff50       ?type_case_s@?$output_processor@_WV?$stream_output_adapter@_W@__crt_stdio_output@@V?$positional_parameter_base@_WV?$stream_output_adapter@_W@__crt_stdio_output@@@2@@__crt_stdio_output@@AEAA_NXZ 00000001800a0f50 f i libucrtd:output.obj
 0001:000a00b0       ?type_case_s@?$output_processor@_WV?$stream_output_adapter@_W@__crt_stdio_output@@V?$standard_base@_WV?$stream_output_adapter@_W@__crt_stdio_output@@@2@@__crt_stdio_output@@AEAA_NXZ 00000001800a10b0 f i libucrtd:output.obj
 0001:000a0210       ?type_case_s@?$output_processor@_WV?$string_output_adapter@_W@__crt_stdio_output@@V?$format_validation_base@_WV?$string_output_adapter@_W@__crt_stdio_output@@@2@@__crt_stdio_output@@AEAA_NXZ 00000001800a1210 f i libucrtd:output.obj
 0001:000a0370       ?type_case_s@?$output_processor@_WV?$string_output_adapter@_W@__crt_stdio_output@@V?$positional_parameter_base@_WV?$string_output_adapter@_W@__crt_stdio_output@@@2@@__crt_stdio_output@@AEAA_NXZ 00000001800a1370 f i libucrtd:output.obj
 0001:000a04d0       ?type_case_s@?$output_processor@_WV?$string_output_adapter@_W@__crt_stdio_output@@V?$standard_base@_WV?$string_output_adapter@_W@__crt_stdio_output@@@2@@__crt_stdio_output@@AEAA_NXZ 00000001800a14d0 f i libucrtd:output.obj
 0001:000a0630       ?type_case_s_compute_narrow_string_length@?$output_processor@DV?$stream_output_adapter@D@__crt_stdio_output@@V?$format_validation_base@DV?$stream_output_adapter@D@__crt_stdio_output@@@2@@__crt_stdio_output@@AEBAHHD@Z 00000001800a1630 f i libucrtd:output.obj
 0001:000a0670       ?type_case_s_compute_narrow_string_length@?$output_processor@DV?$stream_output_adapter@D@__crt_stdio_output@@V?$positional_parameter_base@DV?$stream_output_adapter@D@__crt_stdio_output@@@2@@__crt_stdio_output@@AEBAHHD@Z 00000001800a1670 f i libucrtd:output.obj
 0001:000a06b0       ?type_case_s_compute_narrow_string_length@?$output_processor@DV?$stream_output_adapter@D@__crt_stdio_output@@V?$standard_base@DV?$stream_output_adapter@D@__crt_stdio_output@@@2@@__crt_stdio_output@@AEBAHHD@Z 00000001800a16b0 f i libucrtd:output.obj
 0001:000a06f0       ?type_case_s_compute_narrow_string_length@?$output_processor@DV?$string_output_adapter@D@__crt_stdio_output@@V?$format_validation_base@DV?$string_output_adapter@D@__crt_stdio_output@@@2@@__crt_stdio_output@@AEBAHHD@Z 00000001800a16f0 f i libucrtd:output.obj
 0001:000a0730       ?type_case_s_compute_narrow_string_length@?$output_processor@DV?$string_output_adapter@D@__crt_stdio_output@@V?$positional_parameter_base@DV?$string_output_adapter@D@__crt_stdio_output@@@2@@__crt_stdio_output@@AEBAHHD@Z 00000001800a1730 f i libucrtd:output.obj
 0001:000a0770       ?type_case_s_compute_narrow_string_length@?$output_processor@DV?$string_output_adapter@D@__crt_stdio_output@@V?$standard_base@DV?$string_output_adapter@D@__crt_stdio_output@@@2@@__crt_stdio_output@@AEBAHHD@Z 00000001800a1770 f i libucrtd:output.obj
 0001:000a07b0       ?type_case_s_compute_narrow_string_length@?$output_processor@_WV?$stream_output_adapter@_W@__crt_stdio_output@@V?$format_validation_base@_WV?$stream_output_adapter@_W@__crt_stdio_output@@@2@@__crt_stdio_output@@AEBAHH_W@Z 00000001800a17b0 f i libucrtd:output.obj
 0001:000a0860       ?type_case_s_compute_narrow_string_length@?$output_processor@_WV?$stream_output_adapter@_W@__crt_stdio_output@@V?$positional_parameter_base@_WV?$stream_output_adapter@_W@__crt_stdio_output@@@2@@__crt_stdio_output@@AEBAHH_W@Z 00000001800a1860 f i libucrtd:output.obj
 0001:000a0910       ?type_case_s_compute_narrow_string_length@?$output_processor@_WV?$stream_output_adapter@_W@__crt_stdio_output@@V?$standard_base@_WV?$stream_output_adapter@_W@__crt_stdio_output@@@2@@__crt_stdio_output@@AEBAHH_W@Z 00000001800a1910 f i libucrtd:output.obj
 0001:000a09c0       ?type_case_s_compute_narrow_string_length@?$output_processor@_WV?$string_output_adapter@_W@__crt_stdio_output@@V?$format_validation_base@_WV?$string_output_adapter@_W@__crt_stdio_output@@@2@@__crt_stdio_output@@AEBAHH_W@Z 00000001800a19c0 f i libucrtd:output.obj
 0001:000a0a70       ?type_case_s_compute_narrow_string_length@?$output_processor@_WV?$string_output_adapter@_W@__crt_stdio_output@@V?$positional_parameter_base@_WV?$string_output_adapter@_W@__crt_stdio_output@@@2@@__crt_stdio_output@@AEBAHH_W@Z 00000001800a1a70 f i libucrtd:output.obj
 0001:000a0b20       ?type_case_s_compute_narrow_string_length@?$output_processor@_WV?$string_output_adapter@_W@__crt_stdio_output@@V?$standard_base@_WV?$string_output_adapter@_W@__crt_stdio_output@@@2@@__crt_stdio_output@@AEBAHH_W@Z 00000001800a1b20 f i libucrtd:output.obj
 0001:000a0bd0       ?type_case_u@?$output_processor@DV?$stream_output_adapter@D@__crt_stdio_output@@V?$format_validation_base@DV?$stream_output_adapter@D@__crt_stdio_output@@@2@@__crt_stdio_output@@AEAA_NXZ 00000001800a1bd0 f i libucrtd:output.obj
 0001:000a0c00       ?type_case_u@?$output_processor@DV?$stream_output_adapter@D@__crt_stdio_output@@V?$positional_parameter_base@DV?$stream_output_adapter@D@__crt_stdio_output@@@2@@__crt_stdio_output@@AEAA_NXZ 00000001800a1c00 f i libucrtd:output.obj
 0001:000a0c30       ?type_case_u@?$output_processor@DV?$stream_output_adapter@D@__crt_stdio_output@@V?$standard_base@DV?$stream_output_adapter@D@__crt_stdio_output@@@2@@__crt_stdio_output@@AEAA_NXZ 00000001800a1c30 f i libucrtd:output.obj
 0001:000a0c60       ?type_case_u@?$output_processor@DV?$string_output_adapter@D@__crt_stdio_output@@V?$format_validation_base@DV?$string_output_adapter@D@__crt_stdio_output@@@2@@__crt_stdio_output@@AEAA_NXZ 00000001800a1c60 f i libucrtd:output.obj
 0001:000a0c90       ?type_case_u@?$output_processor@DV?$string_output_adapter@D@__crt_stdio_output@@V?$positional_parameter_base@DV?$string_output_adapter@D@__crt_stdio_output@@@2@@__crt_stdio_output@@AEAA_NXZ 00000001800a1c90 f i libucrtd:output.obj
 0001:000a0cc0       ?type_case_u@?$output_processor@DV?$string_output_adapter@D@__crt_stdio_output@@V?$standard_base@DV?$string_output_adapter@D@__crt_stdio_output@@@2@@__crt_stdio_output@@AEAA_NXZ 00000001800a1cc0 f i libucrtd:output.obj
 0001:000a0cf0       ?type_case_u@?$output_processor@_WV?$stream_output_adapter@_W@__crt_stdio_output@@V?$format_validation_base@_WV?$stream_output_adapter@_W@__crt_stdio_output@@@2@@__crt_stdio_output@@AEAA_NXZ 00000001800a1cf0 f i libucrtd:output.obj
 0001:000a0d20       ?type_case_u@?$output_processor@_WV?$stream_output_adapter@_W@__crt_stdio_output@@V?$positional_parameter_base@_WV?$stream_output_adapter@_W@__crt_stdio_output@@@2@@__crt_stdio_output@@AEAA_NXZ 00000001800a1d20 f i libucrtd:output.obj
 0001:000a0d50       ?type_case_u@?$output_processor@_WV?$stream_output_adapter@_W@__crt_stdio_output@@V?$standard_base@_WV?$stream_output_adapter@_W@__crt_stdio_output@@@2@@__crt_stdio_output@@AEAA_NXZ 00000001800a1d50 f i libucrtd:output.obj
 0001:000a0d80       ?type_case_u@?$output_processor@_WV?$string_output_adapter@_W@__crt_stdio_output@@V?$format_validation_base@_WV?$string_output_adapter@_W@__crt_stdio_output@@@2@@__crt_stdio_output@@AEAA_NXZ 00000001800a1d80 f i libucrtd:output.obj
 0001:000a0db0       ?type_case_u@?$output_processor@_WV?$string_output_adapter@_W@__crt_stdio_output@@V?$positional_parameter_base@_WV?$string_output_adapter@_W@__crt_stdio_output@@@2@@__crt_stdio_output@@AEAA_NXZ 00000001800a1db0 f i libucrtd:output.obj
 0001:000a0de0       ?type_case_u@?$output_processor@_WV?$string_output_adapter@_W@__crt_stdio_output@@V?$standard_base@_WV?$string_output_adapter@_W@__crt_stdio_output@@@2@@__crt_stdio_output@@AEAA_NXZ 00000001800a1de0 f i libucrtd:output.obj
 0001:000a0e10       ?type_case_x@?$output_processor@DV?$stream_output_adapter@D@__crt_stdio_output@@V?$format_validation_base@DV?$stream_output_adapter@D@__crt_stdio_output@@@2@@__crt_stdio_output@@AEAA_NXZ 00000001800a1e10 f i libucrtd:output.obj
 0001:000a0e40       ?type_case_x@?$output_processor@DV?$stream_output_adapter@D@__crt_stdio_output@@V?$positional_parameter_base@DV?$stream_output_adapter@D@__crt_stdio_output@@@2@@__crt_stdio_output@@AEAA_NXZ 00000001800a1e40 f i libucrtd:output.obj
 0001:000a0e70       ?type_case_x@?$output_processor@DV?$stream_output_adapter@D@__crt_stdio_output@@V?$standard_base@DV?$stream_output_adapter@D@__crt_stdio_output@@@2@@__crt_stdio_output@@AEAA_NXZ 00000001800a1e70 f i libucrtd:output.obj
 0001:000a0ea0       ?type_case_x@?$output_processor@DV?$string_output_adapter@D@__crt_stdio_output@@V?$format_validation_base@DV?$string_output_adapter@D@__crt_stdio_output@@@2@@__crt_stdio_output@@AEAA_NXZ 00000001800a1ea0 f i libucrtd:output.obj
 0001:000a0ed0       ?type_case_x@?$output_processor@DV?$string_output_adapter@D@__crt_stdio_output@@V?$positional_parameter_base@DV?$string_output_adapter@D@__crt_stdio_output@@@2@@__crt_stdio_output@@AEAA_NXZ 00000001800a1ed0 f i libucrtd:output.obj
 0001:000a0f00       ?type_case_x@?$output_processor@DV?$string_output_adapter@D@__crt_stdio_output@@V?$standard_base@DV?$string_output_adapter@D@__crt_stdio_output@@@2@@__crt_stdio_output@@AEAA_NXZ 00000001800a1f00 f i libucrtd:output.obj
 0001:000a0f30       ?type_case_x@?$output_processor@_WV?$stream_output_adapter@_W@__crt_stdio_output@@V?$format_validation_base@_WV?$stream_output_adapter@_W@__crt_stdio_output@@@2@@__crt_stdio_output@@AEAA_NXZ 00000001800a1f30 f i libucrtd:output.obj
 0001:000a0f60       ?type_case_x@?$output_processor@_WV?$stream_output_adapter@_W@__crt_stdio_output@@V?$positional_parameter_base@_WV?$stream_output_adapter@_W@__crt_stdio_output@@@2@@__crt_stdio_output@@AEAA_NXZ 00000001800a1f60 f i libucrtd:output.obj
 0001:000a0f90       ?type_case_x@?$output_processor@_WV?$stream_output_adapter@_W@__crt_stdio_output@@V?$standard_base@_WV?$stream_output_adapter@_W@__crt_stdio_output@@@2@@__crt_stdio_output@@AEAA_NXZ 00000001800a1f90 f i libucrtd:output.obj
 0001:000a0fc0       ?type_case_x@?$output_processor@_WV?$string_output_adapter@_W@__crt_stdio_output@@V?$format_validation_base@_WV?$string_output_adapter@_W@__crt_stdio_output@@@2@@__crt_stdio_output@@AEAA_NXZ 00000001800a1fc0 f i libucrtd:output.obj
 0001:000a0ff0       ?type_case_x@?$output_processor@_WV?$string_output_adapter@_W@__crt_stdio_output@@V?$positional_parameter_base@_WV?$string_output_adapter@_W@__crt_stdio_output@@@2@@__crt_stdio_output@@AEAA_NXZ 00000001800a1ff0 f i libucrtd:output.obj
 0001:000a1020       ?type_case_x@?$output_processor@_WV?$string_output_adapter@_W@__crt_stdio_output@@V?$standard_base@_WV?$string_output_adapter@_W@__crt_stdio_output@@@2@@__crt_stdio_output@@AEAA_NXZ 00000001800a2020 f i libucrtd:output.obj
 0001:000a1050       ?unset_flag@?$output_processor@DV?$stream_output_adapter@D@__crt_stdio_output@@V?$format_validation_base@DV?$stream_output_adapter@D@__crt_stdio_output@@@2@@__crt_stdio_output@@AEAAXI@Z 00000001800a2050 f i libucrtd:output.obj
 0001:000a1080       ?unset_flag@?$output_processor@DV?$stream_output_adapter@D@__crt_stdio_output@@V?$positional_parameter_base@DV?$stream_output_adapter@D@__crt_stdio_output@@@2@@__crt_stdio_output@@AEAAXI@Z 00000001800a2080 f i libucrtd:output.obj
 0001:000a10b0       ?unset_flag@?$output_processor@DV?$stream_output_adapter@D@__crt_stdio_output@@V?$standard_base@DV?$stream_output_adapter@D@__crt_stdio_output@@@2@@__crt_stdio_output@@AEAAXI@Z 00000001800a20b0 f i libucrtd:output.obj
 0001:000a10e0       ?unset_flag@?$output_processor@DV?$string_output_adapter@D@__crt_stdio_output@@V?$format_validation_base@DV?$string_output_adapter@D@__crt_stdio_output@@@2@@__crt_stdio_output@@AEAAXI@Z 00000001800a20e0 f i libucrtd:output.obj
 0001:000a1110       ?unset_flag@?$output_processor@DV?$string_output_adapter@D@__crt_stdio_output@@V?$positional_parameter_base@DV?$string_output_adapter@D@__crt_stdio_output@@@2@@__crt_stdio_output@@AEAAXI@Z 00000001800a2110 f i libucrtd:output.obj
 0001:000a1140       ?unset_flag@?$output_processor@DV?$string_output_adapter@D@__crt_stdio_output@@V?$standard_base@DV?$string_output_adapter@D@__crt_stdio_output@@@2@@__crt_stdio_output@@AEAAXI@Z 00000001800a2140 f i libucrtd:output.obj
 0001:000a1170       ?unset_flag@?$output_processor@_WV?$stream_output_adapter@_W@__crt_stdio_output@@V?$format_validation_base@_WV?$stream_output_adapter@_W@__crt_stdio_output@@@2@@__crt_stdio_output@@AEAAXI@Z 00000001800a2170 f i libucrtd:output.obj
 0001:000a11a0       ?unset_flag@?$output_processor@_WV?$stream_output_adapter@_W@__crt_stdio_output@@V?$positional_parameter_base@_WV?$stream_output_adapter@_W@__crt_stdio_output@@@2@@__crt_stdio_output@@AEAAXI@Z 00000001800a21a0 f i libucrtd:output.obj
 0001:000a11d0       ?unset_flag@?$output_processor@_WV?$stream_output_adapter@_W@__crt_stdio_output@@V?$standard_base@_WV?$stream_output_adapter@_W@__crt_stdio_output@@@2@@__crt_stdio_output@@AEAAXI@Z 00000001800a21d0 f i libucrtd:output.obj
 0001:000a1200       ?unset_flag@?$output_processor@_WV?$string_output_adapter@_W@__crt_stdio_output@@V?$format_validation_base@_WV?$string_output_adapter@_W@__crt_stdio_output@@@2@@__crt_stdio_output@@AEAAXI@Z 00000001800a2200 f i libucrtd:output.obj
 0001:000a1230       ?unset_flag@?$output_processor@_WV?$string_output_adapter@_W@__crt_stdio_output@@V?$positional_parameter_base@_WV?$string_output_adapter@_W@__crt_stdio_output@@@2@@__crt_stdio_output@@AEAAXI@Z 00000001800a2230 f i libucrtd:output.obj
 0001:000a1260       ?unset_flag@?$output_processor@_WV?$string_output_adapter@_W@__crt_stdio_output@@V?$standard_base@_WV?$string_output_adapter@_W@__crt_stdio_output@@@2@@__crt_stdio_output@@AEAAXI@Z 00000001800a2260 f i libucrtd:output.obj
 0001:000a1290       ?update_field_width@?$positional_parameter_base@DV?$stream_output_adapter@D@__crt_stdio_output@@@__crt_stdio_output@@IEAA_NXZ 00000001800a2290 f i libucrtd:output.obj
 0001:000a14f0       ?update_field_width@?$positional_parameter_base@DV?$string_output_adapter@D@__crt_stdio_output@@@__crt_stdio_output@@IEAA_NXZ 00000001800a24f0 f i libucrtd:output.obj
 0001:000a1750       ?update_field_width@?$positional_parameter_base@_WV?$stream_output_adapter@_W@__crt_stdio_output@@@__crt_stdio_output@@IEAA_NXZ 00000001800a2750 f i libucrtd:output.obj
 0001:000a19b0       ?update_field_width@?$positional_parameter_base@_WV?$string_output_adapter@_W@__crt_stdio_output@@@__crt_stdio_output@@IEAA_NXZ 00000001800a29b0 f i libucrtd:output.obj
 0001:000a1c10       ?update_field_width@?$standard_base@DV?$stream_output_adapter@D@__crt_stdio_output@@@__crt_stdio_output@@IEAA_NXZ 00000001800a2c10 f i libucrtd:output.obj
 0001:000a1c50       ?update_field_width@?$standard_base@DV?$string_output_adapter@D@__crt_stdio_output@@@__crt_stdio_output@@IEAA_NXZ 00000001800a2c50 f i libucrtd:output.obj
 0001:000a1c90       ?update_field_width@?$standard_base@_WV?$stream_output_adapter@_W@__crt_stdio_output@@@__crt_stdio_output@@IEAA_NXZ 00000001800a2c90 f i libucrtd:output.obj
 0001:000a1cd0       ?update_field_width@?$standard_base@_WV?$string_output_adapter@_W@__crt_stdio_output@@@__crt_stdio_output@@IEAA_NXZ 00000001800a2cd0 f i libucrtd:output.obj
 0001:000a1d10       ?update_precision@?$positional_parameter_base@DV?$stream_output_adapter@D@__crt_stdio_output@@@__crt_stdio_output@@IEAA_NXZ 00000001800a2d10 f i libucrtd:output.obj
 0001:000a1f70       ?update_precision@?$positional_parameter_base@DV?$string_output_adapter@D@__crt_stdio_output@@@__crt_stdio_output@@IEAA_NXZ 00000001800a2f70 f i libucrtd:output.obj
 0001:000a21d0       ?update_precision@?$positional_parameter_base@_WV?$stream_output_adapter@_W@__crt_stdio_output@@@__crt_stdio_output@@IEAA_NXZ 00000001800a31d0 f i libucrtd:output.obj
 0001:000a2430       ?update_precision@?$positional_parameter_base@_WV?$string_output_adapter@_W@__crt_stdio_output@@@__crt_stdio_output@@IEAA_NXZ 00000001800a3430 f i libucrtd:output.obj
 0001:000a2690       ?update_precision@?$standard_base@DV?$stream_output_adapter@D@__crt_stdio_output@@@__crt_stdio_output@@IEAA_NXZ 00000001800a3690 f i libucrtd:output.obj
 0001:000a26d0       ?update_precision@?$standard_base@DV?$string_output_adapter@D@__crt_stdio_output@@@__crt_stdio_output@@IEAA_NXZ 00000001800a36d0 f i libucrtd:output.obj
 0001:000a2710       ?update_precision@?$standard_base@_WV?$stream_output_adapter@_W@__crt_stdio_output@@@__crt_stdio_output@@IEAA_NXZ 00000001800a3710 f i libucrtd:output.obj
 0001:000a2750       ?update_precision@?$standard_base@_WV?$string_output_adapter@_W@__crt_stdio_output@@@__crt_stdio_output@@IEAA_NXZ 00000001800a3750 f i libucrtd:output.obj
 0001:000a2790       ?valid@__crt_stdio_stream@@QEBA_NXZ 00000001800a3790 f i libucrtd:output.obj
 0001:000a27d0       ?validate@?$stream_output_adapter@D@__crt_stdio_output@@QEBA_NXZ 00000001800a37d0 f i libucrtd:output.obj
 0001:000a28e0       ?validate@?$stream_output_adapter@_W@__crt_stdio_output@@QEBA_NXZ 00000001800a38e0 f i libucrtd:output.obj
 0001:000a29f0       ?validate@?$string_output_adapter@D@__crt_stdio_output@@QEBA_NXZ 00000001800a39f0 f i libucrtd:output.obj
 0001:000a2ae0       ?validate@?$string_output_adapter@_W@__crt_stdio_output@@QEBA_NXZ 00000001800a3ae0 f i libucrtd:output.obj
 0001:000a2bd0       ?validate_and_store_parameter_data@?$positional_parameter_base@DV?$stream_output_adapter@D@__crt_stdio_output@@@__crt_stdio_output@@AEAA_NAEAUparameter_data@12@W4parameter_type@12@DW4length_modifier@2@@Z 00000001800a3bd0 f i libucrtd:output.obj
 0001:000a2d30       ?validate_and_store_parameter_data@?$positional_parameter_base@DV?$string_output_adapter@D@__crt_stdio_output@@@__crt_stdio_output@@AEAA_NAEAUparameter_data@12@W4parameter_type@12@DW4length_modifier@2@@Z 00000001800a3d30 f i libucrtd:output.obj
 0001:000a2e90       ?validate_and_store_parameter_data@?$positional_parameter_base@_WV?$stream_output_adapter@_W@__crt_stdio_output@@@__crt_stdio_output@@AEAA_NAEAUparameter_data@12@W4parameter_type@12@_WW4length_modifier@2@@Z 00000001800a3e90 f i libucrtd:output.obj
 0001:000a2ff0       ?validate_and_store_parameter_data@?$positional_parameter_base@_WV?$string_output_adapter@_W@__crt_stdio_output@@@__crt_stdio_output@@AEAA_NAEAUparameter_data@12@W4parameter_type@12@_WW4length_modifier@2@@Z 00000001800a3ff0 f i libucrtd:output.obj
 0001:000a3150       ?validate_and_update_state_at_beginning_of_format_character@?$positional_parameter_base@DV?$stream_output_adapter@D@__crt_stdio_output@@@__crt_stdio_output@@IEAA_NXZ 00000001800a4150 f i libucrtd:output.obj
 0001:000a34e0       ?validate_and_update_state_at_beginning_of_format_character@?$positional_parameter_base@DV?$string_output_adapter@D@__crt_stdio_output@@@__crt_stdio_output@@IEAA_NXZ 00000001800a44e0 f i libucrtd:output.obj
 0001:000a3870       ?validate_and_update_state_at_beginning_of_format_character@?$positional_parameter_base@_WV?$stream_output_adapter@_W@__crt_stdio_output@@@__crt_stdio_output@@IEAA_NXZ 00000001800a4870 f i libucrtd:output.obj
 0001:000a3c00       ?validate_and_update_state_at_beginning_of_format_character@?$positional_parameter_base@_WV?$string_output_adapter@_W@__crt_stdio_output@@@__crt_stdio_output@@IEAA_NXZ 00000001800a4c00 f i libucrtd:output.obj
 0001:000a3f90       ?validate_and_update_state_at_beginning_of_format_character@?$standard_base@DV?$stream_output_adapter@D@__crt_stdio_output@@@__crt_stdio_output@@IEAA_NXZ 00000001800a4f90 f i libucrtd:output.obj
 0001:000a3fa0       ?validate_and_update_state_at_beginning_of_format_character@?$standard_base@DV?$string_output_adapter@D@__crt_stdio_output@@@__crt_stdio_output@@IEAA_NXZ 00000001800a4fa0 f i libucrtd:output.obj
 0001:000a3fb0       ?validate_and_update_state_at_beginning_of_format_character@?$standard_base@_WV?$stream_output_adapter@_W@__crt_stdio_output@@@__crt_stdio_output@@IEAA_NXZ 00000001800a4fb0 f i libucrtd:output.obj
 0001:000a3fc0       ?validate_and_update_state_at_beginning_of_format_character@?$standard_base@_WV?$string_output_adapter@_W@__crt_stdio_output@@@__crt_stdio_output@@IEAA_NXZ 00000001800a4fc0 f i libucrtd:output.obj
 0001:000a3fd0       ?validate_and_update_state_at_end_of_format_string@?$format_validation_base@DV?$stream_output_adapter@D@__crt_stdio_output@@@__crt_stdio_output@@IEBA_NXZ 00000001800a4fd0 f i libucrtd:output.obj
 0001:000a40c0       ?validate_and_update_state_at_end_of_format_string@?$format_validation_base@DV?$string_output_adapter@D@__crt_stdio_output@@@__crt_stdio_output@@IEBA_NXZ 00000001800a50c0 f i libucrtd:output.obj
 0001:000a41b0       ?validate_and_update_state_at_end_of_format_string@?$format_validation_base@_WV?$stream_output_adapter@_W@__crt_stdio_output@@@__crt_stdio_output@@IEBA_NXZ 00000001800a51b0 f i libucrtd:output.obj
 0001:000a42a0       ?validate_and_update_state_at_end_of_format_string@?$format_validation_base@_WV?$string_output_adapter@_W@__crt_stdio_output@@@__crt_stdio_output@@IEBA_NXZ 00000001800a52a0 f i libucrtd:output.obj
 0001:000a4390       ?validate_and_update_state_at_end_of_format_string@?$positional_parameter_base@DV?$stream_output_adapter@D@__crt_stdio_output@@@__crt_stdio_output@@IEAA_NXZ 00000001800a5390 f i libucrtd:output.obj
 0001:000a45f0       ?validate_and_update_state_at_end_of_format_string@?$positional_parameter_base@DV?$string_output_adapter@D@__crt_stdio_output@@@__crt_stdio_output@@IEAA_NXZ 00000001800a55f0 f i libucrtd:output.obj
 0001:000a4850       ?validate_and_update_state_at_end_of_format_string@?$positional_parameter_base@_WV?$stream_output_adapter@_W@__crt_stdio_output@@@__crt_stdio_output@@IEAA_NXZ 00000001800a5850 f i libucrtd:output.obj
 0001:000a4ab0       ?validate_and_update_state_at_end_of_format_string@?$positional_parameter_base@_WV?$string_output_adapter@_W@__crt_stdio_output@@@__crt_stdio_output@@IEAA_NXZ 00000001800a5ab0 f i libucrtd:output.obj
 0001:000a4d10       ?validate_and_update_state_at_end_of_format_string@?$standard_base@DV?$stream_output_adapter@D@__crt_stdio_output@@@__crt_stdio_output@@IEBA_NXZ 00000001800a5d10 f i libucrtd:output.obj
 0001:000a4d20       ?validate_and_update_state_at_end_of_format_string@?$standard_base@DV?$string_output_adapter@D@__crt_stdio_output@@@__crt_stdio_output@@IEBA_NXZ 00000001800a5d20 f i libucrtd:output.obj
 0001:000a4d30       ?validate_and_update_state_at_end_of_format_string@?$standard_base@_WV?$stream_output_adapter@_W@__crt_stdio_output@@@__crt_stdio_output@@IEBA_NXZ 00000001800a5d30 f i libucrtd:output.obj
 0001:000a4d40       ?validate_and_update_state_at_end_of_format_string@?$standard_base@_WV?$string_output_adapter@_W@__crt_stdio_output@@@__crt_stdio_output@@IEBA_NXZ 00000001800a5d40 f i libucrtd:output.obj
 0001:000a4d50       ?validate_state_for_type_case_a@?$positional_parameter_base@DV?$stream_output_adapter@D@__crt_stdio_output@@@__crt_stdio_output@@IEAA_NXZ 00000001800a5d50 f i libucrtd:output.obj
 0001:000a4ed0       ?validate_state_for_type_case_a@?$positional_parameter_base@DV?$string_output_adapter@D@__crt_stdio_output@@@__crt_stdio_output@@IEAA_NXZ 00000001800a5ed0 f i libucrtd:output.obj
 0001:000a5050       ?validate_state_for_type_case_a@?$positional_parameter_base@_WV?$stream_output_adapter@_W@__crt_stdio_output@@@__crt_stdio_output@@IEAA_NXZ 00000001800a6050 f i libucrtd:output.obj
 0001:000a51d0       ?validate_state_for_type_case_a@?$positional_parameter_base@_WV?$string_output_adapter@_W@__crt_stdio_output@@@__crt_stdio_output@@IEAA_NXZ 00000001800a61d0 f i libucrtd:output.obj
 0001:000a5350       ?validate_state_for_type_case_a@?$standard_base@DV?$stream_output_adapter@D@__crt_stdio_output@@@__crt_stdio_output@@IEBA_NXZ 00000001800a6350 f i libucrtd:output.obj
 0001:000a5360       ?validate_state_for_type_case_a@?$standard_base@DV?$string_output_adapter@D@__crt_stdio_output@@@__crt_stdio_output@@IEBA_NXZ 00000001800a6360 f i libucrtd:output.obj
 0001:000a5370       ?validate_state_for_type_case_a@?$standard_base@_WV?$stream_output_adapter@_W@__crt_stdio_output@@@__crt_stdio_output@@IEBA_NXZ 00000001800a6370 f i libucrtd:output.obj
 0001:000a5380       ?validate_state_for_type_case_a@?$standard_base@_WV?$string_output_adapter@_W@__crt_stdio_output@@@__crt_stdio_output@@IEBA_NXZ 00000001800a6380 f i libucrtd:output.obj
 0001:000a5390       ?validate_stream_is_ansi_if_required@?$__acrt_stdio_char_traits@D@@SA_NQEAU_iobuf@@@Z 00000001800a6390 f i libucrtd:output.obj
 0001:000a5580       ?validate_stream_is_ansi_if_required@?$__acrt_stdio_char_traits@_W@@SA_NQEAU_iobuf@@@Z 00000001800a6580 f i libucrtd:output.obj
 0001:000a5590       ?wide_null_string@?$output_processor@DV?$stream_output_adapter@D@__crt_stdio_output@@V?$format_validation_base@DV?$stream_output_adapter@D@__crt_stdio_output@@@2@@__crt_stdio_output@@CAPEA_WXZ 00000001800a6590 f i libucrtd:output.obj
 0001:000a55a0       ?wide_null_string@?$output_processor@DV?$stream_output_adapter@D@__crt_stdio_output@@V?$positional_parameter_base@DV?$stream_output_adapter@D@__crt_stdio_output@@@2@@__crt_stdio_output@@CAPEA_WXZ 00000001800a65a0 f i libucrtd:output.obj
 0001:000a55b0       ?wide_null_string@?$output_processor@DV?$stream_output_adapter@D@__crt_stdio_output@@V?$standard_base@DV?$stream_output_adapter@D@__crt_stdio_output@@@2@@__crt_stdio_output@@CAPEA_WXZ 00000001800a65b0 f i libucrtd:output.obj
 0001:000a55c0       ?wide_null_string@?$output_processor@DV?$string_output_adapter@D@__crt_stdio_output@@V?$format_validation_base@DV?$string_output_adapter@D@__crt_stdio_output@@@2@@__crt_stdio_output@@CAPEA_WXZ 00000001800a65c0 f i libucrtd:output.obj
 0001:000a55d0       ?wide_null_string@?$output_processor@DV?$string_output_adapter@D@__crt_stdio_output@@V?$positional_parameter_base@DV?$string_output_adapter@D@__crt_stdio_output@@@2@@__crt_stdio_output@@CAPEA_WXZ 00000001800a65d0 f i libucrtd:output.obj
 0001:000a55e0       ?wide_null_string@?$output_processor@DV?$string_output_adapter@D@__crt_stdio_output@@V?$standard_base@DV?$string_output_adapter@D@__crt_stdio_output@@@2@@__crt_stdio_output@@CAPEA_WXZ 00000001800a65e0 f i libucrtd:output.obj
 0001:000a55f0       ?wide_null_string@?$output_processor@_WV?$stream_output_adapter@_W@__crt_stdio_output@@V?$format_validation_base@_WV?$stream_output_adapter@_W@__crt_stdio_output@@@2@@__crt_stdio_output@@CAPEA_WXZ 00000001800a65f0 f i libucrtd:output.obj
 0001:000a5600       ?wide_null_string@?$output_processor@_WV?$stream_output_adapter@_W@__crt_stdio_output@@V?$positional_parameter_base@_WV?$stream_output_adapter@_W@__crt_stdio_output@@@2@@__crt_stdio_output@@CAPEA_WXZ 00000001800a6600 f i libucrtd:output.obj
 0001:000a5610       ?wide_null_string@?$output_processor@_WV?$stream_output_adapter@_W@__crt_stdio_output@@V?$standard_base@_WV?$stream_output_adapter@_W@__crt_stdio_output@@@2@@__crt_stdio_output@@CAPEA_WXZ 00000001800a6610 f i libucrtd:output.obj
 0001:000a5620       ?wide_null_string@?$output_processor@_WV?$string_output_adapter@_W@__crt_stdio_output@@V?$format_validation_base@_WV?$string_output_adapter@_W@__crt_stdio_output@@@2@@__crt_stdio_output@@CAPEA_WXZ 00000001800a6620 f i libucrtd:output.obj
 0001:000a5630       ?wide_null_string@?$output_processor@_WV?$string_output_adapter@_W@__crt_stdio_output@@V?$positional_parameter_base@_WV?$string_output_adapter@_W@__crt_stdio_output@@@2@@__crt_stdio_output@@CAPEA_WXZ 00000001800a6630 f i libucrtd:output.obj
 0001:000a5640       ?wide_null_string@?$output_processor@_WV?$string_output_adapter@_W@__crt_stdio_output@@V?$standard_base@_WV?$string_output_adapter@_W@__crt_stdio_output@@@2@@__crt_stdio_output@@CAPEA_WXZ 00000001800a6640 f i libucrtd:output.obj
 0001:000a5650       ?write_character@?$stream_output_adapter@D@__crt_stdio_output@@QEBAXDQEAH@Z 00000001800a6650 f i libucrtd:output.obj
 0001:000a5710       ?write_character@?$stream_output_adapter@_W@__crt_stdio_output@@QEBAX_WQEAH@Z 00000001800a6710 f i libucrtd:output.obj
 0001:000a57d0       ?write_character@?$string_output_adapter@D@__crt_stdio_output@@QEBA_NDQEAH@Z 00000001800a67d0 f i libucrtd:output.obj
 0001:000a58c0       ?write_character@?$string_output_adapter@_W@__crt_stdio_output@@QEBA_N_WQEAH@Z 00000001800a68c0 f i libucrtd:output.obj
 0001:000a59b0       ?write_stored_string_tchar@?$output_processor@DV?$stream_output_adapter@D@__crt_stdio_output@@V?$format_validation_base@DV?$stream_output_adapter@D@__crt_stdio_output@@@2@@__crt_stdio_output@@AEAA_ND@Z 00000001800a69b0 f i libucrtd:output.obj
 0001:000a5b70       ?write_stored_string_tchar@?$output_processor@DV?$stream_output_adapter@D@__crt_stdio_output@@V?$positional_parameter_base@DV?$stream_output_adapter@D@__crt_stdio_output@@@2@@__crt_stdio_output@@AEAA_ND@Z 00000001800a6b70 f i libucrtd:output.obj
 0001:000a5d30       ?write_stored_string_tchar@?$output_processor@DV?$stream_output_adapter@D@__crt_stdio_output@@V?$standard_base@DV?$stream_output_adapter@D@__crt_stdio_output@@@2@@__crt_stdio_output@@AEAA_ND@Z 00000001800a6d30 f i libucrtd:output.obj
 0001:000a5ef0       ?write_stored_string_tchar@?$output_processor@DV?$string_output_adapter@D@__crt_stdio_output@@V?$format_validation_base@DV?$string_output_adapter@D@__crt_stdio_output@@@2@@__crt_stdio_output@@AEAA_ND@Z 00000001800a6ef0 f i libucrtd:output.obj
 0001:000a60b0       ?write_stored_string_tchar@?$output_processor@DV?$string_output_adapter@D@__crt_stdio_output@@V?$positional_parameter_base@DV?$string_output_adapter@D@__crt_stdio_output@@@2@@__crt_stdio_output@@AEAA_ND@Z 00000001800a70b0 f i libucrtd:output.obj
 0001:000a6270       ?write_stored_string_tchar@?$output_processor@DV?$string_output_adapter@D@__crt_stdio_output@@V?$standard_base@DV?$string_output_adapter@D@__crt_stdio_output@@@2@@__crt_stdio_output@@AEAA_ND@Z 00000001800a7270 f i libucrtd:output.obj
 0001:000a6430       ?write_stored_string_tchar@?$output_processor@_WV?$stream_output_adapter@_W@__crt_stdio_output@@V?$format_validation_base@_WV?$stream_output_adapter@_W@__crt_stdio_output@@@2@@__crt_stdio_output@@AEAA_N_W@Z 00000001800a7430 f i libucrtd:output.obj
 0001:000a65b0       ?write_stored_string_tchar@?$output_processor@_WV?$stream_output_adapter@_W@__crt_stdio_output@@V?$positional_parameter_base@_WV?$stream_output_adapter@_W@__crt_stdio_output@@@2@@__crt_stdio_output@@AEAA_N_W@Z 00000001800a75b0 f i libucrtd:output.obj
 0001:000a6730       ?write_stored_string_tchar@?$output_processor@_WV?$stream_output_adapter@_W@__crt_stdio_output@@V?$standard_base@_WV?$stream_output_adapter@_W@__crt_stdio_output@@@2@@__crt_stdio_output@@AEAA_N_W@Z 00000001800a7730 f i libucrtd:output.obj
 0001:000a68b0       ?write_stored_string_tchar@?$output_processor@_WV?$string_output_adapter@_W@__crt_stdio_output@@V?$format_validation_base@_WV?$string_output_adapter@_W@__crt_stdio_output@@@2@@__crt_stdio_output@@AEAA_N_W@Z 00000001800a78b0 f i libucrtd:output.obj
 0001:000a6a30       ?write_stored_string_tchar@?$output_processor@_WV?$string_output_adapter@_W@__crt_stdio_output@@V?$positional_parameter_base@_WV?$string_output_adapter@_W@__crt_stdio_output@@@2@@__crt_stdio_output@@AEAA_N_W@Z 00000001800a7a30 f i libucrtd:output.obj
 0001:000a6bb0       ?write_stored_string_tchar@?$output_processor@_WV?$string_output_adapter@_W@__crt_stdio_output@@V?$standard_base@_WV?$string_output_adapter@_W@__crt_stdio_output@@@2@@__crt_stdio_output@@AEAA_N_W@Z 00000001800a7bb0 f i libucrtd:output.obj
 0001:000a6d30       ?write_string@?$stream_output_adapter@D@__crt_stdio_output@@QEBAXQEBDHQEAH1@Z 00000001800a7d30 f i libucrtd:output.obj
 0001:000a6e70       ?write_string@?$stream_output_adapter@_W@__crt_stdio_output@@QEBAXQEB_WHQEAH1@Z 00000001800a7e70 f i libucrtd:output.obj
 0001:000a6fb0       ?write_string@?$string_output_adapter@D@__crt_stdio_output@@QEBAXQEBDHQEAH1@Z 00000001800a7fb0 f i libucrtd:output.obj
 0001:000a7190       ?write_string@?$string_output_adapter@_W@__crt_stdio_output@@QEBAXQEB_WHQEAH1@Z 00000001800a8190 f i libucrtd:output.obj
 0001:000a7380       __acrt_isleadbyte_l_noupdate 00000001800a8380 f i libucrtd:output.obj
 0001:000a73b0       __acrt_locale_changed      00000001800a83b0 f i libucrtd:output.obj
 0001:000a73f0       __stdio_common_vfprintf    00000001800a83f0 f   libucrtd:output.obj
 0001:000a7440       __stdio_common_vfprintf_p  00000001800a8440 f   libucrtd:output.obj
 0001:000a7490       __stdio_common_vfprintf_s  00000001800a8490 f   libucrtd:output.obj
 0001:000a74e0       __stdio_common_vfwprintf   00000001800a84e0 f   libucrtd:output.obj
 0001:000a7530       __stdio_common_vfwprintf_p 00000001800a8530 f   libucrtd:output.obj
 0001:000a7580       __stdio_common_vfwprintf_s 00000001800a8580 f   libucrtd:output.obj
 0001:000a75d0       __stdio_common_vsnprintf_s 00000001800a85d0 f   libucrtd:output.obj
 0001:000a7640       __stdio_common_vsnwprintf_s 00000001800a8640 f   libucrtd:output.obj
 0001:000a76b0       __stdio_common_vsprintf    00000001800a86b0 f   libucrtd:output.obj
 0001:000a7710       __stdio_common_vsprintf_p  00000001800a8710 f   libucrtd:output.obj
 0001:000a7770       __stdio_common_vsprintf_s  00000001800a8770 f   libucrtd:output.obj
 0001:000a77d0       __stdio_common_vswprintf   00000001800a87d0 f   libucrtd:output.obj
 0001:000a7830       __stdio_common_vswprintf_p 00000001800a8830 f   libucrtd:output.obj
 0001:000a7890       __stdio_common_vswprintf_s 00000001800a8890 f   libucrtd:output.obj
 0001:000a78f0       cos                        00000001800a88f0 f   libucrtd:cos.obj
 0001:000a7fd0       cosf                       00000001800a8fd0 f   libucrtd:cosf.obj
 0001:000a8610       sinf                       00000001800a9610 f   libucrtd:sinf.obj
 0001:000a8ed0       atan2f                     00000001800a9ed0 f   libucrtd:atan2f.obj
 0001:000a9c90       floorf                     00000001800aac90 f   libucrtd:floorf.obj
 0001:000a9e30       ??$?RU?$__crt_report_hook_node@D@@@__crt_internal_free_policy@@QEBAXQEBU?$__crt_report_hook_node@D@@@Z 00000001800aae30 f i libucrtd:dbgrpt.obj
 0001:000a9e60       ??$?RU?$__crt_report_hook_node@_W@@@__crt_internal_free_policy@@QEBAXQEBU?$__crt_report_hook_node@_W@@@Z 00000001800aae60 f i libucrtd:dbgrpt.obj
 0001:000a9e90       ??$?RV<lambda_48a95ab302c68b6787c202ce7b2428f2>@@AEAV<lambda_be7e00bcb36969a0670e3c91fd6c4917>@@V<lambda_95ad94005304955f3afd56db85f2c0f0>@@@?$__crt_seh_guarded_call@H@@QEAAH$$QEAV<lambda_48a95ab302c68b6787c202ce7b2428f2>@@AEAV<lambda_be7e00bcb36969a0670e3c91fd6c4917>@@$$QEAV<lambda_95ad94005304955f3afd56db85f2c0f0>@@@Z 00000001800aae90 f i libucrtd:dbgrpt.obj
 0001:000a9ef0       ??$?RV<lambda_af6322564f367be6e210c9b3b377439e>@@AEAV<lambda_ade3d750d30aed7d611b25c09e4cbaa9>@@V<lambda_f1c030d06c6692bdc9654ba3f7602b04>@@@?$__crt_seh_guarded_call@H@@QEAAH$$QEAV<lambda_af6322564f367be6e210c9b3b377439e>@@AEAV<lambda_ade3d750d30aed7d611b25c09e4cbaa9>@@$$QEAV<lambda_f1c030d06c6692bdc9654ba3f7602b04>@@@Z 00000001800aaef0 f i libucrtd:dbgrpt.obj
 0001:000a9f50       ??$__acrt_lock_and_call@V<lambda_ade3d750d30aed7d611b25c09e4cbaa9>@@@@YAHW4__acrt_lock_id@@$$QEAV<lambda_ade3d750d30aed7d611b25c09e4cbaa9>@@@Z 00000001800aaf50 f i libucrtd:dbgrpt.obj
 0001:000a9fd0       ??$__acrt_lock_and_call@V<lambda_be7e00bcb36969a0670e3c91fd6c4917>@@@@YAHW4__acrt_lock_id@@$$QEAV<lambda_be7e00bcb36969a0670e3c91fd6c4917>@@@Z 00000001800aafd0 f i libucrtd:dbgrpt.obj
 0001:000aa050       ??$__vcrt_va_start_verify_argument_type@QEB_W@@YAXXZ 00000001800ab050 f i libucrtd:dbgrpt.obj
 0001:000ab510       ??$get_module_file_name@AEAPEAUHINSTANCE__@@AEAY0BAF@DK@?$__crt_char_traits@D@@SAKAEAPEAUHINSTANCE__@@AEAY0BAF@D$$QEAK@Z 00000001800ac510 f i libucrtd:dbgrpt.obj
 0001:000ab550       ??$get_module_file_name@AEAPEAUHINSTANCE__@@AEAY0BAF@_WK@?$__crt_char_traits@_W@@SAKAEAPEAUHINSTANCE__@@AEAY0BAF@_W$$QEAK@Z 00000001800ac550 f i libucrtd:dbgrpt.obj
 0001:000ab590       ??$tcscpy_s@AEAY0BAF@D_KPEBD@?$__crt_char_traits@D@@SAHAEAY0BAF@D$$QEA_K$$QEAPEBD@Z 00000001800ac590 f i libucrtd:dbgrpt.obj
 0001:000ab5d0       ??$tcscpy_s@AEAY0BAF@_W_KPEB_W@?$__crt_char_traits@_W@@SAHAEAY0BAF@_W$$QEA_K$$QEAPEB_W@Z 00000001800ac5d0 f i libucrtd:dbgrpt.obj
 0001:000ab610       ??$tcslen@AEAY0BAF@D@?$__crt_char_traits@D@@SA_KAEAY0BAF@D@Z 00000001800ac610 f i libucrtd:dbgrpt.obj
 0001:000ab630       ??$tcslen@AEAY0BAF@_W@?$__crt_char_traits@_W@@SA_KAEAY0BAF@_W@Z 00000001800ac630 f i libucrtd:dbgrpt.obj
 0001:000ab650       ??$tcslen@AEBQEBD@?$__crt_char_traits@D@@SA_KAEBQEBD@Z 00000001800ac650 f i libucrtd:dbgrpt.obj
 0001:000ab680       ??$tcslen@AEBQEB_W@?$__crt_char_traits@_W@@SA_KAEBQEB_W@Z 00000001800ac680 f i libucrtd:dbgrpt.obj
 0001:000ab7f0       ??0?$__crt_unique_heap_ptr@U?$__crt_report_hook_node@D@@U__crt_internal_free_policy@@@@QEAA@QEAU?$__crt_report_hook_node@D@@@Z 00000001800ac7f0 f i libucrtd:dbgrpt.obj
 0001:000ab820       ??0?$__crt_unique_heap_ptr@U?$__crt_report_hook_node@_W@@U__crt_internal_free_policy@@@@QEAA@QEAU?$__crt_report_hook_node@_W@@@Z 00000001800ac820 f i libucrtd:dbgrpt.obj
 0001:000ab850       ??1?$__crt_unique_heap_ptr@U?$__crt_report_hook_node@D@@U__crt_internal_free_policy@@@@QEAA@XZ 00000001800ac850 f i libucrtd:dbgrpt.obj
 0001:000ab870       ??1?$__crt_unique_heap_ptr@U?$__crt_report_hook_node@_W@@U__crt_internal_free_policy@@@@QEAA@XZ 00000001800ac870 f i libucrtd:dbgrpt.obj
 0001:000ab890       ??B?$__crt_unique_heap_ptr@U?$__crt_report_hook_node@D@@U__crt_internal_free_policy@@@@QEBA_NXZ 00000001800ac890 f i libucrtd:dbgrpt.obj
 0001:000ab8b0       ??B?$__crt_unique_heap_ptr@U?$__crt_report_hook_node@_W@@U__crt_internal_free_policy@@@@QEBA_NXZ 00000001800ac8b0 f i libucrtd:dbgrpt.obj
 0001:000ac110       ?detach@?$__crt_unique_heap_ptr@U?$__crt_report_hook_node@D@@U__crt_internal_free_policy@@@@QEAAPEAU?$__crt_report_hook_node@D@@XZ 00000001800ad110 f i libucrtd:dbgrpt.obj
 0001:000ac150       ?detach@?$__crt_unique_heap_ptr@U?$__crt_report_hook_node@_W@@U__crt_internal_free_policy@@@@QEAAPEAU?$__crt_report_hook_node@_W@@XZ 00000001800ad150 f i libucrtd:dbgrpt.obj
 0001:000ac190       ?get@?$__crt_unique_heap_ptr@U?$__crt_report_hook_node@D@@U__crt_internal_free_policy@@@@QEBAPEAU?$__crt_report_hook_node@D@@XZ 00000001800ad190 f i libucrtd:dbgrpt.obj
 0001:000ac1b0       ?get@?$__crt_unique_heap_ptr@U?$__crt_report_hook_node@_W@@U__crt_internal_free_policy@@@@QEBAPEAU?$__crt_report_hook_node@_W@@XZ 00000001800ad1b0 f i libucrtd:dbgrpt.obj
 0001:000ac230       ?is_valid@?$__crt_unique_heap_ptr@U?$__crt_report_hook_node@D@@U__crt_internal_free_policy@@@@QEBA_NXZ 00000001800ad230 f i libucrtd:dbgrpt.obj
 0001:000ac270       ?is_valid@?$__crt_unique_heap_ptr@U?$__crt_report_hook_node@_W@@U__crt_internal_free_policy@@@@QEBA_NXZ 00000001800ad270 f i libucrtd:dbgrpt.obj
 0001:000ac2b0       ?release@?$__crt_unique_heap_ptr@U?$__crt_report_hook_node@D@@U__crt_internal_free_policy@@@@QEAAXXZ 00000001800ad2b0 f i libucrtd:dbgrpt.obj
 0001:000ac300       ?release@?$__crt_unique_heap_ptr@U?$__crt_report_hook_node@_W@@U__crt_internal_free_policy@@@@QEAAXXZ 00000001800ad300 f i libucrtd:dbgrpt.obj
 0001:000ac350       _CrtDbgReport              00000001800ad350 f   libucrtd:dbgrpt.obj
 0001:000ac3f0       _CrtDbgReportW             00000001800ad3f0 f   libucrtd:dbgrpt.obj
 0001:000ac490       _CrtSetReportHook2         00000001800ad490 f   libucrtd:dbgrpt.obj
 0001:000ac4c0       _CrtSetReportHookW2        00000001800ad4c0 f   libucrtd:dbgrpt.obj
 0001:000ac4f0       __acrt_MessageWindowA      00000001800ad4f0 f   libucrtd:dbgrpt.obj
 0001:000ac550       __acrt_MessageWindowW      00000001800ad550 f   libucrtd:dbgrpt.obj
 0001:000ac5b0       _invoke_watson_if_error    00000001800ad5b0 f i libucrtd:dbgrpt.obj
 0001:000ac610       _invoke_watson_if_oneof    00000001800ad610 f i libucrtd:dbgrpt.obj
 0001:000ac690       _snwprintf_s               00000001800ad690 f i libucrtd:dbgrpt.obj
 0001:000ac720       _vsnwprintf_s_l            00000001800ad720 f i libucrtd:dbgrpt.obj
 0001:000ac7c0       _initterm                  00000001800ad7c0 f   libucrtd:initterm.obj
 0001:000ac840       _initterm_e                00000001800ad840 f   libucrtd:initterm.obj
 0001:000ac8e0       ??$?B$$A6AH_K@Z@__crt_fast_encoded_nullptr_t@@QEBAP6AH_K@ZXZ 00000001800ad8e0 f i libucrtd:new_handler.obj
 0001:000ac900       ??$__crt_fast_decode_pointer@P6AH_K@Z@@YAP6AH_K@ZQ6AH0@Z@Z 00000001800ad900 f i libucrtd:new_handler.obj
 0001:000ac950       ??$__crt_fast_encode_pointer@P6AH_K@Z@@YAP6AH_K@ZQ6AH0@Z@Z 00000001800ad950 f i libucrtd:new_handler.obj
 0001:000ac9a0       ?_set_new_handler@@YAP6AH_K@ZH@Z 00000001800ad9a0 f   libucrtd:new_handler.obj
 0001:000aca30       ?get_current_state_index@__crt_state_management@@YA_KXZ 00000001800ada30 f i libucrtd:new_handler.obj
 0001:000aca40       ?initialize@?$dual_state_global@P6AH_K@Z@__crt_state_management@@QEAAXQ6AH_K@Z@Z 00000001800ada40 f i libucrtd:new_handler.obj
 0001:000acaa0       ?value@?$dual_state_global@P6AH_K@Z@__crt_state_management@@QEAAAEAP6AH_K@ZXZ 00000001800adaa0 f i libucrtd:new_handler.obj
 0001:000acad0       __acrt_initialize_new_handler 00000001800adad0 f   libucrtd:new_handler.obj
 0001:000acb00       _callnewh                  00000001800adb00 f   libucrtd:new_handler.obj
 0001:000acb60       _query_new_handler         00000001800adb60 f   libucrtd:new_handler.obj
 0001:000acbb0       _set_new_handler           00000001800adbb0 f   libucrtd:new_handler.obj
 0001:000acc30       malloc                     00000001800adc30 f   libucrtd:malloc.obj
 0001:000af430       _CrtCheckMemory            00000001800b0430 f   libucrtd:debug_heap.obj
 0001:000af630       _CrtDoForAllClientObjects  00000001800b0630 f   libucrtd:debug_heap.obj
 0001:000af7c0       _CrtDumpMemoryLeaks        00000001800b07c0 f   libucrtd:debug_heap.obj
 0001:000af8b0       _CrtGetAllocHook           00000001800b08b0 f   libucrtd:debug_heap.obj
 0001:000af8c0       _CrtGetDumpClient          00000001800b08c0 f   libucrtd:debug_heap.obj
 0001:000af8d0       _CrtIsMemoryBlock          00000001800b08d0 f   libucrtd:debug_heap.obj
 0001:000afa60       _CrtIsValidHeapPointer     00000001800b0a60 f   libucrtd:debug_heap.obj
 0001:000afab0       _CrtIsValidPointer         00000001800b0ab0 f   libucrtd:debug_heap.obj
 0001:000afaf0       _CrtMemCheckpoint          00000001800b0af0 f   libucrtd:debug_heap.obj
 0001:000afe10       _CrtMemDifference          00000001800b0e10 f   libucrtd:debug_heap.obj
 0001:000b0240       _CrtMemDumpAllObjectsSince 00000001800b1240 f   libucrtd:debug_heap.obj
 0001:000b02b0       _CrtMemDumpStatistics      00000001800b12b0 f   libucrtd:debug_heap.obj
 0001:000b04b0       _CrtReportBlockType        00000001800b14b0 f   libucrtd:debug_heap.obj
 0001:000b04f0       _CrtSetAllocHook           00000001800b14f0 f   libucrtd:debug_heap.obj
 0001:000b0530       _CrtSetBreakAlloc          00000001800b1530 f   libucrtd:debug_heap.obj
 0001:000b0560       _CrtSetDbgBlockType        00000001800b1560 f   libucrtd:debug_heap.obj
 0001:000b0620       _CrtSetDbgFlag             00000001800b1620 f   libucrtd:debug_heap.obj
 0001:000b07d0       _CrtSetDumpClient          00000001800b17d0 f   libucrtd:debug_heap.obj
 0001:000b0810       __acrt_get_locale_data_prefix 00000001800b1810 f i libucrtd:debug_heap.obj
 0001:000b0840       __p__crtBreakAlloc         00000001800b1840 f   libucrtd:debug_heap.obj
 0001:000b0850       __p__crtDbgFlag            00000001800b1850 f   libucrtd:debug_heap.obj
 0001:000b0860       _aligned_free_dbg          00000001800b1860 f   libucrtd:debug_heap.obj
 0001:000b0980       _aligned_malloc_dbg        00000001800b1980 f   libucrtd:debug_heap.obj
 0001:000b09d0       _aligned_msize_dbg         00000001800b19d0 f   libucrtd:debug_heap.obj
 0001:000b0c00       _aligned_offset_malloc_dbg 00000001800b1c00 f   libucrtd:debug_heap.obj
 0001:000b0fa0       _aligned_offset_realloc_dbg 00000001800b1fa0 f   libucrtd:debug_heap.obj
 0001:000b1570       _aligned_offset_recalloc_dbg 00000001800b2570 f   libucrtd:debug_heap.obj
 0001:000b16d0       _aligned_realloc_dbg       00000001800b26d0 f   libucrtd:debug_heap.obj
 0001:000b1730       _aligned_recalloc_dbg      00000001800b2730 f   libucrtd:debug_heap.obj
 0001:000b17a0       _calloc_dbg                00000001800b27a0 f   libucrtd:debug_heap.obj
 0001:000b1860       _chvalidchk_l              00000001800b2860 f i libucrtd:debug_heap.obj
 0001:000b18a0       _expand_dbg                00000001800b28a0 f   libucrtd:debug_heap.obj
 0001:000b1a20       _free_dbg                  00000001800b2a20 f   libucrtd:debug_heap.obj
 0001:000b1aa0       _ischartype_l              00000001800b2aa0 f i libucrtd:debug_heap.obj
 0001:000b1b10       _malloc_dbg                00000001800b2b10 f   libucrtd:debug_heap.obj
 0001:000b1b60       _msize_dbg                 00000001800b2b60 f   libucrtd:debug_heap.obj
 0001:000b1d60       _realloc_dbg               00000001800b2d60 f   libucrtd:debug_heap.obj
 0001:000b1df0       _recalloc_dbg              00000001800b2df0 f   libucrtd:debug_heap.obj
 0001:000b1fb0       _seh_filter_dll            00000001800b2fb0 f   libucrtd:exception_filter.obj
 0001:000b1ff0       _seh_filter_exe            00000001800b2ff0 f   libucrtd:exception_filter.obj
 0001:000b2340       ??$?B$$A6AXPEAXK0@Z@__crt_fast_encoded_nullptr_t@@QEBAP6AXPEAXK0@ZXZ 00000001800b3340 f i libucrtd:exit.obj
 0001:000b2360       ??$__crt_fast_decode_pointer@P6AXPEAXK0@Z@@YAP6AXPEAXK0@ZQ6AX0K0@Z@Z 00000001800b3360 f i libucrtd:exit.obj
 0001:000b23b0       ??$__crt_fast_encode_pointer@P6AXPEAXK0@Z@@YAP6AXPEAXK0@ZQ6AX0K0@Z@Z 00000001800b33b0 f i libucrtd:exit.obj
 0001:000b2400       ??$__crt_get_proc_address@P6AXI@Z@@YAP6AXI@ZQEAUHINSTANCE__@@QEBD@Z 00000001800b3400 f i libucrtd:exit.obj
 0001:000b2430       ??0?$__crt_unique_handle_t@U__crt_hmodule_traits@@@@QEAA@QEAUHINSTANCE__@@@Z 00000001800b3430 f i libucrtd:exit.obj
 0001:000b2460       ??1?$__crt_unique_handle_t@U__crt_hmodule_traits@@@@QEAA@XZ 00000001800b3460 f i libucrtd:exit.obj
 0001:000b24a0       ?close@?$__crt_unique_handle_t@U__crt_hmodule_traits@@@@QEAAXXZ 00000001800b34a0 f i libucrtd:exit.obj
 0001:000b24f0       ?close@__crt_hmodule_traits@@SA_NPEAUHINSTANCE__@@@Z 00000001800b34f0 f i libucrtd:exit.obj
 0001:000b2730       ?get@?$__crt_unique_handle_t@U__crt_hmodule_traits@@@@QEBAPEAUHINSTANCE__@@XZ 00000001800b3730 f i libucrtd:exit.obj
 0001:000b2750       ?get_address_of@?$__crt_unique_handle_t@U__crt_hmodule_traits@@@@QEAAPEAPEAUHINSTANCE__@@XZ 00000001800b3750 f i libucrtd:exit.obj
 0001:000b2760       ?get_invalid_value@__crt_hmodule_traits@@SAPEAUHINSTANCE__@@XZ 00000001800b3760 f i libucrtd:exit.obj
 0001:000b2980       _Exit                      00000001800b3980 f   libucrtd:exit.obj
 0001:000b29b0       __acrt_initialize_thread_local_exit_callback 00000001800b39b0 f   libucrtd:exit.obj
 0001:000b29d0       _c_exit                    00000001800b39d0 f   libucrtd:exit.obj
 0001:000b2a00       _cexit                     00000001800b3a00 f   libucrtd:exit.obj
 0001:000b2a20       _exit                      00000001800b3a20 f   libucrtd:exit.obj
 0001:000b2a50       _is_c_termination_complete 00000001800b3a50 f   libucrtd:exit.obj
 0001:000b2a70       _register_thread_local_exe_atexit_callback 00000001800b3a70 f   libucrtd:exit.obj
 0001:000b2ad0       exit                       00000001800b3ad0 f   libucrtd:exit.obj
 0001:000b2b00       quick_exit                 00000001800b3b00 f   libucrtd:exit.obj
 0001:000b2b28       ??$?RPEAD@__crt_internal_free_policy@@QEBAXQEBQEAD@Z 00000001800b3b28 f i libucrtd:environment_initialization.obj
 0001:000b2b38       ??$?RPEA_W@__crt_internal_free_policy@@QEBAXQEBQEA_W@Z 00000001800b3b38 f i libucrtd:environment_initialization.obj
 0001:000b2b48       ??$?R_W@__crt_internal_free_policy@@QEBAXQEB_W@Z 00000001800b3b48 f i libucrtd:environment_initialization.obj
 0001:000b31f0       ??$get_environment_from_os@$$$V@?$__crt_char_traits@D@@SAPEADXZ 00000001800b41f0 f i libucrtd:environment_initialization.obj
 0001:000b31f8       ??$get_environment_from_os@$$$V@?$__crt_char_traits@_W@@SAPEA_WXZ 00000001800b41f8 f i libucrtd:environment_initialization.obj
 0001:000b3438       ??$set_variable_in_environment_nolock@PEADH@?$__crt_char_traits@D@@SAH$$QEAPEAD$$QEAH@Z 00000001800b4438 f i libucrtd:environment_initialization.obj
 0001:000b3444       ??$set_variable_in_environment_nolock@PEA_WH@?$__crt_char_traits@_W@@SAH$$QEAPEA_W$$QEAH@Z 00000001800b4444 f i libucrtd:environment_initialization.obj
 0001:000b3450       ??$tcscpy_s@PEADAEB_KAEAPEAD@?$__crt_char_traits@D@@SAH$$QEAPEADAEB_KAEAPEAD@Z 00000001800b4450 f i libucrtd:environment_initialization.obj
 0001:000b3464       ??$tcscpy_s@PEA_WAEB_KAEAPEA_W@?$__crt_char_traits@_W@@SAH$$QEAPEA_WAEB_KAEAPEA_W@Z 00000001800b4464 f i libucrtd:environment_initialization.obj
 0001:000b3478       ??$tcslen@AEAPEAD@?$__crt_char_traits@D@@SA_KAEAPEAD@Z 00000001800b4478 f i libucrtd:environment_initialization.obj
 0001:000b3490       ??$tcslen@AEAPEA_W@?$__crt_char_traits@_W@@SA_KAEAPEA_W@Z 00000001800b4490 f i libucrtd:environment_initialization.obj
 0001:000b34a8       ??$uninitialize@A6AXAEAPEAPEAD@Z@?$dual_state_global@PEAPEAD@__crt_state_management@@QEAAXA6AXAEAPEAPEAD@Z@Z 00000001800b44a8 f i libucrtd:environment_initialization.obj
 0001:000b3500       ??$uninitialize@A6AXAEAPEAPEA_W@Z@?$dual_state_global@PEAPEA_W@__crt_state_management@@QEAAXA6AXAEAPEAPEA_W@Z@Z 00000001800b4500 f i libucrtd:environment_initialization.obj
 0001:000b3598       ??0?$__crt_unique_heap_ptr@PEADU__crt_internal_free_policy@@@@QEAA@QEAPEAD@Z 00000001800b4598 f i libucrtd:environment_initialization.obj
 0001:000b35a0       ??0?$__crt_unique_heap_ptr@PEA_WU__crt_internal_free_policy@@@@QEAA@QEAPEA_W@Z 00000001800b45a0 f i libucrtd:environment_initialization.obj
 0001:000b35a8       ??0?$__crt_unique_heap_ptr@_WU__crt_internal_free_policy@@@@QEAA@QEA_W@Z 00000001800b45a8 f i libucrtd:environment_initialization.obj
 0001:000b35b0       ??1?$__crt_unique_heap_ptr@PEADU__crt_internal_free_policy@@@@QEAA@XZ 00000001800b45b0 f i libucrtd:environment_initialization.obj
 0001:000b35d8       ??1?$__crt_unique_heap_ptr@PEA_WU__crt_internal_free_policy@@@@QEAA@XZ 00000001800b45d8 f i libucrtd:environment_initialization.obj
 0001:000b3600       ??1?$__crt_unique_heap_ptr@_WU__crt_internal_free_policy@@@@QEAA@XZ 00000001800b4600 f i libucrtd:environment_initialization.obj
 0001:000b3628       ??B?$__crt_unique_heap_ptr@PEADU__crt_internal_free_policy@@@@QEBA_NXZ 00000001800b4628 f i libucrtd:environment_initialization.obj
 0001:000b3634       ??B?$__crt_unique_heap_ptr@PEA_WU__crt_internal_free_policy@@@@QEBA_NXZ 00000001800b4634 f i libucrtd:environment_initialization.obj
 0001:000b3640       ??B?$__crt_unique_heap_ptr@_WU__crt_internal_free_policy@@@@QEBA_NXZ 00000001800b4640 f i libucrtd:environment_initialization.obj
 0001:000b364c       ?__crt_compute_required_transform_buffer_count@@YA_KIQEBD@Z 00000001800b464c f i libucrtd:environment_initialization.obj
 0001:000b367c       ?__crt_compute_required_transform_buffer_count@@YA_KIQEB_W@Z 00000001800b467c f i libucrtd:environment_initialization.obj
 0001:000b36b8       ?__crt_transform_string@@YA_KIQEBDQEA_W_K@Z 00000001800b46b8 f i libucrtd:environment_initialization.obj
 0001:000b36e8       ?__crt_transform_string@@YA_KIQEB_WQEAD_K@Z 00000001800b46e8 f i libucrtd:environment_initialization.obj
 0001:000b3724       ?detach@?$__crt_unique_heap_ptr@DU__crt_internal_free_policy@@@@QEAAPEADXZ 00000001800b4724 f i libucrtd:environment_initialization.obj
 0001:000b3730       ?detach@?$__crt_unique_heap_ptr@PEADU__crt_internal_free_policy@@@@QEAAPEAPEADXZ 00000001800b4730 f i libucrtd:environment_initialization.obj
 0001:000b373c       ?detach@?$__crt_unique_heap_ptr@PEA_WU__crt_internal_free_policy@@@@QEAAPEAPEA_WXZ 00000001800b473c f i libucrtd:environment_initialization.obj
 0001:000b3748       ?detach@?$__crt_unique_heap_ptr@_WU__crt_internal_free_policy@@@@QEAAPEA_WXZ 00000001800b4748 f i libucrtd:environment_initialization.obj
 0001:000b3754       ?get@?$__crt_unique_heap_ptr@PEADU__crt_internal_free_policy@@@@QEBAPEAPEADXZ 00000001800b4754 f i libucrtd:environment_initialization.obj
 0001:000b3758       ?get@?$__crt_unique_heap_ptr@PEA_WU__crt_internal_free_policy@@@@QEBAPEAPEA_WXZ 00000001800b4758 f i libucrtd:environment_initialization.obj
 0001:000b375c       ?get@?$__crt_unique_heap_ptr@_WU__crt_internal_free_policy@@@@QEBAPEA_WXZ 00000001800b475c f i libucrtd:environment_initialization.obj
 0001:000b37a8       ?initialize@?$dual_state_global@PEAPEAD@__crt_state_management@@QEAAXQEAPEAD@Z 00000001800b47a8 f i libucrtd:environment_initialization.obj
 0001:000b37e8       ?initialize@?$dual_state_global@PEAPEA_W@__crt_state_management@@QEAAXQEAPEA_W@Z 00000001800b47e8 f i libucrtd:environment_initialization.obj
 0001:000b3828       ?is_valid@?$__crt_unique_heap_ptr@PEADU__crt_internal_free_policy@@@@QEBA_NXZ 00000001800b4828 f i libucrtd:environment_initialization.obj
 0001:000b3834       ?is_valid@?$__crt_unique_heap_ptr@PEA_WU__crt_internal_free_policy@@@@QEBA_NXZ 00000001800b4834 f i libucrtd:environment_initialization.obj
 0001:000b3840       ?is_valid@?$__crt_unique_heap_ptr@_WU__crt_internal_free_policy@@@@QEBA_NXZ 00000001800b4840 f i libucrtd:environment_initialization.obj
 0001:000b3858       ?release@?$__crt_unique_heap_ptr@PEADU__crt_internal_free_policy@@@@QEAAXXZ 00000001800b4858 f i libucrtd:environment_initialization.obj
 0001:000b3880       ?release@?$__crt_unique_heap_ptr@PEA_WU__crt_internal_free_policy@@@@QEAAXXZ 00000001800b4880 f i libucrtd:environment_initialization.obj
 0001:000b38a8       ?release@?$__crt_unique_heap_ptr@_WU__crt_internal_free_policy@@@@QEAAXXZ 00000001800b48a8 f i libucrtd:environment_initialization.obj
 0001:000b38d0       ?value@?$dual_state_global@PEAPEAD@__crt_state_management@@QEAAAEAPEAPEADXZ 00000001800b48d0 f i libucrtd:environment_initialization.obj
 0001:000b38d4       ?value@?$dual_state_global@PEAPEA_W@__crt_state_management@@QEAAAEAPEAPEA_WXZ 00000001800b48d4 f i libucrtd:environment_initialization.obj
 0001:000b38d8       __dcrt_get_or_create_narrow_environment_nolock 00000001800b48d8 f   libucrtd:environment_initialization.obj
 0001:000b38e0       __dcrt_get_or_create_wide_environment_nolock 00000001800b48e0 f   libucrtd:environment_initialization.obj
 0001:000b38e8       __dcrt_uninitialize_environments_nolock 00000001800b48e8 f   libucrtd:environment_initialization.obj
 0001:000b3930       __p__environ               00000001800b4930 f   libucrtd:environment_initialization.obj
 0001:000b393c       __p__wenviron              00000001800b493c f   libucrtd:environment_initialization.obj
 0001:000b3948       _get_initial_narrow_environment 00000001800b4948 f   libucrtd:environment_initialization.obj
 0001:000b3974       _get_initial_wide_environment 00000001800b4974 f   libucrtd:environment_initialization.obj
 0001:000b39a0       _initialize_narrow_environment 00000001800b49a0 f   libucrtd:environment_initialization.obj
 0001:000b39a8       _initialize_wide_environment 00000001800b49a8 f   libucrtd:environment_initialization.obj
 0001:000b39b0       ??$?BP6AXXZ@__crt_fast_encoded_nullptr_t@@QEBAPEAP6AXXZXZ 00000001800b49b0 f i libucrtd:onexit.obj
 0001:000b39d0       ??$?RP6AXXZ@__crt_internal_free_policy@@QEBAXQEBQ6AXXZ@Z 00000001800b49d0 f i libucrtd:onexit.obj
 0001:000b3a00       ??$?RV<lambda_b0d8f1f77f5878de4f648f281b223c15>@@AEAV<lambda_942beefa13ab35ff55f86422493ffd6a>@@V<lambda_7adb6fc9c0d6a5bd4e2d9c212ec7cdcc>@@@?$__crt_seh_guarded_call@H@@QEAAH$$QEAV<lambda_b0d8f1f77f5878de4f648f281b223c15>@@AEAV<lambda_942beefa13ab35ff55f86422493ffd6a>@@$$QEAV<lambda_7adb6fc9c0d6a5bd4e2d9c212ec7cdcc>@@@Z 00000001800b4a00 f i libucrtd:onexit.obj
 0001:000b3a60       ??$?RV<lambda_d22e02de4d14401f49897516b29a2b7c>@@AEAV<lambda_e971338317bfa523bb8920b43d823727>@@V<lambda_b0b8599c9027f5b14541fbbd6863d1f1>@@@?$__crt_seh_guarded_call@H@@QEAAH$$QEAV<lambda_d22e02de4d14401f49897516b29a2b7c>@@AEAV<lambda_e971338317bfa523bb8920b43d823727>@@$$QEAV<lambda_b0b8599c9027f5b14541fbbd6863d1f1>@@@Z 00000001800b4a60 f i libucrtd:onexit.obj
 0001:000b3ac0       ??$__acrt_lock_and_call@V<lambda_942beefa13ab35ff55f86422493ffd6a>@@@@YAHW4__acrt_lock_id@@$$QEAV<lambda_942beefa13ab35ff55f86422493ffd6a>@@@Z 00000001800b4ac0 f i libucrtd:onexit.obj
 0001:000b3b40       ??$__acrt_lock_and_call@V<lambda_e971338317bfa523bb8920b43d823727>@@@@YAHW4__acrt_lock_id@@$$QEAV<lambda_e971338317bfa523bb8920b43d823727>@@@Z 00000001800b4b40 f i libucrtd:onexit.obj
 0001:000b3bc0       ??$__crt_fast_encode_pointer@P6AHXZ@@YAP6AHXZQ6AHXZ@Z 00000001800b4bc0 f i libucrtd:onexit.obj
 0001:000b3d40       ??0?$__crt_unique_heap_ptr@P6AXXZU__crt_internal_free_policy@@@@QEAA@QEAP6AXXZ@Z 00000001800b4d40 f i libucrtd:onexit.obj
 0001:000b3d70       ??1?$__crt_unique_heap_ptr@P6AXXZU__crt_internal_free_policy@@@@QEAA@XZ 00000001800b4d70 f i libucrtd:onexit.obj
 0001:000b4480       ?detach@?$__crt_unique_heap_ptr@P6AXXZU__crt_internal_free_policy@@@@QEAAPEAP6AXXZXZ 00000001800b5480 f i libucrtd:onexit.obj
 0001:000b44c0       ?release@?$__crt_unique_heap_ptr@P6AXXZU__crt_internal_free_policy@@@@QEAAXXZ 00000001800b54c0 f i libucrtd:onexit.obj
 0001:000b4510       _crt_at_quick_exit         00000001800b5510 f   libucrtd:onexit.obj
 0001:000b4540       _crt_atexit                00000001800b5540 f   libucrtd:onexit.obj
 0001:000b4570       _execute_onexit_table      00000001800b5570 f   libucrtd:onexit.obj
 0001:000b45b0       _initialize_onexit_table   00000001800b55b0 f   libucrtd:onexit.obj
 0001:000b4650       _register_onexit_function  00000001800b5650 f   libucrtd:onexit.obj
 0001:000b4940       ?initialize@?$dual_state_global@PEAU__crt_locale_data@@@__crt_state_management@@QEAAXQEAU__crt_locale_data@@@Z 00000001800b5940 f i libucrtd:initialization.obj
 0001:000b49a0       __acrt_initialize          00000001800b59a0 f   libucrtd:initialization.obj
 0001:000b49d0       __acrt_thread_attach       00000001800b59d0 f   libucrtd:initialization.obj
 0001:000b49f0       __acrt_thread_detach       00000001800b59f0 f   libucrtd:initialization.obj
 0001:000b4a10       __acrt_uninitialize        00000001800b5a10 f   libucrtd:initialization.obj
 0001:000b4a50       __acrt_uninitialize_critical 00000001800b5a50 f   libucrtd:initialization.obj
 0001:000b4ac0       _get_terminate             00000001800b5ac0 f   libucrtd:terminate.obj
 0001:000b4ae0       set_terminate              00000001800b5ae0 f   libucrtd:terminate.obj
 0001:000b4b30       terminate                  00000001800b5b30 f   libucrtd:terminate.obj
 0001:000b5c90       _makepath                  00000001800b6c90 f   libucrtd:makepath.obj
 0001:000b5cf0       _makepath_s                00000001800b6cf0 f   libucrtd:makepath.obj
 0001:000b5d50       _wmakepath                 00000001800b6d50 f   libucrtd:makepath.obj
 0001:000b5db0       _wmakepath_s               00000001800b6db0 f   libucrtd:makepath.obj
 0001:000b8bb0       ??$tcsncpy_s@AEAPEAD_KAEAPEBDAEB_K@?$__crt_char_traits@D@@SAHAEAPEAD$$QEA_KAEAPEBDAEB_K@Z 00000001800b9bb0 f i libucrtd:splitpath.obj
 0001:000b8c10       ??$tcsncpy_s@AEAPEAD_KAEAPEBDH@?$__crt_char_traits@D@@SAHAEAPEAD$$QEA_KAEAPEBD$$QEAH@Z 00000001800b9c10 f i libucrtd:splitpath.obj
 0001:000b8c70       ??$tcsncpy_s@AEAPEA_W_KAEAPEB_WAEB_K@?$__crt_char_traits@_W@@SAHAEAPEA_W$$QEA_KAEAPEB_WAEB_K@Z 00000001800b9c70 f i libucrtd:splitpath.obj
 0001:000b8cd0       ??$tcsncpy_s@AEAPEA_W_KAEAPEB_WH@?$__crt_char_traits@_W@@SAHAEAPEA_W$$QEA_KAEAPEB_W$$QEAH@Z 00000001800b9cd0 f i libucrtd:splitpath.obj
 0001:000b8fc0       _splitpath                 00000001800b9fc0 f   libucrtd:splitpath.obj
 0001:000b9010       _splitpath_s               00000001800ba010 f   libucrtd:splitpath.obj
 0001:000b90d0       _wsplitpath                00000001800ba0d0 f   libucrtd:splitpath.obj
 0001:000b9120       _wsplitpath_s              00000001800ba120 f   libucrtd:splitpath.obj
 0001:000b9800       wcscpy_s                   00000001800ba800 f   libucrtd:wcscpy_s.obj
 0001:000b9e40       strcpy_s                   00000001800bae40 f   libucrtd:strcpy_s.obj
 0001:000b9e90       strlen                     00000001800bae90 f   libucrtd:strlen.obj
 0001:000b9f70       _set_abort_behavior        00000001800baf70 f   libucrtd:abort.obj
 0001:000b9fc0       abort                      00000001800bafc0 f   libucrtd:abort.obj
 0001:000ba060       wcslen                     00000001800bb060 f   libucrtd:wcslen.obj
 0001:000ba0d0       free                       00000001800bb0d0 f   libucrtd:free.obj
 0001:000ba100       ??$is_overflow_condition@K@__crt_strtox@@YA_NIK@Z 00000001800bb100 f i libucrtd:atox.obj
 0001:000ba180       ??$is_overflow_condition@_K@__crt_strtox@@YA_NI_K@Z 00000001800bb180 f i libucrtd:atox.obj
 0001:000ba210       ??$make_c_string_character_source@D$$T@__crt_strtox@@YA?AV?$c_string_character_source@D@0@QEBD$$T@Z 00000001800bb210 f i libucrtd:atox.obj
 0001:000ba250       ??$make_c_string_character_source@_W$$T@__crt_strtox@@YA?AV?$c_string_character_source@_W@0@QEB_W$$T@Z 00000001800bb250 f i libucrtd:atox.obj
 0001:000ba290       ??$parse_integer@KV?$c_string_character_source@D@__crt_strtox@@@__crt_strtox@@YAKQEAU__crt_locale_pointers@@V?$c_string_character_source@D@0@H_N@Z 00000001800bb290 f i libucrtd:atox.obj
 0001:000ba850       ??$parse_integer@KV?$c_string_character_source@_W@__crt_strtox@@@__crt_strtox@@YAKQEAU__crt_locale_pointers@@V?$c_string_character_source@_W@0@H_N@Z 00000001800bb850 f i libucrtd:atox.obj
 0001:000bae30       ??$parse_integer@_KV?$c_string_character_source@D@__crt_strtox@@@__crt_strtox@@YA_KQEAU__crt_locale_pointers@@V?$c_string_character_source@D@0@H_N@Z 00000001800bbe30 f i libucrtd:atox.obj
 0001:000bb490       ??$parse_integer@_KV?$c_string_character_source@_W@__crt_strtox@@@__crt_strtox@@YA_KQEAU__crt_locale_pointers@@V?$c_string_character_source@_W@0@H_N@Z 00000001800bc490 f i libucrtd:atox.obj
 0001:000bbb00       ??$parse_integer_from_string@JD$$T@__crt_strtox@@YAJQEBD$$THQEAU__crt_locale_pointers@@@Z 00000001800bcb00 f i libucrtd:atox.obj
 0001:000bbb70       ??$parse_integer_from_string@J_W$$T@__crt_strtox@@YAJQEB_W$$THQEAU__crt_locale_pointers@@@Z 00000001800bcb70 f i libucrtd:atox.obj
 0001:000bbbe0       ??$parse_integer_from_string@_JD$$T@__crt_strtox@@YA_JQEBD$$THQEAU__crt_locale_pointers@@@Z 00000001800bcbe0 f i libucrtd:atox.obj
 0001:000bbc50       ??$parse_integer_from_string@_J_W$$T@__crt_strtox@@YA_JQEB_W$$THQEAU__crt_locale_pointers@@@Z 00000001800bcc50 f i libucrtd:atox.obj
 0001:000bbcc0       ??0?$c_string_character_source@D@__crt_strtox@@QEAA@QEBDQEAPEBD@Z 00000001800bccc0 f i libucrtd:atox.obj
 0001:000bbd20       ??0?$c_string_character_source@_W@__crt_strtox@@QEAA@QEB_WQEAPEB_W@Z 00000001800bcd20 f i libucrtd:atox.obj
 0001:000bbd80       ??1?$c_string_character_source@D@__crt_strtox@@QEAA@XZ 00000001800bcd80 f i libucrtd:atox.obj
 0001:000bbdb0       ??1?$c_string_character_source@_W@__crt_strtox@@QEAA@XZ 00000001800bcdb0 f i libucrtd:atox.obj
 0001:000bbde0       ?get@?$c_string_character_source@D@__crt_strtox@@QEAADXZ 00000001800bcde0 f i libucrtd:atox.obj
 0001:000bbe20       ?get@?$c_string_character_source@_W@__crt_strtox@@QEAA_WXZ 00000001800bce20 f i libucrtd:atox.obj
 0001:000bbe70       ?is_space@__crt_strtox@@YA_NDQEAU__crt_locale_pointers@@@Z 00000001800bce70 f i libucrtd:atox.obj
 0001:000bbed0       ?is_space@__crt_strtox@@YA_N_WPEAU__crt_locale_pointers@@@Z 00000001800bced0 f i libucrtd:atox.obj
 0001:000bbf20       ?maximum_signed_value@__crt_strtox@@YAJK@Z 00000001800bcf20 f i libucrtd:atox.obj
 0001:000bbf30       ?maximum_signed_value@__crt_strtox@@YA_J_K@Z 00000001800bcf30 f i libucrtd:atox.obj
 0001:000bbf50       ?minimum_signed_value@__crt_strtox@@YAJK@Z 00000001800bcf50 f i libucrtd:atox.obj
 0001:000bbf60       ?minimum_signed_value@__crt_strtox@@YA_J_K@Z 00000001800bcf60 f i libucrtd:atox.obj
 0001:000bbf80       ?parse_digit@__crt_strtox@@YAID@Z 00000001800bcf80 f i libucrtd:atox.obj
 0001:000bc000       ?parse_digit@__crt_strtox@@YAI_W@Z 00000001800bd000 f i libucrtd:atox.obj
 0001:000bc0b0       ?restore_state@?$c_string_character_source@D@__crt_strtox@@QEAA_NQEBD@Z 00000001800bd0b0 f i libucrtd:atox.obj
 0001:000bc0d0       ?restore_state@?$c_string_character_source@_W@__crt_strtox@@QEAA_NQEB_W@Z 00000001800bd0d0 f i libucrtd:atox.obj
 0001:000bc0f0       ?save_state@?$c_string_character_source@D@__crt_strtox@@QEBAPEBDXZ 00000001800bd0f0 f i libucrtd:atox.obj
 0001:000bc110       ?save_state@?$c_string_character_source@_W@__crt_strtox@@QEBAPEB_WXZ 00000001800bd110 f i libucrtd:atox.obj
 0001:000bc130       ?unget@?$c_string_character_source@D@__crt_strtox@@QEAAXD@Z 00000001800bd130 f i libucrtd:atox.obj
 0001:000bc240       ?unget@?$c_string_character_source@_W@__crt_strtox@@QEAAX_W@Z 00000001800bd240 f i libucrtd:atox.obj
 0001:000bc350       ?validate@?$c_string_character_source@D@__crt_strtox@@QEBA_NXZ 00000001800bd350 f i libucrtd:atox.obj
 0001:000bc440       ?validate@?$c_string_character_source@_W@__crt_strtox@@QEBA_NXZ 00000001800bd440 f i libucrtd:atox.obj
 0001:000bc530       ?wide_character_to_digit@__crt_strtox@@YAH_W@Z 00000001800bd530 f i libucrtd:atox.obj
 0001:000bc970       _atoi64                    00000001800bd970 f   libucrtd:atox.obj
 0001:000bc9a0       _atoi64_l                  00000001800bd9a0 f   libucrtd:atox.obj
 0001:000bc9e0       _atoi_l                    00000001800bd9e0 f   libucrtd:atox.obj
 0001:000bca20       _atol_l                    00000001800bda20 f   libucrtd:atox.obj
 0001:000bca60       _atoll_l                   00000001800bda60 f   libucrtd:atox.obj
 0001:000bcaa0       _wtoi                      00000001800bdaa0 f   libucrtd:atox.obj
 0001:000bcad0       _wtoi64                    00000001800bdad0 f   libucrtd:atox.obj
 0001:000bcb00       _wtoi64_l                  00000001800bdb00 f   libucrtd:atox.obj
 0001:000bcb40       _wtoi_l                    00000001800bdb40 f   libucrtd:atox.obj
 0001:000bcb80       _wtol                      00000001800bdb80 f   libucrtd:atox.obj
 0001:000bcbb0       _wtol_l                    00000001800bdbb0 f   libucrtd:atox.obj
 0001:000bcbf0       _wtoll                     00000001800bdbf0 f   libucrtd:atox.obj
 0001:000bcc20       _wtoll_l                   00000001800bdc20 f   libucrtd:atox.obj
 0001:000bcc60       atoi                       00000001800bdc60 f   libucrtd:atox.obj
 0001:000bcc90       atol                       00000001800bdc90 f   libucrtd:atox.obj
 0001:000bccc0       atoll                      00000001800bdcc0 f   libucrtd:atox.obj
 0001:000bccf0       nextafter                  00000001800bdcf0 f   libucrtd:nextafter.obj
 0001:000bcd20       nextafterf                 00000001800bdd20 f   libucrtd:nextafterf.obj
 0001:000bcfa0       _handle_error              00000001800bdfa0 f   libucrtd:libm_error.obj
 0001:000bd190       _handle_errorf             00000001800be190 f   libucrtd:libm_error.obj
 0001:000bd380       _handle_nan                00000001800be380 f   libucrtd:libm_error.obj
 0001:000bd3e0       _handle_nanf               00000001800be3e0 f   libucrtd:libm_error.obj
 0001:000bd420       _add_exp                   00000001800be420 f   libucrtd:util.obj
 0001:000bd470       _decomp                    00000001800be470 f   libucrtd:util.obj
 0001:000bd610       _get_exp                   00000001800be610 f   libucrtd:util.obj
 0001:000bd650       _set_bexp                  00000001800be650 f   libucrtd:util.obj
 0001:000bd6a0       _set_exp                   00000001800be6a0 f   libucrtd:util.obj
 0001:000bd700       _sptype                    00000001800be700 f   libucrtd:util.obj
 0001:000bd7a0       _clrfp                     00000001800be7a0 f   libucrtd:fpctrl.obj
 0001:000bd7d0       _ctrlfp                    00000001800be7d0 f   libucrtd:fpctrl.obj
 0001:000bd8b0       _set_statfp                00000001800be8b0 f   libucrtd:fpctrl.obj
 0001:000bd900       _statfp                    00000001800be900 f   libucrtd:fpctrl.obj
 0001:000bd930       _pow_special               00000001800be930 f   libucrtd:pow_special.obj
 0001:000bdc50       _powf_special              00000001800bec50 f   libucrtd:pow_special.obj
 0001:000be060       __acrt_initialize_fma3     00000001800bf060 f   libucrtd:fma3_available.obj
 0001:000be140       _get_FMA3_enable           00000001800bf140 f   libucrtd:fma3_available.obj
 0001:000be150       _set_FMA3_enable           00000001800bf150 f   libucrtd:fma3_available.obj
 0001:000be180       ??$__crt_fast_decode_pointer@P6AXPEB_W00I_K@Z@@YAP6AXPEB_W00I_K@ZQ6AX000I1@Z@Z 00000001800bf180 f i libucrtd:invalid_parameter.obj
 0001:000be1d0       ??$__crt_fast_encode_pointer@P6AXPEB_W00I_K@Z@@YAP6AXPEB_W00I_K@ZQ6AX000I1@Z@Z 00000001800bf1d0 f i libucrtd:invalid_parameter.obj
 0001:000be2e0       ?initialize@?$dual_state_global@P6AXPEB_W00I_K@Z@__crt_state_management@@QEAAXQ6AXPEB_W00I_K@Z@Z 00000001800bf2e0 f i libucrtd:invalid_parameter.obj
 0001:000be340       ?value@?$dual_state_global@P6AXPEB_W00I_K@Z@__crt_state_management@@QEAAAEAP6AXPEB_W00I_K@ZXZ 00000001800bf340 f i libucrtd:invalid_parameter.obj
 0001:000be370       __acrt_call_reportfault    00000001800bf370 f   libucrtd:invalid_parameter.obj
 0001:000be4f0       __acrt_initialize_invalid_parameter_handler 00000001800bf4f0 f   libucrtd:invalid_parameter.obj
 0001:000be520       _get_invalid_parameter_handler 00000001800bf520 f   libucrtd:invalid_parameter.obj
 0001:000be550       _get_thread_local_invalid_parameter_handler 00000001800bf550 f   libucrtd:invalid_parameter.obj
 0001:000be590       _invalid_parameter         00000001800bf590 f   libucrtd:invalid_parameter.obj
 0001:000be6e0       _invalid_parameter_noinfo  00000001800bf6e0 f   libucrtd:invalid_parameter.obj
 0001:000be710       _invalid_parameter_noinfo_noreturn 00000001800bf710 f   libucrtd:invalid_parameter.obj
 0001:000be760       _invoke_watson             00000001800bf760 f   libucrtd:invalid_parameter.obj
 0001:000be7e0       _set_invalid_parameter_handler 00000001800bf7e0 f   libucrtd:invalid_parameter.obj
 0001:000be850       _set_thread_local_invalid_parameter_handler 00000001800bf850 f   libucrtd:invalid_parameter.obj
 0001:000be8a0       __acrt_errno_from_os_error 00000001800bf8a0 f   libucrtd:errno.obj
 0001:000be950       __acrt_errno_map_os_error  00000001800bf950 f   libucrtd:errno.obj
 0001:000be990       __doserrno                 00000001800bf990 f   libucrtd:errno.obj
 0001:000be9d0       _errno                     00000001800bf9d0 f   libucrtd:errno.obj
 0001:000bea10       _get_doserrno              00000001800bfa10 f   libucrtd:errno.obj
 0001:000beb00       _get_errno                 00000001800bfb00 f   libucrtd:errno.obj
 0001:000bebf0       _set_doserrno              00000001800bfbf0 f   libucrtd:errno.obj
 0001:000bec30       _set_errno                 00000001800bfc30 f   libucrtd:errno.obj
 0001:000becc0       ??$?B$$A6AHPEA_WK_J@Z@__crt_fast_encoded_nullptr_t@@QEBAP6AHPEA_WK_J@ZXZ 00000001800bfcc0 f i libucrtd:winapi_thunks.obj
 0001:000bece0       ??$?RV<lambda_630b2aca97f6d20d5b5ea6529ea6b6af>@@AEAV<lambda_af91936f1d075d609f72d9d8cba980af>@@V<lambda_e82fa975f615b5c7c7b0e4d178fdae67>@@@?$__crt_seh_guarded_call@H@@QEAAH$$QEAV<lambda_630b2aca97f6d20d5b5ea6529ea6b6af>@@AEAV<lambda_af91936f1d075d609f72d9d8cba980af>@@$$QEAV<lambda_e82fa975f615b5c7c7b0e4d178fdae67>@@@Z 00000001800bfce0 f i libucrtd:winapi_thunks.obj
 0001:000bed40       ??$__acrt_lock_and_call@V<lambda_af91936f1d075d609f72d9d8cba980af>@@@@YAHW4__acrt_lock_id@@$$QEAV<lambda_af91936f1d075d609f72d9d8cba980af>@@@Z 00000001800bfd40 f i libucrtd:winapi_thunks.obj
 0001:000bedc0       ??$__crt_fast_decode_pointer@P6AHPEA_WK_J@Z@@YAP6AHPEA_WK_J@ZQ6AH0K1@Z@Z 00000001800bfdc0 f i libucrtd:winapi_thunks.obj
 0001:000bee10       ??$__crt_fast_encode_pointer@P6AHPEA_WK_J@Z@@YAP6AHPEA_WK_J@ZQ6AH0K1@Z@Z 00000001800bfe10 f i libucrtd:winapi_thunks.obj
 0001:000bef70       ?__crt_interlocked_read_64@@YA_JPED_J@Z 00000001800bff70 f i libucrtd:winapi_thunks.obj
 0001:000bfd40       __acrt_AreFileApisANSI     00000001800c0d40 f   libucrtd:winapi_thunks.obj
 0001:000bfd90       __acrt_CompareStringEx     00000001800c0d90 f   libucrtd:winapi_thunks.obj
 0001:000bfeb0       __acrt_EnumSystemLocalesEx 00000001800c0eb0 f   libucrtd:winapi_thunks.obj
 0001:000bff50       __acrt_FlsAlloc            00000001800c0f50 f   libucrtd:winapi_thunks.obj
 0001:000bffb0       __acrt_FlsFree             00000001800c0fb0 f   libucrtd:winapi_thunks.obj
 0001:000c0010       __acrt_FlsGetValue         00000001800c1010 f   libucrtd:winapi_thunks.obj
 0001:000c0070       __acrt_FlsSetValue         00000001800c1070 f   libucrtd:winapi_thunks.obj
 0001:000c00e0       __acrt_GetDateFormatEx     00000001800c10e0 f   libucrtd:winapi_thunks.obj
 0001:000c01d0       __acrt_GetEnabledXStateFeatures 00000001800c11d0 f   libucrtd:winapi_thunks.obj
 0001:000c0220       __acrt_GetFileInformationByHandleEx 00000001800c1220 f   libucrtd:winapi_thunks.obj
 0001:000c02b0       __acrt_GetLocaleInfoEx     00000001800c12b0 f   libucrtd:winapi_thunks.obj
 0001:000c0350       __acrt_GetSystemTimePreciseAsFileTime 00000001800c1350 f   libucrtd:winapi_thunks.obj
 0001:000c03b0       __acrt_GetTimeFormatEx     00000001800c13b0 f   libucrtd:winapi_thunks.obj
 0001:000c0480       __acrt_GetUserDefaultLocaleName 00000001800c1480 f   libucrtd:winapi_thunks.obj
 0001:000c0500       __acrt_GetXStateFeaturesMask 00000001800c1500 f   libucrtd:winapi_thunks.obj
 0001:000c0570       __acrt_InitializeCriticalSectionEx 00000001800c1570 f   libucrtd:winapi_thunks.obj
 0001:000c05f0       __acrt_IsValidLocaleName   00000001800c15f0 f   libucrtd:winapi_thunks.obj
 0001:000c0660       __acrt_LCIDToLocaleName    00000001800c1660 f   libucrtd:winapi_thunks.obj
 0001:000c06f0       __acrt_LCMapStringEx       00000001800c16f0 f   libucrtd:winapi_thunks.obj
 0001:000c0810       __acrt_LocaleNameToLCID    00000001800c1810 f   libucrtd:winapi_thunks.obj
 0001:000c0880       __acrt_LocateXStateFeature 00000001800c1880 f   libucrtd:winapi_thunks.obj
 0001:000c08f0       __acrt_MessageBoxA         00000001800c18f0 f   libucrtd:winapi_thunks.obj
 0001:000c0970       __acrt_MessageBoxW         00000001800c1970 f   libucrtd:winapi_thunks.obj
 0001:000c09f0       __acrt_RoInitialize        00000001800c19f0 f   libucrtd:winapi_thunks.obj
 0001:000c0a40       __acrt_RoUninitialize      00000001800c1a40 f   libucrtd:winapi_thunks.obj
 0001:000c0a90       __acrt_RtlGenRandom        00000001800c1a90 f   libucrtd:winapi_thunks.obj
 0001:000c0af0       __acrt_SetThreadStackGuarantee 00000001800c1af0 f   libucrtd:winapi_thunks.obj
 0001:000c0b50       __acrt_can_show_message_box 00000001800c1b50 f   libucrtd:winapi_thunks.obj
 0001:000c0ba0       __acrt_can_use_vista_locale_apis 00000001800c1ba0 f   libucrtd:winapi_thunks.obj
 0001:000c0be0       __acrt_can_use_xstate_apis 00000001800c1be0 f   libucrtd:winapi_thunks.obj
 0001:000c0c20       __acrt_get_parent_window   00000001800c1c20 f   libucrtd:winapi_thunks.obj
 0001:000c0cc0       __acrt_initialize_winapi_thunks 00000001800c1cc0 f   libucrtd:winapi_thunks.obj
 0001:000c0d60       __acrt_is_interactive      00000001800c1d60 f   libucrtd:winapi_thunks.obj
 0001:000c0e80       __acrt_is_packaged_app     00000001800c1e80 f   libucrtd:winapi_thunks.obj
 0001:000c1010       __acrt_uninitialize_winapi_thunks 00000001800c2010 f   libucrtd:winapi_thunks.obj
 0001:000c10e0       ??0__crt_stdio_stream@@QEAA@QEAU__crt_stdio_stream_data@@@Z 00000001800c20e0 f i libucrtd:closeall.obj
 0001:000c1110       ?is_in_use@__crt_stdio_stream@@QEBA_NXZ 00000001800c2110 f i libucrtd:closeall.obj
 0001:000c1160       _fcloseall                 00000001800c2160 f   libucrtd:closeall.obj
 0001:000c12b0       ?__acrt_stdio_reset_buffer@@YAXV__crt_stdio_stream@@@Z 00000001800c22b0 f i libucrtd:fflush.obj
 0001:000c1310       ?has_all_of@__crt_stdio_stream@@QEBA_NJ@Z 00000001800c2310 f i libucrtd:fflush.obj
 0001:000c1360       ?has_any_of@__crt_stdio_stream@@QEBA_NJ@Z 00000001800c2360 f i libucrtd:fflush.obj
 0001:000c13b0       ?has_big_buffer@__crt_stdio_stream@@QEBA_NXZ 00000001800c23b0 f i libucrtd:fflush.obj
 0001:000c13e0       ?set_flags@__crt_stdio_stream@@QEBA_NJ@Z 00000001800c23e0 f i libucrtd:fflush.obj
 0001:000c1460       ?unset_flags@__crt_stdio_stream@@QEBA_NJ@Z 00000001800c2460 f i libucrtd:fflush.obj
 0001:000c14d0       __acrt_stdio_flush_nolock  00000001800c24d0 f   libucrtd:fflush.obj
 0001:000c1630       _fflush_nolock             00000001800c2630 f   libucrtd:fflush.obj
 0001:000c16e0       _flushall                  00000001800c26e0 f   libucrtd:fflush.obj
 0001:000c18c0       fflush                     00000001800c28c0 f   libucrtd:fflush.obj
 0001:000c1930       ?has_crt_buffer@__crt_stdio_stream@@QEBA_NXZ 00000001800c2930 f i libucrtd:_freebuf.obj
 0001:000c1960       __acrt_stdio_free_buffer_nolock 00000001800c2960 f   libucrtd:_freebuf.obj
 0001:000c1ef0       __acrt_initialize_lowio    00000001800c2ef0 f   libucrtd:ioinit.obj
 0001:000c1f50       __acrt_uninitialize_lowio  00000001800c2f50 f   libucrtd:ioinit.obj
 0001:000c2010       __isascii                  00000001800c3010 f i libucrtd:_ctype.obj
 0001:000c2050       __iscsym                   00000001800c3050 f i libucrtd:_ctype.obj
 0001:000c20a0       __iscsymf                  00000001800c30a0 f i libucrtd:_ctype.obj
 0001:000c20f0       __toascii                  00000001800c30f0 f i libucrtd:_ctype.obj
 0001:000c2100       _isalnum_l                 00000001800c3100 f i libucrtd:_ctype.obj
 0001:000c2170       _isalpha_l                 00000001800c3170 f i libucrtd:_ctype.obj
 0001:000c21e0       _isblank_l                 00000001800c31e0 f i libucrtd:_ctype.obj
 0001:000c2260       _iscntrl_l                 00000001800c3260 f i libucrtd:_ctype.obj
 0001:000c22d0       _iscsym_l                  00000001800c32d0 f i libucrtd:_ctype.obj
 0001:000c2330       _iscsymf_l                 00000001800c3330 f i libucrtd:_ctype.obj
 0001:000c2390       _isdigit_l                 00000001800c3390 f i libucrtd:_ctype.obj
 0001:000c2400       _isgraph_l                 00000001800c3400 f i libucrtd:_ctype.obj
 0001:000c2470       _islower_l                 00000001800c3470 f i libucrtd:_ctype.obj
 0001:000c24e0       _isprint_l                 00000001800c34e0 f i libucrtd:_ctype.obj
 0001:000c2550       _ispunct_l                 00000001800c3550 f i libucrtd:_ctype.obj
 0001:000c25c0       _isspace_l                 00000001800c35c0 f i libucrtd:_ctype.obj
 0001:000c2630       _isupper_l                 00000001800c3630 f i libucrtd:_ctype.obj
 0001:000c26a0       _isxdigit_l                00000001800c36a0 f i libucrtd:_ctype.obj
 0001:000c2710       isalnum                    00000001800c3710 f i libucrtd:_ctype.obj
 0001:000c2760       isalpha                    00000001800c3760 f i libucrtd:_ctype.obj
 0001:000c27b0       isblank                    00000001800c37b0 f i libucrtd:_ctype.obj
 0001:000c2820       iscntrl                    00000001800c3820 f i libucrtd:_ctype.obj
 0001:000c2870       isdigit                    00000001800c3870 f i libucrtd:_ctype.obj
 0001:000c28c0       isgraph                    00000001800c38c0 f i libucrtd:_ctype.obj
 0001:000c2910       islower                    00000001800c3910 f i libucrtd:_ctype.obj
 0001:000c2960       isprint                    00000001800c3960 f i libucrtd:_ctype.obj
 0001:000c29b0       ispunct                    00000001800c39b0 f i libucrtd:_ctype.obj
 0001:000c2a00       isspace                    00000001800c3a00 f i libucrtd:_ctype.obj
 0001:000c2a50       isupper                    00000001800c3a50 f i libucrtd:_ctype.obj
 0001:000c2aa0       isxdigit                   00000001800c3aa0 f i libucrtd:_ctype.obj
 0001:000c33d0       _tolower                   00000001800c43d0 f   libucrtd:tolower_toupper.obj
 0001:000c33e0       _tolower_l                 00000001800c43e0 f   libucrtd:tolower_toupper.obj
 0001:000c3410       _toupper                   00000001800c4410 f   libucrtd:tolower_toupper.obj
 0001:000c3420       _toupper_l                 00000001800c4420 f   libucrtd:tolower_toupper.obj
 0001:000c3450       tolower                    00000001800c4450 f   libucrtd:tolower_toupper.obj
 0001:000c34c0       toupper                    00000001800c44c0 f   libucrtd:tolower_toupper.obj
 0001:000c3530       _CrtGetDebugFillThreshold  00000001800c4530 f   libucrtd:debug_fill_threshold.obj
 0001:000c3540       _CrtSetDebugFillThreshold  00000001800c4540 f   libucrtd:debug_fill_threshold.obj
 0001:000c3580       ??$make_c_string_character_source@DPEAPEAD@__crt_strtox@@YA?AV?$c_string_character_source@D@0@QEBDQEAPEAD@Z 00000001800c4580 f i libucrtd:strtox.obj
 0001:000c35c0       ??$make_c_string_character_source@_WPEAPEA_W@__crt_strtox@@YA?AV?$c_string_character_source@_W@0@QEB_WQEAPEA_W@Z 00000001800c45c0 f i libucrtd:strtox.obj
 0001:000c3600       ??$parse_integer_from_string@JDPEAPEAD@__crt_strtox@@YAJQEBDQEAPEADHQEAU__crt_locale_pointers@@@Z 00000001800c4600 f i libucrtd:strtox.obj
 0001:000c3670       ??$parse_integer_from_string@J_WPEAPEA_W@__crt_strtox@@YAJQEB_WQEAPEA_WHQEAU__crt_locale_pointers@@@Z 00000001800c4670 f i libucrtd:strtox.obj
 0001:000c36e0       ??$parse_integer_from_string@KDPEAPEAD@__crt_strtox@@YAKQEBDQEAPEADHQEAU__crt_locale_pointers@@@Z 00000001800c46e0 f i libucrtd:strtox.obj
 0001:000c3750       ??$parse_integer_from_string@K_WPEAPEA_W@__crt_strtox@@YAKQEB_WQEAPEA_WHQEAU__crt_locale_pointers@@@Z 00000001800c4750 f i libucrtd:strtox.obj
 0001:000c37c0       ??$parse_integer_from_string@_JDPEAPEAD@__crt_strtox@@YA_JQEBDQEAPEADHQEAU__crt_locale_pointers@@@Z 00000001800c47c0 f i libucrtd:strtox.obj
 0001:000c3830       ??$parse_integer_from_string@_J_WPEAPEA_W@__crt_strtox@@YA_JQEB_WQEAPEA_WHQEAU__crt_locale_pointers@@@Z 00000001800c4830 f i libucrtd:strtox.obj
 0001:000c38a0       ??$parse_integer_from_string@_KDPEAPEAD@__crt_strtox@@YA_KQEBDQEAPEADHQEAU__crt_locale_pointers@@@Z 00000001800c48a0 f i libucrtd:strtox.obj
 0001:000c3910       ??$parse_integer_from_string@_K_WPEAPEA_W@__crt_strtox@@YA_KQEB_WQEAPEA_WHQEAU__crt_locale_pointers@@@Z 00000001800c4910 f i libucrtd:strtox.obj
 0001:000c3980       _strtoi64                  00000001800c4980 f   libucrtd:strtox.obj
 0001:000c39c0       _strtoi64_l                00000001800c49c0 f   libucrtd:strtox.obj
 0001:000c3a10       _strtoimax_l               00000001800c4a10 f   libucrtd:strtox.obj
 0001:000c3a60       _strtol_l                  00000001800c4a60 f   libucrtd:strtox.obj
 0001:000c3ab0       _strtoll_l                 00000001800c4ab0 f   libucrtd:strtox.obj
 0001:000c3b00       _strtoui64                 00000001800c4b00 f   libucrtd:strtox.obj
 0001:000c3b40       _strtoui64_l               00000001800c4b40 f   libucrtd:strtox.obj
 0001:000c3b90       _strtoul_l                 00000001800c4b90 f   libucrtd:strtox.obj
 0001:000c3be0       _strtoull_l                00000001800c4be0 f   libucrtd:strtox.obj
 0001:000c3c30       _strtoumax_l               00000001800c4c30 f   libucrtd:strtox.obj
 0001:000c3c80       _wcstoi64                  00000001800c4c80 f   libucrtd:strtox.obj
 0001:000c3cc0       _wcstoi64_l                00000001800c4cc0 f   libucrtd:strtox.obj
 0001:000c3d10       _wcstoimax_l               00000001800c4d10 f   libucrtd:strtox.obj
 0001:000c3d60       _wcstol_l                  00000001800c4d60 f   libucrtd:strtox.obj
 0001:000c3db0       _wcstoll_l                 00000001800c4db0 f   libucrtd:strtox.obj
 0001:000c3e00       _wcstoui64                 00000001800c4e00 f   libucrtd:strtox.obj
 0001:000c3e40       _wcstoui64_l               00000001800c4e40 f   libucrtd:strtox.obj
 0001:000c3e90       _wcstoul_l                 00000001800c4e90 f   libucrtd:strtox.obj
 0001:000c3ee0       _wcstoull_l                00000001800c4ee0 f   libucrtd:strtox.obj
 0001:000c3f30       _wcstoumax_l               00000001800c4f30 f   libucrtd:strtox.obj
 0001:000c3f80       strtoimax                  00000001800c4f80 f   libucrtd:strtox.obj
 0001:000c3fc0       strtol                     00000001800c4fc0 f   libucrtd:strtox.obj
 0001:000c4000       strtoll                    00000001800c5000 f   libucrtd:strtox.obj
 0001:000c4040       strtoul                    00000001800c5040 f   libucrtd:strtox.obj
 0001:000c4080       strtoull                   00000001800c5080 f   libucrtd:strtox.obj
 0001:000c40c0       strtoumax                  00000001800c50c0 f   libucrtd:strtox.obj
 0001:000c4100       wcstoimax                  00000001800c5100 f   libucrtd:strtox.obj
 0001:000c4140       wcstol                     00000001800c5140 f   libucrtd:strtox.obj
 0001:000c4180       wcstoll                    00000001800c5180 f   libucrtd:strtox.obj
 0001:000c41c0       wcstoul                    00000001800c51c0 f   libucrtd:strtox.obj
 0001:000c4200       wcstoull                   00000001800c5200 f   libucrtd:strtox.obj
 0001:000c4240       wcstoumax                  00000001800c5240 f   libucrtd:strtox.obj
 0001:000c4280       _mbtowc_l                  00000001800c5280 f   libucrtd:mbtowc.obj
 0001:000c4670       mbtowc                     00000001800c5670 f   libucrtd:mbtowc.obj
 0001:000c46b0       _wctomb_l                  00000001800c56b0 f   libucrtd:wctomb.obj
 0001:000c4790       _wctomb_s_l                00000001800c5790 f   libucrtd:wctomb.obj
 0001:000c4d50       wctomb                     00000001800c5d50 f   libucrtd:wctomb.obj
 0001:000c4dc0       wctomb_s                   00000001800c5dc0 f   libucrtd:wctomb.obj
 0001:000c5d30       ??1?$__crt_simd_cleanup_guard@$00@@QEAA@XZ 00000001800c6d30 f i libucrtd:strnlen.obj
 0001:000c5d40       ??1?$__crt_simd_cleanup_guard@$0A@@@QEAA@XZ 00000001800c6d40 f i libucrtd:strnlen.obj
 0001:000c5d50       ?compare_equals@?$__crt_simd_traits@$00E@@SA?AT__m256i@@T2@0@Z 00000001800c6d50 f i libucrtd:strnlen.obj
 0001:000c5da0       ?compare_equals@?$__crt_simd_traits@$00G@@SA?AT__m256i@@T2@0@Z 00000001800c6da0 f i libucrtd:strnlen.obj
 0001:000c5df0       ?compare_equals@?$__crt_simd_traits@$0A@E@@SA?AT__m128i@@T2@0@Z 00000001800c6df0 f i libucrtd:strnlen.obj
 0001:000c5e30       ?compare_equals@?$__crt_simd_traits@$0A@G@@SA?AT__m128i@@T2@0@Z 00000001800c6e30 f i libucrtd:strnlen.obj
 0001:000c5e70       ?compute_byte_mask@?$__crt_simd_pack_traits@$00@@SAHT__m256i@@@Z 00000001800c6e70 f i libucrtd:strnlen.obj
 0001:000c5e90       ?compute_byte_mask@?$__crt_simd_pack_traits@$0A@@@SAHT__m128i@@@Z 00000001800c6e90 f i libucrtd:strnlen.obj
 0001:000c5eb0       ?get_zero_pack@?$__crt_simd_pack_traits@$00@@SA?AT__m256i@@XZ 00000001800c6eb0 f i libucrtd:strnlen.obj
 0001:000c5ee0       ?get_zero_pack@?$__crt_simd_pack_traits@$0A@@@SA?AT__m128i@@XZ 00000001800c6ee0 f i libucrtd:strnlen.obj
 0001:000c5f00       strnlen                    00000001800c6f00 f   libucrtd:strnlen.obj
 0001:000c5f30       wcsnlen                    00000001800c6f30 f   libucrtd:strnlen.obj
 0001:000c5f60       ??$?RU__acrt_ptd@@@__crt_internal_free_policy@@QEBAXQEBU__acrt_ptd@@@Z 00000001800c6f60 f i libucrtd:per_thread_data.obj
 0001:000c5f90       ??$?RV<lambda_5e887d1dcbef67a5eb4283622ba103bf>@@AEAV<lambda_4466841279450cc726390878d4a41900>@@V<lambda_341c25c0346d94847f1f3c463c57e077>@@@?$__crt_seh_guarded_call@X@@QEAAX$$QEAV<lambda_5e887d1dcbef67a5eb4283622ba103bf>@@AEAV<lambda_4466841279450cc726390878d4a41900>@@$$QEAV<lambda_341c25c0346d94847f1f3c463c57e077>@@@Z 00000001800c6f90 f i libucrtd:per_thread_data.obj
 0001:000c5fe0       ??$?RV<lambda_72d1df2b273a38828b1ce30cbf4cdab5>@@AEAV<lambda_876a65b173b8412d3a47c70a915b0cf4>@@V<lambda_41932305e351933ebe8f8be3ed8bb5dc>@@@?$__crt_seh_guarded_call@X@@QEAAX$$QEAV<lambda_72d1df2b273a38828b1ce30cbf4cdab5>@@AEAV<lambda_876a65b173b8412d3a47c70a915b0cf4>@@$$QEAV<lambda_41932305e351933ebe8f8be3ed8bb5dc>@@@Z 00000001800c6fe0 f i libucrtd:per_thread_data.obj
 0001:000c6030       ??$?RV<lambda_8773731b9ba2edf4362dda13ebc82854>@@AEAV<lambda_6ac21da2756cd333d25ba1adc9a0001e>@@V<lambda_2c95662d60720604e97e3009a1ee1859>@@@?$__crt_seh_guarded_call@X@@QEAAX$$QEAV<lambda_8773731b9ba2edf4362dda13ebc82854>@@AEAV<lambda_6ac21da2756cd333d25ba1adc9a0001e>@@$$QEAV<lambda_2c95662d60720604e97e3009a1ee1859>@@@Z 00000001800c7030 f i libucrtd:per_thread_data.obj
 0001:000c6080       ??$?RV<lambda_fb3a7dec4e47f37f22dae91bb15c9095>@@AEAV<lambda_698284760c8add0bfb0756c19673e34b>@@V<lambda_dfb8eca1e75fef3034a8fb18dd509707>@@@?$__crt_seh_guarded_call@X@@QEAAX$$QEAV<lambda_fb3a7dec4e47f37f22dae91bb15c9095>@@AEAV<lambda_698284760c8add0bfb0756c19673e34b>@@$$QEAV<lambda_dfb8eca1e75fef3034a8fb18dd509707>@@@Z 00000001800c7080 f i libucrtd:per_thread_data.obj
 0001:000c60d0       ??$__acrt_lock_and_call@V<lambda_4466841279450cc726390878d4a41900>@@@@YAXW4__acrt_lock_id@@$$QEAV<lambda_4466841279450cc726390878d4a41900>@@@Z 00000001800c70d0 f i libucrtd:per_thread_data.obj
 0001:000c6150       ??$__acrt_lock_and_call@V<lambda_698284760c8add0bfb0756c19673e34b>@@@@YAXW4__acrt_lock_id@@$$QEAV<lambda_698284760c8add0bfb0756c19673e34b>@@@Z 00000001800c7150 f i libucrtd:per_thread_data.obj
 0001:000c61d0       ??$__acrt_lock_and_call@V<lambda_6ac21da2756cd333d25ba1adc9a0001e>@@@@YAXW4__acrt_lock_id@@$$QEAV<lambda_6ac21da2756cd333d25ba1adc9a0001e>@@@Z 00000001800c71d0 f i libucrtd:per_thread_data.obj
 0001:000c6250       ??$__acrt_lock_and_call@V<lambda_876a65b173b8412d3a47c70a915b0cf4>@@@@YAXW4__acrt_lock_id@@$$QEAV<lambda_876a65b173b8412d3a47c70a915b0cf4>@@@Z 00000001800c7250 f i libucrtd:per_thread_data.obj
 0001:000c6520       ??0?$__crt_unique_heap_ptr@U__acrt_ptd@@U__crt_internal_free_policy@@@@QEAA@QEAU__acrt_ptd@@@Z 00000001800c7520 f i libucrtd:per_thread_data.obj
 0001:000c6550       ??0__crt_scoped_get_last_error_reset@@QEAA@XZ 00000001800c7550 f i libucrtd:per_thread_data.obj
 0001:000c6580       ??1?$__crt_unique_heap_ptr@U__acrt_ptd@@U__crt_internal_free_policy@@@@QEAA@XZ 00000001800c7580 f i libucrtd:per_thread_data.obj
 0001:000c65a0       ??1__crt_scoped_get_last_error_reset@@QEAA@XZ 00000001800c75a0 f i libucrtd:per_thread_data.obj
 0001:000c65d0       ??B?$__crt_unique_heap_ptr@U__acrt_ptd@@U__crt_internal_free_policy@@@@QEBA_NXZ 00000001800c75d0 f i libucrtd:per_thread_data.obj
 0001:000c69a0       ?dangerous_get_state_array@?$dual_state_global@PEAU__crt_locale_data@@@__crt_state_management@@QEAAPEAPEAU__crt_locale_data@@XZ 00000001800c79a0 f i libucrtd:per_thread_data.obj
 0001:000c6bb0       ?detach@?$__crt_unique_heap_ptr@U__acrt_ptd@@U__crt_internal_free_policy@@@@QEAAPEAU__acrt_ptd@@XZ 00000001800c7bb0 f i libucrtd:per_thread_data.obj
 0001:000c6bf0       ?get@?$__crt_unique_heap_ptr@U__acrt_ptd@@U__crt_internal_free_policy@@@@QEBAPEAU__acrt_ptd@@XZ 00000001800c7bf0 f i libucrtd:per_thread_data.obj
 0001:000c6dc0       ?is_valid@?$__crt_unique_heap_ptr@U__acrt_ptd@@U__crt_internal_free_policy@@@@QEBA_NXZ 00000001800c7dc0 f i libucrtd:per_thread_data.obj
 0001:000c6e00       ?release@?$__crt_unique_heap_ptr@U__acrt_ptd@@U__crt_internal_free_policy@@@@QEAAXXZ 00000001800c7e00 f i libucrtd:per_thread_data.obj
 0001:000c6f90       ?value@?$dual_state_global@PEAU__crt_locale_data@@@__crt_state_management@@QEAAAEAPEAU__crt_locale_data@@XZ 00000001800c7f90 f i libucrtd:per_thread_data.obj
 0001:000c6fc0       __acrt_freeptd             00000001800c7fc0 f   libucrtd:per_thread_data.obj
 0001:000c7010       __acrt_getptd              00000001800c8010 f   libucrtd:per_thread_data.obj
 0001:000c7040       __acrt_getptd_noexit       00000001800c8040 f   libucrtd:per_thread_data.obj
 0001:000c7060       __acrt_initialize_ptd      00000001800c8060 f   libucrtd:per_thread_data.obj
 0001:000c70b0       __acrt_uninitialize_ptd    00000001800c80b0 f   libucrtd:per_thread_data.obj
 0001:000c70f0       __threadhandle             00000001800c80f0 f   libucrtd:per_thread_data.obj
 0001:000c7110       __threadid                 00000001800c8110 f   libucrtd:per_thread_data.obj
 0001:000c7130       __acrt_update_locale_info  00000001800c8130 f   libucrtd:locale_update.obj
 0001:000c71a0       __acrt_update_multibyte_info 00000001800c81a0 f   libucrtd:locale_update.obj
 0001:000c7200       ?__acrt_fp_classify@@YA?AW4__acrt_fp_class@@AEBN@Z 00000001800c8200 f i libucrtd:cvt.obj
 0001:000c7340       ?__acrt_fp_is_negative@@YA_NAEBN@Z 00000001800c8340 f i libucrtd:cvt.obj
 0001:000c9090       ?strrchr@@YAPEADQEADH@Z    00000001800ca090 f i libucrtd:cvt.obj
 0001:000c90c0       __acrt_fp_format           00000001800ca0c0 f   libucrtd:cvt.obj
 0001:000c98c0       _fputwc_nolock             00000001800ca8c0 f   libucrtd:fputwc.obj
 0001:000c9bc0       _fputwchar                 00000001800cabc0 f   libucrtd:fputwc.obj
 0001:000c9bf0       _putwc_nolock              00000001800cabf0 f   libucrtd:fputwc.obj
 0001:000c9c20       fputwc                     00000001800cac20 f   libucrtd:fputwc.obj
 0001:000c9d50       putwc                      00000001800cad50 f   libucrtd:fputwc.obj
 0001:000c9d80       putwchar                   00000001800cad80 f   libucrtd:fputwc.obj
 0001:000c9da0       ?lowio_handle@__crt_stdio_stream@@QEBAHXZ 00000001800cada0 f i libucrtd:fileno.obj
 0001:000c9dd0       _fileno                    00000001800cadd0 f   libucrtd:fileno.obj
 0001:000c9ee0       _fputc_nolock              00000001800caee0 f   libucrtd:fputc.obj
 0001:000c9fc0       _fputchar                  00000001800cafc0 f   libucrtd:fputc.obj
 0001:000c9ff0       _putc_nolock               00000001800caff0 f   libucrtd:fputc.obj
 0001:000ca020       fputc                      00000001800cb020 f   libucrtd:fputc.obj
 0001:000ca370       putc                       00000001800cb370 f   libucrtd:fputc.obj
 0001:000ca3a0       putchar                    00000001800cb3a0 f   libucrtd:fputc.obj
 0001:000ca3c0       _get_printf_count_output   00000001800cb3c0 f   libucrtd:printf_count_output.obj
 0001:000ca400       _set_printf_count_output   00000001800cb400 f   libucrtd:printf_count_output.obj
 0001:000ca490       ?has_any_buffer@__crt_stdio_stream@@QEBA_NXZ 00000001800cb490 f i libucrtd:_sftbuf.obj
 0001:000ca4c0       ?has_temporary_buffer@__crt_stdio_stream@@QEBA_NXZ 00000001800cb4c0 f i libucrtd:_sftbuf.obj
 0001:000ca4f0       __acrt_stdio_begin_temporary_buffering_nolock 00000001800cb4f0 f   libucrtd:_sftbuf.obj
 0001:000ca7c0       __acrt_stdio_end_temporary_buffering_nolock 00000001800cb7c0 f   libucrtd:_sftbuf.obj
 0001:000ca890       ??$?RU__crt_locale_data@@@__crt_internal_free_policy@@QEBAXQEBU__crt_locale_data@@@Z 00000001800cb890 f i libucrtd:wsetlocale.obj
 0001:000ca8c0       ??$?RU__crt_locale_pointers@@@__crt_internal_free_policy@@QEBAXQEBU__crt_locale_pointers@@@Z 00000001800cb8c0 f i libucrtd:wsetlocale.obj
 0001:000ca8f0       ??$?RU__crt_multibyte_data@@@__crt_internal_free_policy@@QEBAXQEBU__crt_multibyte_data@@@Z 00000001800cb8f0 f i libucrtd:wsetlocale.obj
 0001:000ca920       ??$?RV<lambda_042cd79da8f77d205c09f1121d22619e>@@AEAV<lambda_565169b3e3b494427ce1bebdd17b54ac>@@AEAV<lambda_f51fe5fd7c79a33db34fc9310f277369>@@@?$__crt_seh_guarded_call@X@@QEAAX$$QEAV<lambda_042cd79da8f77d205c09f1121d22619e>@@AEAV<lambda_565169b3e3b494427ce1bebdd17b54ac>@@AEAV<lambda_f51fe5fd7c79a33db34fc9310f277369>@@@Z 00000001800cb920 f i libucrtd:wsetlocale.obj
 0001:000ca970       ??$?RV<lambda_3e0436e1742da57cd73032a8c01babf8>@@AEAV<lambda_b7fb1a997d3ebc0cc0186c5835178808>@@V<lambda_eece23d6871d1810c6784d81edd5a05e>@@@?$__crt_seh_guarded_call@X@@QEAAX$$QEAV<lambda_3e0436e1742da57cd73032a8c01babf8>@@AEAV<lambda_b7fb1a997d3ebc0cc0186c5835178808>@@$$QEAV<lambda_eece23d6871d1810c6784d81edd5a05e>@@@Z 00000001800cb970 f i libucrtd:wsetlocale.obj
 0001:000ca9c0       ??$?RV<lambda_ede63489d7330338e618311e15f0c366>@@AEAV<lambda_176e34f99554166dd2fac165c457248c>@@V<lambda_b0463272cb7667df9361a74a62ea8ca5>@@@?$__crt_seh_guarded_call@X@@QEAAX$$QEAV<lambda_ede63489d7330338e618311e15f0c366>@@AEAV<lambda_176e34f99554166dd2fac165c457248c>@@$$QEAV<lambda_b0463272cb7667df9361a74a62ea8ca5>@@@Z 00000001800cb9c0 f i libucrtd:wsetlocale.obj
 0001:000caa10       ??$?RV<lambda_f622fd27d9451bffac5828193bdf6d20>@@AEAV<lambda_8ab6264a511d5dc8fee4743c3512d536>@@V<lambda_30a745c57dc0def3d1b1ce039b8a3c19>@@@?$__crt_seh_guarded_call@X@@QEAAX$$QEAV<lambda_f622fd27d9451bffac5828193bdf6d20>@@AEAV<lambda_8ab6264a511d5dc8fee4743c3512d536>@@$$QEAV<lambda_30a745c57dc0def3d1b1ce039b8a3c19>@@@Z 00000001800cba10 f i libucrtd:wsetlocale.obj
 0001:000caa60       ??$__acrt_lock_and_call@V<lambda_176e34f99554166dd2fac165c457248c>@@@@YAXW4__acrt_lock_id@@$$QEAV<lambda_176e34f99554166dd2fac165c457248c>@@@Z 00000001800cba60 f i libucrtd:wsetlocale.obj
 0001:000caae0       ??$__acrt_lock_and_call@V<lambda_8ab6264a511d5dc8fee4743c3512d536>@@@@YAXW4__acrt_lock_id@@$$QEAV<lambda_8ab6264a511d5dc8fee4743c3512d536>@@@Z 00000001800cbae0 f i libucrtd:wsetlocale.obj
 0001:000cab60       ??$__acrt_lock_and_call@V<lambda_b7fb1a997d3ebc0cc0186c5835178808>@@@@YAXW4__acrt_lock_id@@$$QEAV<lambda_b7fb1a997d3ebc0cc0186c5835178808>@@@Z 00000001800cbb60 f i libucrtd:wsetlocale.obj
 0001:000cabe0       ??$__crt_call_and_cleanup@V<lambda_565169b3e3b494427ce1bebdd17b54ac>@@V<lambda_f51fe5fd7c79a33db34fc9310f277369>@@@@YAX$$QEAV<lambda_565169b3e3b494427ce1bebdd17b54ac>@@$$QEAV<lambda_f51fe5fd7c79a33db34fc9310f277369>@@@Z 00000001800cbbe0 f i libucrtd:wsetlocale.obj
 0001:000cac30       ??$__vcrt_va_start_verify_argument_type@H@@YAXXZ 00000001800cbc30 f i libucrtd:wsetlocale.obj
 0001:000caef0       ??0?$__crt_unique_heap_ptr@U__crt_locale_data@@U__crt_internal_free_policy@@@@QEAA@QEAU__crt_locale_data@@@Z 00000001800cbef0 f i libucrtd:wsetlocale.obj
 0001:000caf20       ??0?$__crt_unique_heap_ptr@U__crt_locale_pointers@@U__crt_internal_free_policy@@@@QEAA@QEAU__crt_locale_pointers@@@Z 00000001800cbf20 f i libucrtd:wsetlocale.obj
 0001:000caf50       ??0?$__crt_unique_heap_ptr@U__crt_multibyte_data@@U__crt_internal_free_policy@@@@QEAA@QEAU__crt_multibyte_data@@@Z 00000001800cbf50 f i libucrtd:wsetlocale.obj
 0001:000caf80       ??1?$__crt_unique_heap_ptr@U__crt_locale_data@@U__crt_internal_free_policy@@@@QEAA@XZ 00000001800cbf80 f i libucrtd:wsetlocale.obj
 0001:000cafa0       ??1?$__crt_unique_heap_ptr@U__crt_locale_pointers@@U__crt_internal_free_policy@@@@QEAA@XZ 00000001800cbfa0 f i libucrtd:wsetlocale.obj
 0001:000cafc0       ??1?$__crt_unique_heap_ptr@U__crt_multibyte_data@@U__crt_internal_free_policy@@@@QEAA@XZ 00000001800cbfc0 f i libucrtd:wsetlocale.obj
 0001:000cafe0       ??B?$__crt_unique_heap_ptr@U__crt_locale_data@@U__crt_internal_free_policy@@@@QEBA_NXZ 00000001800cbfe0 f i libucrtd:wsetlocale.obj
 0001:000cb000       ??B?$__crt_unique_heap_ptr@U__crt_locale_pointers@@U__crt_internal_free_policy@@@@QEBA_NXZ 00000001800cc000 f i libucrtd:wsetlocale.obj
 0001:000cb020       ??B?$__crt_unique_heap_ptr@U__crt_multibyte_data@@U__crt_internal_free_policy@@@@QEBA_NXZ 00000001800cc020 f i libucrtd:wsetlocale.obj
 0001:000cb4b0       ?detach@?$__crt_unique_heap_ptr@U__crt_locale_data@@U__crt_internal_free_policy@@@@QEAAPEAU__crt_locale_data@@XZ 00000001800cc4b0 f i libucrtd:wsetlocale.obj
 0001:000cb4f0       ?detach@?$__crt_unique_heap_ptr@U__crt_locale_pointers@@U__crt_internal_free_policy@@@@QEAAPEAU__crt_locale_pointers@@XZ 00000001800cc4f0 f i libucrtd:wsetlocale.obj
 0001:000cb530       ?detach@?$__crt_unique_heap_ptr@U__crt_multibyte_data@@U__crt_internal_free_policy@@@@QEAAPEAU__crt_multibyte_data@@XZ 00000001800cc530 f i libucrtd:wsetlocale.obj
 0001:000cb570       ?get@?$__crt_unique_heap_ptr@U__crt_locale_data@@U__crt_internal_free_policy@@@@QEBAPEAU__crt_locale_data@@XZ 00000001800cc570 f i libucrtd:wsetlocale.obj
 0001:000cb590       ?get@?$__crt_unique_heap_ptr@U__crt_locale_pointers@@U__crt_internal_free_policy@@@@QEBAPEAU__crt_locale_pointers@@XZ 00000001800cc590 f i libucrtd:wsetlocale.obj
 0001:000cb5b0       ?get@?$__crt_unique_heap_ptr@U__crt_multibyte_data@@U__crt_internal_free_policy@@@@QEBAPEAU__crt_multibyte_data@@XZ 00000001800cc5b0 f i libucrtd:wsetlocale.obj
 0001:000cb5d0       ?is_valid@?$__crt_unique_heap_ptr@U__crt_locale_data@@U__crt_internal_free_policy@@@@QEBA_NXZ 00000001800cc5d0 f i libucrtd:wsetlocale.obj
 0001:000cb610       ?is_valid@?$__crt_unique_heap_ptr@U__crt_locale_pointers@@U__crt_internal_free_policy@@@@QEBA_NXZ 00000001800cc610 f i libucrtd:wsetlocale.obj
 0001:000cb650       ?is_valid@?$__crt_unique_heap_ptr@U__crt_multibyte_data@@U__crt_internal_free_policy@@@@QEBA_NXZ 00000001800cc650 f i libucrtd:wsetlocale.obj
 0001:000cb690       ?release@?$__crt_unique_heap_ptr@U__crt_locale_data@@U__crt_internal_free_policy@@@@QEAAXXZ 00000001800cc690 f i libucrtd:wsetlocale.obj
 0001:000cb6e0       ?release@?$__crt_unique_heap_ptr@U__crt_locale_pointers@@U__crt_internal_free_policy@@@@QEAAXXZ 00000001800cc6e0 f i libucrtd:wsetlocale.obj
 0001:000cb730       ?release@?$__crt_unique_heap_ptr@U__crt_multibyte_data@@U__crt_internal_free_policy@@@@QEAAXXZ 00000001800cc730 f i libucrtd:wsetlocale.obj
 0001:000cb780       __acrt_copy_locale_name    00000001800cc780 f   libucrtd:wsetlocale.obj
 0001:000cb880       __acrt_set_locale_changed  00000001800cc880 f   libucrtd:wsetlocale.obj
 0001:000cb8a0       __acrt_uninitialize_locale 00000001800cc8a0 f   libucrtd:wsetlocale.obj
 0001:000cb930       __lc_lctowcs               00000001800cc930 f   libucrtd:wsetlocale.obj
 0001:000cba60       __lc_wcstolc               00000001800cca60 f   libucrtd:wsetlocale.obj
 0001:000cbdd0       _configthreadlocale        00000001800ccdd0 f   libucrtd:wsetlocale.obj
 0001:000cc000       _create_locale             00000001800cd000 f   libucrtd:wsetlocale.obj
 0001:000cc0d0       _expandlocale              00000001800cd0d0 f   libucrtd:wsetlocale.obj
 0001:000cc7f0       _free_locale               00000001800cd7f0 f   libucrtd:wsetlocale.obj
 0001:000cc920       _get_current_locale        00000001800cd920 f   libucrtd:wsetlocale.obj
 0001:000cca70       _wcreate_locale            00000001800cda70 f   libucrtd:wsetlocale.obj
 0001:000cce10       _wcscats                   00000001800cde10 f   libucrtd:wsetlocale.obj
 0001:000ccf30       _wsetlocale                00000001800cdf30 f   libucrtd:wsetlocale.obj
 0001:000ce600       __p___mb_cur_max           00000001800cf600 f   libucrtd:nlsdata.obj
 0001:000ce650       __remainder_piby2_forAsm   00000001800cf650 f   libucrtd:remainder_piby2_forasm.obj
 0001:000ce860       __remainder_piby2_cw_forAsm 00000001800cf860 f   libucrtd:remainder_piby2_forasm.obj
 0001:000cea70       __remainder_piby2_fma3     00000001800cfa70 f   libucrtd:remainder_piby2_forfma3.obj
 0001:000cec60       __remainder_piby2_fma3_bdl 00000001800cfc60 f   libucrtd:remainder_piby2_forfma3.obj
 0001:000ced70       _cos_special               00000001800cfd70 f   libucrtd:sincos_special.obj
 0001:000ceda0       _cosf_special              00000001800cfda0 f   libucrtd:sincos_special.obj
 0001:000cedd0       _sin_special               00000001800cfdd0 f   libucrtd:sincos_special.obj
 0001:000cf0a0       _sinf_special              00000001800d00a0 f   libucrtd:sincos_special.obj
 0001:000cf0d0       _tan_special               00000001800d00d0 f   libucrtd:sincos_special.obj
 0001:000cf100       _tanf_special              00000001800d0100 f   libucrtd:sincos_special.obj
 0001:000cf130       __remainder_piby2d2f_forAsm 00000001800d0130 f   libucrtd:remainder_piby2f_forasm.obj
 0001:000cf2d0       __remainder_piby2d2f_forC  00000001800d02d0 f   libucrtd:remainder_piby2f_forc.obj
 0001:000cf4c0       _CrtGetReportHook          00000001800d04c0 f   libucrtd:dbgrptt.obj
 0001:000cf4d0       _CrtSetReportFile          00000001800d04d0 f   libucrtd:dbgrptt.obj
 0001:000cf680       _CrtSetReportHook          00000001800d0680 f   libucrtd:dbgrptt.obj
 0001:000cf6c0       _CrtSetReportMode          00000001800d06c0 f   libucrtd:dbgrptt.obj
 0001:000cf8e0       _VCrtDbgReportA            00000001800d08e0 f   libucrtd:dbgrptt.obj
 0001:000d0580       _VCrtDbgReportW            00000001800d1580 f   libucrtd:dbgrptt.obj
 0001:000d1400       _snprintf_s                00000001800d2400 f i libucrtd:dbgrptt.obj
 0001:000d1490       _vsnprintf_s               00000001800d2490 f i libucrtd:dbgrptt.obj
 0001:000d14f0       _vsnprintf_s_l             00000001800d24f0 f i libucrtd:dbgrptt.obj
 0001:000d1590       _vsnwprintf_s              00000001800d2590 f i libucrtd:dbgrptt.obj
 0001:000d1ad0       ??$message_box@$$TAEAPEBDAEAPEBDAEAI@?$__crt_char_traits@D@@SAH$$QEA$$TAEAPEBD1AEAI@Z 00000001800d2ad0 f i libucrtd:crtmbox.obj
 0001:000d1b30       ??$message_box@$$TAEAPEB_WAEAPEB_WAEAI@?$__crt_char_traits@_W@@SAH$$QEA$$TAEAPEB_W1AEAI@Z 00000001800d2b30 f i libucrtd:crtmbox.obj
 0001:000d1b90       ??$message_box@$$TAEBQEBDAEBQEBDK@?$__crt_char_traits@D@@SAH$$QEA$$TAEBQEBD1$$QEAK@Z 00000001800d2b90 f i libucrtd:crtmbox.obj
 0001:000d1bf0       ??$message_box@$$TAEBQEB_WAEBQEB_WK@?$__crt_char_traits@_W@@SAH$$QEA$$TAEBQEB_W1$$QEAK@Z 00000001800d2bf0 f i libucrtd:crtmbox.obj
 0001:000d1c50       ??$message_box@PEAUHWND__@@AEBQEBDAEBQEBDAEBI@?$__crt_char_traits@D@@SAH$$QEAPEAUHWND__@@AEBQEBD1AEBI@Z 00000001800d2c50 f i libucrtd:crtmbox.obj
 0001:000d1cb0       ??$message_box@PEAUHWND__@@AEBQEB_WAEBQEB_WAEBI@?$__crt_char_traits@_W@@SAH$$QEAPEAUHWND__@@AEBQEB_W1AEBI@Z 00000001800d2cb0 f i libucrtd:crtmbox.obj
 0001:000d1df0       ??$output_debug_string@AEBQEBD@?$__crt_char_traits@D@@SAXAEBQEBD@Z 00000001800d2df0 f i libucrtd:crtmbox.obj
 0001:000d1e20       ??$output_debug_string@AEBQEB_W@?$__crt_char_traits@_W@@SAXAEBQEB_W@Z 00000001800d2e20 f i libucrtd:crtmbox.obj
 0001:000d1e50       ??0?$__crt_unique_handle_t@U__crt_handle_traits@@@@QEAA@QEAX@Z 00000001800d2e50 f i libucrtd:crtmbox.obj
 0001:000d1e80       ??1?$__crt_unique_handle_t@U__crt_handle_traits@@@@QEAA@XZ 00000001800d2e80 f i libucrtd:crtmbox.obj
 0001:000d1ea0       ??B?$__crt_unique_handle_t@U__crt_handle_traits@@@@QEBA_NXZ 00000001800d2ea0 f i libucrtd:crtmbox.obj
 0001:000d1ec0       ?close@?$__crt_unique_handle_t@U__crt_handle_traits@@@@QEAAXXZ 00000001800d2ec0 f i libucrtd:crtmbox.obj
 0001:000d1f10       ?close@__crt_handle_traits@@SA_NPEAX@Z 00000001800d2f10 f i libucrtd:crtmbox.obj
 0001:000d1f60       ?get@?$__crt_unique_handle_t@U__crt_handle_traits@@@@QEBAPEAXXZ 00000001800d2f60 f i libucrtd:crtmbox.obj
 0001:000d1f80       ?get_invalid_value@__crt_handle_traits@@SAPEAXXZ 00000001800d2f80 f i libucrtd:crtmbox.obj
 0001:000d1f90       ?is_valid@?$__crt_unique_handle_t@U__crt_handle_traits@@@@QEBA_NXZ 00000001800d2f90 f i libucrtd:crtmbox.obj
 0001:000d1fe0       __acrt_show_narrow_message_box 00000001800d2fe0 f   libucrtd:crtmbox.obj
 0001:000d2020       __acrt_show_wide_message_box 00000001800d3020 f   libucrtd:crtmbox.obj
 0001:000d2060       __acrt_initialize_locks    00000001800d3060 f   libucrtd:locks.obj
 0001:000d20f0       __acrt_lock                00000001800d30f0 f   libucrtd:locks.obj
 0001:000d2130       __acrt_uninitialize_locks  00000001800d3130 f   libucrtd:locks.obj
 0001:000d21b0       __acrt_unlock              00000001800d31b0 f   libucrtd:locks.obj
 0001:000d21f0       _lock_locales              00000001800d31f0 f   libucrtd:locks.obj
 0001:000d2210       _unlock_locales            00000001800d3210 f   libucrtd:locks.obj
 0001:000d2230       ??$?B$$A6AXH@Z@__crt_fast_encoded_nullptr_t@@QEBAP6AXH@ZXZ 00000001800d3230 f i libucrtd:signal.obj
 0001:000d2250       ??$?RV<lambda_c36588078e9f5dfd39652860aa6b3aaf>@@AEAV<lambda_ec61778202f4f5fc7e7711acc23c3bca>@@V<lambda_dc9d2797ccde5d239b4a0efae8ebd7db>@@@?$__crt_seh_guarded_call@P6AXH@Z@@QEAAP6AXH@Z$$QEAV<lambda_c36588078e9f5dfd39652860aa6b3aaf>@@AEAV<lambda_ec61778202f4f5fc7e7711acc23c3bca>@@$$QEAV<lambda_dc9d2797ccde5d239b4a0efae8ebd7db>@@@Z 00000001800d3250 f i libucrtd:signal.obj
 0001:000d22c0       ??$__acrt_lock_and_call@V<lambda_ec61778202f4f5fc7e7711acc23c3bca>@@@@YAP6AXH@ZW4__acrt_lock_id@@$$QEAV<lambda_ec61778202f4f5fc7e7711acc23c3bca>@@@Z 00000001800d32c0 f i libucrtd:signal.obj
 0001:000d2340       ??$__crt_fast_decode_pointer@P6AXH@Z@@YAP6AXH@ZQ6AXH@Z@Z 00000001800d3340 f i libucrtd:signal.obj
 0001:000d2390       ??$__crt_fast_encode_pointer@P6AXH@Z@@YAP6AXH@ZQ6AXH@Z@Z 00000001800d3390 f i libucrtd:signal.obj
 0001:000d26a0       ?initialize@?$dual_state_global@P6AXH@Z@__crt_state_management@@QEAAXQ6AXH@Z@Z 00000001800d36a0 f i libucrtd:signal.obj
 0001:000d27e0       ?value@?$dual_state_global@P6AXH@Z@__crt_state_management@@QEAAAEAP6AXH@ZXZ 00000001800d37e0 f i libucrtd:signal.obj
 0001:000d2810       __acrt_get_sigabrt_handler 00000001800d3810 f   libucrtd:signal.obj
 0001:000d2830       __acrt_initialize_signal_handlers 00000001800d3830 f   libucrtd:signal.obj
 0001:000d28a0       __fpecode                  00000001800d38a0 f   libucrtd:signal.obj
 0001:000d28c0       __pxcptinfoptrs            00000001800d38c0 f   libucrtd:signal.obj
 0001:000d28e0       raise                      00000001800d38e0 f   libucrtd:signal.obj
 0001:000d2ef0       signal                     00000001800d3ef0 f   libucrtd:signal.obj
 0001:000d3290       ??$__crt_interlocked_exchange_pointer@X$$T@@YAPEAXPEDSEAX$$T@Z 00000001800d4290 f i libucrtd:free_base.obj
 0001:000d32c0       __acrt_get_msvcrt_heap_handle 00000001800d42c0 f   libucrtd:free_base.obj
 0001:000d33c0       _free_base                 00000001800d43c0 f   libucrtd:free_base.obj
 0001:000d3430       _msize                     00000001800d4430 f   libucrtd:msize.obj
 0001:000d3460       _realloc_base              00000001800d4460 f   libucrtd:realloc_base.obj
 0001:000d3540       _aligned_free              00000001800d4540 f   libucrtd:align.obj
 0001:000d3560       _aligned_free_base         00000001800d4560 f   libucrtd:align.obj
 0001:000d35c0       _aligned_malloc            00000001800d45c0 f   libucrtd:align.obj
 0001:000d3600       _aligned_malloc_base       00000001800d4600 f   libucrtd:align.obj
 0001:000d3630       _aligned_msize             00000001800d4630 f   libucrtd:align.obj
 0001:000d3670       _aligned_msize_base        00000001800d4670 f   libucrtd:align.obj
 0001:000d38c0       _aligned_offset_malloc     00000001800d48c0 f   libucrtd:align.obj
 0001:000d3910       _aligned_offset_malloc_base 00000001800d4910 f   libucrtd:align.obj
 0001:000d3c60       _aligned_offset_realloc    00000001800d4c60 f   libucrtd:align.obj
 0001:000d3cc0       _aligned_offset_realloc_base 00000001800d4cc0 f   libucrtd:align.obj
 0001:000d42d0       _aligned_offset_recalloc   00000001800d52d0 f   libucrtd:align.obj
 0001:000d4340       _aligned_offset_recalloc_base 00000001800d5340 f   libucrtd:align.obj
 0001:000d4480       _aligned_realloc           00000001800d5480 f   libucrtd:align.obj
 0001:000d44d0       _aligned_realloc_base      00000001800d54d0 f   libucrtd:align.obj
 0001:000d4510       _aligned_recalloc          00000001800d5510 f   libucrtd:align.obj
 0001:000d4580       _aligned_recalloc_base     00000001800d5580 f   libucrtd:align.obj
 0001:000d45d0       _chvalidator               00000001800d55d0 f   libucrtd:isctype.obj
 0001:000d4660       _chvalidator_l             00000001800d5660 f   libucrtd:isctype.obj
 0001:000d4770       _isctype                   00000001800d5770 f   libucrtd:isctype.obj
 0001:000d47d0       _isctype_l                 00000001800d57d0 f   libucrtd:isctype.obj
 0001:000d4af0       _expand                    00000001800d5af0 f   libucrtd:expand.obj
 0001:000d4b30       _expand_base               00000001800d5b30 f   libucrtd:expand.obj
 0001:000d4d20       ?value@?$dual_state_global@J@__crt_state_management@@QEAAAEAJXZ 00000001800d5d20 f i libucrtd:new_mode.obj
 0001:000d4d50       _query_new_mode            00000001800d5d50 f   libucrtd:new_mode.obj
 0001:000d4d80       _set_new_mode              00000001800d5d80 f   libucrtd:new_mode.obj
 0001:000d4e80       _CrtDefaultAllocHook       00000001800d5e80 f   libucrtd:debug_heap_hook.obj
 0001:000d4ea0       __acrt_getheap             00000001800d5ea0 f   libucrtd:heap_handle.obj
 0001:000d4f10       __acrt_initialize_heap     00000001800d5f10 f   libucrtd:heap_handle.obj
 0001:000d4f40       __acrt_uninitialize_heap   00000001800d5f40 f   libucrtd:heap_handle.obj
 0001:000d4f60       _get_heap_handle           00000001800d5f60 f   libucrtd:heap_handle.obj
 0001:000d4fd0       ??$?RV<lambda_441f2315ac0f593d45428a8fceb6abe6>@@AEAV<lambda_2f900415df1f7f624cdaaefe86d0b1c0>@@V<lambda_1d10a5a8ccb596b49763520e59d5af47>@@@?$__crt_seh_guarded_call@X@@QEAAX$$QEAV<lambda_441f2315ac0f593d45428a8fceb6abe6>@@AEAV<lambda_2f900415df1f7f624cdaaefe86d0b1c0>@@$$QEAV<lambda_1d10a5a8ccb596b49763520e59d5af47>@@@Z 00000001800d5fd0 f i libucrtd:mbctype.obj
 0001:000d5020       ??$__acrt_lock_and_call@V<lambda_2f900415df1f7f624cdaaefe86d0b1c0>@@@@YAXW4__acrt_lock_id@@$$QEAV<lambda_2f900415df1f7f624cdaaefe86d0b1c0>@@@Z 00000001800d6020 f i libucrtd:mbctype.obj
 0001:000d5dd0       __acrt_initialize_multibyte 00000001800d6dd0 f   libucrtd:mbctype.obj
 0001:000d5e10       __acrt_update_thread_multibyte_data 00000001800d6e10 f   libucrtd:mbctype.obj
 0001:000d5f60       __p__mbcasemap             00000001800d6f60 f   libucrtd:mbctype.obj
 0001:000d5f80       __p__mbctype               00000001800d6f80 f   libucrtd:mbctype.obj
 0001:000d5fa0       _getmbcp                   00000001800d6fa0 f   libucrtd:mbctype.obj
 0001:000d6040       _setmbcp                   00000001800d7040 f   libucrtd:mbctype.obj
 0001:000d6060       _setmbcp_nolock            00000001800d7060 f   libucrtd:mbctype.obj
 0001:000d6748       ??0?$__crt_unique_handle_t@Uenvironment_strings_traits@?A0x3cdb3392@@@@QEAA@QEA_W@Z 00000001800d7748 f i libucrtd:get_environment_from_os.obj
 0001:000d6750       ??1?$__crt_unique_handle_t@Uenvironment_strings_traits@?A0x3cdb3392@@@@QEAA@XZ 00000001800d7750 f i libucrtd:get_environment_from_os.obj
 0001:000d677c       ??B?$__crt_unique_handle_t@Uenvironment_strings_traits@?A0x3cdb3392@@@@QEBA_NXZ 00000001800d777c f i libucrtd:get_environment_from_os.obj
 0001:000d6788       ?close@?$__crt_unique_handle_t@Uenvironment_strings_traits@?A0x3cdb3392@@@@QEAAXXZ 00000001800d7788 f i libucrtd:get_environment_from_os.obj
 0001:000d67b4       ?close@environment_strings_traits@?A0x3cdb3392@@SA_NPEA_W@Z 00000001800d77b4 f i libucrtd:get_environment_from_os.obj
 0001:000d67f8       ?get@?$__crt_unique_handle_t@Uenvironment_strings_traits@?A0x3cdb3392@@@@QEBAPEA_WXZ 00000001800d77f8 f i libucrtd:get_environment_from_os.obj
 0001:000d67fc       ?get_invalid_value@environment_strings_traits@?A0x3cdb3392@@SAPEA_WXZ 00000001800d77fc f i libucrtd:get_environment_from_os.obj
 0001:000d6800       ?is_valid@?$__crt_unique_handle_t@Uenvironment_strings_traits@?A0x3cdb3392@@@@QEBA_NXZ 00000001800d7800 f i libucrtd:get_environment_from_os.obj
 0001:000d680c       __dcrt_get_narrow_environment_from_os 00000001800d780c f   libucrtd:get_environment_from_os.obj
 0001:000d696c       __dcrt_get_wide_environment_from_os 00000001800d796c f   libucrtd:get_environment_from_os.obj
 0001:000d7984       ??$get_or_create_environment_nolock@$$$V@?$__crt_char_traits@D@@SAPEAPEADXZ 00000001800d8984 f i libucrtd:setenv.obj
 0001:000d798c       ??$get_or_create_environment_nolock@$$$V@?$__crt_char_traits@_W@@SAPEAPEA_WXZ 00000001800d898c f i libucrtd:setenv.obj
 0001:000d7994       ??$set_environment_variable@AEBQEADQEAD@?$__crt_char_traits@D@@SAHAEBQEAD$$QEBQEAD@Z 00000001800d8994 f i libucrtd:setenv.obj
 0001:000d79a4       ??$set_environment_variable@AEBQEA_WQEA_W@?$__crt_char_traits@_W@@SAHAEBQEA_W$$QEBQEA_W@Z 00000001800d89a4 f i libucrtd:setenv.obj
 0001:000d79b4       ??$tcschr@AEBQEADD@?$__crt_char_traits@D@@SAPEADAEBQEAD$$QEAD@Z 00000001800d89b4 f i libucrtd:setenv.obj
 0001:000d79c4       ??$tcschr@AEBQEA_WD@?$__crt_char_traits@_W@@SAPEA_WAEBQEA_W$$QEAD@Z 00000001800d89c4 f i libucrtd:setenv.obj
 0001:000d79d4       ??$tcscpy_s@AEAPEADAEB_KAEAPEAD@?$__crt_char_traits@D@@SAHAEAPEADAEB_K0@Z 00000001800d89d4 f i libucrtd:setenv.obj
 0001:000d79e8       ??$tcscpy_s@AEAPEA_WAEB_KAEAPEA_W@?$__crt_char_traits@_W@@SAHAEAPEA_WAEB_K0@Z 00000001800d89e8 f i libucrtd:setenv.obj
 0001:000d79fc       ??$tcscpy_s@AEBQEADAEB_KAEBQEAD@?$__crt_char_traits@D@@SAHAEBQEADAEB_K0@Z 00000001800d89fc f i libucrtd:setenv.obj
 0001:000d7a10       ??$tcscpy_s@AEBQEA_WAEB_KAEBQEA_W@?$__crt_char_traits@_W@@SAHAEBQEA_WAEB_K0@Z 00000001800d8a10 f i libucrtd:setenv.obj
 0001:000d7a24       ??$tcslen@AEBQEAD@?$__crt_char_traits@D@@SA_KAEBQEAD@Z 00000001800d8a24 f i libucrtd:setenv.obj
 0001:000d7a3c       ??$tcslen@AEBQEA_W@?$__crt_char_traits@_W@@SA_KAEBQEA_W@Z 00000001800d8a3c f i libucrtd:setenv.obj
 0001:000d7a54       ??$tcsnicoll@AEBQEBDAEAPEADAEB_K@?$__crt_char_traits@D@@SAHAEBQEBDAEAPEADAEB_K@Z 00000001800d8a54 f i libucrtd:setenv.obj
 0001:000d7a68       ??$tcsnicoll@AEBQEB_WAEAPEA_WAEB_K@?$__crt_char_traits@_W@@SAHAEBQEB_WAEAPEA_WAEB_K@Z 00000001800d8a68 f i libucrtd:setenv.obj
 0001:000d7a7c       ??$tcsnlen@QEADH@?$__crt_char_traits@D@@SA_K$$QEBQEAD$$QEAH@Z 00000001800d8a7c f i libucrtd:setenv.obj
 0001:000d7a8c       ??$tcsnlen@QEA_WH@?$__crt_char_traits@_W@@SA_K$$QEBQEA_W$$QEAH@Z 00000001800d8a8c f i libucrtd:setenv.obj
 0001:000d7ae4       ?strchr@@YAPEADQEADH@Z     00000001800d8ae4 f i libucrtd:setenv.obj
 0001:000d7aec       ?wcschr@@YAPEA_WPEA_W_W@Z  00000001800d8aec f i libucrtd:setenv.obj
 0001:000d7af4       __dcrt_set_variable_in_narrow_environment_nolock 00000001800d8af4 f   libucrtd:setenv.obj
 0001:000d7afc       __dcrt_set_variable_in_wide_environment_nolock 00000001800d8afc f   libucrtd:setenv.obj
 0001:000d7b10       __acrt_initialize_command_line 00000001800d8b10 f   libucrtd:argv_data.obj
 0001:000d7b40       __acrt_uninitialize_command_line 00000001800d8b40 f   libucrtd:argv_data.obj
 0001:000d7b50       __p___argc                 00000001800d8b50 f   libucrtd:argv_data.obj
 0001:000d7b60       __p___argv                 00000001800d8b60 f   libucrtd:argv_data.obj
 0001:000d7b70       __p___wargv                00000001800d8b70 f   libucrtd:argv_data.obj
 0001:000d7b80       __p__acmdln                00000001800d8b80 f   libucrtd:argv_data.obj
 0001:000d7b90       __p__pgmptr                00000001800d8b90 f   libucrtd:argv_data.obj
 0001:000d7ba0       __p__wcmdln                00000001800d8ba0 f   libucrtd:argv_data.obj
 0001:000d7bb0       __p__wpgmptr               00000001800d8bb0 f   libucrtd:argv_data.obj
 0001:000d7bc0       _get_pgmptr                00000001800d8bc0 f   libucrtd:argv_data.obj
 0001:000d7d90       _get_wpgmptr               00000001800d8d90 f   libucrtd:argv_data.obj
 0001:000d7f60       __acrt_execute_initializers 00000001800d8f60 f   libucrtd:shared_initialization.obj
 0001:000d8090       __acrt_execute_uninitializers 00000001800d9090 f   libucrtd:shared_initialization.obj
 0001:000d8130       ??$__crt_fast_decode_pointer@P6AHPEAU_exception@@@Z@@YAP6AHPEAU_exception@@@ZQ6AH0@Z@Z 00000001800d9130 f i libucrtd:matherr.obj
 0001:000d8180       ??$__crt_fast_encode_pointer@P6AHPEAU_exception@@@Z@@YAP6AHPEAU_exception@@@ZQ6AH0@Z@Z 00000001800d9180 f i libucrtd:matherr.obj
 0001:000d81d0       ?initialize@?$dual_state_global@P6AHPEAU_exception@@@Z@__crt_state_management@@QEAAXQ6AHPEAU_exception@@@Z@Z 00000001800d91d0 f i libucrtd:matherr.obj
 0001:000d8230       ?value@?$dual_state_global@P6AHPEAU_exception@@@Z@__crt_state_management@@QEAAAEAP6AHPEAU_exception@@@ZXZ 00000001800d9230 f i libucrtd:matherr.obj
 0001:000d8260       __acrt_has_user_matherr    00000001800d9260 f   libucrtd:matherr.obj
 0001:000d82b0       __acrt_initialize_user_matherr 00000001800d92b0 f   libucrtd:matherr.obj
 0001:000d82e0       __acrt_invoke_user_matherr 00000001800d92e0 f   libucrtd:matherr.obj
 0001:000d8350       __setusermatherr           00000001800d9350 f   libucrtd:matherr.obj
 0001:000d8390       _mbsdec                    00000001800d9390 f   libucrtd:mbsdec.obj
 0001:000d839c       _mbsdec_l                  00000001800d939c f   libucrtd:mbsdec.obj
 0001:000d8d10       wcsncpy_s                  00000001800d9d10 f   libucrtd:wcsncpy_s.obj
 0001:000d9570       strncpy_s                  00000001800da570 f   libucrtd:strncpy_s.obj
 0001:000d9800       __acrt_report_runtime_error 00000001800da800 f   libucrtd:report_runtime_error.obj
 0001:000d9b10       _query_app_type            00000001800dab10 f   libucrtd:report_runtime_error.obj
 0001:000d9b20       _set_app_type              00000001800dab20 f   libucrtd:report_runtime_error.obj
 0001:000d9b40       _iswctype_l                00000001800dab40 f   libucrtd:iswctype.obj
 0001:000d9b70       iswctype                   00000001800dab70 f   libucrtd:iswctype.obj
 0001:000d9c20       nexttoward                 00000001800dac20 f   libucrtd:nexttoward.obj
 0001:000da0d0       nexttowardf                00000001800db0d0 f   libucrtd:nexttowardf.obj
 0001:000da400       _errcode                   00000001800db400 f   libucrtd:fpexcept.obj
 0001:000da4a0       _except1                   00000001800db4a0 f   libucrtd:fpexcept.obj
 0001:000da630       _except2                   00000001800db630 f   libucrtd:fpexcept.obj
 0001:000da860       _handle_exc                00000001800db860 f   libucrtd:fpexcept.obj
 0001:000dade0       _handle_qnan2              00000001800dbde0 f   libucrtd:fpexcept.obj
 0001:000dae20       _raise_exc                 00000001800dbe20 f   libucrtd:fpexcept.obj
 0001:000dae90       _raise_exc_ex              00000001800dbe90 f   libucrtd:fpexcept.obj
 0001:000db6a0       _raise_excf                00000001800dc6a0 f   libucrtd:fpexcept.obj
 0001:000db710       _set_errno_from_matherr    00000001800dc710 f   libucrtd:fpexcept.obj
 0001:000db770       _umatherr                  00000001800dc770 f   libucrtd:fpexcept.obj
 0001:000db880       _get_fpsr                  00000001800dc880 f   libucrtd:fpsr.obj
 0001:000db890       _set_fpsr                  00000001800dc890 f   libucrtd:fpsr.obj
 0001:000db89a       _fclrf                     00000001800dc89a f   libucrtd:fpsr.obj
 0001:000db8ae       _frnd                      00000001800dc8ae f   libucrtd:fpsr.obj
 0001:000dbbd0       __acrt_DownlevelLCIDToLocaleName 00000001800dcbd0 f   libucrtd:lcidtoname_downlevel.obj
 0001:000dbd10       __acrt_DownlevelLocaleNameToLCID 00000001800dcd10 f   libucrtd:lcidtoname_downlevel.obj
 0001:000dbd80       _fclose_nolock             00000001800dcd80 f   libucrtd:fclose.obj
 0001:000dbf70       fclose                     00000001800dcf70 f   libucrtd:fclose.obj
 0001:000dc100       ??$?RV<lambda_2ce24b26f23dade10250ef086380d911>@@AEAV<lambda_e9ab68cc08dfd839979545c079379e6e>@@V<lambda_6262c464c96e4c69799ed44814c7c457>@@@?$__crt_seh_guarded_call@H@@QEAAH$$QEAV<lambda_2ce24b26f23dade10250ef086380d911>@@AEAV<lambda_e9ab68cc08dfd839979545c079379e6e>@@$$QEAV<lambda_6262c464c96e4c69799ed44814c7c457>@@@Z 00000001800dd100 f i libucrtd:commit.obj
 0001:000dc160       ??$__acrt_lowio_lock_fh_and_call@V<lambda_e9ab68cc08dfd839979545c079379e6e>@@@@YAHH$$QEAV<lambda_e9ab68cc08dfd839979545c079379e6e>@@@Z 00000001800dd160 f i libucrtd:commit.obj
 0001:000dc3b0       _commit                    00000001800dd3b0 f   libucrtd:commit.obj
 0001:000ddad0       _write                     00000001800dead0 f   libucrtd:write.obj
 0001:000dde10       _write_nolock              00000001800dee10 f   libucrtd:write.obj
 0001:000de560       ??$?RU__crt_lowio_handle_data@@@__crt_internal_free_policy@@QEBAXQEBU__crt_lowio_handle_data@@@Z 00000001800df560 f i libucrtd:osfinfo.obj
 0001:000de590       ??0?$__crt_unique_heap_ptr@U__crt_lowio_handle_data@@U__crt_internal_free_policy@@@@QEAA@QEAU__crt_lowio_handle_data@@@Z 00000001800df590 f i libucrtd:osfinfo.obj
 0001:000de5c0       ??1?$__crt_unique_heap_ptr@U__crt_lowio_handle_data@@U__crt_internal_free_policy@@@@QEAA@XZ 00000001800df5c0 f i libucrtd:osfinfo.obj
 0001:000de5e0       ??B?$__crt_unique_heap_ptr@U__crt_lowio_handle_data@@U__crt_internal_free_policy@@@@QEBA_NXZ 00000001800df5e0 f i libucrtd:osfinfo.obj
 0001:000de600       ?detach@?$__crt_unique_heap_ptr@U__crt_lowio_handle_data@@U__crt_internal_free_policy@@@@QEAAPEAU__crt_lowio_handle_data@@XZ 00000001800df600 f i libucrtd:osfinfo.obj
 0001:000de640       ?get@?$__crt_unique_heap_ptr@U__crt_lowio_handle_data@@U__crt_internal_free_policy@@@@QEBAPEAU__crt_lowio_handle_data@@XZ 00000001800df640 f i libucrtd:osfinfo.obj
 0001:000de660       ?is_valid@?$__crt_unique_heap_ptr@U__crt_lowio_handle_data@@U__crt_internal_free_policy@@@@QEBA_NXZ 00000001800df660 f i libucrtd:osfinfo.obj
 0001:000de6a0       ?release@?$__crt_unique_heap_ptr@U__crt_lowio_handle_data@@U__crt_internal_free_policy@@@@QEAAXXZ 00000001800df6a0 f i libucrtd:osfinfo.obj
 0001:000de6f0       __acrt_lowio_create_handle_array 00000001800df6f0 f   libucrtd:osfinfo.obj
 0001:000de8f0       __acrt_lowio_destroy_handle_array 00000001800df8f0 f   libucrtd:osfinfo.obj
 0001:000de990       __acrt_lowio_ensure_fh_exists 00000001800df990 f   libucrtd:osfinfo.obj
 0001:000deb40       __acrt_lowio_lock_fh       00000001800dfb40 f   libucrtd:osfinfo.obj
 0001:000deb90       __acrt_lowio_set_os_handle 00000001800dfb90 f   libucrtd:osfinfo.obj
 0001:000decf0       __acrt_lowio_unlock_fh     00000001800dfcf0 f   libucrtd:osfinfo.obj
 0001:000ded40       _alloc_osfhnd              00000001800dfd40 f   libucrtd:osfinfo.obj
 0001:000defc0       _free_osfhnd               00000001800dffc0 f   libucrtd:osfinfo.obj
 0001:000df140       _get_osfhandle             00000001800e0140 f   libucrtd:osfinfo.obj
 0001:000df3c0       _open_osfhandle            00000001800e03c0 f   libucrtd:osfinfo.obj
 0001:000df660       __iswcsym                  00000001800e0660 f i libucrtd:_wctype.obj
 0001:000df6b0       __iswcsymf                 00000001800e06b0 f i libucrtd:_wctype.obj
 0001:000df700       _isleadbyte_l              00000001800e0700 f i libucrtd:_wctype.obj
 0001:000df770       _iswalnum_l                00000001800e0770 f i libucrtd:_wctype.obj
 0001:000df7a0       _iswalpha_l                00000001800e07a0 f i libucrtd:_wctype.obj
 0001:000df7d0       _iswblank_l                00000001800e07d0 f i libucrtd:_wctype.obj
 0001:000df820       _iswcntrl_l                00000001800e0820 f i libucrtd:_wctype.obj
 0001:000df850       _iswcsym_l                 00000001800e0850 f i libucrtd:_wctype.obj
 0001:000df8b0       _iswcsymf_l                00000001800e08b0 f i libucrtd:_wctype.obj
 0001:000df910       _iswdigit_l                00000001800e0910 f i libucrtd:_wctype.obj
 0001:000df940       _iswgraph_l                00000001800e0940 f i libucrtd:_wctype.obj
 0001:000df970       _iswlower_l                00000001800e0970 f i libucrtd:_wctype.obj
 0001:000df9a0       _iswprint_l                00000001800e09a0 f i libucrtd:_wctype.obj
 0001:000df9d0       _iswpunct_l                00000001800e09d0 f i libucrtd:_wctype.obj
 0001:000dfa00       _iswspace_l                00000001800e0a00 f i libucrtd:_wctype.obj
 0001:000dfa30       _iswupper_l                00000001800e0a30 f i libucrtd:_wctype.obj
 0001:000dfa60       _iswxdigit_l               00000001800e0a60 f i libucrtd:_wctype.obj
 0001:000dfa90       isleadbyte                 00000001800e0a90 f i libucrtd:_wctype.obj
 0001:000dfab0       iswalnum                   00000001800e0ab0 f i libucrtd:_wctype.obj
 0001:000dfae0       iswalpha                   00000001800e0ae0 f i libucrtd:_wctype.obj
 0001:000dfb10       iswascii                   00000001800e0b10 f i libucrtd:_wctype.obj
 0001:000dfb50       iswblank                   00000001800e0b50 f i libucrtd:_wctype.obj
 0001:000dfba0       iswcntrl                   00000001800e0ba0 f i libucrtd:_wctype.obj
 0001:000dfbd0       iswdigit                   00000001800e0bd0 f i libucrtd:_wctype.obj
 0001:000dfc00       iswgraph                   00000001800e0c00 f i libucrtd:_wctype.obj
 0001:000dfc30       iswlower                   00000001800e0c30 f i libucrtd:_wctype.obj
 0001:000dfc60       iswprint                   00000001800e0c60 f i libucrtd:_wctype.obj
 0001:000dfc90       iswpunct                   00000001800e0c90 f i libucrtd:_wctype.obj
 0001:000dfcc0       iswspace                   00000001800e0cc0 f i libucrtd:_wctype.obj
 0001:000dfcf0       iswupper                   00000001800e0cf0 f i libucrtd:_wctype.obj
 0001:000dfd20       iswxdigit                  00000001800e0d20 f i libucrtd:_wctype.obj
 0001:000dfd50       ??0?$__crt_scoped_stack_ptr@_W@@QEAA@U?$__crt_scoped_stack_ptr_tag@_W@@@Z 00000001800e0d50 f i libucrtd:lcmapstringa.obj
 0001:000dfd80       ??0?$__crt_scoped_stack_ptr_tag@_W@@QEAA@QEA_W@Z 00000001800e0d80 f i libucrtd:lcmapstringa.obj
 0001:000dfdb0       ??1?$__crt_scoped_stack_ptr@_W@@QEAA@XZ 00000001800e0db0 f i libucrtd:lcmapstringa.obj
 0001:000dfde0       ??B?$__crt_scoped_stack_ptr@_W@@QEBA_NXZ 00000001800e0de0 f i libucrtd:lcmapstringa.obj
 0001:000e0580       ?get@?$__crt_scoped_stack_ptr@_W@@QEBAPEA_WXZ 00000001800e1580 f i libucrtd:lcmapstringa.obj
 0001:000e05a0       _MallocaComputeSize        00000001800e15a0 f i libucrtd:lcmapstringa.obj
 0001:000e05f0       _MarkAllocaS               00000001800e15f0 f i libucrtd:lcmapstringa.obj
 0001:000e0630       __acrt_LCMapStringA        00000001800e1630 f   libucrtd:lcmapstringa.obj
 0001:000e0710       _freea_crt                 00000001800e1710 f i libucrtd:lcmapstringa.obj
 0001:000e07d0       ??$?RE@__crt_internal_free_policy@@QEBAXQEBE@Z 00000001800e17d0 f i libucrtd:initctype.obj
 0001:000e0800       ??$?RG@__crt_internal_free_policy@@QEBAXQEBG@Z 00000001800e1800 f i libucrtd:initctype.obj
 0001:000e0830       ??$?RJ@__crt_internal_free_policy@@QEBAXQEBJ@Z 00000001800e1830 f i libucrtd:initctype.obj
 0001:000e0860       ??0?$__crt_unique_heap_ptr@EU__crt_internal_free_policy@@@@QEAA@QEAE@Z 00000001800e1860 f i libucrtd:initctype.obj
 0001:000e0890       ??0?$__crt_unique_heap_ptr@GU__crt_internal_free_policy@@@@QEAA@QEAG@Z 00000001800e1890 f i libucrtd:initctype.obj
 0001:000e08c0       ??0?$__crt_unique_heap_ptr@JU__crt_internal_free_policy@@@@QEAA@QEAJ@Z 00000001800e18c0 f i libucrtd:initctype.obj
 0001:000e08f0       ??1?$__crt_unique_heap_ptr@EU__crt_internal_free_policy@@@@QEAA@XZ 00000001800e18f0 f i libucrtd:initctype.obj
 0001:000e0910       ??1?$__crt_unique_heap_ptr@GU__crt_internal_free_policy@@@@QEAA@XZ 00000001800e1910 f i libucrtd:initctype.obj
 0001:000e0930       ??1?$__crt_unique_heap_ptr@JU__crt_internal_free_policy@@@@QEAA@XZ 00000001800e1930 f i libucrtd:initctype.obj
 0001:000e0950       ?detach@?$__crt_unique_heap_ptr@EU__crt_internal_free_policy@@@@QEAAPEAEXZ 00000001800e1950 f i libucrtd:initctype.obj
 0001:000e0990       ?detach@?$__crt_unique_heap_ptr@GU__crt_internal_free_policy@@@@QEAAPEAGXZ 00000001800e1990 f i libucrtd:initctype.obj
 0001:000e09d0       ?detach@?$__crt_unique_heap_ptr@JU__crt_internal_free_policy@@@@QEAAPEAJXZ 00000001800e19d0 f i libucrtd:initctype.obj
 0001:000e0a10       ?release@?$__crt_unique_heap_ptr@EU__crt_internal_free_policy@@@@QEAAXXZ 00000001800e1a10 f i libucrtd:initctype.obj
 0001:000e0a60       ?release@?$__crt_unique_heap_ptr@GU__crt_internal_free_policy@@@@QEAAXXZ 00000001800e1a60 f i libucrtd:initctype.obj
 0001:000e0ab0       ?release@?$__crt_unique_heap_ptr@JU__crt_internal_free_policy@@@@QEAAXXZ 00000001800e1ab0 f i libucrtd:initctype.obj
 0001:000e0b00       ___lc_codepage_func        00000001800e1b00 f   libucrtd:initctype.obj
 0001:000e0b50       ___lc_collate_cp_func      00000001800e1b50 f   libucrtd:initctype.obj
 0001:000e0ba0       ___lc_locale_name_func     00000001800e1ba0 f   libucrtd:initctype.obj
 0001:000e0bf0       ___mb_cur_max_func         00000001800e1bf0 f   libucrtd:initctype.obj
 0001:000e0c40       ___mb_cur_max_l_func       00000001800e1c40 f   libucrtd:initctype.obj
 0001:000e0c90       __acrt_locale_initialize_ctype 00000001800e1c90 f   libucrtd:initctype.obj
 0001:000e1870       __acrt_add_locale_ref      00000001800e2870 f   libucrtd:locale_refcounting.obj
 0001:000e1a20       __acrt_free_locale         00000001800e2a20 f   libucrtd:locale_refcounting.obj
 0001:000e1e70       __acrt_locale_add_lc_time_reference 00000001800e2e70 f   libucrtd:locale_refcounting.obj
 0001:000e1ec0       __acrt_locale_free_lc_time_if_unreferenced 00000001800e2ec0 f   libucrtd:locale_refcounting.obj
 0001:000e1f30       __acrt_locale_release_lc_time_reference 00000001800e2f30 f   libucrtd:locale_refcounting.obj
 0001:000e1f80       __acrt_release_locale_ref  00000001800e2f80 f   libucrtd:locale_refcounting.obj
 0001:000e2140       __acrt_update_thread_locale_data 00000001800e3140 f   libucrtd:locale_refcounting.obj
 0001:000e2210       _updatetlocinfoEx_nolock   00000001800e3210 f   libucrtd:locale_refcounting.obj
 0001:000e22e0       __acrt_fp_strflt_to_string 00000001800e32e0 f   libucrtd:_fptostr.obj
 0001:000e3010       ??0big_integer@__crt_strtox@@QEAA@AEBU01@@Z 00000001800e4010 f i libucrtd:cfout.obj
 0001:000e3090       ??0big_integer@__crt_strtox@@QEAA@XZ 00000001800e4090 f i libucrtd:cfout.obj
 0001:000e30e0       ??0scoped_fp_state_reset@?A0xce32f86b@@QEAA@XZ 00000001800e40e0 f i libucrtd:cfout.obj
 0001:000e3150       ??1scoped_fp_state_reset@?A0xce32f86b@@QEAA@XZ 00000001800e4150 f i libucrtd:cfout.obj
 0001:000e3190       ??4big_integer@__crt_strtox@@QEAAAEAU01@AEBU01@@Z 00000001800e4190 f i libucrtd:cfout.obj
 0001:000e3210       ??8__crt_strtox@@YA_NAEBUbig_integer@0@0@Z 00000001800e4210 f i libucrtd:cfout.obj
 0001:000e3290       ??9__crt_strtox@@YA_NAEBUbig_integer@0@0@Z 00000001800e4290 f i libucrtd:cfout.obj
 0001:000e32e0       ?add_carry@__crt_strtox@@YAIAEAIII@Z 00000001800e42e0 f i libucrtd:cfout.obj
 0001:000e3340       ?add_multiply_carry@__crt_strtox@@YAIAEAIIII@Z 00000001800e4340 f i libucrtd:cfout.obj
 0001:000e33b0       ?bit_scan_reverse@__crt_strtox@@YAII@Z 00000001800e43b0 f i libucrtd:cfout.obj
 0001:000e33f0       ?count_sequential_high_zeroes@__crt_strtox@@YAII@Z 00000001800e43f0 f i libucrtd:cfout.obj
 0001:000e3440       ?divide@__crt_strtox@@YA_KAEAUbig_integer@1@AEBU21@@Z 00000001800e4440 f i libucrtd:cfout.obj
 0001:000e4070       ?is_zero@__crt_strtox@@YA_NAEBUbig_integer@1@@Z 00000001800e5070 f i libucrtd:cfout.obj
 0001:000e40b0       ?make_big_integer@__crt_strtox@@YA?AUbig_integer@1@_K@Z 00000001800e50b0 f i libucrtd:cfout.obj
 0001:000e41b0       ?make_big_integer_power_of_two@__crt_strtox@@YA?AUbig_integer@1@I@Z 00000001800e51b0 f i libucrtd:cfout.obj
 0001:000e42c0       ?multiply@__crt_strtox@@YA_NAEAUbig_integer@1@AEBU21@@Z 00000001800e52c0 f i libucrtd:cfout.obj
 0001:000e4710       ?multiply@__crt_strtox@@YA_NAEAUbig_integer@1@I@Z 00000001800e5710 f i libucrtd:cfout.obj
 0001:000e4880       ?multiply_64_32@__crt_strtox@@YA_K_KI@Z 00000001800e5880 f i libucrtd:cfout.obj
 0001:000e48a0       ?multiply_by_power_of_ten@__crt_strtox@@YA_NAEAUbig_integer@1@I@Z 00000001800e58a0 f i libucrtd:cfout.obj
 0001:000e4ac0       ?multiply_core@__crt_strtox@@YAIQEAIII@Z 00000001800e5ac0 f i libucrtd:cfout.obj
 0001:000e4b60       ?shift_left@__crt_strtox@@YA_NAEAUbig_integer@1@I@Z 00000001800e5b60 f i libucrtd:cfout.obj
 0001:000e4f60       __acrt_fltout              00000001800e5f60 f   libucrtd:cfout.obj
 0001:000e6150       __acrt_stdio_flush_and_write_narrow_nolock 00000001800e7150 f   libucrtd:_flsbuf.obj
 0001:000e6190       __acrt_stdio_flush_and_write_wide_nolock 00000001800e7190 f   libucrtd:_flsbuf.obj
 0001:000e61d0       _isatty                    00000001800e71d0 f   libucrtd:isatty.obj
 0001:000e6320       ??$?RUlconv@@@__crt_internal_free_policy@@QEBAXQEBUlconv@@@Z 00000001800e7320 f i libucrtd:initmon.obj
 0001:000e6350       ??0?$__crt_unique_heap_ptr@Ulconv@@U__crt_internal_free_policy@@@@QEAA@QEAUlconv@@@Z 00000001800e7350 f i libucrtd:initmon.obj
 0001:000e6380       ??1?$__crt_unique_heap_ptr@Ulconv@@U__crt_internal_free_policy@@@@QEAA@XZ 00000001800e7380 f i libucrtd:initmon.obj
 0001:000e63a0       ?detach@?$__crt_unique_heap_ptr@Ulconv@@U__crt_internal_free_policy@@@@QEAAPEAUlconv@@XZ 00000001800e73a0 f i libucrtd:initmon.obj
 0001:000e63e0       ?release@?$__crt_unique_heap_ptr@Ulconv@@U__crt_internal_free_policy@@@@QEAAXXZ 00000001800e73e0 f i libucrtd:initmon.obj
 0001:000e6430       __acrt_locale_free_monetary 00000001800e7430 f   libucrtd:initmon.obj
 0001:000e66d0       __acrt_locale_initialize_monetary 00000001800e76d0 f   libucrtd:initmon.obj
 0001:000e72e0       __acrt_locale_free_numeric 00000001800e82e0 f   libucrtd:initnum.obj
 0001:000e73f0       __acrt_locale_initialize_numeric 00000001800e83f0 f   libucrtd:initnum.obj
 0001:000e7b60       ??$?RU__crt_lc_time_data@@@__crt_internal_free_policy@@QEBAXQEBU__crt_lc_time_data@@@Z 00000001800e8b60 f i libucrtd:inittime.obj
 0001:000e7cb0       ??0?$__crt_unique_heap_ptr@U__crt_lc_time_data@@U__crt_internal_free_policy@@@@QEAA@QEAU__crt_lc_time_data@@@Z 00000001800e8cb0 f i libucrtd:inittime.obj
 0001:000e7ce0       ??1?$__crt_unique_heap_ptr@U__crt_lc_time_data@@U__crt_internal_free_policy@@@@QEAA@XZ 00000001800e8ce0 f i libucrtd:inittime.obj
 0001:000e7d00       ??B?$__crt_unique_heap_ptr@U__crt_lc_time_data@@U__crt_internal_free_policy@@@@QEBA_NXZ 00000001800e8d00 f i libucrtd:inittime.obj
 0001:000e7d20       ?detach@?$__crt_unique_heap_ptr@U__crt_lc_time_data@@U__crt_internal_free_policy@@@@QEAAPEAU__crt_lc_time_data@@XZ 00000001800e8d20 f i libucrtd:inittime.obj
 0001:000e7dd0       ?get@?$__crt_unique_heap_ptr@U__crt_lc_time_data@@U__crt_internal_free_policy@@@@QEBAPEAU__crt_lc_time_data@@XZ 00000001800e8dd0 f i libucrtd:inittime.obj
 0001:000e85e0       ?is_valid@?$__crt_unique_heap_ptr@U__crt_lc_time_data@@U__crt_internal_free_policy@@@@QEBA_NXZ 00000001800e95e0 f i libucrtd:inittime.obj
 0001:000e8620       ?release@?$__crt_unique_heap_ptr@U__crt_lc_time_data@@U__crt_internal_free_policy@@@@QEAAXXZ 00000001800e9620 f i libucrtd:inittime.obj
 0001:000e8670       __acrt_locale_free_time    00000001800e9670 f   libucrtd:inittime.obj
 0001:000e8840       __acrt_locale_initialize_time 00000001800e9840 f   libucrtd:inittime.obj
 0001:000e8900       __pctype_func              00000001800e9900 f   libucrtd:ctype.obj
 0001:000e8950       __pwctype_func             00000001800e9950 f   libucrtd:ctype.obj
 0001:000e9180       wcscat_s                   00000001800ea180 f   libucrtd:wcscat_s.obj
 0001:000e91c0       wcscmp                     00000001800ea1c0 f   libucrtd:wcscmp.obj
 0001:000e9260       wcscspn                    00000001800ea260 f   libucrtd:wcscspn.obj
 0001:000e9320       wcsncmp                    00000001800ea320 f   libucrtd:wcsncmp.obj
 0001:000e93d0       wcspbrk                    00000001800ea3d0 f   libucrtd:wcspbrk.obj
 0001:000e9470       __acrt_GetStringTypeA      00000001800ea470 f   libucrtd:getstringtypea.obj
 0001:000ea700       __acrt_get_qualified_locale 00000001800eb700 f   libucrtd:get_qualified_locale.obj
 0001:000ebb60       __acrt_get_qualified_locale_downlevel 00000001800ecb60 f   libucrtd:getqloc_downlevel.obj
 0001:000ebfa0       localeconv                 00000001800ecfa0 f   libucrtd:localeconv.obj
 0001:000ede30       _i64toa                    00000001800eee30 f   libucrtd:xtoa.obj
 0001:000edeb0       _i64toa_s                  00000001800eeeb0 f   libucrtd:xtoa.obj
 0001:000edf30       _i64tow                    00000001800eef30 f   libucrtd:xtoa.obj
 0001:000edfb0       _i64tow_s                  00000001800eefb0 f   libucrtd:xtoa.obj
 0001:000ee030       _itoa                      00000001800ef030 f   libucrtd:xtoa.obj
 0001:000ee0b0       _itoa_s                    00000001800ef0b0 f   libucrtd:xtoa.obj
 0001:000ee130       _itow                      00000001800ef130 f   libucrtd:xtoa.obj
 0001:000ee1b0       _itow_s                    00000001800ef1b0 f   libucrtd:xtoa.obj
 0001:000ee230       _ltoa                      00000001800ef230 f   libucrtd:xtoa.obj
 0001:000ee2b0       _ltoa_s                    00000001800ef2b0 f   libucrtd:xtoa.obj
 0001:000ee330       _ltow                      00000001800ef330 f   libucrtd:xtoa.obj
 0001:000ee3b0       _ltow_s                    00000001800ef3b0 f   libucrtd:xtoa.obj
 0001:000ee430       _ui64toa                   00000001800ef430 f   libucrtd:xtoa.obj
 0001:000ee480       _ui64toa_s                 00000001800ef480 f   libucrtd:xtoa.obj
 0001:000ee4d0       _ui64tow                   00000001800ef4d0 f   libucrtd:xtoa.obj
 0001:000ee520       _ui64tow_s                 00000001800ef520 f   libucrtd:xtoa.obj
 0001:000ee570       _ultoa                     00000001800ef570 f   libucrtd:xtoa.obj
 0001:000ee5c0       _ultoa_s                   00000001800ef5c0 f   libucrtd:xtoa.obj
 0001:000ee610       _ultow                     00000001800ef610 f   libucrtd:xtoa.obj
 0001:000ee660       _ultow_s                   00000001800ef660 f   libucrtd:xtoa.obj
 0001:000eed80       _mbstowcs_l                00000001800efd80 f   libucrtd:mbstowcs.obj
 0001:000eedd0       _mbstowcs_s_l              00000001800efdd0 f   libucrtd:mbstowcs.obj
 0001:000ef510       mbstowcs                   00000001800f0510 f   libucrtd:mbstowcs.obj
 0001:000ef580       mbstowcs_s                 00000001800f0580 f   libucrtd:mbstowcs.obj
 0001:000f00e0       _wcstombs_l                00000001800f10e0 f   libucrtd:wcstombs.obj
 0001:000f0130       _wcstombs_s_l              00000001800f1130 f   libucrtd:wcstombs.obj
 0001:000f07b0       wcstombs                   00000001800f17b0 f   libucrtd:wcstombs.obj
 0001:000f07f0       wcstombs_s                 00000001800f17f0 f   libucrtd:wcstombs.obj
 0001:000f1050       strcat_s                   00000001800f2050 f   libucrtd:strcat_s.obj
 0001:000f1090       _malloc_base               00000001800f2090 f   libucrtd:malloc_base.obj
 0001:000f11a0       _wcsnicoll                 00000001800f21a0 f   libucrtd:wcsnicol.obj
 0001:000f1590       _wcsnicoll_l               00000001800f2590 f   libucrtd:wcsnicol.obj
 0001:000f1ac0       _strnicoll                 00000001800f2ac0 f   libucrtd:strnicol.obj
 0001:000f1b30       _strnicoll_l               00000001800f2b30 f   libucrtd:strnicol.obj
 0001:000f2010       _set_error_mode            00000001800f3010 f   libucrtd:set_error_mode.obj
 0001:000f2150       _d_int                     00000001800f3150 f   libucrtd:_test.obj
 0001:000f2550       _dtest                     00000001800f3550 f   libucrtd:_test.obj
 0001:000f26f0       _fd_int                    00000001800f36f0 f   libucrtd:_test.obj
 0001:000f29b0       _fdtest                    00000001800f39b0 f   libucrtd:_test.obj
 0001:000f2ad0       _fperrraise                00000001800f3ad0 f   libucrtd:_test.obj
 0001:000f2b10       _ld_int                    00000001800f3b10 f   libucrtd:_test.obj
 0001:000f2b40       _ldtest                    00000001800f3b40 f   libucrtd:_test.obj
 0001:000f2cc0       ??$?RV<lambda_4f1f1a84956f0d44b74de224c960ff76>@@AEAV<lambda_a8f98972ebaa5f7148d35bffe53bd70d>@@V<lambda_f6ca65dda28655a1cf758c1c4e38e52a>@@@?$__crt_seh_guarded_call@H@@QEAAH$$QEAV<lambda_4f1f1a84956f0d44b74de224c960ff76>@@AEAV<lambda_a8f98972ebaa5f7148d35bffe53bd70d>@@$$QEAV<lambda_f6ca65dda28655a1cf758c1c4e38e52a>@@@Z 00000001800f3cc0 f i libucrtd:close.obj
 0001:000f2d20       ??$__acrt_lowio_lock_fh_and_call@V<lambda_a8f98972ebaa5f7148d35bffe53bd70d>@@@@YAHH$$QEAV<lambda_a8f98972ebaa5f7148d35bffe53bd70d>@@@Z 00000001800f3d20 f i libucrtd:close.obj
 0001:000f3070       _close                     00000001800f4070 f   libucrtd:close.obj
 0001:000f32d0       _close_nolock              00000001800f42d0 f   libucrtd:close.obj
 0001:000f3350       ??$?RU__crt_stdio_stream_data@@@__crt_internal_free_policy@@QEBAXQEBU__crt_stdio_stream_data@@@Z 00000001800f4350 f i libucrtd:stream.obj
 0001:000f3380       ??0?$__crt_unique_heap_ptr@U__crt_stdio_stream_data@@U__crt_internal_free_policy@@@@QEAA@QEAU__crt_stdio_stream_data@@@Z 00000001800f4380 f i libucrtd:stream.obj
 0001:000f33b0       ??0__crt_stdio_stream@@QEAA@XZ 00000001800f43b0 f i libucrtd:stream.obj
 0001:000f33d0       ??1?$__crt_unique_heap_ptr@U__crt_stdio_stream_data@@U__crt_internal_free_policy@@@@QEAA@XZ 00000001800f43d0 f i libucrtd:stream.obj
 0001:000f33f0       ?__acrt_stdio_allocate_stream@@YA?AV__crt_stdio_stream@@XZ 00000001800f43f0 f   libucrtd:stream.obj
 0001:000f34e0       ?__acrt_stdio_free_stream@@YAXV__crt_stdio_stream@@@Z 00000001800f44e0 f   libucrtd:stream.obj
 0001:000f35a0       ?deallocate@__crt_stdio_stream@@QEAAXXZ 00000001800f45a0 f i libucrtd:stream.obj
 0001:000f35c0       ?detach@?$__crt_unique_heap_ptr@U__crt_stdio_stream_data@@U__crt_internal_free_policy@@@@QEAAPEAU__crt_stdio_stream_data@@XZ 00000001800f45c0 f i libucrtd:stream.obj
 0001:000f3810       ?lock@__crt_stdio_stream@@QEBAXXZ 00000001800f4810 f i libucrtd:stream.obj
 0001:000f3840       ?release@?$__crt_unique_heap_ptr@U__crt_stdio_stream_data@@U__crt_internal_free_policy@@@@QEAAXXZ 00000001800f4840 f i libucrtd:stream.obj
 0001:000f3890       ?try_allocate@__crt_stdio_stream@@QEAA_NXZ 00000001800f4890 f i libucrtd:stream.obj
 0001:000f3910       ?unlock@__crt_stdio_stream@@QEBAXXZ 00000001800f4910 f i libucrtd:stream.obj
 0001:000f4420       _lseek                     00000001800f5420 f   libucrtd:lseek.obj
 0001:000f4460       _lseek_nolock              00000001800f5460 f   libucrtd:lseek.obj
 0001:000f44a0       _lseeki64                  00000001800f54a0 f   libucrtd:lseek.obj
 0001:000f44e0       _lseeki64_nolock           00000001800f54e0 f   libucrtd:lseek.obj
 0001:000f4514       ??$?RV<lambda_9fda798407f8391327e99fec20084266>@@AEAV<lambda_6e3e78bb6855d1e4040e022c1b427e22>@@V<lambda_5d54a80e00f5dcce6acfc22736ebf0cf>@@@?$__crt_seh_guarded_call@G@@QEAAG$$QEAV<lambda_9fda798407f8391327e99fec20084266>@@AEAV<lambda_6e3e78bb6855d1e4040e022c1b427e22>@@$$QEAV<lambda_5d54a80e00f5dcce6acfc22736ebf0cf>@@@Z 00000001800f5514 f i libucrtd:putwch.obj
 0001:000f4564       ??$__acrt_lock_and_call@V<lambda_6e3e78bb6855d1e4040e022c1b427e22>@@@@YAGW4__acrt_lock_id@@$$QEAV<lambda_6e3e78bb6855d1e4040e022c1b427e22>@@@Z 00000001800f5564 f i libucrtd:putwch.obj
 0001:000f45d4       _putwch                    00000001800f55d4 f   libucrtd:putwch.obj
 0001:000f4620       _putwch_nolock             00000001800f5620 f   libucrtd:putwch.obj
 0001:000f4690       __strncnt                  00000001800f5690 f   libucrtd:strncnt.obj
 0001:000f49a0       __acrt_GetLocaleInfoA      00000001800f59a0 f   libucrtd:getlocaleinfoa.obj
 0001:000f4f10       log10                      00000001800f5f10 f   libucrtd:log10.obj
 0001:000f5630       ceil                       00000001800f6630 f   libucrtd:ceil.obj
 0001:000f5870       fegetenv                   00000001800f6870 f   libucrtd:fegetenv.obj
 0001:000f58b0       fesetenv                   00000001800f68b0 f   libucrtd:fesetenv.obj
 0001:000f5930       feholdexcept               00000001800f6930 f   libucrtd:feholdexcept.obj
 0001:000f59b0       __acrt_stdio_allocate_buffer_nolock 00000001800f69b0 f   libucrtd:_getbuf.obj
 0001:000f5b80       _wcsicmp                   00000001800f6b80 f   libucrtd:wcsicmp.obj
 0001:000f5e70       _wcsicmp_l                 00000001800f6e70 f   libucrtd:wcsicmp.obj
 0001:000f62c0       _wcsnicmp                  00000001800f72c0 f   libucrtd:wcsnicmp.obj
 0001:000f6600       _wcsnicmp_l                00000001800f7600 f   libucrtd:wcsnicmp.obj
 0001:000f6a70       __acrt_CompareStringW      00000001800f7a70 f   libucrtd:comparestringw.obj
 0001:000f6bf0       __ascii_strnicmp           00000001800f7bf0 f   libucrtd:strnicmp.obj
 0001:000f6d10       _strnicmp                  00000001800f7d10 f   libucrtd:strnicmp.obj
 0001:000f7000       _strnicmp_l                00000001800f8000 f   libucrtd:strnicmp.obj
 0001:000f7ce0       __acrt_CompareStringA      00000001800f8ce0 f   libucrtd:comparestringa.obj
 0001:000f7da0       fegetexceptflag            00000001800f8da0 f   libucrtd:fegetexceptflag.obj
 0001:000f7e20       fesetexceptflag            00000001800f8e20 f   libucrtd:fesetexceptflag.obj
 0001:000f7ee0       __acrt_fenv_get_fp_status_word_from_exception_mask 00000001800f8ee0 f   libucrtd:_fenvutils.obj
 0001:000f7fa0       _getfpcontrolword          00000001800f8fa0 f   libucrtd:_fenvutils.obj
 0001:000f7fc0       _getfpstatusword           00000001800f8fc0 f   libucrtd:_fenvutils.obj
 0001:000f7fe0       _setfpcontrolword          00000001800f8fe0 f   libucrtd:_fenvutils.obj
 0001:000f8010       _setfpstatusword           00000001800f9010 f   libucrtd:_fenvutils.obj
 0001:000f807c       __dcrt_lowio_initialize_console_output 00000001800f907c f   libucrtd:initcon.obj
 0001:000f80c8       __dcrt_terminate_console_output 00000001800f90c8 f   libucrtd:initcon.obj
 0001:000f80f0       _log10_special             00000001800f90f0 f   libucrtd:log_special.obj
 0001:000f8150       _log10f_special            00000001800f9150 f   libucrtd:log_special.obj
 0001:000f81b0       _log_special               00000001800f91b0 f   libucrtd:log_special.obj
 0001:000f8380       _logf_special              00000001800f9380 f   libucrtd:log_special.obj
 0001:000f87f0       _clearfp                   00000001800f97f0 f   libucrtd:ieee.obj
 0001:000f8820       _control87                 00000001800f9820 f   libucrtd:ieee.obj
 0001:000f8850       _controlfp                 00000001800f9850 f   libucrtd:ieee.obj
 0001:000f8880       _fpreset                   00000001800f9880 f   libucrtd:ieee.obj
 0001:000f8a40       _set_controlfp             00000001800f9a40 f   libucrtd:ieee.obj
 0001:000f8ab0       _statusfp                  00000001800f9ab0 f   libucrtd:ieee.obj
 0001:000f8c40       _towlower_l                00000001800f9c40 f   libucrtd:towlower.obj
 0001:000f8e70       towlower                   00000001800f9e70 f   libucrtd:towlower.obj
 0001:000f8e90       fetestexcept               00000001800f9e90 f   libucrtd:fetestexcept.obj
 0001:000f8ed0       __acrt_LCMapStringW        00000001800f9ed0 f   libucrtd:lcmapstringw.obj
 0001:000f8fb8       RaiseException             00000001800f9fb8 f   kernel32:KERNEL32.dll
 0001:000f8fbe       GetLastError               00000001800f9fbe f   kernel32:KERNEL32.dll
 0001:000f8fc4       GetSystemInfo              00000001800f9fc4 f   kernel32:KERNEL32.dll
 0001:000f8fca       VirtualProtect             00000001800f9fca f   kernel32:KERNEL32.dll
 0001:000f8fd0       VirtualQuery               00000001800f9fd0 f   kernel32:KERNEL32.dll
 0001:000f8fd6       FreeLibrary                00000001800f9fd6 f   kernel32:KERNEL32.dll
 0001:000f8fdc       GetModuleHandleW           00000001800f9fdc f   kernel32:KERNEL32.dll
 0001:000f8fe2       GetProcAddress             00000001800f9fe2 f   kernel32:KERNEL32.dll
 0001:000f8fe8       LoadLibraryExA             00000001800f9fe8 f   kernel32:KERNEL32.dll
 0001:000f8fee       InitializeSListHead        00000001800f9fee f   kernel32:KERNEL32.dll
 0001:000f8ff4       QueryPerformanceCounter    00000001800f9ff4 f   kernel32:KERNEL32.dll
 0001:000f8ffa       GetCurrentProcessId        00000001800f9ffa f   kernel32:KERNEL32.dll
 0001:000f9000       GetCurrentThreadId         00000001800fa000 f   kernel32:KERNEL32.dll
 0001:000f9006       GetSystemTimeAsFileTime    00000001800fa006 f   kernel32:KERNEL32.dll
 0001:000f900c       RtlCaptureContext          00000001800fa00c f   kernel32:KERNEL32.dll
 0001:000f9012       RtlLookupFunctionEntry     00000001800fa012 f   kernel32:KERNEL32.dll
 0001:000f9018       RtlVirtualUnwind           00000001800fa018 f   kernel32:KERNEL32.dll
 0001:000f901e       IsDebuggerPresent          00000001800fa01e f   kernel32:KERNEL32.dll
 0001:000f9024       UnhandledExceptionFilter   00000001800fa024 f   kernel32:KERNEL32.dll
 0001:000f902a       SetUnhandledExceptionFilter 00000001800fa02a f   kernel32:KERNEL32.dll
 0001:000f9030       GetStartupInfoW            00000001800fa030 f   kernel32:KERNEL32.dll
 0001:000f9036       IsProcessorFeaturePresent  00000001800fa036 f   kernel32:KERNEL32.dll
 0001:000f903c       MultiByteToWideChar        00000001800fa03c f   kernel32:KERNEL32.dll
 0001:000f9042       WideCharToMultiByte        00000001800fa042 f   kernel32:KERNEL32.dll
 0001:000f9048       HeapAlloc                  00000001800fa048 f   kernel32:KERNEL32.dll
 0001:000f904e       HeapFree                   00000001800fa04e f   kernel32:KERNEL32.dll
 0001:000f9054       GetProcessHeap             00000001800fa054 f   kernel32:KERNEL32.dll
 0001:000f905a       GetCurrentProcess          00000001800fa05a f   kernel32:KERNEL32.dll
 0001:000f9060       TerminateProcess           00000001800fa060 f   kernel32:KERNEL32.dll
 0001:000f9066       InterlockedPushEntrySList  00000001800fa066 f   kernel32:KERNEL32.dll
 0001:000f906c       InterlockedFlushSList      00000001800fa06c f   kernel32:KERNEL32.dll
 0001:000f9072       GetModuleFileNameW         00000001800fa072 f   kernel32:KERNEL32.dll
 0001:000f9078       RtlUnwindEx                00000001800fa078 f   kernel32:KERNEL32.dll
 0001:000f907e       RtlPcToFileHeader          00000001800fa07e f   kernel32:KERNEL32.dll
 0001:000f9084       LoadLibraryExW             00000001800fa084 f   kernel32:KERNEL32.dll
 0001:000f908a       InitializeCriticalSectionAndSpinCount 00000001800fa08a f   kernel32:KERNEL32.dll
 0001:000f9090       TlsAlloc                   00000001800fa090 f   kernel32:KERNEL32.dll
 0001:000f9096       TlsGetValue                00000001800fa096 f   kernel32:KERNEL32.dll
 0001:000f909c       TlsSetValue                00000001800fa09c f   kernel32:KERNEL32.dll
 0001:000f90a2       TlsFree                    00000001800fa0a2 f   kernel32:KERNEL32.dll
 0001:000f90a8       SetLastError               00000001800fa0a8 f   kernel32:KERNEL32.dll
 0001:000f90ae       EnterCriticalSection       00000001800fa0ae f   kernel32:KERNEL32.dll
 0001:000f90b4       LeaveCriticalSection       00000001800fa0b4 f   kernel32:KERNEL32.dll
 0001:000f90ba       DeleteCriticalSection      00000001800fa0ba f   kernel32:KERNEL32.dll
 0001:000f90c0       GetModuleHandleExW         00000001800fa0c0 f   kernel32:KERNEL32.dll
 0001:000f90c6       HeapSize                   00000001800fa0c6 f   kernel32:KERNEL32.dll
 0001:000f90cc       HeapValidate               00000001800fa0cc f   kernel32:KERNEL32.dll
 0001:000f90d2       ExitProcess                00000001800fa0d2 f   kernel32:KERNEL32.dll
 0001:000f90d8       GetDateFormatW             00000001800fa0d8 f   kernel32:KERNEL32.dll
 0001:000f90de       GetTimeFormatW             00000001800fa0de f   kernel32:KERNEL32.dll
 0001:000f90e4       CompareStringW             00000001800fa0e4 f   kernel32:KERNEL32.dll
 0001:000f90ea       LCMapStringW               00000001800fa0ea f   kernel32:KERNEL32.dll
 0001:000f90f0       GetLocaleInfoW             00000001800fa0f0 f   kernel32:KERNEL32.dll
 0001:000f90f6       IsValidLocale              00000001800fa0f6 f   kernel32:KERNEL32.dll
 0001:000f90fc       GetUserDefaultLCID         00000001800fa0fc f   kernel32:KERNEL32.dll
 0001:000f9102       EnumSystemLocalesW         00000001800fa102 f   kernel32:KERNEL32.dll
 0001:000f9108       GetStdHandle               00000001800fa108 f   kernel32:KERNEL32.dll
 0001:000f910e       GetFileType                00000001800fa10e f   kernel32:KERNEL32.dll
 0001:000f9114       GetCurrentThread           00000001800fa114 f   kernel32:KERNEL32.dll
 0001:000f911a       GetACP                     00000001800fa11a f   kernel32:KERNEL32.dll
 0001:000f9120       WriteFile                  00000001800fa120 f   kernel32:KERNEL32.dll
 0001:000f9126       OutputDebugStringA         00000001800fa126 f   kernel32:KERNEL32.dll
 0001:000f912c       OutputDebugStringW         00000001800fa12c f   kernel32:KERNEL32.dll
 0001:000f9132       WriteConsoleW              00000001800fa132 f   kernel32:KERNEL32.dll
 0001:000f9138       CloseHandle                00000001800fa138 f   kernel32:KERNEL32.dll
 0001:000f913e       WaitForSingleObjectEx      00000001800fa13e f   kernel32:KERNEL32.dll
 0001:000f9144       CreateThread               00000001800fa144 f   kernel32:KERNEL32.dll
 0001:000f914a       SetConsoleCtrlHandler      00000001800fa14a f   kernel32:KERNEL32.dll
 0001:000f9150       HeapReAlloc                00000001800fa150 f   kernel32:KERNEL32.dll
 0001:000f9156       HeapQueryInformation       00000001800fa156 f   kernel32:KERNEL32.dll
 0001:000f915c       IsValidCodePage            00000001800fa15c f   kernel32:KERNEL32.dll
 0001:000f9162       GetOEMCP                   00000001800fa162 f   kernel32:KERNEL32.dll
 0001:000f9168       GetCPInfo                  00000001800fa168 f   kernel32:KERNEL32.dll
 0001:000f916e       GetEnvironmentStringsW     00000001800fa16e f   kernel32:KERNEL32.dll
 0001:000f9174       FreeEnvironmentStringsW    00000001800fa174 f   kernel32:KERNEL32.dll
 0001:000f917a       SetEnvironmentVariableA    00000001800fa17a f   kernel32:KERNEL32.dll
 0001:000f9180       SetEnvironmentVariableW    00000001800fa180 f   kernel32:KERNEL32.dll
 0001:000f9186       GetCommandLineA            00000001800fa186 f   kernel32:KERNEL32.dll
 0001:000f918c       GetCommandLineW            00000001800fa18c f   kernel32:KERNEL32.dll
 0001:000f9192       GetStringTypeW             00000001800fa192 f   kernel32:KERNEL32.dll
 0001:000f9198       FlushFileBuffers           00000001800fa198 f   kernel32:KERNEL32.dll
 0001:000f919e       GetConsoleCP               00000001800fa19e f   kernel32:KERNEL32.dll
 0001:000f91a4       GetConsoleMode             00000001800fa1a4 f   kernel32:KERNEL32.dll
 0001:000f91aa       SetStdHandle               00000001800fa1aa f   kernel32:KERNEL32.dll
 0001:000f91b0       SetFilePointerEx           00000001800fa1b0 f   kernel32:KERNEL32.dll
 0001:000f91b6       CreateFileW                00000001800fa1b6 f   kernel32:KERNEL32.dll
 0001:000f91bc       SystemFunction036          00000001800fa1bc f   advapi32:ADVAPI32.dll
 0001:000f91d0       _FindPESection             00000001800fa1d0 f   LIBCMTD:pesect.obj
 0001:000f92a0       _IsNonwritableInCurrentImage 00000001800fa2a0 f   LIBCMTD:pesect.obj
 0001:000f9360       _ValidateImageBase         00000001800fa360 f   LIBCMTD:pesect.obj
 0001:000f9400       __GSHandlerCheck_SEH       00000001800fa400 f   LIBCMTD:_gshandlerseh_.obj
 0001:000f94f0       __GSHandlerCheck_EH        00000001800fa4f0 f   LIBCMTD:gshandlereh.obj
 0001:000f95c0       strrchr                    00000001800fa5c0 f   libvcruntimed:strrchr.obj
 0001:000f9ba0       ?_ExecutionInCatch@@YAHPEAU_xDISPATCHER_CONTEXT@@PEBU_s_FuncInfo@@@Z 00000001800faba0 f   libvcruntimed:trnsctrl.obj
 0001:000f9c10       ?_GetEstablisherFrame@@YAPEA_KPEA_KPEAU_xDISPATCHER_CONTEXT@@PEBU_s_FuncInfo@@0@Z 00000001800fac10 f   libvcruntimed:trnsctrl.obj
 0001:000f9de0       ?_GetRangeOfTrysToCheck@@YAPEBU_s_TryBlockMapEntry@@PEA_KPEBU_s_FuncInfo@@HHPEAI2PEAU_xDISPATCHER_CONTEXT@@@Z 00000001800fade0 f   libvcruntimed:trnsctrl.obj
 0001:000fa080       ?__FrameUnwindToEmptyState@@YAXPEA_KPEAU_xDISPATCHER_CONTEXT@@PEBU_s_FuncInfo@@@Z 00000001800fb080 f   libvcruntimed:trnsctrl.obj
 0001:000fa140       ?__SehTransFilter@@YAHPEAU_EXCEPTION_POINTERS@@PEAUEHExceptionRecord@@PEA_KPEAU_CONTEXT@@PEAU_xDISPATCHER_CONTEXT@@PEBU_s_FuncInfo@@PEAH@Z 00000001800fb140 f   libvcruntimed:trnsctrl.obj
 0001:000fa220       _CallSETranslator          00000001800fb220 f   libvcruntimed:trnsctrl.obj
 0001:000fa2d0       _CreateFrameInfo           00000001800fb2d0 f   libvcruntimed:trnsctrl.obj
 0001:000fa360       _FindAndUnlinkFrame        00000001800fb360 f   libvcruntimed:trnsctrl.obj
 0001:000fa400       _GetImageBase              00000001800fb400 f   libvcruntimed:trnsctrl.obj
 0001:000fa420       _GetThrowImageBase         00000001800fb420 f   libvcruntimed:trnsctrl.obj
 0001:000fa440       _IsExceptionObjectToBeDestroyed 00000001800fb440 f   libvcruntimed:trnsctrl.obj
 0001:000fa4b0       _MoveContext               00000001800fb4b0 f   libvcruntimed:trnsctrl.obj
 0001:000fa4f0       _SetImageBase              00000001800fb4f0 f   libvcruntimed:trnsctrl.obj
 0001:000fa520       _SetThrowImageBase         00000001800fb520 f   libvcruntimed:trnsctrl.obj
 0001:000fa550       _UnwindNestedFrames        00000001800fb550 f   libvcruntimed:trnsctrl.obj
 0001:000fa710       __CxxFrameHandler          00000001800fb710 f   libvcruntimed:trnsctrl.obj
 0001:000fa800       __CxxFrameHandler2         00000001800fb800 f   libvcruntimed:trnsctrl.obj
 0001:000fa850       __CxxFrameHandler3         00000001800fb850 f   libvcruntimed:trnsctrl.obj
 0001:000fa950       memcmp                     00000001800fb950 f   libvcruntimed:memcmp.obj
 0001:000faa50       strchr                     00000001800fba50 f   libvcruntimed:strchr.obj
 0001:000fac40       wcschr                     00000001800fbc40 f   libvcruntimed:wcschr.obj
 0001:000fadf0       ?__GetCurrentState@@YAHPEA_KPEAU_xDISPATCHER_CONTEXT@@PEBU_s_FuncInfo@@@Z 00000001800fbdf0 f   libvcruntimed:ehstate.obj
 0001:000fae60       ?__GetUnwindTryBlock@@YAHPEA_KPEAU_xDISPATCHER_CONTEXT@@PEBU_s_FuncInfo@@@Z 00000001800fbe60 f   libvcruntimed:ehstate.obj
 0001:000faec0       ?__SetState@@YAXPEA_KPEAU_xDISPATCHER_CONTEXT@@PEBU_s_FuncInfo@@H@Z 00000001800fbec0 f   libvcruntimed:ehstate.obj
 0001:000faf00       ?__SetUnwindTryBlock@@YAXPEA_KPEAU_xDISPATCHER_CONTEXT@@PEBU_s_FuncInfo@@H@Z 00000001800fbf00 f   libvcruntimed:ehstate.obj
 0001:000faf90       ?__StateFromControlPc@@YAHPEBU_s_FuncInfo@@PEAU_xDISPATCHER_CONTEXT@@@Z 00000001800fbf90 f   libvcruntimed:ehstate.obj
 0001:000fafd0       ?__StateFromIp@@YAHPEBU_s_FuncInfo@@PEAU_xDISPATCHER_CONTEXT@@_J@Z 00000001800fbfd0 f   libvcruntimed:ehstate.obj
 0001:000fb0f0       __DestructExceptionObject  00000001800fc0f0 f   libvcruntimed:frame.obj
 0001:000fb230       ??0bad_exception@std@@QEAA@AEBV01@@Z 00000001800fc230 f i libvcruntimed:frame.obj
 0001:000fb280       ??0bad_exception@std@@QEAA@XZ 00000001800fc280 f i libvcruntimed:frame.obj
 0001:000fb2d0       ??1bad_exception@std@@UEAA@XZ 00000001800fc2d0 f i libvcruntimed:frame.obj
 0001:000fb2f0       ??8type_info@@QEBA_NAEBV0@@Z 00000001800fc2f0 f i libvcruntimed:frame.obj
 0001:000fb350       ??_Ebad_exception@std@@UEAAPEAXI@Z 00000001800fc350 f i libvcruntimed:frame.obj
 0001:000fb350       ??_Gbad_exception@std@@UEAAPEAXI@Z 00000001800fc350 f i libvcruntimed:frame.obj
 0001:000fc6c0       ?_CallMemberFunction0@@YAXPEAXP6AX0@Z@Z 00000001800fd6c0 f i libvcruntimed:frame.obj
 0001:000fc6f0       ?_CallMemberFunction1@@YAXPEAXP6AX0@Z0@Z 00000001800fd6f0 f i libvcruntimed:frame.obj
 0001:000fc720       ?_CallMemberFunction2@@YAXPEAXP6AX0@Z0H@Z 00000001800fd720 f i libvcruntimed:frame.obj
 0001:000fc760       ?_ValidateExecute@@YA_NP6A_JXZ@Z 00000001800fd760 f i libvcruntimed:frame.obj
 0001:000fc780       ?_ValidateRead@@YA_NPEBXI@Z 00000001800fd780 f i libvcruntimed:frame.obj
 0001:000fc7a0       ?_ValidateWrite@@YA_NPEAXI@Z 00000001800fd7a0 f i libvcruntimed:frame.obj
 0001:000fc810       ?raw_name@type_info@@QEBAPEBDXZ 00000001800fd810 f i libvcruntimed:frame.obj
 0001:000fc830       _SetWinRTOutOfMemoryExceptionCallback 00000001800fd830 f   libvcruntimed:frame.obj
 0001:000fc850       __AdjustPointer            00000001800fd850 f   libvcruntimed:frame.obj
 0001:000fc8f0       __BuildCatchObject         00000001800fd8f0 f   libvcruntimed:frame.obj
 0001:000fca80       __BuildCatchObjectHelper   00000001800fda80 f   libvcruntimed:frame.obj
 0001:000fd030       __CxxCallCatchBlock        00000001800fe030 f   libvcruntimed:frame.obj
 0001:000fd320       __CxxDetectRethrow         00000001800fe320 f   libvcruntimed:frame.obj
 0001:000fd3f0       __CxxExceptionFilter       00000001800fe3f0 f   libvcruntimed:frame.obj
 0001:000fd7f0       __CxxQueryExceptionSize    00000001800fe7f0 f   libvcruntimed:frame.obj
 0001:000fd800       __CxxRegisterExceptionObject 00000001800fe800 f   libvcruntimed:frame.obj
 0001:000fd9e0       __CxxUnregisterExceptionObject 00000001800fe9e0 f   libvcruntimed:frame.obj
 0001:000fdbd0       __FrameUnwindFilter        00000001800febd0 f   libvcruntimed:frame.obj
 0001:000fdc80       __FrameUnwindToState       00000001800fec80 f   libvcruntimed:frame.obj
 0001:000fdf60       __GetPlatformExceptionInfo 00000001800fef60 f   libvcruntimed:frame.obj
 0001:000fe040       __InternalCxxFrameHandler  00000001800ff040 f   libvcruntimed:frame.obj
 0001:000fe5e0       __TypeMatch                00000001800ff5e0 f   libvcruntimed:frame.obj
 0001:000fe840       __current_exception        00000001800ff840 f   libvcruntimed:frame.obj
 0001:000fe860       __current_exception_context 00000001800ff860 f   libvcruntimed:frame.obj
 0001:000fe880       __processing_throw         00000001800ff880 f   libvcruntimed:frame.obj
 0001:000fe8a0       __std_terminate            00000001800ff8a0 f   libvcruntimed:frame.obj
 0001:000fe8c0       __uncaught_exception       00000001800ff8c0 f   libvcruntimed:frame.obj
 0001:000fe900       __uncaught_exceptions      00000001800ff900 f   libvcruntimed:frame.obj
 0001:000fe920       _is_exception_typeof       00000001800ff920 f   libvcruntimed:frame.obj
 0001:000fead0       _CallSettingFrame          00000001800ffad0 f   libvcruntimed:handlers.obj
 0001:000feb24       EncodePointer              00000001800ffb24 f   kernel32:KERNEL32.dll
 0001:00101aa0       _guard_dispatch_icall_nop  0000000180102aa0 f   LIBCMTD:_guard_dispatch_.obj
 0002:00000000       __xc_a                     0000000180106000     LIBCMTD:initializers.obj
 0002:000002d0       __xc_z                     00000001801062d0     LIBCMTD:initializers.obj
 0002:000003e0       __xi_a                     00000001801063e0     LIBCMTD:initializers.obj
 0002:000004f0       __acrt_stdio_initializer   00000001801064f0     libucrtd:stdio_initializer.obj
 0002:00000500       __acrt_tran_fma3_initializer 0000000180106500     libucrtd:fma3_initializer.obj
 0002:00000510       __acrt_multibyte_initializer 0000000180106510     libucrtd:multibyte_initializer.obj
 0002:00000620       __xi_z                     0000000180106620     LIBCMTD:initializers.obj
 0002:00000730       __xp_a                     0000000180106730     LIBCMTD:initializers.obj
 0002:00000840       __acrt_locale_terminator   0000000180106840     libucrtd:locale_initializer.obj
 0002:00000850       __dcrt_console_output_terminator 0000000180106850     libucrtd:console_output_initializer.obj
 0002:00000960       __acrt_stdio_terminator    0000000180106960     libucrtd:stdio_initializer.obj
 0002:00000a70       __xp_z                     0000000180106a70     LIBCMTD:initializers.obj
 0002:00000b80       __xt_a                     0000000180106b80     LIBCMTD:initializers.obj
 0002:00000c90       __xt_z                     0000000180106c90     LIBCMTD:initializers.obj
 0002:00000da0       ??_C@_0BK@KKGDMEEI@PhysX3CommonDEBUG_x64?4dll?$AA@ 0000000180106da0     WindowsCookingDelayLoadHook.obj
 0002:00000dc0       ??_C@_0BM@FGKCIMCL@PhysX3CommonCHECKED_x64?4dll?$AA@ 0000000180106dc0     WindowsCookingDelayLoadHook.obj
 0002:00000de8       ??_C@_0BM@NIMEGLC@PhysX3CommonPROFILE_x64?4dll?$AA@ 0000000180106de8     WindowsCookingDelayLoadHook.obj
 0002:00000e10       ??_C@_0BF@HEEMOJKO@PhysX3Common_x64?4dll?$AA@ 0000000180106e10     WindowsCookingDelayLoadHook.obj
 0002:00000e30       ??_C@_0BK@LHJEBOBO@PhysX3CommonDEBUG_x86?4dll?$AA@ 0000000180106e30     WindowsCookingDelayLoadHook.obj
 0002:00000e50       ??_C@_0BM@ELFFFGHN@PhysX3CommonCHECKED_x86?4dll?$AA@ 0000000180106e50     WindowsCookingDelayLoadHook.obj
 0002:00000e78       ??_C@_0BM@BAHLJMOE@PhysX3CommonPROFILE_x86?4dll?$AA@ 0000000180106e78     WindowsCookingDelayLoadHook.obj
 0002:00000ea0       ??_C@_0BF@GJLLDDPI@PhysX3Common_x86?4dll?$AA@ 0000000180106ea0     WindowsCookingDelayLoadHook.obj
 0002:00000ec0       ??_C@_0BK@FCFCOGBN@PhysX3CommonDEBUG_arm?4dll?$AA@ 0000000180106ec0     WindowsCookingDelayLoadHook.obj
 0002:00000ee0       ??_C@_0BM@KOJDKOHO@PhysX3CommonCHECKED_arm?4dll?$AA@ 0000000180106ee0     WindowsCookingDelayLoadHook.obj
 0002:00000f08       ??_C@_0BM@PFLNGEOH@PhysX3CommonPROFILE_arm?4dll?$AA@ 0000000180106f08     WindowsCookingDelayLoadHook.obj
 0002:00000f30       ??_C@_0BF@IMHNMLPL@PhysX3Common_arm?4dll?$AA@ 0000000180106f30     WindowsCookingDelayLoadHook.obj
 0002:00000f50       ??_C@_08NNMANNNO@_x64?4dll?$AA@ 0000000180106f50     WindowsCookingDelayLoadHook.obj
 0002:00000f60       ??_C@_0O@LLBCKODF@DEBUG_x64?4dll?$AA@ 0000000180106f60     WindowsCookingDelayLoadHook.obj
 0002:00000f70       ??_C@_0BA@GBFEBCKH@CHECKED_x64?4dll?$AA@ 0000000180106f70     WindowsCookingDelayLoadHook.obj
 0002:00000f88       ??_C@_0BA@DKHKNIDO@PROFILE_x64?4dll?$AA@ 0000000180106f88     WindowsCookingDelayLoadHook.obj
 0002:00000fa0       ??_C@_08MADHAHII@_x86?4dll?$AA@ 0000000180106fa0     WindowsCookingDelayLoadHook.obj
 0002:00000fb0       ??_C@_0O@KGOFHEGD@DEBUG_x86?4dll?$AA@ 0000000180106fb0     WindowsCookingDelayLoadHook.obj
 0002:00000fc0       ??_C@_0BA@HMKDMIPB@CHECKED_x86?4dll?$AA@ 0000000180106fc0     WindowsCookingDelayLoadHook.obj
 0002:00000fd8       ??_C@_0BA@CHINACGI@PROFILE_x86?4dll?$AA@ 0000000180106fd8     WindowsCookingDelayLoadHook.obj
 0002:00001070       ?reductionFactors@SubSortQuick@physx@@2QBMB 0000000180107070     RTreeCooking.obj
 0002:00001080       ?stopAtTrisPerLeaf1@SubSortQuick@physx@@2QBIB 0000000180107080     RTreeCooking.obj
 0002:000010f0       ?g_PXSinCoefficients0@aos@shdfnd@physx@@3UPX_VECTORF32@123@B 00000001801070f0     RTreeCooking.obj
 0002:00001110       ?g_PXSinCoefficients1@aos@shdfnd@physx@@3UPX_VECTORF32@123@B 0000000180107110     RTreeCooking.obj
 0002:00001130       ?g_PXSinCoefficients2@aos@shdfnd@physx@@3UPX_VECTORF32@123@B 0000000180107130     RTreeCooking.obj
 0002:00001150       ?g_PXCosCoefficients0@aos@shdfnd@physx@@3UPX_VECTORF32@123@B 0000000180107150     RTreeCooking.obj
 0002:00001170       ?g_PXCosCoefficients1@aos@shdfnd@physx@@3UPX_VECTORF32@123@B 0000000180107170     RTreeCooking.obj
 0002:00001190       ?g_PXCosCoefficients2@aos@shdfnd@physx@@3UPX_VECTORF32@123@B 0000000180107190     RTreeCooking.obj
 0002:000011b0       ?g_PXTanCoefficients0@aos@shdfnd@physx@@3UPX_VECTORF32@123@B 00000001801071b0     RTreeCooking.obj
 0002:000011d0       ?g_PXTanCoefficients1@aos@shdfnd@physx@@3UPX_VECTORF32@123@B 00000001801071d0     RTreeCooking.obj
 0002:000011f0       ?g_PXTanCoefficients2@aos@shdfnd@physx@@3UPX_VECTORF32@123@B 00000001801071f0     RTreeCooking.obj
 0002:00001210       ?g_PXASinCoefficients0@aos@shdfnd@physx@@3UPX_VECTORF32@123@B 0000000180107210     RTreeCooking.obj
 0002:00001230       ?g_PXASinCoefficients1@aos@shdfnd@physx@@3UPX_VECTORF32@123@B 0000000180107230     RTreeCooking.obj
 0002:00001250       ?g_PXASinCoefficients2@aos@shdfnd@physx@@3UPX_VECTORF32@123@B 0000000180107250     RTreeCooking.obj
 0002:00001270       ?g_PXATanCoefficients0@aos@shdfnd@physx@@3UPX_VECTORF32@123@B 0000000180107270     RTreeCooking.obj
 0002:00001290       ?g_PXATanCoefficients1@aos@shdfnd@physx@@3UPX_VECTORF32@123@B 0000000180107290     RTreeCooking.obj
 0002:000012b0       ?g_PXATanCoefficients2@aos@shdfnd@physx@@3UPX_VECTORF32@123@B 00000001801072b0     RTreeCooking.obj
 0002:000012d0       ?g_PXSinEstCoefficients@aos@shdfnd@physx@@3UPX_VECTORF32@123@B 00000001801072d0     RTreeCooking.obj
 0002:000012f0       ?g_PXCosEstCoefficients@aos@shdfnd@physx@@3UPX_VECTORF32@123@B 00000001801072f0     RTreeCooking.obj
 0002:00001310       ?g_PXTanEstCoefficients@aos@shdfnd@physx@@3UPX_VECTORF32@123@B 0000000180107310     RTreeCooking.obj
 0002:00001330       ?g_PXATanEstCoefficients@aos@shdfnd@physx@@3UPX_VECTORF32@123@B 0000000180107330     RTreeCooking.obj
 0002:00001350       ?g_PXASinEstCoefficients@aos@shdfnd@physx@@3UPX_VECTORF32@123@B 0000000180107350     RTreeCooking.obj
 0002:00001370       ?g_PXASinEstConstants@aos@shdfnd@physx@@3UPX_VECTORF32@123@B 0000000180107370     RTreeCooking.obj
 0002:00001390       ?g_PXPiConstants0@aos@shdfnd@physx@@3UPX_VECTORF32@123@B 0000000180107390     RTreeCooking.obj
 0002:000013b0       ?g_PXReciprocalTwoPi@aos@shdfnd@physx@@3UPX_VECTORF32@123@B 00000001801073b0     RTreeCooking.obj
 0002:000013d0       ?g_PXTwoPi@aos@shdfnd@physx@@3UPX_VECTORF32@123@B 00000001801073d0     RTreeCooking.obj
 0002:000013f0       ??_C@_0HN@MKNHIALE@C?3?2Users?2Pedro?2Desktop?2ENGINE?2ph@ 00000001801073f0     RTreeCooking.obj
 0002:00001488       ??_C@_08LJALFGJN@index?$DM?$DN2?$AA@ 0000000180107488     RTreeCooking.obj
 0002:000014a0       ??_C@_0IA@GBHKNADE@C?3?2Users?2Pedro?2Desktop?2ENGINE?2ph@ 00000001801074a0     RTreeCooking.obj
 0002:00001540       ??_C@_0BL@KNHPBBHJ@isValid?$CI?$CJ?5?$CG?$CG?5box?4isValid?$CI?$CJ?$AA@ 0000000180107540     RTreeCooking.obj
 0002:00001560       ??_C@_0CN@HEFMNGKD@?4?4?2?4?4?2PhysXCooking?2src?2mesh?2RTre@ 0000000180107560     RTreeCooking.obj
 0002:00001598       ??_C@_0DP@MOLEKNBA@Input?5mesh?5triangle?8s?5vertex?5ind@ 0000000180107598     RTreeCooking.obj
 0002:000015e8       ??_C@_0CE@OPCEFGPD@permute?5?$CL?5clusterSize?5?$DM?$DN?5permute@ 00000001801075e8     RTreeCooking.obj
 0002:00001618       ??_C@_0CG@PGDOFJGF@maxBoundsPerLeafPage?5?$DO?$DN?5RT_PAGES@ 0000000180107618     RTreeCooking.obj
 0002:00001648       ??_C@_0BA@DLODHOME@clusterSize?5?$DO?50?$AA@ 0000000180107648     RTreeCooking.obj
 0002:00001660       ??_C@_0CB@HNMOHOIM@permute?$FL0?$FN?5?$DM?5boundCenters?4size?$CI?$CJ@ 0000000180107660     RTreeCooking.obj
 0002:00001688       ??_C@_0CB@BHHEMBKC@permute?$FLi?$FN?5?$DM?5boundCenters?4size?$CI?$CJ@ 0000000180107688     RTreeCooking.obj
 0002:000016b0       ??_C@_0DE@FNPGHHHI@leftover?5?$DN?$DN?50?5?$HM?$HM?5cluster4?$CKi?5?$CL?5co@ 00000001801076b0     RTreeCooking.obj
 0002:000016f0       ??_C@_0CP@DKNKGHIK@splitEndL?9splitStartL?5?$DN?$DN?5splitSt@ 00000001801076f0     RTreeCooking.obj
 0002:00001728       ??_C@_0BJ@DBNEPNIE@splitStartL?5?$DM?$DN?5splitEndL?$AA@ 0000000180107728     RTreeCooking.obj
 0002:00001748       ??_C@_0BJ@CMNIPACK@splitStartR?5?$DO?$DN?5splitEndR?$AA@ 0000000180107748     RTreeCooking.obj
 0002:00001768       ??_C@_0P@FDBOEJDH@splitEndR?5?$DO?$DN?51?$AA@ 0000000180107768     RTreeCooking.obj
 0002:00001780       ??_C@_0BP@OBBGEEJF@splitEndL?5?$DM?5PxI32?$CIclusterSize?$CJ?$AA@ 0000000180107780     RTreeCooking.obj
 0002:000017b0       ??_C@_0EG@HPNFJDFJ@?$CIcountL0?5?$DN?$DN?5countR0?$CJ?5?$CG?$CG?5?$CIcountL0@ 00000001801077b0     RTreeCooking.obj
 0002:00001808       ??_C@_0CG@HKJJBOBJ@PxU32?$CIcountL?5?$CL?5countR?$CJ?5?$DN?$DN?5cluste@ 0000000180107808     RTreeCooking.obj
 0002:00001838       ??_C@_0BB@BLBBKHCG@split?4count?5?$DO?$DN?51?$AA@ 0000000180107838     RTreeCooking.obj
 0002:00001850       ??_C@_0BH@CPBDCMGA@maxSplit?5?$CB?$DN?50xFFFFffff?$AA@ 0000000180107850     RTreeCooking.obj
 0002:00001870       ??_C@_0O@KGFPNKLN@old?4count?5?$DO?51?$AA@ 0000000180107870     RTreeCooking.obj
 0002:00001880       ??_C@_0BA@MHFPJACL@splitLocal?5?$DO?$DN?51?$AA@ 0000000180107880     RTreeCooking.obj
 0002:00001898       ??_C@_0BK@HBDDGBBB@old?4count?9splitLocal?5?$DO?$DN?51?$AA@ 0000000180107898     RTreeCooking.obj
 0002:000018b8       ??_C@_0BN@OMPBPJMJ@splits?4size?$CI?$CJ?5?$DN?$DN?5RT_PAGESIZE?$AA@ 00000001801078b8     RTreeCooking.obj
 0002:000018e0       ??_C@_0BD@CJCBODNJ@sum?5?$DN?$DN?5clusterSize?$AA@ 00000001801078e0     RTreeCooking.obj
 0002:000018f8       ??_C@_0CB@OOGGJCCO@splitStarts?$FLj?91?$FN?$DM?$DNsplitStarts?$FLj?$FN@ 00000001801078f8     RTreeCooking.obj
 0002:00001920       ??_C@_0DA@IAEOKCLN@splitCounts?$FLj?$FN?5?$DO?50?5?$HM?$HM?5clusterSiz@ 0000000180107920     RTreeCooking.obj
 0002:00001960       ??_C@_0DC@FKLAKLHP@splitStarts?$FLj?91?$FN?$CLsplitCounts?$FLj?91@ 0000000180107960     RTreeCooking.obj
 0002:000019a0       ??_C@_0BJ@KOIGDPK@sumCounts?5?$DN?$DN?5clusterSize?$AA@ 00000001801079a0     RTreeCooking.obj
 0002:000019c0       ??_C@_0ED@KNANPLO@splitStarts?$FLRT_PAGESIZE?91?$FN?$CLsplit@ 00000001801079c0     RTreeCooking.obj
 0002:00001a10       ??_C@_0BB@EAGMBNDP@splitCount?5?$DM?$DN?516?$AA@ 0000000180107a10     RTreeCooking.obj
 0002:00001a28       ??_C@_0BA@FINHNEIC@splitCount?5?$DN?$DN?50?$AA@ 0000000180107a28     RTreeCooking.obj
 0002:00001a40       ??_C@_0DA@DMMOJMPK@hint?5?$DN?$DN?5PxMeshCookingHint?3?3eCOOK@ 0000000180107a40     RTreeCooking.obj
 0002:00001a80       ??_C@_0BP@JDMAEMGC@permute?$FLnumBounds?$FN?5?$DN?$DN?5sentinel?$AA@ 0000000180107a80     RTreeCooking.obj
 0002:00001aa8       ??_C@_0BB@FMHDLFFI@?$CIq?4ptr?5?$CG?51?$CJ?5?$DN?$DN?50?$AA@ 0000000180107aa8     RTreeCooking.obj
 0002:00001ac0       ??_C@_0L@DLMKKOLK@q?4isLeaf?$CI?$CJ?$AA@ 0000000180107ac0     RTreeCooking.obj
 0002:00001ad0       ??_C@_0DJ@FPPKJOAC@child?4leafCount?5?$DN?$DN?5?91?5?$HM?$HM?5child?4b@ 0000000180107ad0     RTreeCooking.obj
 0002:00001b18       ??_C@_0BJ@OLBICDOH@q?4ptr?5?$CF?5RT_PAGESIZE?5?$DN?$DN?50?$AA@ 0000000180107b18     RTreeCooking.obj
 0002:00001b38       ??_C@_0CF@NBHJNEIK@qtreeNodes?4size?$CI?$CJ?5?$CF?5RT_PAGESIZE?5@ 0000000180107b38     RTreeCooking.obj
 0002:00001b68       ??_C@_0CD@GGMNBOAH@result?4mTotalNodes?5?$CF?5pageSize?5?$DN?$DN@ 0000000180107b68     RTreeCooking.obj
 0002:00001ba0       ??_C@_0IF@PFNFKGG@c?3?2users?2pedro?2desktop?2engine?2ph@ 0000000180107ba0     RTreeCooking.obj
 0002:00001c40       ??_C@_09GCLCCGEM@i?5?$DM?5mSize?$AA@ 0000000180107c40     RTreeCooking.obj
 0002:00001c50       ??_C@_07PGKBDHFC@i?$DMmSize?$AA@ 0000000180107c50     RTreeCooking.obj
 0002:00001c5c       ??_C@_05ICCGDNCO@mSize?$AA@ 0000000180107c5c     RTreeCooking.obj
 0002:00001c68       ??_C@_0BM@BMFMDKFG@this?9?$DOcapacity?$CI?$CJ?5?$DM?5capacity?$AA@ 0000000180107c68     RTreeCooking.obj
 0002:00001c90       ??_C@_0CP@CPGGIPKL@?$CI?$CBcapacity?$CJ?5?$HM?$HM?5?$CInewData?5?$CG?$CG?5?$CInewD@ 0000000180107c90     RTreeCooking.obj
 0002:00001cd0       ??_C@_0IM@OMFLCGO@c?3?2users?2pedro?2desktop?2engine?2ph@ 0000000180107cd0     RTreeCooking.obj
 0002:00001d78       ??_C@_0BC@IFJJKIC@k?5?$DM?$DN?5right?9left?$CL1?$AA@ 0000000180107d78     RTreeCooking.obj
 0002:00001d90       ??_C@_0BC@KALADCPB@pivotNewIndex?5?$DO?50?$AA@ 0000000180107d90     RTreeCooking.obj
 0002:00001da8       ??_C@_0CK@HLNPMLG@pivotIndex?5?$DO?$DN?5left?5?$CG?$CG?5pivotIndex@ 0000000180107da8     RTreeCooking.obj
 0002:00001de0       ??_C@_0BN@MBNGPAEL@cmpLtEq?$CIa?$FLi?$FN?0?5a?$FLstoreIndex?$FN?$CJ?$AA@ 0000000180107de0     RTreeCooking.obj
 0002:00001e08       ??_C@_0BN@PDFALILH@cmpLtEq?$CIa?$FLstoreIndex?$FN?0?5a?$FLi?$FN?$CJ?$AA@ 0000000180107e08     RTreeCooking.obj
 0002:00001e30       ??_C@_0IE@OCGKBHOD@C?3?2Users?2Pedro?2Desktop?2ENGINE?2ph@ 0000000180107e30     RTreeCooking.obj
 0002:00001ed0       ??_C@_0CC@OFEDJMLN@first?5?$DO?$DN?50?5?$CG?$CG?5last?5?$DM?5?$CIPxI32?$CJcoun@ 0000000180107ed0     RTreeCooking.obj
 0002:00001ef8       ??_C@_0CE@JEKBEHJN@?$CBcompare?$CIelements?$FLi?$FN?0elements?$FLi?9@ 0000000180107ef8     RTreeCooking.obj
 0002:00001f30       ??_C@_0IN@HGEOJIPN@c?3?2users?2pedro?2desktop?2engine?2ph@ 0000000180107f30     RTreeCooking.obj
 0002:00001fe0       ??_C@_08JNEJNCCA@?$CBempty?$CI?$CJ?$AA@ 0000000180107fe0     RTreeCooking.obj
 0002:00001ff0       ??_C@_0BE@IEAAKGDK@i?$DM?$DNlast?5?$CG?$CG?5j?$DO?$DNfirst?$AA@ 0000000180107ff0     RTreeCooking.obj
 0002:00002008       ??_C@_0BL@LHJILAEN@i?$DM?$DNlast?5?$CG?$CG?5first?$DM?$DN?$CIlast?91?$CJ?$AA@ 0000000180108008     RTreeCooking.obj
 0002:00002028       __real@3a03126f            0000000180108028     RTreeCooking.obj
 0002:0000202c       __real@3a83126f            000000018010802c     RTreeCooking.obj
 0002:00002030       __real@3f800000            0000000180108030     RTreeCooking.obj
 0002:00002034       __real@41100000            0000000180108034     RTreeCooking.obj
 0002:00002038       __real@41700000            0000000180108038     RTreeCooking.obj
 0002:0000203c       __real@42200000            000000018010803c     RTreeCooking.obj
 0002:00002040       __real@477fff00            0000000180108040     RTreeCooking.obj
 0002:00002044       __real@7e7fffff            0000000180108044     RTreeCooking.obj
 0002:00002048       __real@7f7fffff            0000000180108048     RTreeCooking.obj
 0002:0000204c       __real@ba83126f            000000018010804c     RTreeCooking.obj
 0002:00002050       __real@fe7fffff            0000000180108050     RTreeCooking.obj
 0002:00002054       __real@ff7fffff            0000000180108054     RTreeCooking.obj
 0002:00002080       ??_C@_0IJ@DKHMGPHO@C?3?2Users?2Pedro?2Desktop?2ENGINE?2ph@ 0000000180108080     TriangleMeshBuilder.obj
 0002:00002128       ??_C@_0O@JEHCGDAJ@value?$DM?$DN0xffff?$AA@ 0000000180108128     TriangleMeshBuilder.obj
 0002:00002138       ??_C@_0DD@CMJGDCNN@TriangleMesh?3?3loadFromDesc?3?5desc@ 0000000180108138     TriangleMeshBuilder.obj
 0002:00002178       ??_C@_0DE@NHIHKD@?4?4?2?4?4?2PhysXCooking?2src?2mesh?2Tria@ 0000000180108178     TriangleMeshBuilder.obj
 0002:000021c0       ??_C@_0FB@HKCCNMI@PxCookingParams?3?3meshSizePerform@ 00000001801081c0     TriangleMeshBuilder.obj
 0002:00002228       ??_C@_0CK@BJFFGDPK@input?5mesh?5contains?5corrupted?5ve@ 0000000180108228     TriangleMeshBuilder.obj
 0002:00002260       ??_C@_0BF@DKJOKPOK@materials?$FLi?$FN?$CB?$DN0xffff?$AA@ 0000000180108260     TriangleMeshBuilder.obj
 0002:00002280       ??_C@_0BJ@BKHDBBHO@cleaning?5the?5mesh?5failed?$AA@ 0000000180108280     TriangleMeshBuilder.obj
 0002:000022a0       ??_C@_0BM@OIFKLHDN@?$DMallocation?5names?5disabled?$DO?$AA@ 00000001801082a0     TriangleMeshBuilder.obj
 0002:000022c4       __real@40000000            00000001801082c4     TriangleMeshBuilder.obj
 0002:000022c8       __real@c1b00000            00000001801082c8     TriangleMeshBuilder.obj
 0002:000022d0       ??_C@_0IJ@KOILJFME@c?3?2users?2pedro?2desktop?2engine?2ph@ 00000001801082d0     BigConvexDataBuilder.obj
 0002:00002378       ??_C@_0DH@IKCMPFPC@?4?4?2?4?4?2PhysXCooking?2src?2convex?2Bi@ 0000000180108378     BigConvexDataBuilder.obj
 0002:000023c0       ??_C@_0BO@MNGACMON@Offset?$DMmSVM?9?$DOmData?4mNbSamples?$AA@ 00000001801083c0     BigConvexDataBuilder.obj
 0002:000023e8       ??_C@_0DK@ODHGGDEO@mSVM?9?$DOmData?4mValencies?$FLEL?4GetEdg@ 00000001801083e8     BigConvexDataBuilder.obj
 0002:00002430       ??_C@_0DK@MCENFKP@mSVM?9?$DOmData?4mValencies?$FLEL?4GetEdg@ 0000000180108430     BigConvexDataBuilder.obj
 0002:00002478       ??_C@_0CL@MLDMBJDO@mSVM?9?$DOmData?4mNbAdjVerts?$DN?$DNEL?4GetN@ 0000000180108478     BigConvexDataBuilder.obj
 0002:000024b0       ??_C@_08KEAKIBKP@Ref0?$DM256?$AA@ 00000001801084b0     BigConvexDataBuilder.obj
 0002:000024c0       ??_C@_08GPFGFCAK@Ref1?$DM256?$AA@ 00000001801084c0     BigConvexDataBuilder.obj
 0002:000024cc       __real@00000000            00000001801084cc     BigConvexDataBuilder.obj
 0002:000024d0       __real@3dcccccd            00000001801084d0     BigConvexDataBuilder.obj
 0002:000024d4       __real@3f000000            00000001801084d4     BigConvexDataBuilder.obj
 0002:000024d8       __real@bf800000            00000001801084d8     BigConvexDataBuilder.obj
 0002:000024e0       __xmm@80000000800000008000000080000000 00000001801084e0     BigConvexDataBuilder.obj
 0002:000024f8       ??_C@_0M@JAJDAINE@value?$DM?$DN0xff?$AA@ 00000001801084f8     ConvexHullBuilder.obj
 0002:00002508       ??_C@_0DE@JCGJGFMG@?4?4?2?4?4?2PhysXCooking?2src?2convex?2Co@ 0000000180108508     ConvexHullBuilder.obj
 0002:00002548       ??_C@_0BH@JIHLJCIJ@Copy?4GetNbEntries?$CI?$CJ?$DO?$DN4?$AA@ 0000000180108548     ConvexHullBuilder.obj
 0002:00002568       ??_C@_0BH@MOCBDFAP@Copy?4GetNbEntries?$CI?$CJ?$DO?$DN2?$AA@ 0000000180108568     ConvexHullBuilder.obj
 0002:00002588       ??_C@_0L@MBANLGDP@NbVerts?$DO?$DN3?$AA@ 0000000180108588     ConvexHullBuilder.obj
 0002:00002598       ??_C@_0BB@EBIJDKIN@WFaces?5?$HM?$HM?5DFaces?$AA@ 0000000180108598     ConvexHullBuilder.obj
 0002:000025b0       ??_C@_0BM@OKKJIAKB@Entries?$FL0?$FN?5?$DN?$DN?5Entries?$FLNb?91?$FN?$AA@ 00000001801085b0     ConvexHullBuilder.obj
 0002:000025d8       ??_C@_0DP@KFEAHANP@Meshmerizer?3?3ExtractHullPolygons@ 00000001801085d8     ConvexHullBuilder.obj
 0002:00002624       ??_C@_06KDGGGLIJ@PxVec3?$AA@ 0000000180108624     ConvexHullBuilder.obj
 0002:00002630       ??_C@_0BH@CCGEFODL@indices?$FLi?$CK3?$CL0?$FN?$DM?$DN0xffff?$AA@ 0000000180108630     ConvexHullBuilder.obj
 0002:00002650       ??_C@_0BH@ODOKIBPL@indices?$FLi?$CK3?$CL1?$FN?$DM?$DN0xffff?$AA@ 0000000180108650     ConvexHullBuilder.obj
 0002:00002670       ??_C@_0BH@HKAIOHPK@indices?$FLi?$CK3?$CL2?$FN?$DM?$DN0xffff?$AA@ 0000000180108670     ConvexHullBuilder.obj
 0002:00002690       ??_C@_0EB@MLICBFEL@ConvexHullBuilder?3?3Init?3?5convex?5@ 0000000180108690     ConvexHullBuilder.obj
 0002:000026e0       ??_C@_0BE@KOOOMNLC@Gu?3?3HullPolygonData?$AA@ 00000001801086e0     ConvexHullBuilder.obj
 0002:000026f8       ??_C@_0BA@OMHMECP@nbHullVerts?$DM256?$AA@ 00000001801086f8     ConvexHullBuilder.obj
 0002:00002710       ??_C@_0GF@OJLJHAMH@ConvexHullBuilder?3?3CreateTriangl@ 0000000180108710     ConvexHullBuilder.obj
 0002:00002790       ??_C@_0BO@KFMAHGLJ@NbTriangles?5?$DM?$DN?5MaxNbTriangles?$AA@ 0000000180108790     ConvexHullBuilder.obj
 0002:000027b8       ??_C@_0DM@LLCHBGLA@Hull?5check?5failed?$CB?5Please?5report@ 00000001801087b8     ConvexHullBuilder.obj
 0002:00002800       ??_C@_0FO@PFKGIEJ@Hull?5check?5failed?$CB?5Hull?5seems?5to@ 0000000180108800     ConvexHullBuilder.obj
 0002:00002870       ??_C@_0BL@MFNKFFFN@Reduced?5vertices?5hull?5data?$AA@ 0000000180108870     ConvexHullBuilder.obj
 0002:00002890       ??_C@_0CK@GNGILODA@currentIndex?5?$DM?5numReducedHullDat@ 0000000180108890     ConvexHullBuilder.obj
 0002:000028c8       ??_C@_0CB@CGNHHAGO@Data?$FLj?$FN?5?$DM?5mHull?9?$DOmNbHullVertices@ 00000001801088c8     ConvexHullBuilder.obj
 0002:000028f0       ??_C@_0DL@IAFKOCCK@ConvexHullBuilder?3?5convex?5hull?5h@ 00000001801088f0     ConvexHullBuilder.obj
 0002:00002938       ??_C@_0BG@GPCBPFAF@TriIndex?$DMmNbHullFaces?$AA@ 0000000180108938     ConvexHullBuilder.obj
 0002:00002958       ??_C@_0CP@JLCGBLDE@PL?4n?4dot?$CImHullDataPolygons?$FLi?$FN?4mP@ 0000000180108958     ConvexHullBuilder.obj
 0002:00002990       ??_C@_0DH@FPEAADNN@mHullDataPolygons?$FLi?$FN?4mPlane?4dist@ 0000000180108990     ConvexHullBuilder.obj
 0002:000029d8       ??_C@_09PNPFALML@triangles?$AA@ 00000001801089d8     ConvexHullBuilder.obj
 0002:000029e4       ??_C@_05FEEIMKBD@verts?$AA@ 00000001801089e4     ConvexHullBuilder.obj
 0002:000029f0       ??_C@_0BJ@CIDDLGFP@triangles?$FLi?$CK3?$CL0?$FN?$DM?$DN0xffff?$AA@ 00000001801089f0     ConvexHullBuilder.obj
 0002:00002a10       ??_C@_0BJ@OJLNGJJP@triangles?$FLi?$CK3?$CL1?$FN?$DM?$DN0xffff?$AA@ 0000000180108a10     ConvexHullBuilder.obj
 0002:00002a30       ??_C@_0BJ@HAFPAPJO@triangles?$FLi?$CK3?$CL2?$FN?$DM?$DN0xffff?$AA@ 0000000180108a30     ConvexHullBuilder.obj
 0002:00002a50       ??_C@_0HF@OLJFBIEL@ConvexHullBuilder?3?5convex?5hull?5d@ 0000000180108a50     ConvexHullBuilder.obj
 0002:00002ae0       ??_C@_0OG@JNHFOIL@ConvexHullBuilder?3?5convex?5hull?5d@ 0000000180108ae0     ConvexHullBuilder.obj
 0002:00002bf8       ??_C@_0CG@BKAJAIFF@?$CIPxU32?$CJ?$CIRun0?9VRefs0?$CJ?$DN?$DNNbEdgesUns@ 0000000180108bf8     ConvexHullBuilder.obj
 0002:00002c28       ??_C@_0CG@BBOCCIFC@?$CIPxU32?$CJ?$CIRun1?9VRefs1?$CJ?$DN?$DNNbEdgesUns@ 0000000180108c28     ConvexHullBuilder.obj
 0002:00002c60       ??_C@_0EJ@NIOIBAKH@Cooking?3?3cookConvexMesh?3?5non?9man@ 0000000180108c60     ConvexHullBuilder.obj
 0002:00002cb8       ??_C@_0BC@JILNBNOE@mHullDataPolygons?$AA@ 0000000180108cb8     ConvexHullBuilder.obj
 0002:00002cd0       __real@3ba3d70a            0000000180108cd0     ConvexHullBuilder.obj
 0002:00002cd4       __real@3ca3d70a            0000000180108cd4     ConvexHullBuilder.obj
 0002:00002cd8       __real@3eaaaaab            0000000180108cd8     ConvexHullBuilder.obj
 0002:00002cf8       ??_7ConvexMeshBuilder@physx@@6BPxConvexMesh@1@@ 0000000180108cf8     ConvexMeshBuilder.obj
 0002:00002d88       ??_7ConvexMeshBuilder@physx@@6BRefCountable@Cm@1@@ 0000000180108d88     ConvexMeshBuilder.obj
 0002:00002da0       ??_C@_0ID@NEBFIAOJ@C?3?2Users?2Pedro?2Desktop?2ENGINE?2ph@ 0000000180108da0     ConvexMeshBuilder.obj
 0002:00002e40       ??_C@_0DM@DFBCLLPG@Unexpected?5platform?5in?5PxGetGaus@ 0000000180108e40     ConvexMeshBuilder.obj
 0002:00002e88       ??_C@_0DF@LLFJIJGM@Gu?3?3ConvexMesh?3?3loadFromDesc?3?5de@ 0000000180108e88     ConvexMeshBuilder.obj
 0002:00002ec8       ??_C@_0DE@FMMNMFJD@?4?4?2?4?4?2PhysXCooking?2src?2convex?2Co@ 0000000180108ec8     ConvexMeshBuilder.obj
 0002:00002f10       ??_C@_0HK@JOGKIEAA@Gu?3?3ConvexMesh?3?5Mesh?5has?5a?5negat@ 0000000180108f10     ConvexMeshBuilder.obj
 0002:00002fa8       ??_C@_0DH@NJPPHFFD@Gu?3?3ConvexMesh?3?5Error?5computing?5@ 0000000180108fa8     ConvexMeshBuilder.obj
 0002:00002ff0       ??_C@_0DJ@LJDLGLDJ@Gu?3?3ConvexMesh?3?3loadConvexHull?3?5@ 0000000180108ff0     ConvexMeshBuilder.obj
 0002:00003040       ??_C@_0JC@IEAFEIFE@Gu?3?3ConvexMesh?3?3loadConvexHull?3?5@ 0000000180109040     ConvexMeshBuilder.obj
 0002:000030f0       ??_C@_0HJ@KJANPPOE@ConvexMeshBuilder?3?3computeHullPo@ 00000001801090f0     ConvexMeshBuilder.obj
 0002:00003184       ??_C@_05LMJPANIN@PxU32?$AA@ 0000000180109184     ConvexMeshBuilder.obj
 0002:00003190       ??_C@_0O@JMAGMMGG@PxHullPolygon?$AA@ 0000000180109190     ConvexMeshBuilder.obj
 0002:000031a0       ??_C@_0FN@IODHNLIE@indices?$FLoutPolygon?4mIndexBase?5?$CL?5@ 00000001801091a0     ConvexMeshBuilder.obj
 0002:00003210       __real@0000000000000000    0000000180109210     ConvexMeshBuilder.obj
 0002:0000321c       __real@40400000            000000018010921c     ConvexMeshBuilder.obj
 0002:00003220       __real@44800000            0000000180109220     ConvexMeshBuilder.obj
 0002:00003230       __xmm@80000000000000008000000000000000 0000000180109230     ConvexMeshBuilder.obj
 0002:00003244       ??_C@_01GBGANLPD@0?$AA@    0000000180109244     hulllib.obj
 0002:00003248       ??_C@_0CK@LEJAGBKE@?4?4?2?4?4?2PhysXCooking?2src?2convex?2hu@ 0000000180109248     hulllib.obj
 0002:00003280       ??_C@_09GBJPLNEP@i?$DO?$DN0?$CG?$CGi?$DM3?$AA@ 0000000180109280     hulllib.obj
 0002:00003290       ??_C@_0BM@FNPIOFJJ@Cant?5normalize?5ZERO?5vector?6?$AA@ 0000000180109290     hulllib.obj
 0002:000032b4       ??_C@_04LOBEFBAE@d?$CB?$DN0?$AA@ 00000001801092b4     hulllib.obj
 0002:000032c0       ??_C@_0CL@GOMAOONC@convex?4edges?$FLinext?$FN?4p?5?$DN?$DN?5convex?4@ 00000001801092c0     hulllib.obj
 0002:000032f8       ??_C@_07MGHLAJA@nb?$CB?$DN255?$AA@ 00000001801092f8     hulllib.obj
 0002:00003304       ??_C@_06PEAOENKB@nb?$CB?$DN?91?$AA@ 0000000180109304     hulllib.obj
 0002:00003310       ??_C@_0BI@IJHHMEEF@i?$DN?$DN?5convex?4edges?$FLnb?$FN?4ea?$AA@ 0000000180109310     hulllib.obj
 0002:00003330       ??_C@_0CM@CCMBNEHJ@convex?4edges?$FLnb?$FN?4v?5?$DN?$DN?5convex?4edg@ 0000000180109330     hulllib.obj
 0002:00003370       ??_C@_0FJ@LMIAKMAH@COPLANAR?$DN?$DNPlaneTest?$CIconvex?4facet@ 0000000180109370     hulllib.obj
 0002:000033e0       ??_C@_0BH@HDOPHOOH@convex?4edges?4count?$DM480?$AA@ 00000001801093e0     hulllib.obj
 0002:00003400       ??_C@_0DC@LKDJNPEO@tmpunderedges?$FLunder_edge_count?$FN?4@ 0000000180109400     hulllib.obj
 0002:00003440       ??_C@_0CM@OAAPMFDL@edgeflag?$FLedge0?4ea?$FN?4undermap?5?$CB?$DN?5i@ 0000000180109440     hulllib.obj
 0002:00003478       ??_C@_0BF@KEHLOIPL@vout?5?$CB?$DN?5invalidIndex?$AA@ 0000000180109478     hulllib.obj
 0002:00003498       ??_C@_0BF@GLPJAAKL@vin?5?$DM?5vertcountunder?$AA@ 0000000180109498     hulllib.obj
 0002:000034b8       ??_C@_0CK@KJLDNOON@edgeflag?$FLe0?$FN?4undermap?5?$DN?$DN?5under_e@ 00000001801094b8     hulllib.obj
 0002:000034f0       ??_C@_0BE@ODINDNNF@vin?5?$CB?$DN?5invalidIndex?$AA@ 00000001801094f0     hulllib.obj
 0002:00003508       ??_C@_0BE@DMLEFGJP@coplanaredge?5?$CB?$DN?5511?$AA@ 0000000180109508     hulllib.obj
 0002:00003520       ??_C@_0BG@BFEJMJAI@i?$DN?$DNcreatedverts?4count?$AA@ 0000000180109520     hulllib.obj
 0002:00003540       ??_C@_0BH@NJJCMLHB@?$CI?$CKmTris?$CJ?$FLtri?9?$DOid?$FN?$DN?$DNtri?$AA@ 0000000180109540     hulllib.obj
 0002:00003560       ??_C@_0M@MKOGDFGO@Array?$DMTri?$CK?$DO?$AA@ 0000000180109560     hulllib.obj
 0002:00003570       ??_C@_0CL@EFAEFND@?$CI?$CKmTris?$CJ?$FLs?9?$DOneib?$CIa?0b?$CJ?$FN?9?$DOneib?$CIb?0a@ 0000000180109570     hulllib.obj
 0002:000035a8       ??_C@_0CL@OGNKMCOJ@?$CI?$CKmTris?$CJ?$FLt?9?$DOneib?$CIa?0b?$CJ?$FN?9?$DOneib?$CIb?0a@ 00000001801095a8     hulllib.obj
 0002:000035e0       ??_C@_0BD@FJHIEEEC@?$CI?$CKmTris?$CJ?$FLt?9?$DOid?$FN?$DN?$DNt?$AA@ 00000001801095e0     hulllib.obj
 0002:000035f8       ??_C@_04POHJOBKC@a?$CB?$DNb?$AA@ 00000001801095f8     hulllib.obj
 0002:00003600       ??_C@_0CG@CFKMADHO@?$CI?$CKmTris?$CJ?$FLt?9?$DOn?$FLi?$FN?$FN?9?$DOneib?$CIb?0a?$CJ?5?$DN?$DN?5@ 0000000180109600     hulllib.obj
 0002:00003630       ??_C@_0DC@OMACIGCJ@?$CB?$CIp0?$DN?$DNp1?$HM?$HMp0?$DN?$DNp2?$HM?$HMp0?$DN?$DNp3?$HM?$HMp1?$DN?$DNp2@ 0000000180109630     hulllib.obj
 0002:0000366c       ??_C@_01PFHFFBPC@t?$AA@    000000018010966c     hulllib.obj
 0002:00003670       ??_C@_09MDBCJDMM@t?9?$DOvmax?$DM0?$AA@ 0000000180109670     hulllib.obj
 0002:00003680       ??_C@_0O@FMOJFPKF@?$CBisextreme?$FLv?$FN?$AA@ 0000000180109680     hulllib.obj
 0002:00003690       ??_C@_02BFDMMJOC@nb?$AA@   0000000180109690     hulllib.obj
 0002:00003698       ??_C@_0BA@OKMDLOJM@?$CBhasvert?$CI?$CKnb?0v?$CJ?$AA@ 0000000180109698     hulllib.obj
 0002:000036b0       ??_C@_08BNIGMCJB@nb?9?$DOid?$DMj?$AA@ 00000001801096b0     hulllib.obj
 0002:000036c0       ??_C@_0CM@DGNHBGHH@expandPlane?4mPlane?4distance?$CIvert@ 00000001801096c0     hulllib.obj
 0002:000036f8       ??_C@_0CA@HIOFHKC@expandPlane?4mAdjacency?$FL0?$FN?5?$DN?$DN?5?91?$AA@ 00000001801096f8     hulllib.obj
 0002:00003720       ??_C@_0CA@BAPFEDOB@expandPlane?4mAdjacency?$FL1?$FN?5?$DN?$DN?5?91?$AA@ 0000000180109720     hulllib.obj
 0002:00003748       ??_C@_0CA@CJHIHPCE@expandPlane?4mAdjacency?$FL2?$FN?5?$DN?$DN?5?91?$AA@ 0000000180109748     hulllib.obj
 0002:00003770       ??_C@_0DB@MDKGLJDK@LocalTests?3?3PlaneCheck?$CIverts?0ver@ 0000000180109770     hulllib.obj
 0002:000037b0       ??_C@_0N@EJENLPBA@indexE?5?$CB?$DN?5?91?$AA@ 00000001801097b0     hulllib.obj
 0002:000037c0       ??_C@_0BA@LLAJEKFE@n?$CB?$DNREAL3?$CI0?00?00?$CJ?$AA@ 00000001801097c0     hulllib.obj
 0002:000037d8       ??_C@_0BB@DBMEHMDM@AssertIntact?$CI?$CKc?$CJ?$AA@ 00000001801097d8     hulllib.obj
 0002:000037ec       ??_C@_03JBIPMCLC@int?$AA@  00000001801097ec     hulllib.obj
 0002:000037f0       ??_C@_0BD@HIHDLLJJ@k?$DN?$DNc?9?$DOfacets?4count?$AA@ 00000001801097f0     hulllib.obj
 0002:00003808       ??_C@_0DE@GBNKIAOM@faces_count_out?5?$DN?$DN?51?$CLc?9?$DOfacets?4c@ 0000000180109808     hulllib.obj
 0002:00003848       ??_C@_0CC@MLOMFAJG@tris?4count?5?$DN?$DN?5index_count?91?9?$CIn?$CK3@ 0000000180109848     hulllib.obj
 0002:00003870       ??_C@_0L@LDIAPGOM@v?5?$DM?5vcount?$AA@ 0000000180109870     hulllib.obj
 0002:00003880       ??_C@_0BB@KFMHLOGC@ocount?5?$DM?$DN?5vcount?$AA@ 0000000180109880     hulllib.obj
 0002:00003894       ??_C@_05KNFBNCOH@float?$AA@ 0000000180109894     hulllib.obj
 0002:000038a0       ??_C@_0IP@EIHANDFH@c?3?2users?2pedro?2desktop?2engine?2ph@ 00000001801098a0     hulllib.obj
 0002:00003950       ??_C@_0BA@BLMLNLGH@i?$DO?$DN0?5?$CG?$CG?5i?$DMcount?$AA@ 0000000180109950     hulllib.obj
 0002:00003968       ??_C@_0BC@FCFAAFKB@count?$DM?$DNarray_size?$AA@ 0000000180109968     hulllib.obj
 0002:00003980       ??_C@_05IOMEMJEC@count?$AA@ 0000000180109980     hulllib.obj
 0002:00003988       ??_C@_03FGICNBPI@s?$DO0?$AA@ 0000000180109988     hulllib.obj
 0002:00003990       ??_C@_08EJNCAGIC@s?$DO?$DNcount?$AA@ 0000000180109990     hulllib.obj
 0002:000039a0       ??_C@_0BC@JDJGKIHB@hull?5array?5memory?$AA@ 00000001801099a0     hulllib.obj
 0002:000039b8       ??_C@_0BL@HNGPFBEI@element?5?$CG?$CG?5?$CI?$CBcount?5?$HM?$HM?5old?$CJ?$AA@ 00000001801099b8     hulllib.obj
 0002:000039d8       ??_C@_05PCHPLGBB@m?$CB?$DN?91?$AA@ 00000001801099d8     hulllib.obj
 0002:000039e0       __real@1e3ce508            00000001801099e0     hulllib.obj
 0002:000039e4       __real@358637bd            00000001801099e4     hulllib.obj
 0002:000039e8       __real@3c23d70a            00000001801099e8     hulllib.obj
 0002:000039ec       __real@3c8efa35            00000001801099ec     hulllib.obj
 0002:000039f0       __real@3ccccccd            00000001801099f0     hulllib.obj
 0002:000039f4       __real@3d4ccccd            00000001801099f4     hulllib.obj
 0002:000039f8       __real@3d567750            00000001801099f8     hulllib.obj
 0002:000039fc       __real@3e800000            00000001801099fc     hulllib.obj
 0002:00003a00       __real@40800000            0000000180109a00     hulllib.obj
 0002:00003a04       __real@40a00000            0000000180109a04     hulllib.obj
 0002:00003a08       __real@42340000            0000000180109a08     hulllib.obj
 0002:00003a0c       __real@42f00000            0000000180109a0c     hulllib.obj
 0002:00003a10       __real@43b40000            0000000180109a10     hulllib.obj
 0002:00003a14       __real@9e3ce508            0000000180109a14     hulllib.obj
 0002:00003a18       __real@bc23d70a            0000000180109a18     hulllib.obj
 0002:00003a1c       __real@bca3d70a            0000000180109a1c     hulllib.obj
 0002:00003a20       ??_C@_0HN@NHKJLOCP@C?3?2Users?2Pedro?2Desktop?2ENGINE?2ph@ 0000000180109a20     VolumeIntegration.obj
 0002:00003ab8       __real@3f81111111111111    0000000180109ab8     VolumeIntegration.obj
 0002:00003ac8       __real@3f91111111111111    0000000180109ac8     VolumeIntegration.obj
 0002:00003ad8       __real@3fa5555555555555    0000000180109ad8     VolumeIntegration.obj
 0002:00003ae8       __real@3fc5555555555555    0000000180109ae8     VolumeIntegration.obj
 0002:00003af8       __real@3ff0000000000000    0000000180109af8     VolumeIntegration.obj
 0002:00003b08       __real@4000000000000000    0000000180109b08     VolumeIntegration.obj
 0002:00003b18       __real@4008000000000000    0000000180109b18     VolumeIntegration.obj
 0002:00003b28       __real@4010000000000000    0000000180109b28     VolumeIntegration.obj
 0002:00003b38       __real@4018000000000000    0000000180109b38     VolumeIntegration.obj
 0002:00003b48       __real@4028000000000000    0000000180109b48     VolumeIntegration.obj
 0002:00003b58       __real@4034000000000000    0000000180109b58     VolumeIntegration.obj
 0002:00003b68       __real@4038000000000000    0000000180109b68     VolumeIntegration.obj
 0002:00003b78       __real@404e000000000000    0000000180109b78     VolumeIntegration.obj
 0002:00003b88       __real@c018000000000000    0000000180109b88     VolumeIntegration.obj
 0002:00003b98       __real@c028000000000000    0000000180109b98     VolumeIntegration.obj
 0002:00003ba8       __real@c034000000000000    0000000180109ba8     VolumeIntegration.obj
 0002:00003bb8       __real@c04e000000000000    0000000180109bb8     VolumeIntegration.obj
 0002:00003bc8       ??_C@_0DC@DMHHONHL@Adjacencies?3?3GetBoundaryVertices@ 0000000180109bc8     Adjacencies.obj
 0002:00003c08       ??_C@_0CH@EOBHIJNK@?4?4?2?4?4?2PhysXCooking?2src?2Adjacenci@ 0000000180109c08     Adjacencies.obj
 0002:00003c38       ??_C@_0CK@KKNAOLHI@Adjacencies?3?3MakeLastRef?3?5NULL?5p@ 0000000180109c38     Adjacencies.obj
 0002:00003c6c       ??_C@_04DDKJGDCM@bool?$AA@ 0000000180109c6c     Adjacencies.obj
 0002:00003c78       ??_C@_0DA@FMEHLBKI@Adjacencies?3?3UpdateLink?3?5invalid@ 0000000180109c78     Adjacencies.obj
 0002:00003cc0       ??_C@_0JJ@BJLNDJKO@Adjacencies?3?3CreateDatabase?3?5can@ 0000000180109cc0     Adjacencies.obj
 0002:00003d78       ??_C@_0BE@LIEIDFLP@NbEdges?$DN?$DNmNbFaces?$CK3?$AA@ 0000000180109d78     Adjacencies.obj
 0002:00003d90       ??_C@_0JH@OAGDEHEP@?$CIGu?3?3EdgeTriangleAC?3?3HasActiveEd@ 0000000180109d90     Adjacencies.obj
 0002:00003e50       ??_C@_0JH@GOIKPHAD@?$CIGu?3?3EdgeTriangleAC?3?3HasActiveEd@ 0000000180109e50     Adjacencies.obj
 0002:00003f10       ??_C@_0JH@OMLLOEFP@?$CIGu?3?3EdgeTriangleAC?3?3HasActiveEd@ 0000000180109f10     Adjacencies.obj
 0002:00003fc8       ??_7PxCooking@physx@@6B@   0000000180109fc8     Cooking.obj
 0002:00004040       ??_7Cooking@physx@@6B@     000000018010a040     Cooking.obj
 0002:000040b8       ??_7TriangleMeshBuilder@physx@@6BPxTriangleMesh@1@@ 000000018010a0b8     Cooking.obj
 0002:00004158       ??_7TriangleMeshBuilder@physx@@6BRefCountable@Cm@1@@ 000000018010a158     Cooking.obj
 0002:00004170       ??_C@_0CD@HPMFPCAJ@?4?4?2?4?4?2PhysXCooking?2src?2Cooking?4c@ 000000018010a170     Cooking.obj
 0002:000041a0       ??_C@_0FC@PJIHAFK@Cooking?3?3validateTriangleMesh?3?5u@ 000000018010a1a0     Cooking.obj
 0002:00004210       ??_C@_0GF@KBACGOEB@PxTriangleMeshDesc?3?3convexEdgeTh@ 000000018010a210     Cooking.obj
 0002:00004290       ??_C@_0FF@FCKBBOBA@Cooking?3?3cook?1createTriangleMesh@ 000000018010a290     Cooking.obj
 0002:00004300       ??_C@_0EK@EKAIJEBL@Cooking?3?3cookConvexMesh?3?5user?9pr@ 000000018010a300     Cooking.obj
 0002:00004360       ??_C@_0EJ@EIMOEGKB@Cooking?3?3cookConvexMesh?3?5user?9pr@ 000000018010a360     Cooking.obj
 0002:000043c0       ??_C@_0EP@CKACPLJK@Cooking?3?3cookConvexMesh?3?5user?9pr@ 000000018010a3c0     Cooking.obj
 0002:00004420       ??_C@_0EO@LKFMMDE@Cooking?3?3cookConvexMesh?3?5user?9pr@ 000000018010a420     Cooking.obj
 0002:00004480       ??_C@_0EN@FCEPCAFC@Cooking?3?3createHeightField?3?5user@ 000000018010a480     Cooking.obj
 0002:000044e0       ??_C@_0EM@MHLLDEBI@static_cast?$DMPs?3?3Foundation?$CK?$DO?$CI?$CGfo@ 000000018010a4e0     Cooking.obj
 0002:00004540       ??_C@_0CI@LKCEKHOD@?4?4?2?4?4?2PhysXCooking?2src?2CookingUt@ 000000018010a540     CookingUtils.obj
 0002:00004570       ??_C@_0N@OOPDCJAN@Gu?3?3EdgeData?$AA@ 000000018010a570     EdgeList.obj
 0002:00004580       ??_C@_0CE@DNAJJHLF@?4?4?2?4?4?2PhysXCooking?2src?2EdgeList?4@ 000000018010a580     EdgeList.obj
 0002:000045b0       ??_C@_0BF@DEHGNEOE@Gu?3?3EdgeTriangleData?$AA@ 000000018010a5b0     EdgeList.obj
 0002:000045d0       ??_C@_0BB@LAAHLNEJ@Gu?3?3EdgeDescData?$AA@ 000000018010a5d0     EdgeList.obj
 0002:000045e8       ??_C@_0BK@BJFOKFDB@Gu?3?3EdgeList?5FacesByEdges?$AA@ 000000018010a5e8     EdgeList.obj
 0002:00004608       ??_C@_0CO@GBNJFPN@EdgeList?3?3CreateFacesToEdges?3?5NU@ 000000018010a608     EdgeList.obj
 0002:00004640       ??_C@_0CB@OPJNLGEO@Gu?3?3EdgeListBuilder?5FacesByEdges@ 000000018010a640     EdgeList.obj
 0002:00004668       ??_C@_0CO@EHJBBMNK@EdgeList?3?3ComputeActiveEdges?3?5NU@ 000000018010a668     EdgeList.obj
 0002:000046a0       ??_C@_0DI@GBHLFOFP@ActiveEdges?3?3ComputeConvexEdges?3@ 000000018010a6a0     EdgeList.obj
 0002:000046e8       ??_C@_0DM@JOGBLHDI@ActiveEdges?3?3ComputeConvexEdges?3@ 000000018010a6e8     EdgeList.obj
 0002:00004730       ??_C@_0ED@FEMJKPEL@ActiveEdges?3?3ComputeConvexEdges?3@ 000000018010a730     EdgeList.obj
 0002:00004780       ??_C@_0EB@BFDPMFCD@ActiveEdges?3?3ComputeConvexEdges?3@ 000000018010a780     EdgeList.obj
 0002:000047d0       ??_C@_06FCDOAHIN@wfaces?$AA@ 000000018010a7d0     EdgeList.obj
 0002:000047d8       ??_C@_0BB@KCPJALAK@dfaces?5?$HM?$HM?5wfaces?$AA@ 000000018010a7d8     EdgeList.obj
 0002:000047ec       ??_C@_04CJNNGFMA@j?$DN?$DN2?$AA@ 000000018010a7ec     EdgeList.obj
 0002:000047f4       __real@bf7fbe77            000000018010a7f4     EdgeList.obj
 0002:00004800       ??_C@_0IF@DNEGFFCL@C?3?2Users?2Pedro?2Desktop?2ENGINE?2ph@ 000000018010a800     InternalTriangleMeshBuilder.obj
 0002:000048a0       ??_C@_0P@JLLGKKGO@nb?$DO0?5?$CG?$CG?5nb?$DM?$DN16?$AA@ 000000018010a8a0     InternalTriangleMeshBuilder.obj
 0002:000048b8       ??_C@_0BA@IGNEICFC@index?5?$DM?5?$CI1?$DM?$DM27?$CJ?$AA@ 000000018010a8b8     InternalTriangleMeshBuilder.obj
 0002:000048d0       ??_7RemapCallback@RTreeCooker@physx@@6B@ 000000018010a8d0     InternalTriangleMeshBuilder.obj
 0002:000048e8       ??_C@_0DH@KAAPMABG@?4?4?2?4?4?2PhysXCooking?2src?2InternalT@ 000000018010a8e8     InternalTriangleMeshBuilder.obj
 0002:0000492c       ??_C@_04KPBEILIJ@mesh?$AA@ 000000018010a92c     InternalTriangleMeshBuilder.obj
 0002:00004938       ??_C@_0BF@CCKBOJFO@Gu?3?3TriangleT?$DMPxU32?$DO?$AA@ 000000018010a938     InternalTriangleMeshBuilder.obj
 0002:00004958       ??_7RTreeCookerRemap@@6B@  000000018010a958     InternalTriangleMeshBuilder.obj
 0002:00004970       ??_C@_0O@PPMFEIKF@leafCount?5?$DO?50?$AA@ 000000018010a970     InternalTriangleMeshBuilder.obj
 0002:00004980       ??_C@_0BA@ICGDMFLO@leafCount?5?$DM?$DN?516?$AA@ 000000018010a980     InternalTriangleMeshBuilder.obj
 0002:00004998       ??_C@_0BB@CBEMBEIL@start?5?$DM?5mNumTris?$AA@ 000000018010a998     InternalTriangleMeshBuilder.obj
 0002:000049b0       ??_C@_0BM@PKJGHNOI@start?$CLleafCount?5?$DM?$DN?5mNumTris?$AA@ 000000018010a9b0     InternalTriangleMeshBuilder.obj
 0002:000049d4       ??_C@_03BALCFKBP@val?$AA@  000000018010a9d4     InternalTriangleMeshBuilder.obj
 0002:000049d8       ??_C@_0CO@CFBGFAJE@resultPermute?4size?$CI?$CJ?5?$DN?$DN?5triData?4@ 000000018010a9d8     InternalTriangleMeshBuilder.obj
 0002:00004a10       ??_C@_0DJ@IGODLHLP@TriangleMesh?3?5Enable?5mesh?5weldin@ 000000018010aa10     InternalTriangleMeshBuilder.obj
 0002:00004a60       ??_C@_0EB@FMFFAHEN@?$CB?$CIdata?4mFlags?5?$CG?5PxTriangleMeshFl@ 000000018010aa60     InternalTriangleMeshBuilder.obj
 0002:00004ab0       ??_C@_0CN@PJHOIFC@vref0?$CB?$DNvref1?5?$CG?$CG?5vref0?$CB?$DNvref2?5?$CG?$CG?5@ 000000018010aab0     InternalTriangleMeshBuilder.obj
 0002:00004af0       ??_C@_0FJ@HHJLKGDF@TriangleMesh?3?5triangles?5are?5too?5@ 000000018010aaf0     InternalTriangleMeshBuilder.obj
 0002:00004b60       ??_C@_0CN@KGPHHHLK@TriangleMesh?3?5mesh?5is?5too?5big?5fo@ 000000018010ab60     InternalTriangleMeshBuilder.obj
 0002:00004b98       ??_C@_0DA@ICJBFKFL@edgeList?9?$DOGetNbFaces?$CI?$CJ?$DN?$DNmesh?9?$DOge@ 000000018010ab98     InternalTriangleMeshBuilder.obj
 0002:00004be0       ??_C@_0NB@DAHFAAHF@?$CIGu?3?3EdgeTriangleAC?3?3HasActiveEd@ 000000018010abe0     InternalTriangleMeshBuilder.obj
 0002:00004ce0       ??_C@_0NB@JJBLOIPF@?$CIGu?3?3EdgeTriangleAC?3?3HasActiveEd@ 000000018010ace0     InternalTriangleMeshBuilder.obj
 0002:00004de0       ??_C@_0NB@EBGLPJFF@?$CIGu?3?3EdgeTriangleAC?3?3HasActiveEd@ 000000018010ade0     InternalTriangleMeshBuilder.obj
 0002:00004edc       __real@48742400            000000018010aedc     InternalTriangleMeshBuilder.obj
 0002:00004ee0       ??_C@_0M@GOCDBJNH@MeshCleaner?$AA@ 000000018010aee0     MeshCleaner.obj
 0002:00004ef0       ??_C@_0CH@GLEMKEIO@?4?4?2?4?4?2PhysXCooking?2src?2MeshClean@ 000000018010aef0     MeshCleaner.obj
 0002:00004f20       ??_C@_0L@FKHAJINL@cleanVerts?$AA@ 000000018010af20     MeshCleaner.obj
 0002:00004f30       ??_C@_09PEPOFECJ@hashTable?$AA@ 000000018010af30     MeshCleaner.obj
 0002:00004f40       ??_C@_0BB@EKDFPEDB@nbCleanedTris?$DM?$DNi?$AA@ 000000018010af40     MeshCleaner.obj
 0002:00004f60       __sz_PhysX3CommonDEBUG_x64_dll 000000018010af60     PhysX3CommonDEBUG_x64:PhysX3CommonDEBUG_x64.dll
 0002:00004f80       ??_C@_1BK@DBDEIDLH@?$AAK?$AAE?$AAR?$AAN?$AAE?$AAL?$AA3?$AA2?$AA?4?$AAD?$AAL?$AAL?$AA?$AA@ 000000018010af80     delayimp:delayhlp.obj
 0002:00004fa0       ??_C@_0BI@OMNLIJDB@AcquireSRWLockExclusive?$AA@ 000000018010afa0     delayimp:delayhlp.obj
 0002:00004fc0       ??_C@_0BI@HMIEPCNJ@ReleaseSRWLockExclusive?$AA@ 000000018010afc0     delayimp:delayhlp.obj
 0002:00004fe8       ??_7type_info@@6B@         000000018010afe8     LIBCMTD:std_type_info_static.obj
 0002:00004ff8       _pRawDllMain               000000018010aff8     LIBCMTD:dll_dllmain.obj
 0002:00004ff8       _pDefaultRawDllMain        000000018010aff8     LIBCMTD:dll_dllmain.obj
 0002:00005010       _load_config_used          000000018010b010     LIBCMTD:loadcfg.obj
 0002:000050f8       ??_C@_0BJ@HEGAHDFO@Stack?5pointer?5corruption?$AA@ 000000018010b0f8     LIBCMTD:_userapi_.obj
 0002:00005118       ??_C@_0CK@FEGOIOPB@Cast?5to?5smaller?5type?5causing?5los@ 000000018010b118     LIBCMTD:_userapi_.obj
 0002:00005150       ??_C@_0BI@CIGMDCBH@Stack?5memory?5corruption?$AA@ 000000018010b150     LIBCMTD:_userapi_.obj
 0002:00005170       ??_C@_0CK@CNLNOEPB@Local?5variable?5used?5before?5initi@ 000000018010b170     LIBCMTD:_userapi_.obj
 0002:000051a8       ??_C@_0BP@OGBCLIBO@Stack?5around?5_alloca?5corrupted?$AA@ 000000018010b1a8     LIBCMTD:_userapi_.obj
 0002:000052b0       ??_C@_0NN@NGPKDKPD@The?5value?5of?5ESP?5was?5not?5properl@ 000000018010b2b0     LIBCMTD:_error_.obj
 0002:000053c0       ??_C@_0BBN@GPMLNJCF@A?5cast?5to?5a?5smaller?5data?5type?5ha@ 000000018010b3c0     LIBCMTD:_error_.obj
 0002:00005518       ??_C@_0BN@FFOINMNJ@Stack?5memory?5was?5corrupted?6?$AN?$AA@ 000000018010b518     LIBCMTD:_error_.obj
 0002:00005540       ??_C@_0DG@HKJMLLLP@A?5local?5variable?5was?5used?5before@ 000000018010b540     LIBCMTD:_error_.obj
 0002:00005580       ??_C@_0CM@NGINOKPC@Stack?5memory?5around?5_alloca?5was?5@ 000000018010b580     LIBCMTD:_error_.obj
 0002:000055b8       ??_C@_0BO@GNIAFIKK@Unknown?5Runtime?5Check?5Error?6?$AN?$AA@ 000000018010b5b8     LIBCMTD:_error_.obj
 0002:000055e0       ??_C@_1GM@OLMCBDMB@?$AAR?$AAu?$AAn?$AAt?$AAi?$AAm?$AAe?$AA?5?$AAC?$AAh?$AAe?$AAc?$AAk?$AA?5?$AAE?$AAr?$AAr?$AAo?$AAr?$AA?4?$AA?6?$AA?$AN?$AA?5?$AAU?$AAn?$AAa?$AAb?$AAl?$AAe?$AA?5?$AAt?$AAo@ 000000018010b5e0     LIBCMTD:_error_.obj
 0002:00005670       ??_C@_1EA@NFKNIFJP@?$AAR?$AAu?$AAn?$AA?9?$AAT?$AAi?$AAm?$AAe?$AA?5?$AAC?$AAh?$AAe?$AAc?$AAk?$AA?5?$AAF?$AAa?$AAi?$AAl?$AAu?$AAr?$AAe?$AA?5?$AA?$CD?$AA?$CF?$AAd?$AA?5?$AA?9?$AA?5?$AA?$CF?$AAs?$AA?$AA@ 000000018010b670     LIBCMTD:_error_.obj
 0002:000056c0       ??_C@_0BB@PFFGGCJP@Unknown?5Filename?$AA@ 000000018010b6c0     LIBCMTD:_error_.obj
 0002:000056d8       ??_C@_0BE@GNBOBNCK@Unknown?5Module?5Name?$AA@ 000000018010b6d8     LIBCMTD:_error_.obj
 0002:000056f0       ??_C@_0CA@IODNCDPG@Run?9Time?5Check?5Failure?5?$CD?$CFd?5?9?5?$CFs?$AA@ 000000018010b6f0     LIBCMTD:_error_.obj
 0002:00005718       ??_C@_0CG@IAFNJNEE@Stack?5corrupted?5near?5unknown?5var@ 000000018010b718     LIBCMTD:_error_.obj
 0002:00005748       ??_C@_05MKKEDADM@?$CF?42X?5?$AA@ 000000018010b748     LIBCMTD:_error_.obj
 0002:00005750       ??_C@_0EJ@LJKNEOLN@Stack?5area?5around?5_alloca?5memory@ 000000018010b750     LIBCMTD:_error_.obj
 0002:000057a8       ??_C@_08OMAHNMHJ@?6Data?3?5?$DM?$AA@ 000000018010b7a8     LIBCMTD:_error_.obj
 0002:000057b8       ??_C@_0CK@DKGBICFE@?6Allocation?5number?5within?5this?5f@ 000000018010b7b8     LIBCMTD:_error_.obj
 0002:000057f0       ??_C@_07DFDJCKFN@?6Size?3?5?$AA@ 000000018010b7f0     LIBCMTD:_error_.obj
 0002:00005800       ??_C@_0N@MHFFIMFG@?6Address?3?50x?$AA@ 000000018010b800     LIBCMTD:_error_.obj
 0002:00005810       ??_C@_0EI@CLEPFNGI@Stack?5area?5around?5_alloca?5memory@ 000000018010b810     LIBCMTD:_error_.obj
 0002:00005868       ??_C@_0BC@HHMKLAND@?$CFs?$CFs?$CFp?$CFs?$CFzd?$CFs?$CFd?$CFs?$AA@ 000000018010b868     LIBCMTD:_error_.obj
 0002:00005880       ??_C@_01EEMJAFIK@?6?$AA@   000000018010b880     LIBCMTD:_error_.obj
 0002:00005884       ??_C@_02LLMPMKNF@?$DO?5?$AA@ 000000018010b884     LIBCMTD:_error_.obj
 0002:00005888       ??_C@_08KJEDNCKC@?$CFs?$CFs?$CFs?$CFs?$AA@ 000000018010b888     LIBCMTD:_error_.obj
 0002:00005898       ??_C@_0DE@OHJBPMBP@A?5variable?5is?5being?5used?5without@ 000000018010b898     LIBCMTD:_error_.obj
 0002:000058e0       ??_7exception@std@@6B@     000000018010b8e0     LIBCMTD:throw_bad_alloc.obj
 0002:000058f8       ??_C@_0BC@EOODALEL@Unknown?5exception?$AA@ 000000018010b8f8     LIBCMTD:throw_bad_alloc.obj
 0002:00005918       ??_7bad_alloc@std@@6B@     000000018010b918     LIBCMTD:throw_bad_alloc.obj
 0002:00005930       ??_C@_0P@GHFPNOJB@bad?5allocation?$AA@ 000000018010b930     LIBCMTD:throw_bad_alloc.obj
 0002:00005950       ??_7bad_array_new_length@std@@6B@ 000000018010b950     LIBCMTD:throw_bad_alloc.obj
 0002:00005968       ??_C@_0BF@KINCDENJ@bad?5array?5new?5length?$AA@ 000000018010b968     LIBCMTD:throw_bad_alloc.obj
 0002:000059f0       ??_C@_1EI@MLPKHBGE@?$AAa?$AAp?$AAi?$AA?9?$AAm?$AAs?$AA?9?$AAw?$AAi?$AAn?$AA?9?$AAc?$AAo?$AAr?$AAe?$AA?9?$AAr?$AAe?$AAg?$AAi?$AAs?$AAt?$AAr?$AAy?$AA?9?$AAl?$AA1?$AA?9?$AA1?$AA?9?$AA0?$AA?4@ 000000018010b9f0     LIBCMTD:_pdblkup_.obj
 0002:00005a48       ??_C@_1BK@JHLNAEJL@?$AAa?$AAd?$AAv?$AAa?$AAp?$AAi?$AA3?$AA2?$AA?4?$AAd?$AAl?$AAl?$AA?$AA@ 000000018010ba48     LIBCMTD:_pdblkup_.obj
 0002:00005a68       ??_C@_0O@COHOBMLB@RegOpenKeyExW?$AA@ 000000018010ba68     LIBCMTD:_pdblkup_.obj
 0002:00005a78       ??_C@_0BB@GLNAEDBD@RegQueryValueExW?$AA@ 000000018010ba78     LIBCMTD:_pdblkup_.obj
 0002:00005a90       ??_C@_0M@HLOHPNFA@RegCloseKey?$AA@ 000000018010ba90     LIBCMTD:_pdblkup_.obj
 0002:00005aa0       ??_C@_1HE@EBEAGLFB@?$AAS?$AAO?$AAF?$AAT?$AAW?$AAA?$AAR?$AAE?$AA?2?$AAW?$AAo?$AAw?$AA6?$AA4?$AA3?$AA2?$AAN?$AAo?$AAd?$AAe?$AA?2?$AAM?$AAi?$AAc?$AAr?$AAo?$AAs?$AAo?$AAf?$AAt?$AA?2?$AAV@ 000000018010baa0     LIBCMTD:_pdblkup_.obj
 0002:00005b30       ??_C@_1BG@EABPBLLF@?$AAP?$AAr?$AAo?$AAd?$AAu?$AAc?$AAt?$AAD?$AAi?$AAr?$AA?$AA@ 000000018010bb30     LIBCMTD:_pdblkup_.obj
 0002:00005b78       ??_C@_1BC@JINFINNJ@?$AAM?$AAS?$AAP?$AAD?$AAB?$AA1?$AA4?$AA0?$AA?$AA@ 000000018010bb78     LIBCMTD:_pdblkup_.obj
 0002:00005b90       ??_C@_0BB@KCIACLNC@PDBOpenValidate5?$AA@ 000000018010bb90     LIBCMTD:_pdblkup_.obj
 0002:00005ba4       ??_C@_01KDCPPGHE@r?$AA@    000000018010bba4     LIBCMTD:_pdblkup_.obj
 0002:00005bc0       ??_C@_0DF@NOINFFIM@f?3?2dd?2vctools?2crt?2vcruntime?2src?2@ 000000018010bbc0     libvcruntimed:std_type_info.obj
 0002:00005c00       _Microsoft_CRTProvider     000000018010bc00     libvcruntimed:telemetry.obj
 0002:00005c09       ??_C@_00CNPNBAHC@?$AA@     000000018010bc09     libvcruntimed:telemetry.obj
 0002:00005c0c       ??_C@_11LOCGONAA@?$AA?$AA@ 000000018010bc0c     libvcruntimed:telemetry.obj
 0002:00005c10       ??_C@_0O@JEOPJOMI@Main?5Invoked?4?$AA@ 000000018010bc10     libvcruntimed:telemetry.obj
 0002:00005c20       ??_C@_0P@NEAEIBDO@Main?5Returned?4?$AA@ 000000018010bc20     libvcruntimed:telemetry.obj
 0002:00005c38       ??_C@_17CNPHIMPH@?$AA?$CF?$AAl?$AAs?$AA?$AA@ 000000018010bc38     libvcruntimed:std_exception.obj
 0002:00005c50       ??_C@_1FK@OACNEHHA@?$AAt?$AAo?$AA?9?$AA?$DO?$AA_?$AAW?$AAh?$AAa?$AAt?$AA?5?$AA?$DN?$AA?$DN?$AA?5?$AAn?$AAu?$AAl?$AAl?$AAp?$AAt?$AAr?$AA?5?$AA?$CG?$AA?$CG?$AA?5?$AAt?$AAo?$AA?9?$AA?$DO?$AA_?$AAD?$AAo?$AAF@ 000000018010bc50     libvcruntimed:std_exception.obj
 0002:00005cc0       ??_C@_1GK@GJEBHBCE@?$AAf?$AA?3?$AA?2?$AAd?$AAd?$AA?2?$AAv?$AAc?$AAt?$AAo?$AAo?$AAl?$AAs?$AA?2?$AAc?$AAr?$AAt?$AA?2?$AAv?$AAc?$AAr?$AAu?$AAn?$AAt?$AAi?$AAm?$AAe?$AA?2?$AAs?$AAr?$AAc?$AA?2@ 000000018010bcc0     libvcruntimed:std_exception.obj
 0002:00006150       ??_C@_08EHJDFFNH@__based?$CI?$AA@ 000000018010c150     libvcruntimed:undname.obj
 0002:00006160       ??_C@_07KOLFKCDI@__cdecl?$AA@ 000000018010c160     libvcruntimed:undname.obj
 0002:00006170       ??_C@_08GHMPAG@__pascal?$AA@ 000000018010c170     libvcruntimed:undname.obj
 0002:00006180       ??_C@_09IFJBGAPI@__stdcall?$AA@ 000000018010c180     libvcruntimed:undname.obj
 0002:00006190       ??_C@_0L@NPHFGOKO@__thiscall?$AA@ 000000018010c190     libvcruntimed:undname.obj
 0002:000061a0       ??_C@_0L@JMKHOMEK@__fastcall?$AA@ 000000018010c1a0     libvcruntimed:undname.obj
 0002:000061b0       ??_C@_0N@BCKKPABJ@__vectorcall?$AA@ 000000018010c1b0     libvcruntimed:undname.obj
 0002:000061c0       ??_C@_09HIJEGCPM@__clrcall?$AA@ 000000018010c1c0     libvcruntimed:undname.obj
 0002:000061cc       ??_C@_06GHPCKEAG@__eabi?$AA@ 000000018010c1cc     libvcruntimed:undname.obj
 0002:000061d8       ??_C@_07JOMMBBKO@__ptr64?$AA@ 000000018010c1d8     libvcruntimed:undname.obj
 0002:000061e8       ??_C@_0L@PILCLIHE@__restrict?$AA@ 000000018010c1e8     libvcruntimed:undname.obj
 0002:000061f8       ??_C@_0M@GFIIJFMG@__unaligned?$AA@ 000000018010c1f8     libvcruntimed:undname.obj
 0002:00006208       ??_C@_09DHDLOLLB@restrict?$CI?$AA@ 000000018010c208     libvcruntimed:undname.obj
 0002:00006214       ??_C@_04NIHEBCM@?5new?$AA@ 000000018010c214     libvcruntimed:undname.obj
 0002:00006220       ??_C@_07FPCDHGMM@?5delete?$AA@ 000000018010c220     libvcruntimed:undname.obj
 0002:0000622c       ??_C@_01NEMOKFLO@?$DN?$AA@ 000000018010c22c     libvcruntimed:undname.obj
 0002:00006230       ??_C@_02GPIOPFAK@?$DO?$DO?$AA@ 000000018010c230     libvcruntimed:undname.obj
 0002:00006234       ??_C@_02FODMEDOG@?$DM?$DM?$AA@ 000000018010c234     libvcruntimed:undname.obj
 0002:00006238       ??_C@_01DCLJPIOD@?$CB?$AA@ 000000018010c238     libvcruntimed:undname.obj
 0002:0000623c       ??_C@_02EGOFBIJA@?$DN?$DN?$AA@ 000000018010c23c     libvcruntimed:undname.obj
 0002:00006240       ??_C@_02FDNJECIE@?$CB?$DN?$AA@ 000000018010c240     libvcruntimed:undname.obj
 0002:00006244       ??_C@_02GPECMEKF@?$FL?$FN?$AA@ 000000018010c244     libvcruntimed:undname.obj
 0002:00006248       ??_C@_08LHJFAFGD@operator?$AA@ 000000018010c248     libvcruntimed:undname.obj
 0002:00006254       ??_C@_02HBOOOICD@?9?$DO?$AA@ 000000018010c254     libvcruntimed:undname.obj
 0002:00006258       ??_C@_01NBENCBCI@?$CK?$AA@ 000000018010c258     libvcruntimed:undname.obj
 0002:0000625c       ??_C@_02ECNGHCIF@?$CL?$CL?$AA@ 000000018010c25c     libvcruntimed:undname.obj
 0002:00006260       ??_C@_02BAABKJLB@?9?9?$AA@ 000000018010c260     libvcruntimed:undname.obj
 0002:00006264       ??_C@_01JOAMLHOP@?9?$AA@   000000018010c264     libvcruntimed:undname.obj
 0002:00006268       ??_C@_01MIFGBAGJ@?$CL?$AA@ 000000018010c268     libvcruntimed:undname.obj
 0002:0000626c       ??_C@_01HNPIGOCE@?$CG?$AA@ 000000018010c26c     libvcruntimed:undname.obj
 0002:00006270       ??_C@_03MNHNFDLC@?9?$DO?$CK?$AA@ 000000018010c270     libvcruntimed:undname.obj
 0002:00006274       ??_C@_01KMDKNFGN@?1?$AA@   000000018010c274     libvcruntimed:undname.obj
 0002:00006278       ??_C@_01FGNFDNOH@?$CF?$AA@ 000000018010c278     libvcruntimed:undname.obj
 0002:0000627c       ??_C@_01MNNFJEPP@?$DM?$AA@ 000000018010c27c     libvcruntimed:undname.obj
 0002:00006280       ??_C@_02EHCHHCKH@?$DM?$DN?$AA@ 000000018010c280     libvcruntimed:undname.obj
 0002:00006284       ??_C@_01PPODPGHN@?$DO?$AA@ 000000018010c284     libvcruntimed:undname.obj
 0002:00006288       ??_C@_02EEKDKGMJ@?$DO?$DN?$AA@ 000000018010c288     libvcruntimed:undname.obj
 0002:0000628c       ??_C@_01IHBHIGKO@?0?$AA@   000000018010c28c     libvcruntimed:undname.obj
 0002:00006290       ??_C@_02HCKGKOFO@?$CI?$CJ?$AA@ 000000018010c290     libvcruntimed:undname.obj
 0002:00006294       ??_C@_01PJKLJHI@?$HO?$AA@  000000018010c294     libvcruntimed:undname.obj
 0002:00006298       ??_C@_01JKBOJNNK@?$FO?$AA@ 000000018010c298     libvcruntimed:undname.obj
 0002:0000629c       ??_C@_01DNKMNLPK@?$HM?$AA@ 000000018010c29c     libvcruntimed:undname.obj
 0002:000062a0       ??_C@_02PPKAJPJL@?$CG?$CG?$AA@ 000000018010c2a0     libvcruntimed:undname.obj
 0002:000062a4       ??_C@_02NONPIBCD@?$HM?$HM?$AA@ 000000018010c2a4     libvcruntimed:undname.obj
 0002:000062a8       ??_C@_02FPIMKNGF@?$CK?$DN?$AA@ 000000018010c2a8     libvcruntimed:undname.obj
 0002:000062ac       ??_C@_02FOEOMHFC@?$CL?$DN?$AA@ 000000018010c2ac     libvcruntimed:undname.obj
 0002:000062b0       ??_C@_02FKMDLLOA@?9?$DN?$AA@ 000000018010c2b0     libvcruntimed:undname.obj
 0002:000062b4       ??_C@_02FJEHGPIO@?1?$DN?$AA@ 000000018010c2b4     libvcruntimed:undname.obj
 0002:000062b8       ??_C@_02FENAOKFI@?$CF?$DN?$AA@ 000000018010c2b8     libvcruntimed:undname.obj
 0002:000062bc       ??_C@_03IKFCCPFF@?$DO?$DO?$DN?$AA@ 000000018010c2bc     libvcruntimed:undname.obj
 0002:000062c0       ??_C@_03CDNPDDLA@?$DM?$DM?$DN?$AA@ 000000018010c2c0     libvcruntimed:undname.obj
 0002:000062c4       ??_C@_02FGJGFEAB@?$CG?$DN?$AA@ 000000018010c2c4     libvcruntimed:undname.obj
 0002:000062c8       ??_C@_02DHLNPPGH@?$HM?$DN?$AA@ 000000018010c2c8     libvcruntimed:undname.obj
 0002:000062cc       ??_C@_02MHEGNOJ@?$FO?$DN?$AA@ 000000018010c2cc     libvcruntimed:undname.obj
 0002:000062d0       ??_C@_09IFPLHPGF@?$GAvftable?8?$AA@ 000000018010c2d0     libvcruntimed:undname.obj
 0002:000062e0       ??_C@_09BLBHBJP@?$GAvbtable?8?$AA@ 000000018010c2e0     libvcruntimed:undname.obj
 0002:000062f0       ??_C@_07FEEIOKP@?$GAvcall?8?$AA@ 000000018010c2f0     libvcruntimed:undname.obj
 0002:00006300       ??_C@_08LLFFHHDJ@?$GAtypeof?8?$AA@ 000000018010c300     libvcruntimed:undname.obj
 0002:00006310       ??_C@_0BF@KDPPACIK@?$GAlocal?5static?5guard?8?$AA@ 000000018010c310     libvcruntimed:undname.obj
 0002:00006330       ??_C@_08OBABFOLI@?$GAstring?8?$AA@ 000000018010c330     libvcruntimed:undname.obj
 0002:00006340       ??_C@_0BD@JDLKDPAB@?$GAvbase?5destructor?8?$AA@ 000000018010c340     libvcruntimed:undname.obj
 0002:00006358       ??_C@_0BN@DEGPLNFK@?$GAvector?5deleting?5destructor?8?$AA@ 000000018010c358     libvcruntimed:undname.obj
 0002:00006380       ??_C@_0BO@OBMKPJIG@?$GAdefault?5constructor?5closure?8?$AA@ 000000018010c380     libvcruntimed:undname.obj
 0002:000063a8       ??_C@_0BN@IMDCHIKM@?$GAscalar?5deleting?5destructor?8?$AA@ 000000018010c3a8     libvcruntimed:undname.obj
 0002:000063d0       ??_C@_0BO@PFGOCPJJ@?$GAvector?5constructor?5iterator?8?$AA@ 000000018010c3d0     libvcruntimed:undname.obj
 0002:000063f8       ??_C@_0BN@LFPFMEDL@?$GAvector?5destructor?5iterator?8?$AA@ 000000018010c3f8     libvcruntimed:undname.obj
 0002:00006420       ??_C@_0CE@IKBNEHA@?$GAvector?5vbase?5constructor?5iterat@ 000000018010c420     libvcruntimed:undname.obj
 0002:00006450       ??_C@_0BL@NILFHHPC@?$GAvirtual?5displacement?5map?8?$AA@ 000000018010c450     libvcruntimed:undname.obj
 0002:00006470       ??_C@_0CB@JONCMFFK@?$GAeh?5vector?5constructor?5iterator?8@ 000000018010c470     libvcruntimed:undname.obj
 0002:00006498       ??_C@_0CA@GCEOPDGL@?$GAeh?5vector?5destructor?5iterator?8?$AA@ 000000018010c498     libvcruntimed:undname.obj
 0002:000064c0       ??_C@_0CH@OOJPLCPH@?$GAeh?5vector?5vbase?5constructor?5ite@ 000000018010c4c0     libvcruntimed:undname.obj
 0002:000064f0       ??_C@_0BL@LLKPOHJI@?$GAcopy?5constructor?5closure?8?$AA@ 000000018010c4f0     libvcruntimed:undname.obj
 0002:00006510       ??_C@_0BA@KBCDOMBN@?$GAudt?5returning?8?$AA@ 000000018010c510     libvcruntimed:undname.obj
 0002:00006524       ??_C@_03KLGMFNMG@?$GAEH?$AA@ 000000018010c524     libvcruntimed:undname.obj
 0002:00006528       ??_C@_05KHLCHHI@?$GARTTI?$AA@ 000000018010c528     libvcruntimed:undname.obj
 0002:00006530       ??_C@_0BA@KKLDJDLB@?$GAlocal?5vftable?8?$AA@ 000000018010c530     libvcruntimed:undname.obj
 0002:00006548       ??_C@_0CE@IIHCMGGL@?$GAlocal?5vftable?5constructor?5closu@ 000000018010c548     libvcruntimed:undname.obj
 0002:00006574       ??_C@_06FHBGPFGH@?5new?$FL?$FN?$AA@ 000000018010c574     libvcruntimed:undname.obj
 0002:00006580       ??_C@_09LBNFPBCA@?5delete?$FL?$FN?$AA@ 000000018010c580     libvcruntimed:undname.obj
 0002:00006590       ??_C@_0P@HJKNJFNN@?$GAomni?5callsig?8?$AA@ 000000018010c590     libvcruntimed:undname.obj
 0002:000065a8       ??_C@_0BL@CNOONJFP@?$GAplacement?5delete?5closure?8?$AA@ 000000018010c5a8     libvcruntimed:undname.obj
 0002:000065c8       ??_C@_0BN@CKNJLHMB@?$GAplacement?5delete?$FL?$FN?5closure?8?$AA@ 000000018010c5c8     libvcruntimed:undname.obj
 0002:000065f0       ??_C@_0CG@CFDHKGGD@?$GAmanaged?5vector?5constructor?5iter@ 000000018010c5f0     libvcruntimed:undname.obj
 0002:00006620       ??_C@_0CF@IMGKMJNO@?$GAmanaged?5vector?5destructor?5itera@ 000000018010c620     libvcruntimed:undname.obj
 0002:00006650       ??_C@_0CG@HLDDJMAG@?$GAeh?5vector?5copy?5constructor?5iter@ 000000018010c650     libvcruntimed:undname.obj
 0002:00006680       ??_C@_0CM@FCBBDIGB@?$GAeh?5vector?5vbase?5copy?5constructo@ 000000018010c680     libvcruntimed:undname.obj
 0002:000066b8       ??_C@_0BL@CLIPGLGB@?$GAdynamic?5initializer?5for?5?8?$AA@ 000000018010c6b8     libvcruntimed:undname.obj
 0002:000066d8       ??_C@_0CB@PDBIFEP@?$GAdynamic?5atexit?5destructor?5for?5?8@ 000000018010c6d8     libvcruntimed:undname.obj
 0002:00006700       ??_C@_0CD@CGAJBKEJ@?$GAvector?5copy?5constructor?5iterato@ 000000018010c700     libvcruntimed:undname.obj
 0002:00006730       ??_C@_0CJ@GJELGAMM@?$GAvector?5vbase?5copy?5constructor?5i@ 000000018010c730     libvcruntimed:undname.obj
 0002:00006768       ??_C@_0CL@FGIJHLCE@?$GAmanaged?5vector?5copy?5constructor@ 000000018010c768     libvcruntimed:undname.obj
 0002:000067a0       ??_C@_0BM@PMGGMLDN@?$GAlocal?5static?5thread?5guard?8?$AA@ 000000018010c7a0     libvcruntimed:undname.obj
 0002:000067c8       ??_C@_0N@BDNMDMOL@operator?5?$CC?$CC?5?$AA@ 000000018010c7c8     libvcruntimed:undname.obj
 0002:000067d8       ??_C@_0BC@DAFEJGAK@?5Type?5Descriptor?8?$AA@ 000000018010c7d8     libvcruntimed:undname.obj
 0002:000067f0       ??_C@_0BM@LDKODKLH@?5Base?5Class?5Descriptor?5at?5?$CI?$AA@ 000000018010c7f0     libvcruntimed:undname.obj
 0002:00006818       ??_C@_0BD@LGICGFMM@?5Base?5Class?5Array?8?$AA@ 000000018010c818     libvcruntimed:undname.obj
 0002:00006830       ??_C@_0BN@MECKDCOJ@?5Class?5Hierarchy?5Descriptor?8?$AA@ 000000018010c830     libvcruntimed:undname.obj
 0002:00006858       ??_C@_0BK@CFCOFLF@?5Complete?5Object?5Locator?8?$AA@ 000000018010c858     libvcruntimed:undname.obj
 0002:00006878       ??_C@_04HEJADOOB@CV?3?5?$AA@ 000000018010c878     libvcruntimed:undname.obj
 0002:00006880       ??_C@_02MOLJINC@?3?3?$AA@  000000018010c880     libvcruntimed:undname.obj
 0002:00006888       ??_C@_0BE@JAEOCHPE@template?9parameter?9?$AA@ 000000018010c888     libvcruntimed:undname.obj
 0002:000068a0       ??_C@_0O@KHGCOMHP@generic?9type?9?$AA@ 000000018010c8a0     libvcruntimed:undname.obj
 0002:000068b0       ??_C@_01NLNLIGKH@?$GA?$AA@ 000000018010c8b0     libvcruntimed:undname.obj
 0002:000068b4       ??_C@_01GEODFPGF@?8?$AA@   000000018010c8b4     libvcruntimed:undname.obj
 0002:000068b8       ??_C@_0BG@JNJLAMPM@?$GAanonymous?5namespace?8?$AA@ 000000018010c8b8     libvcruntimed:undname.obj
 0002:000068d4       ??_C@_02OHHJMEON@?8?8?$AA@ 000000018010c8d4     libvcruntimed:undname.obj
 0002:000068d8       ??_C@_0BN@IBLMMFAP@?$GAnon?9type?9template?9parameter?$AA@ 000000018010c8d8     libvcruntimed:undname.obj
 0002:000068fc       ??_C@_04GKJNKENE@void?$AA@ 000000018010c8fc     libvcruntimed:undname.obj
 0002:00006908       ??_C@_0BE@EODMJLIF@?$GAtemplate?9parameter?$AA@ 000000018010c908     libvcruntimed:undname.obj
 0002:00006920       ??_C@_03KHICJKCI@?4?4?4?$AA@ 000000018010c920     libvcruntimed:undname.obj
 0002:00006924       ??_C@_04HIBGFPH@NULL?$AA@  000000018010c924     libvcruntimed:undname.obj
 0002:0000692c       ??_C@_02DPKJAMEF@?$CFd?$AA@ 000000018010c92c     libvcruntimed:undname.obj
 0002:00006930       ??_C@_0BK@IHCCFNEL@?$GAtemplate?9type?9parameter?9?$AA@ 000000018010c930     libvcruntimed:undname.obj
 0002:00006950       ??_C@_0BK@OFCNNNKO@?$GAgeneric?9class?9parameter?9?$AA@ 000000018010c950     libvcruntimed:undname.obj
 0002:00006970       ??_C@_0BL@NGJBLFIL@?$GAgeneric?9method?9parameter?9?$AA@ 000000018010c970     libvcruntimed:undname.obj
 0002:00006990       ??_C@_03OPGICMGF@?$HN?8?5?$AA@ 000000018010c990     libvcruntimed:undname.obj
 0002:00006994       ??_C@_02IGFCGPIL@?$HN?8?$AA@ 000000018010c994     libvcruntimed:undname.obj
 0002:00006998       ??_C@_01CLKCMJKC@?5?$AA@   000000018010c998     libvcruntimed:undname.obj
 0002:000069a0       ??_C@_0N@CBHHHENL@?$GAvtordispex?$HL?$AA@ 000000018010c9a0     libvcruntimed:undname.obj
 0002:000069b0       ??_C@_0L@GHPFDFH@?$GAvtordisp?$HL?$AA@ 000000018010c9b0     libvcruntimed:undname.obj
 0002:000069c0       ??_C@_0L@HNGCOGAE@?$GAadjustor?$HL?$AA@ 000000018010c9c0     libvcruntimed:undname.obj
 0002:000069d0       ??_C@_0CB@KJDOOODE@?$GAlocal?5static?5destructor?5helper?8@ 000000018010c9d0     libvcruntimed:undname.obj
 0002:000069f8       ??_C@_0DB@ILEFOCIJ@?$GAtemplate?5static?5data?5member?5con@ 000000018010c9f8     libvcruntimed:undname.obj
 0002:00006a38       ??_C@_0DA@HGFJFBBE@?$GAtemplate?5static?5data?5member?5des@ 000000018010ca38     libvcruntimed:undname.obj
 0002:00006a78       ??_C@_07PGOEDBHP@static?5?$AA@ 000000018010ca78     libvcruntimed:undname.obj
 0002:00006a88       ??_C@_08NIEOINHE@virtual?5?$AA@ 000000018010ca88     libvcruntimed:undname.obj
 0002:00006a98       ??_C@_09LAPHOOG@private?3?5?$AA@ 000000018010ca98     libvcruntimed:undname.obj
 0002:00006aa8       ??_C@_0M@GAIFPFIP@protected?3?5?$AA@ 000000018010caa8     libvcruntimed:undname.obj
 0002:00006ab8       ??_C@_08GPDDCMKI@public?3?5?$AA@ 000000018010cab8     libvcruntimed:undname.obj
 0002:00006ac8       ??_C@_08KJLFOPNE@?$FLthunk?$FN?3?$AA@ 000000018010cac8     libvcruntimed:undname.obj
 0002:00006ad8       ??_C@_0M@DHNBOJMP@extern?5?$CCC?$CC?5?$AA@ 000000018010cad8     libvcruntimed:undname.obj
 0002:00006ae8       ??_C@_02KCKGHPCA@?$CJ?5?$AA@ 000000018010cae8     libvcruntimed:undname.obj
 0002:00006aec       ??_C@_05CIHEBHNO@char?5?$AA@ 000000018010caec     libvcruntimed:undname.obj
 0002:00006af4       ??_C@_06EHJMALKF@short?5?$AA@ 000000018010caf4     libvcruntimed:undname.obj
 0002:00006afc       ??_C@_04LAHKHJMA@int?5?$AA@ 000000018010cafc     libvcruntimed:undname.obj
 0002:00006b04       ??_C@_05CJIMAING@long?5?$AA@ 000000018010cb04     libvcruntimed:undname.obj
 0002:00006b10       ??_C@_09EBBEKKIH@unsigned?5?$AA@ 000000018010cb10     libvcruntimed:undname.obj
 0002:00006b1c       ??_C@_05BEFAKPML@void?5?$AA@ 000000018010cb1c     libvcruntimed:undname.obj
 0002:00006b28       ??_C@_08PABEKFH@volatile?$AA@ 000000018010cb28     libvcruntimed:undname.obj
 0002:00006b38       ??_C@_0P@GCOCNKDM@std?3?3nullptr_t?$AA@ 000000018010cb38     libvcruntimed:undname.obj
 0002:00006b50       ??_C@_0L@EGPHHEKN@?$DMellipsis?$DO?$AA@ 000000018010cb50     libvcruntimed:undname.obj
 0002:00006b60       ??_C@_04EENFHACM@?0?4?4?4?$AA@ 000000018010cb60     libvcruntimed:undname.obj
 0002:00006b68       ??_C@_0M@ELJOJFFH@?0?$DMellipsis?$DO?$AA@ 000000018010cb68     libvcruntimed:undname.obj
 0002:00006b78       ??_C@_07HDJPLPEK@?5throw?$CI?$AA@ 000000018010cb78     libvcruntimed:undname.obj
 0002:00006b84       ??_C@_03PBJBJNON@cpu?$AA@  000000018010cb84     libvcruntimed:undname.obj
 0002:00006b88       ??_C@_03DCBBJBAA@amp?$AA@  000000018010cb88     libvcruntimed:undname.obj
 0002:00006b8c       ??_C@_02KEGNLNML@?0?5?$AA@ 000000018010cb8c     libvcruntimed:undname.obj
 0002:00006b90       ??_C@_04ENMBGAPA@char?$AA@ 000000018010cb90     libvcruntimed:undname.obj
 0002:00006b98       ??_C@_05BFKKPKCG@short?$AA@ 000000018010cb98     libvcruntimed:undname.obj
 0002:00006ba0       ??_C@_04GOKPGOLB@long?$AA@ 000000018010cba0     libvcruntimed:undname.obj
 0002:00006ba8       ??_C@_06BNJCAIGJ@double?$AA@ 000000018010cba8     libvcruntimed:undname.obj
 0002:00006bb0       ??_C@_06EBGKOKIG@__int8?$AA@ 000000018010cbb0     libvcruntimed:undname.obj
 0002:00006bb8       ??_C@_07ICFHOGAF@__int16?$AA@ 000000018010cbb8     libvcruntimed:undname.obj
 0002:00006bc8       ??_C@_07OFLPPHGP@__int32?$AA@ 000000018010cbc8     libvcruntimed:undname.obj
 0002:00006bd8       ??_C@_07LFCOJCAC@__int64?$AA@ 000000018010cbd8     libvcruntimed:undname.obj
 0002:00006be8       ??_C@_08GAHOLHEO@__int128?$AA@ 000000018010cbe8     libvcruntimed:undname.obj
 0002:00006bf8       ??_C@_09EEKGDCPH@?$DMunknown?$DO?$AA@ 000000018010cbf8     libvcruntimed:undname.obj
 0002:00006c08       ??_C@_08HBIPOFJB@char16_t?$AA@ 000000018010cc08     libvcruntimed:undname.obj
 0002:00006c18       ??_C@_08IECNCBKG@char32_t?$AA@ 000000018010cc18     libvcruntimed:undname.obj
 0002:00006c28       ??_C@_07CLGGIAMF@wchar_t?$AA@ 000000018010cc28     libvcruntimed:undname.obj
 0002:00006c34       ??_C@_06GCICPBLB@__w64?5?$AA@ 000000018010cc34     libvcruntimed:undname.obj
 0002:00006c40       ??_C@_07NFANNNEC@UNKNOWN?$AA@ 000000018010cc40     libvcruntimed:undname.obj
 0002:00006c50       ??_C@_07EDHNAJHC@signed?5?$AA@ 000000018010cc50     libvcruntimed:undname.obj
 0002:00006c5c       ??_C@_05BNCCCJPP@const?$AA@ 000000018010cc5c     libvcruntimed:undname.obj
 0002:00006c68       ??_C@_09EFNPDFFP@?5volatile?$AA@ 000000018010cc68     libvcruntimed:undname.obj
 0002:00006c78       ??_C@_0P@GCIFDJCJ@?$GAunknown?5ecsu?8?$AA@ 000000018010cc78     libvcruntimed:undname.obj
 0002:00006c8c       ??_C@_06MOJHIBMG@union?5?$AA@ 000000018010cc8c     libvcruntimed:undname.obj
 0002:00006c98       ??_C@_07DIBCDNGL@struct?5?$AA@ 000000018010cc98     libvcruntimed:undname.obj
 0002:00006ca4       ??_C@_06LJBABKPM@class?5?$AA@ 000000018010cca4     libvcruntimed:undname.obj
 0002:00006cb0       ??_C@_08KOFANOFK@coclass?5?$AA@ 000000018010ccb0     libvcruntimed:undname.obj
 0002:00006cc0       ??_C@_0N@DLIEFKNA@cointerface?5?$AA@ 000000018010ccc0     libvcruntimed:undname.obj
 0002:00006cd0       ??_C@_05LJGMCFOG@enum?5?$AA@ 000000018010ccd0     libvcruntimed:undname.obj
 0002:00006cd8       ??_C@_09GAIEOBLP@volatile?5?$AA@ 000000018010ccd8     libvcruntimed:undname.obj
 0002:00006ce4       ??_C@_06LIJLOJAG@const?5?$AA@ 000000018010cce4     libvcruntimed:undname.obj
 0002:00006cec       ??_C@_02KJPKDIBN@?$CG?5?$AA@ 000000018010ccec     libvcruntimed:undname.obj
 0002:00006cf0       ??_C@_03PCKGMOPB@?$CG?$CG?5?$AA@ 000000018010ccf0     libvcruntimed:undname.obj
 0002:00006cf8       ??_C@_0M@EALIELKG@cli?3?3array?$DM?$AA@ 000000018010ccf8     libvcruntimed:undname.obj
 0002:00006d08       ??_C@_0O@GKABPPIF@cli?3?3pin_ptr?$DM?$AA@ 000000018010cd08     libvcruntimed:undname.obj
 0002:00006d18       ??_C@_02GOGNNPBN@?$CJ?$FL?$AA@ 000000018010cd18     libvcruntimed:undname.obj
 0002:00006d1c       ??_C@_06EEGAIFAK@?$HLflat?$HN?$AA@ 000000018010cd1c     libvcruntimed:undname.obj
 0002:00006d24       ??_C@_05JIBOFOHK@?$HLfor?5?$AA@ 000000018010cd24     libvcruntimed:undname.obj
 0002:00006d2c       ??_C@_02MDINNEEG@s?5?$AA@  000000018010cd2c     libvcruntimed:undname.obj
 0002:00006d38       ??_7DNameNode@@6B@         000000018010cd38     libvcruntimed:undname.obj
 0002:00006d60       ??_7charNode@@6B@          000000018010cd60     libvcruntimed:undname.obj
 0002:00006d88       ??_7pcharNode@@6B@         000000018010cd88     libvcruntimed:undname.obj
 0002:00006db0       ??_7pDNameNode@@6B@        000000018010cdb0     libvcruntimed:undname.obj
 0002:00006dd8       ??_7DNameStatusNode@@6B@   000000018010cdd8     libvcruntimed:undname.obj
 0002:00006e00       ??_7pairNode@@6B@          000000018010ce00     libvcruntimed:undname.obj
 0002:00006e20       ??_C@_04OKOHEJBO@?5?$DP?$DP?5?$AA@ 000000018010ce20     libvcruntimed:undname.obj
 0002:00006e50       ??_C@_1BC@DNHGCMLG@?$AAa?$AAd?$AAv?$AAa?$AAp?$AAi?$AA3?$AA2?$AA?$AA@ 000000018010ce50     libvcruntimed:winapi_downlevel.obj
 0002:00006e68       ??_C@_1DM@KHCHBNEB@?$AAa?$AAp?$AAi?$AA?9?$AAm?$AAs?$AA?9?$AAw?$AAi?$AAn?$AA?9?$AAc?$AAo?$AAr?$AAe?$AA?9?$AAf?$AAi?$AAb?$AAe?$AAr?$AAs?$AA?9?$AAl?$AA1?$AA?9?$AA1?$AA?9?$AA1?$AA?$AA@ 000000018010ce68     libvcruntimed:winapi_downlevel.obj
 0002:00006eb0       ??_C@_1DK@LPPGFMPP@?$AAa?$AAp?$AAi?$AA?9?$AAm?$AAs?$AA?9?$AAw?$AAi?$AAn?$AA?9?$AAc?$AAo?$AAr?$AAe?$AA?9?$AAs?$AAy?$AAn?$AAc?$AAh?$AA?9?$AAl?$AA1?$AA?9?$AA2?$AA?9?$AA0?$AA?$AA@ 000000018010ceb0     libvcruntimed:winapi_downlevel.obj
 0002:00006ef8       ??_C@_1BC@GDMECMAK@?$AAk?$AAe?$AAr?$AAn?$AAe?$AAl?$AA3?$AA2?$AA?$AA@ 000000018010cef8     libvcruntimed:winapi_downlevel.obj
 0002:00006f10       ??_C@_1EM@LBIFGLGH@?$AAc?$AAa?$AAc?$AAh?$AAe?$AAd?$AA_?$AAh?$AAa?$AAn?$AAd?$AAl?$AAe?$AA?5?$AA?$DN?$AA?$DN?$AA?5?$AAI?$AAN?$AAV?$AAA?$AAL?$AAI?$AAD?$AA_?$AAH?$AAA?$AAN?$AAD?$AAL?$AAE?$AA_@ 000000018010cf10     libvcruntimed:winapi_downlevel.obj
 0002:00006f70       ??_C@_1HM@FGPKDEPG@?$AAf?$AA?3?$AA?2?$AAd?$AAd?$AA?2?$AAv?$AAc?$AAt?$AAo?$AAo?$AAl?$AAs?$AA?2?$AAc?$AAr?$AAt?$AA?2?$AAv?$AAc?$AAr?$AAu?$AAn?$AAt?$AAi?$AAm?$AAe?$AA?2?$AAs?$AAr?$AAc?$AA?2@ 000000018010cf70     libvcruntimed:winapi_downlevel.obj
 0002:00007008       ??_C@_1DI@MAHEDLDB@?$AAc?$AAa?$AAc?$AAh?$AAe?$AAd?$AA_?$AAh?$AAa?$AAn?$AAd?$AAl?$AAe?$AA?5?$AA?$DN?$AA?$DN?$AA?5?$AAn?$AAe?$AAw?$AA_?$AAh?$AAa?$AAn?$AAd?$AAl?$AAe?$AA?$AA@ 000000018010d008     libvcruntimed:winapi_downlevel.obj
 0002:00007050       ??_C@_1FC@IBNCGNKL@?$AAc?$AAa?$AAc?$AAh?$AAe?$AAd?$AA_?$AAf?$AAp?$AA?5?$AA?$DN?$AA?$DN?$AA?5?$AAi?$AAn?$AAv?$AAa?$AAl?$AAi?$AAd?$AA_?$AAf?$AAu?$AAn?$AAc?$AAt?$AAi?$AAo?$AAn?$AA_?$AAs?$AAe@ 000000018010d050     libvcruntimed:winapi_downlevel.obj
 0002:000070b8       ??_C@_1CI@GDJBAGLP@?$AAc?$AAa?$AAc?$AAh?$AAe?$AAd?$AA_?$AAf?$AAp?$AA?5?$AA?$DN?$AA?$DN?$AA?5?$AAn?$AAe?$AAw?$AA_?$AAf?$AAp?$AA?$AA@ 000000018010d0b8     libvcruntimed:winapi_downlevel.obj
 0002:000070f0       ??_C@_0O@BAMBGLIE@EventRegister?$AA@ 000000018010d0f0     libvcruntimed:winapi_downlevel.obj
 0002:00007108       ??_C@_0BE@BJEEGHGK@EventSetInformation?$AA@ 000000018010d108     libvcruntimed:winapi_downlevel.obj
 0002:00007128       ??_C@_0BA@FAKLIPIC@EventUnregister?$AA@ 000000018010d128     libvcruntimed:winapi_downlevel.obj
 0002:00007140       ??_C@_0BD@PKLHJPHD@EventWriteTransfer?$AA@ 000000018010d140     libvcruntimed:winapi_downlevel.obj
 0002:00007168       ??_C@_08KNHFBNJ@FlsAlloc?$AA@ 000000018010d168     libvcruntimed:winapi_downlevel.obj
 0002:00007188       ??_C@_07PEJMOBNF@FlsFree?$AA@ 000000018010d188     libvcruntimed:winapi_downlevel.obj
 0002:000071a8       ??_C@_0M@GDNOONDI@FlsGetValue?$AA@ 000000018010d1a8     libvcruntimed:winapi_downlevel.obj
 0002:000071c8       ??_C@_0M@JCPCPOEF@FlsSetValue?$AA@ 000000018010d1c8     libvcruntimed:winapi_downlevel.obj
 0002:000071e8       ??_C@_0BM@HCFOFFN@InitializeCriticalSectionEx?$AA@ 000000018010d1e8     libvcruntimed:winapi_downlevel.obj
 0002:00007210       ??_C@_0DN@JAECLCAP@f?3?2dd?2vctools?2crt?2vcruntime?2src?2@ 000000018010d210     libvcruntimed:per_thread_data.obj
 0002:0000725c       ??_C@_06HBLGGACK@_scalb?$AA@ 000000018010d25c     libucrtd:ieeemisc.obj
 0002:00007268       ??_C@_07OIGNLDJH@_scalbf?$AA@ 000000018010d268     libucrtd:ieeemisc.obj
 0002:00007d44       ??_C@_05KGFAIMPG@sqrtf?$AA@ 000000018010dd44     libucrtd:sqrtf.obj
 0002:00007d50       ??_C@_0CP@GDJHIDC@minkernel?2crts?2ucrt?2src?2appcrt?2s@ 000000018010dd50     libucrtd:_file.obj
 0002:00007d88       ??_C@_1DC@OGOLMDEL@?$AAp?$AAu?$AAb?$AAl?$AAi?$AAc?$AA_?$AAs?$AAt?$AAr?$AAe?$AAa?$AAm?$AA?5?$AA?$CB?$AA?$DN?$AA?5?$AAn?$AAu?$AAl?$AAl?$AAp?$AAt?$AAr?$AA?$AA@ 000000018010dd88     libucrtd:_file.obj
 0002:00007dd0       ??_C@_1FO@IEGKHABE@?$AAm?$AAi?$AAn?$AAk?$AAe?$AAr?$AAn?$AAe?$AAl?$AA?2?$AAc?$AAr?$AAt?$AAs?$AA?2?$AAu?$AAc?$AAr?$AAt?$AA?2?$AAs?$AAr?$AAc?$AA?2?$AAa?$AAp?$AAp?$AAc?$AAr?$AAt?$AA?2?$AAs@ 000000018010ddd0     libucrtd:_file.obj
 0002:00007e40       ??_C@_1DI@PJGMCDLC@?$AA_?$AAg?$AAe?$AAt?$AA_?$AAs?$AAt?$AAr?$AAe?$AAa?$AAm?$AA_?$AAb?$AAu?$AAf?$AAf?$AAe?$AAr?$AA_?$AAp?$AAo?$AAi?$AAn?$AAt?$AAe?$AAr?$AAs?$AA?$AA@ 000000018010de40     libucrtd:_file.obj
 0002:00007e90       standard_lookup_table      000000018010de90     libucrtd:output.obj
 0002:00007f00       format_validation_lookup_table 000000018010df00     libucrtd:output.obj
 0002:00007f70       ??_C@_1BDG@MKBKGHOH@?$AA?$CI?$AA?5?$AA?$CI?$AA_?$AAS?$AAt?$AAr?$AAe?$AAa?$AAm?$AA?4?$AAi?$AAs?$AA_?$AAs?$AAt?$AAr?$AAi?$AAn?$AAg?$AA_?$AAb?$AAa?$AAc?$AAk?$AAe?$AAd?$AA?$CI?$AA?$CJ?$AA?$CJ?$AA?5?$AA?$HM@ 000000018010df70     libucrtd:output.obj
 0002:000080f0       ??_C@_1GC@LCDLABEA@?$AAm?$AAi?$AAn?$AAk?$AAe?$AAr?$AAn?$AAe?$AAl?$AA?2?$AAc?$AAr?$AAt?$AAs?$AA?2?$AAu?$AAc?$AAr?$AAt?$AA?2?$AAi?$AAn?$AAc?$AA?2?$AAc?$AAo?$AAr?$AAe?$AAc?$AAr?$AAt?$AA_@ 000000018010e0f0     libucrtd:output.obj
 0002:00008170       ??_C@_1II@DIIMCJOK@?$AA_?$AA_?$AAa?$AAc?$AAr?$AAt?$AA_?$AAs?$AAt?$AAd?$AAi?$AAo?$AA_?$AAc?$AAh?$AAa?$AAr?$AA_?$AAt?$AAr?$AAa?$AAi?$AAt?$AAs?$AA?$DM?$AAc?$AAh?$AAa?$AAr?$AA?$DO?$AA?3?$AA?3@ 000000018010e170     libucrtd:output.obj
 0002:00008218       ??_C@_1CE@JLIJLEKO@?$AAs?$AAt?$AAr?$AAe?$AAa?$AAm?$AA?5?$AA?$CB?$AA?$DN?$AA?5?$AAn?$AAu?$AAl?$AAl?$AAp?$AAt?$AAr?$AA?$AA@ 000000018010e218     libucrtd:output.obj
 0002:00008250       ??_C@_1GA@MOBAPGIO@?$AAm?$AAi?$AAn?$AAk?$AAe?$AAr?$AAn?$AAe?$AAl?$AA?2?$AAc?$AAr?$AAt?$AAs?$AA?2?$AAu?$AAc?$AAr?$AAt?$AA?2?$AAs?$AAr?$AAc?$AA?2?$AAa?$AAp?$AAp?$AAc?$AAr?$AAt?$AA?2?$AAs@ 000000018010e250     libucrtd:output.obj
 0002:000082c8       ??_C@_1CA@GELIJBMC@?$AAc?$AAo?$AAm?$AAm?$AAo?$AAn?$AA_?$AAv?$AAf?$AAp?$AAr?$AAi?$AAn?$AAt?$AAf?$AA?$AA@ 000000018010e2c8     libucrtd:output.obj
 0002:000082f0       ??_C@_1CE@EAKLPBKK@?$AAf?$AAo?$AAr?$AAm?$AAa?$AAt?$AA?5?$AA?$CB?$AA?$DN?$AA?5?$AAn?$AAu?$AAl?$AAl?$AAp?$AAt?$AAr?$AA?$AA@ 000000018010e2f0     libucrtd:output.obj
 0002:00008320       ??_C@_1CA@PIMGHCEK@?$AAc?$AAo?$AAm?$AAm?$AAo?$AAn?$AA_?$AAv?$AAs?$AAp?$AAr?$AAi?$AAn?$AAt?$AAf?$AA?$AA@ 000000018010e320     libucrtd:output.obj
 0002:00008350       ??_C@_1EO@EGEEFEFM@?$AAb?$AAu?$AAf?$AAf?$AAe?$AAr?$AA_?$AAc?$AAo?$AAu?$AAn?$AAt?$AA?5?$AA?$DN?$AA?$DN?$AA?5?$AA0?$AA?5?$AA?$HM?$AA?$HM?$AA?5?$AAb?$AAu?$AAf?$AAf?$AAe?$AAr?$AA?5?$AA?$CB?$AA?$DN?$AA?5?$AAn@ 000000018010e350     libucrtd:output.obj
 0002:000083b0       ??_C@_1CE@JEILLNB@?$AAc?$AAo?$AAm?$AAm?$AAo?$AAn?$AA_?$AAv?$AAs?$AAp?$AAr?$AAi?$AAn?$AAt?$AAf?$AA_?$AAs?$AA?$AA@ 000000018010e3b0     libucrtd:output.obj
 0002:000083e0       ??_C@_1EM@OAFHAOLH@?$AAb?$AAu?$AAf?$AAf?$AAe?$AAr?$AA?5?$AA?$CB?$AA?$DN?$AA?5?$AAn?$AAu?$AAl?$AAl?$AAp?$AAt?$AAr?$AA?5?$AA?$CG?$AA?$CG?$AA?5?$AAb?$AAu?$AAf?$AAf?$AAe?$AAr?$AA_?$AAc?$AAo?$AAu?$AAn@ 000000018010e3e0     libucrtd:output.obj
 0002:00008440       ??_C@_1DA@HPBFKMEB@?$AA?$CI?$AA?$CC?$AAB?$AAu?$AAf?$AAf?$AAe?$AAr?$AA?5?$AAt?$AAo?$AAo?$AA?5?$AAs?$AAm?$AAa?$AAl?$AAl?$AA?$CC?$AA?0?$AA?5?$AA0?$AA?$CJ?$AA?$AA@ 000000018010e440     libucrtd:output.obj
 0002:00008480       ??_C@_1CG@LHFJHFBB@?$AAc?$AAo?$AAm?$AAm?$AAo?$AAn?$AA_?$AAv?$AAs?$AAn?$AAp?$AAr?$AAi?$AAn?$AAt?$AAf?$AA_?$AAs?$AA?$AA@ 000000018010e480     libucrtd:output.obj
 0002:000084b0       ??_C@_1CM@JOIJBMEM@?$AA_?$AAf?$AAo?$AAr?$AAm?$AAa?$AAt?$AA_?$AAi?$AAt?$AA?5?$AA?$CB?$AA?$DN?$AA?5?$AAn?$AAu?$AAl?$AAl?$AAp?$AAt?$AAr?$AA?$AA@ 000000018010e4b0     libucrtd:output.obj
 0002:000084f0       ??_C@_1HA@DMAAKIJP@?$AAm?$AAi?$AAn?$AAk?$AAe?$AAr?$AAn?$AAe?$AAl?$AA?2?$AAc?$AAr?$AAt?$AAs?$AA?2?$AAu?$AAc?$AAr?$AAt?$AA?2?$AAi?$AAn?$AAc?$AA?2?$AAc?$AAo?$AAr?$AAe?$AAc?$AAr?$AAt?$AA_@ 000000018010e4f0     libucrtd:output.obj
 0002:00008580       ??_C@_1BKA@IIAAOGBO@?$AA_?$AA_?$AAc?$AAr?$AAt?$AA_?$AAs?$AAt?$AAd?$AAi?$AAo?$AA_?$AAo?$AAu?$AAt?$AAp?$AAu?$AAt?$AA?3?$AA?3?$AAo?$AAu?$AAt?$AAp?$AAu?$AAt?$AA_?$AAp?$AAr?$AAo?$AAc?$AAe@ 000000018010e580     libucrtd:output.obj
 0002:00008780       ??_C@_1EE@DMAIGNBG@?$AA?$CI?$AA?$CC?$AAI?$AAn?$AAc?$AAo?$AAr?$AAr?$AAe?$AAc?$AAt?$AA?5?$AAf?$AAo?$AAr?$AAm?$AAa?$AAt?$AA?5?$AAs?$AAp?$AAe?$AAc?$AAi?$AAf?$AAi?$AAe?$AAr?$AA?$CC?$AA?0?$AA?5?$AA0@ 000000018010e780     libucrtd:output.obj
 0002:000087e0       ??_C@_1BLI@EEAAPJD@?$AA_?$AA_?$AAc?$AAr?$AAt?$AA_?$AAs?$AAt?$AAd?$AAi?$AAo?$AA_?$AAo?$AAu?$AAt?$AAp?$AAu?$AAt?$AA?3?$AA?3?$AAo?$AAu?$AAt?$AAp?$AAu?$AAt?$AA_?$AAp?$AAr?$AAo?$AAc?$AAe@ 000000018010e7e0     libucrtd:output.obj
 0002:000089f0       ??_C@_1BLC@PMCLHHAE@?$AA_?$AA_?$AAc?$AAr?$AAt?$AA_?$AAs?$AAt?$AAd?$AAi?$AAo?$AA_?$AAo?$AAu?$AAt?$AAp?$AAu?$AAt?$AA?3?$AA?3?$AAo?$AAu?$AAt?$AAp?$AAu?$AAt?$AA_?$AAp?$AAr?$AAo?$AAc?$AAe@ 000000018010e9f0     libucrtd:output.obj
 0002:00008c00       ??_C@_1BMK@CPBKHDIH@?$AA_?$AA_?$AAc?$AAr?$AAt?$AA_?$AAs?$AAt?$AAd?$AAi?$AAo?$AA_?$AAo?$AAu?$AAt?$AAp?$AAu?$AAt?$AA?3?$AA?3?$AAo?$AAu?$AAt?$AAp?$AAu?$AAt?$AA_?$AAp?$AAr?$AAo?$AAc?$AAe@ 000000018010ec00     libucrtd:output.obj
 0002:00008e30       ??_C@_1BLI@FOCNEPKJ@?$AA_?$AA_?$AAc?$AAr?$AAt?$AA_?$AAs?$AAt?$AAd?$AAi?$AAo?$AA_?$AAo?$AAu?$AAt?$AAp?$AAu?$AAt?$AA?3?$AA?3?$AAo?$AAu?$AAt?$AAp?$AAu?$AAt?$AA_?$AAp?$AAr?$AAo?$AAc?$AAe@ 000000018010ee30     libucrtd:output.obj
 0002:00009040       ??_C@_1BNA@HGLCOOBP@?$AA_?$AA_?$AAc?$AAr?$AAt?$AA_?$AAs?$AAt?$AAd?$AAi?$AAo?$AA_?$AAo?$AAu?$AAt?$AAp?$AAu?$AAt?$AA?3?$AA?3?$AAo?$AAu?$AAt?$AAp?$AAu?$AAt?$AA_?$AAp?$AAr?$AAo?$AAc?$AAe@ 000000018010f040     libucrtd:output.obj
 0002:00009270       ??_C@_1BKA@DNADAJMC@?$AA_?$AA_?$AAc?$AAr?$AAt?$AA_?$AAs?$AAt?$AAd?$AAi?$AAo?$AA_?$AAo?$AAu?$AAt?$AAp?$AAu?$AAt?$AA?3?$AA?3?$AAo?$AAu?$AAt?$AAp?$AAu?$AAt?$AA_?$AAp?$AAr?$AAo?$AAc?$AAe@ 000000018010f270     libucrtd:output.obj
 0002:00009470       ??_C@_1BLI@IKDKMDHI@?$AA_?$AA_?$AAc?$AAr?$AAt?$AA_?$AAs?$AAt?$AAd?$AAi?$AAo?$AA_?$AAo?$AAu?$AAt?$AAp?$AAu?$AAt?$AA?3?$AA?3?$AAo?$AAu?$AAt?$AAp?$AAu?$AAt?$AA_?$AAp?$AAr?$AAo?$AAc?$AAe@ 000000018010f470     libucrtd:output.obj
 0002:00009680       ??_C@_1BLI@EGFICANE@?$AA_?$AA_?$AAc?$AAr?$AAt?$AA_?$AAs?$AAt?$AAd?$AAi?$AAo?$AA_?$AAo?$AAu?$AAt?$AAp?$AAu?$AAt?$AA?3?$AA?3?$AAo?$AAu?$AAt?$AAp?$AAu?$AAt?$AA_?$AAp?$AAr?$AAo?$AAc?$AAe@ 000000018010f680     libucrtd:output.obj
 0002:00009890       ??_C@_1BNA@OIIAGHJI@?$AA_?$AA_?$AAc?$AAr?$AAt?$AA_?$AAs?$AAt?$AAd?$AAi?$AAo?$AA_?$AAo?$AAu?$AAt?$AAp?$AAu?$AAt?$AA?3?$AA?3?$AAo?$AAu?$AAt?$AAp?$AAu?$AAt?$AA_?$AAp?$AAr?$AAo?$AAc?$AAe@ 000000018010f890     libucrtd:output.obj
 0002:00009ac0       ??_C@_1CA@ONEGMNAN@?$AA_?$AAs?$AAt?$AAr?$AAe?$AAa?$AAm?$AA?4?$AAv?$AAa?$AAl?$AAi?$AAd?$AA?$CI?$AA?$CJ?$AA?$AA@ 000000018010fac0     libucrtd:output.obj
 0002:00009af0       ??_C@_1HE@FGKHNBNL@?$AA_?$AA_?$AAc?$AAr?$AAt?$AA_?$AAs?$AAt?$AAd?$AAi?$AAo?$AA_?$AAo?$AAu?$AAt?$AAp?$AAu?$AAt?$AA?3?$AA?3?$AAs?$AAt?$AAr?$AAe?$AAa?$AAm?$AA_?$AAo?$AAu?$AAt?$AAp?$AAu@ 000000018010faf0     libucrtd:output.obj
 0002:00009b80       ??_C@_1DG@CEJKFDMO@?$AAs?$AAt?$AAa?$AAt?$AAe?$AA_?$AAc?$AAa?$AAs?$AAe?$AA_?$AAn?$AAo?$AAr?$AAm?$AAa?$AAl?$AA_?$AAc?$AAo?$AAm?$AAm?$AAo?$AAn?$AA?$CI?$AA?$CJ?$AA?$AA@ 000000018010fb80     libucrtd:output.obj
 0002:00009bc0       ??_C@_1BLE@PAACOKDK@?$AA_?$AA_?$AAc?$AAr?$AAt?$AA_?$AAs?$AAt?$AAd?$AAi?$AAo?$AA_?$AAo?$AAu?$AAt?$AAp?$AAu?$AAt?$AA?3?$AA?3?$AAo?$AAu?$AAt?$AAp?$AAu?$AAt?$AA_?$AAp?$AAr?$AAo?$AAc?$AAe@ 000000018010fbc0     libucrtd:output.obj
 0002:00009dd0       ??_C@_1FG@OBJBDPAC@?$AA?$CI?$AA?$CC?$AAN?$AA?5?$AAl?$AAe?$AAn?$AAg?$AAt?$AAh?$AA?5?$AAm?$AAo?$AAd?$AAi?$AAf?$AAi?$AAe?$AAr?$AA?5?$AAn?$AAo?$AAt?$AA?5?$AAs?$AAp?$AAe?$AAc?$AAi?$AAf?$AAi?$AAe@ 000000018010fdd0     libucrtd:output.obj
 0002:00009e40       ??_C@_1BLA@GJNGKGIK@?$AA_?$AA_?$AAc?$AAr?$AAt?$AA_?$AAs?$AAt?$AAd?$AAi?$AAo?$AA_?$AAo?$AAu?$AAt?$AAp?$AAu?$AAt?$AA?3?$AA?3?$AAo?$AAu?$AAt?$AAp?$AAu?$AAt?$AA_?$AAp?$AAr?$AAo?$AAc?$AAe@ 000000018010fe40     libucrtd:output.obj
 0002:0000a050       ??_C@_1EC@GJPNJDCN@?$AA_?$AAl?$AAe?$AAn?$AAg?$AAt?$AAh?$AA?5?$AA?$DN?$AA?$DN?$AA?5?$AAl?$AAe?$AAn?$AAg?$AAt?$AAh?$AA_?$AAm?$AAo?$AAd?$AAi?$AAf?$AAi?$AAe?$AAr?$AA?3?$AA?3?$AAn?$AAo?$AAn?$AAe@ 0000000180110050     libucrtd:output.obj
 0002:0000a0a0       ??_C@_1HK@MPBCDOK@?$AA_?$AA_?$AAc?$AAr?$AAt?$AA_?$AAs?$AAt?$AAd?$AAi?$AAo?$AA_?$AAo?$AAu?$AAt?$AAp?$AAu?$AAt?$AA?3?$AA?3?$AAs?$AAt?$AAr?$AAe?$AAa?$AAm?$AA_?$AAo?$AAu?$AAt?$AAp?$AAu@ 00000001801100a0     libucrtd:output.obj
 0002:0000a140       ??_C@_1BMM@JHGFKAND@?$AA_?$AA_?$AAc?$AAr?$AAt?$AA_?$AAs?$AAt?$AAd?$AAi?$AAo?$AA_?$AAo?$AAu?$AAt?$AAp?$AAu?$AAt?$AA?3?$AA?3?$AAo?$AAu?$AAt?$AAp?$AAu?$AAt?$AA_?$AAp?$AAr?$AAo?$AAc?$AAe@ 0000000180110140     libucrtd:output.obj
 0002:0000a370       ??_C@_1BMI@DNMDMAAN@?$AA_?$AA_?$AAc?$AAr?$AAt?$AA_?$AAs?$AAt?$AAd?$AAi?$AAo?$AA_?$AAo?$AAu?$AAt?$AAp?$AAu?$AAt?$AA?3?$AA?3?$AAo?$AAu?$AAt?$AAp?$AAu?$AAt?$AA_?$AAp?$AAr?$AAo?$AAc?$AAe@ 0000000180110370     libucrtd:output.obj
 0002:0000a5a0       ??_C@_1BMG@KOENKAMB@?$AA_?$AA_?$AAc?$AAr?$AAt?$AA_?$AAs?$AAt?$AAd?$AAi?$AAo?$AA_?$AAo?$AAu?$AAt?$AAp?$AAu?$AAt?$AA?3?$AA?3?$AAo?$AAu?$AAt?$AAp?$AAu?$AAt?$AA_?$AAp?$AAr?$AAo?$AAc?$AAe@ 00000001801105a0     libucrtd:output.obj
 0002:0000a7c0       ??_C@_1BMC@DAENMDAD@?$AA_?$AA_?$AAc?$AAr?$AAt?$AA_?$AAs?$AAt?$AAd?$AAi?$AAo?$AA_?$AAo?$AAu?$AAt?$AAp?$AAu?$AAt?$AA?3?$AA?3?$AAo?$AAu?$AAt?$AAp?$AAu?$AAt?$AA_?$AAp?$AAr?$AAo?$AAc?$AAe@ 00000001801107c0     libucrtd:output.obj
 0002:0000a9e0       ??_C@_1GC@BNMHNGKM@?$AA_?$AAs?$AAt?$AAa?$AAt?$AAe?$AA?5?$AA?$DN?$AA?$DN?$AA?5?$AAs?$AAt?$AAa?$AAt?$AAe?$AA?3?$AA?3?$AAn?$AAo?$AAr?$AAm?$AAa?$AAl?$AA?5?$AA?$HM?$AA?$HM?$AA?5?$AA_?$AAs?$AAt?$AAa?$AAt@ 00000001801109e0     libucrtd:output.obj
 0002:0000aa60       ??_C@_1BDG@PLANJEFE@?$AA_?$AA_?$AAc?$AAr?$AAt?$AA_?$AAs?$AAt?$AAd?$AAi?$AAo?$AA_?$AAo?$AAu?$AAt?$AAp?$AAu?$AAt?$AA?3?$AA?3?$AAf?$AAo?$AAr?$AAm?$AAa?$AAt?$AA_?$AAv?$AAa?$AAl?$AAi?$AAd@ 0000000180110a60     libucrtd:output.obj
 0002:0000abe0       ??_C@_1BNO@LMMLJOOJ@?$AA_?$AA_?$AAc?$AAr?$AAt?$AA_?$AAs?$AAt?$AAd?$AAi?$AAo?$AA_?$AAo?$AAu?$AAt?$AAp?$AAu?$AAt?$AA?3?$AA?3?$AAo?$AAu?$AAt?$AAp?$AAu?$AAt?$AA_?$AAp?$AAr?$AAo?$AAc?$AAe@ 0000000180110be0     libucrtd:output.obj
 0002:0000ae20       ??_C@_1BNK@ONPHCEAM@?$AA_?$AA_?$AAc?$AAr?$AAt?$AA_?$AAs?$AAt?$AAd?$AAi?$AAo?$AA_?$AAo?$AAu?$AAt?$AAp?$AAu?$AAt?$AA?3?$AA?3?$AAo?$AAu?$AAt?$AAp?$AAu?$AAt?$AA_?$AAp?$AAr?$AAo?$AAc?$AAe@ 0000000180110e20     libucrtd:output.obj
 0002:0000b060       ??_C@_1BEC@FNIGNBHI@?$AA_?$AA_?$AAc?$AAr?$AAt?$AA_?$AAs?$AAt?$AAd?$AAi?$AAo?$AA_?$AAo?$AAu?$AAt?$AAp?$AAu?$AAt?$AA?3?$AA?3?$AAf?$AAo?$AAr?$AAm?$AAa?$AAt?$AA_?$AAv?$AAa?$AAl?$AAi?$AAd@ 0000000180111060     libucrtd:output.obj
 0002:0000b1f0       ??_C@_1BMM@BLBJDDIA@?$AA_?$AA_?$AAc?$AAr?$AAt?$AA_?$AAs?$AAt?$AAd?$AAi?$AAo?$AA_?$AAo?$AAu?$AAt?$AAp?$AAu?$AAt?$AA?3?$AA?3?$AAo?$AAu?$AAt?$AAp?$AAu?$AAt?$AA_?$AAp?$AAr?$AAo?$AAc?$AAe@ 00000001801111f0     libucrtd:output.obj
 0002:0000b420       ??_C@_1BMI@PKGBOKJK@?$AA_?$AA_?$AAc?$AAr?$AAt?$AA_?$AAs?$AAt?$AAd?$AAi?$AAo?$AA_?$AAo?$AAu?$AAt?$AAp?$AAu?$AAt?$AA?3?$AA?3?$AAo?$AAu?$AAt?$AAp?$AAu?$AAt?$AA_?$AAp?$AAr?$AAo?$AAc?$AAe@ 0000000180111420     libucrtd:output.obj
 0002:0000b650       ??_C@_1FK@BCPANIEK@?$AA?$CI?$AA?$CC?$AAM?$AAi?$AAs?$AAs?$AAi?$AAn?$AAg?$AA?5?$AAp?$AAo?$AAs?$AAi?$AAt?$AAi?$AAo?$AAn?$AA?5?$AAi?$AAn?$AA?5?$AAt?$AAh?$AAe?$AA?5?$AAf?$AAo?$AAr?$AAm?$AAa?$AAt@ 0000000180111650     libucrtd:output.obj
 0002:0000b6c0       ??_C@_1BDM@FDOLKCHK@?$AA_?$AA_?$AAc?$AAr?$AAt?$AA_?$AAs?$AAt?$AAd?$AAi?$AAo?$AA_?$AAo?$AAu?$AAt?$AAp?$AAu?$AAt?$AA?3?$AA?3?$AAp?$AAo?$AAs?$AAi?$AAt?$AAi?$AAo?$AAn?$AAa?$AAl?$AA_?$AAp@ 00000001801116c0     libucrtd:output.obj
 0002:0000b840       ??_C@_1IC@NLEOMCDL@?$AA_?$AAt?$AAy?$AAp?$AAe?$AA_?$AAi?$AAn?$AAd?$AAe?$AAx?$AA?5?$AA?$DO?$AA?$DN?$AA?5?$AA0?$AA?5?$AA?$CG?$AA?$CG?$AA?5?$AA?$CK?$AAe?$AAn?$AAd?$AA_?$AAp?$AAo?$AAi?$AAn?$AAt?$AAe?$AAr@ 0000000180111840     libucrtd:output.obj
 0002:0000b8e0       ??_C@_1BEO@JEHLMMKB@?$AA_?$AA_?$AAc?$AAr?$AAt?$AA_?$AAs?$AAt?$AAd?$AAi?$AAo?$AA_?$AAo?$AAu?$AAt?$AAp?$AAu?$AAt?$AA?3?$AA?3?$AAp?$AAo?$AAs?$AAi?$AAt?$AAi?$AAo?$AAn?$AAa?$AAl?$AA_?$AAp@ 00000001801118e0     libucrtd:output.obj
 0002:0000ba70       ??_C@_1BOE@NLICFINO@?$AA_?$AA_?$AAc?$AAr?$AAt?$AA_?$AAs?$AAt?$AAd?$AAi?$AAo?$AA_?$AAo?$AAu?$AAt?$AAp?$AAu?$AAt?$AA?3?$AA?3?$AAo?$AAu?$AAt?$AAp?$AAu?$AAt?$AA_?$AAp?$AAr?$AAo?$AAc?$AAe@ 0000000180111a70     libucrtd:output.obj
 0002:0000bcc0       ??_C@_1BOA@CBIEMBEE@?$AA_?$AA_?$AAc?$AAr?$AAt?$AA_?$AAs?$AAt?$AAd?$AAi?$AAo?$AA_?$AAo?$AAu?$AAt?$AAp?$AAu?$AAt?$AA?3?$AA?3?$AAo?$AAu?$AAt?$AAp?$AAu?$AAt?$AA_?$AAp?$AAr?$AAo?$AAc?$AAe@ 0000000180111cc0     libucrtd:output.obj
 0002:0000bf00       ??_C@_1BEI@JNJAFAD@?$AA_?$AA_?$AAc?$AAr?$AAt?$AA_?$AAs?$AAt?$AAd?$AAi?$AAo?$AA_?$AAo?$AAu?$AAt?$AAp?$AAu?$AAt?$AA?3?$AA?3?$AAp?$AAo?$AAs?$AAi?$AAt?$AAi?$AAo?$AAn?$AAa?$AAl?$AA_?$AAp@ 0000000180111f00     libucrtd:output.obj
 0002:0000c090       ??_C@_1BFK@IOIDDMPJ@?$AA_?$AA_?$AAc?$AAr?$AAt?$AA_?$AAs?$AAt?$AAd?$AAi?$AAo?$AA_?$AAo?$AAu?$AAt?$AAp?$AAu?$AAt?$AA?3?$AA?3?$AAp?$AAo?$AAs?$AAi?$AAt?$AAi?$AAo?$AAn?$AAa?$AAl?$AA_?$AAp@ 0000000180112090     libucrtd:output.obj
 0002:0000c230       ??_C@_1CI@DDKMNCPP@?$AA_?$AAc?$AAo?$AAn?$AAt?$AAe?$AAx?$AAt?$AA?5?$AA?$CB?$AA?$DN?$AA?5?$AAn?$AAu?$AAl?$AAl?$AAp?$AAt?$AAr?$AA?$AA@ 0000000180112230     libucrtd:output.obj
 0002:0000c260       ??_C@_1HE@IACOMEJF@?$AA_?$AA_?$AAc?$AAr?$AAt?$AA_?$AAs?$AAt?$AAd?$AAi?$AAo?$AA_?$AAo?$AAu?$AAt?$AAp?$AAu?$AAt?$AA?3?$AA?3?$AAs?$AAt?$AAr?$AAi?$AAn?$AAg?$AA_?$AAo?$AAu?$AAt?$AAp?$AAu@ 0000000180112260     libucrtd:output.obj
 0002:0000c2f0       ??_C@_1BLE@LCKPBJON@?$AA_?$AA_?$AAc?$AAr?$AAt?$AA_?$AAs?$AAt?$AAd?$AAi?$AAo?$AA_?$AAo?$AAu?$AAt?$AAp?$AAu?$AAt?$AA?3?$AA?3?$AAo?$AAu?$AAt?$AAp?$AAu?$AAt?$AA_?$AAp?$AAr?$AAo?$AAc?$AAe@ 00000001801122f0     libucrtd:output.obj
 0002:0000c500       ??_C@_1BLA@MEDMHIOH@?$AA_?$AA_?$AAc?$AAr?$AAt?$AA_?$AAs?$AAt?$AAd?$AAi?$AAo?$AA_?$AAo?$AAu?$AAt?$AAp?$AAu?$AAt?$AA?3?$AA?3?$AAo?$AAu?$AAt?$AAp?$AAu?$AAt?$AA_?$AAp?$AAr?$AAo?$AAc?$AAe@ 0000000180112500     libucrtd:output.obj
 0002:0000c710       ??_C@_1HK@IIPGOADH@?$AA_?$AA_?$AAc?$AAr?$AAt?$AA_?$AAs?$AAt?$AAd?$AAi?$AAo?$AA_?$AAo?$AAu?$AAt?$AAp?$AAu?$AAt?$AA?3?$AA?3?$AAs?$AAt?$AAr?$AAi?$AAn?$AAg?$AA_?$AAo?$AAu?$AAt?$AAp?$AAu@ 0000000180112710     libucrtd:output.obj
 0002:0000c7b0       ??_C@_1BMM@PGHHMNDM@?$AA_?$AA_?$AAc?$AAr?$AAt?$AA_?$AAs?$AAt?$AAd?$AAi?$AAo?$AA_?$AAo?$AAu?$AAt?$AAp?$AAu?$AAt?$AA?3?$AA?3?$AAo?$AAu?$AAt?$AAp?$AAu?$AAt?$AA_?$AAp?$AAr?$AAo?$AAc?$AAe@ 00000001801127b0     libucrtd:output.obj
 0002:0000c9e0       ??_C@_1BMI@KBPJOJJI@?$AA_?$AA_?$AAc?$AAr?$AAt?$AA_?$AAs?$AAt?$AAd?$AAi?$AAo?$AA_?$AAo?$AAu?$AAt?$AAp?$AAu?$AAt?$AA?3?$AA?3?$AAo?$AAu?$AAt?$AAp?$AAu?$AAt?$AA_?$AAp?$AAr?$AAo?$AAc?$AAe@ 00000001801129e0     libucrtd:output.obj
 0002:0000cc10       ??_C@_1BMM@JGEKEBKL@?$AA_?$AA_?$AAc?$AAr?$AAt?$AA_?$AAs?$AAt?$AAd?$AAi?$AAo?$AA_?$AAo?$AAu?$AAt?$AAp?$AAu?$AAt?$AA?3?$AA?3?$AAo?$AAu?$AAt?$AAp?$AAu?$AAt?$AA_?$AAp?$AAr?$AAo?$AAc?$AAe@ 0000000180112c10     libucrtd:output.obj
 0002:0000ce40       ??_C@_1BMI@LKDDDFDL@?$AA_?$AA_?$AAc?$AAr?$AAt?$AA_?$AAs?$AAt?$AAd?$AAi?$AAo?$AA_?$AAo?$AAu?$AAt?$AAp?$AAu?$AAt?$AA?3?$AA?3?$AAo?$AAu?$AAt?$AAp?$AAu?$AAt?$AA_?$AAp?$AAr?$AAo?$AAc?$AAe@ 0000000180112e40     libucrtd:output.obj
 0002:0000d070       ??_C@_1BDM@GFCGMNL@?$AA_?$AA_?$AAc?$AAr?$AAt?$AA_?$AAs?$AAt?$AAd?$AAi?$AAo?$AA_?$AAo?$AAu?$AAt?$AAp?$AAu?$AAt?$AA?3?$AA?3?$AAp?$AAo?$AAs?$AAi?$AAt?$AAi?$AAo?$AAn?$AAa?$AAl?$AA_?$AAp@ 0000000180113070     libucrtd:output.obj
 0002:0000d1f0       ??_C@_1BEO@ODGKIOAL@?$AA_?$AA_?$AAc?$AAr?$AAt?$AA_?$AAs?$AAt?$AAd?$AAi?$AAo?$AA_?$AAo?$AAu?$AAt?$AAp?$AAu?$AAt?$AA?3?$AA?3?$AAp?$AAo?$AAs?$AAi?$AAt?$AAi?$AAo?$AAn?$AAa?$AAl?$AA_?$AAp@ 00000001801131f0     libucrtd:output.obj
 0002:0000d380       ??_C@_1BOE@IPKNNOEE@?$AA_?$AA_?$AAc?$AAr?$AAt?$AA_?$AAs?$AAt?$AAd?$AAi?$AAo?$AA_?$AAo?$AAu?$AAt?$AAp?$AAu?$AAt?$AA?3?$AA?3?$AAo?$AAu?$AAt?$AAp?$AAu?$AAt?$AA_?$AAp?$AAr?$AAo?$AAc?$AAe@ 0000000180113380     libucrtd:output.obj
 0002:0000d5d0       ??_C@_1BOA@BMEGDMHF@?$AA_?$AA_?$AAc?$AAr?$AAt?$AA_?$AAs?$AAt?$AAd?$AAi?$AAo?$AA_?$AAo?$AAu?$AAt?$AAp?$AAu?$AAt?$AA?3?$AA?3?$AAo?$AAu?$AAt?$AAp?$AAu?$AAt?$AA_?$AAp?$AAr?$AAo?$AAc?$AAe@ 00000001801135d0     libucrtd:output.obj
 0002:0000d810       ??_C@_1BEI@IHLBHMLJ@?$AA_?$AA_?$AAc?$AAr?$AAt?$AA_?$AAs?$AAt?$AAd?$AAi?$AAo?$AA_?$AAo?$AAu?$AAt?$AAp?$AAu?$AAt?$AA?3?$AA?3?$AAp?$AAo?$AAs?$AAi?$AAt?$AAi?$AAo?$AAn?$AAa?$AAl?$AA_?$AAp@ 0000000180113810     libucrtd:output.obj
 0002:0000d9a0       ??_C@_1BFK@KNCMELHH@?$AA_?$AA_?$AAc?$AAr?$AAt?$AA_?$AAs?$AAt?$AAd?$AAi?$AAo?$AA_?$AAo?$AAu?$AAt?$AAp?$AAu?$AAt?$AA?3?$AA?3?$AAp?$AAo?$AAs?$AAi?$AAt?$AAi?$AAo?$AAn?$AAa?$AAl?$AA_?$AAp@ 00000001801139a0     libucrtd:output.obj
 0002:0000db40       ??_C@_1EK@PNGFDECN@?$AA?$CI?$AA?$CC?$AA?8?$AAn?$AA?8?$AA?5?$AAf?$AAo?$AAr?$AAm?$AAa?$AAt?$AA?5?$AAs?$AAp?$AAe?$AAc?$AAi?$AAf?$AAi?$AAe?$AAr?$AA?5?$AAd?$AAi?$AAs?$AAa?$AAb?$AAl?$AAe?$AAd?$AA?$CC@ 0000000180113b40     libucrtd:output.obj
 0002:0000dba0       ??_C@_1BKI@NDKBCDGP@?$AA_?$AA_?$AAc?$AAr?$AAt?$AA_?$AAs?$AAt?$AAd?$AAi?$AAo?$AA_?$AAo?$AAu?$AAt?$AAp?$AAu?$AAt?$AA?3?$AA?3?$AAo?$AAu?$AAt?$AAp?$AAu?$AAt?$AA_?$AAp?$AAr?$AAo?$AAc?$AAe@ 0000000180113ba0     libucrtd:output.obj
 0002:0000dda0       ??_C@_1EO@GHKFGFKL@?$AA?$CI?$AA?$CC?$AAI?$AAn?$AAv?$AAa?$AAl?$AAi?$AAd?$AA?5?$AAi?$AAn?$AAt?$AAe?$AAg?$AAe?$AAr?$AA?5?$AAl?$AAe?$AAn?$AAg?$AAt?$AAh?$AA?5?$AAm?$AAo?$AAd?$AAi?$AAf?$AAi?$AAe@ 0000000180113da0     libucrtd:output.obj
 0002:0000de00       ??_C@_1BMA@PGOJAHFP@?$AA_?$AA_?$AAc?$AAr?$AAt?$AA_?$AAs?$AAt?$AAd?$AAi?$AAo?$AA_?$AAo?$AAu?$AAt?$AAp?$AAu?$AAt?$AA?3?$AA?3?$AAo?$AAu?$AAt?$AAp?$AAu?$AAt?$AA_?$AAp?$AAr?$AAo?$AAc?$AAe@ 0000000180113e00     libucrtd:output.obj
 0002:0000e020       ??_C@_1BLK@BGFMMAPO@?$AA_?$AA_?$AAc?$AAr?$AAt?$AA_?$AAs?$AAt?$AAd?$AAi?$AAo?$AA_?$AAo?$AAu?$AAt?$AAp?$AAu?$AAt?$AA?3?$AA?3?$AAo?$AAu?$AAt?$AAp?$AAu?$AAt?$AA_?$AAp?$AAr?$AAo?$AAc?$AAe@ 0000000180114020     libucrtd:output.obj
 0002:0000e240       ??_C@_1BNC@DONELHFF@?$AA_?$AA_?$AAc?$AAr?$AAt?$AA_?$AAs?$AAt?$AAd?$AAi?$AAo?$AA_?$AAo?$AAu?$AAt?$AAp?$AAu?$AAt?$AA?3?$AA?3?$AAo?$AAu?$AAt?$AAp?$AAu?$AAt?$AA_?$AAp?$AAr?$AAo?$AAc?$AAe@ 0000000180114240     libucrtd:output.obj
 0002:0000e470       ??_C@_1BMA@GACGPGHN@?$AA_?$AA_?$AAc?$AAr?$AAt?$AA_?$AAs?$AAt?$AAd?$AAi?$AAo?$AA_?$AAo?$AAu?$AAt?$AAp?$AAu?$AAt?$AA?3?$AA?3?$AAo?$AAu?$AAt?$AAp?$AAu?$AAt?$AA_?$AAp?$AAr?$AAo?$AAc?$AAe@ 0000000180114470     libucrtd:output.obj
 0002:0000e690       ??_C@_1IC@KGDNLBNC@?$AAw?$AAi?$AAd?$AAt?$AAh?$AA_?$AAi?$AAn?$AAd?$AAe?$AAx?$AA?5?$AA?$DO?$AA?$DN?$AA?5?$AA0?$AA?5?$AA?$CG?$AA?$CG?$AA?5?$AA?$CK?$AAe?$AAn?$AAd?$AA_?$AAp?$AAo?$AAi?$AAn?$AAt?$AAe?$AAr@ 0000000180114690     libucrtd:output.obj
 0002:0000e730       ??_C@_1PO@LKIIANED@?$AA_?$AA_?$AAc?$AAr?$AAt?$AA_?$AAs?$AAt?$AAd?$AAi?$AAo?$AA_?$AAo?$AAu?$AAt?$AAp?$AAu?$AAt?$AA?3?$AA?3?$AAp?$AAo?$AAs?$AAi?$AAt?$AAi?$AAo?$AAn?$AAa?$AAl?$AA_?$AAp@ 0000000180114730     libucrtd:output.obj
 0002:0000e860       ??_C@_1JC@PMCLKCOC@?$AAp?$AAr?$AAe?$AAc?$AAi?$AAs?$AAi?$AAo?$AAn?$AA_?$AAi?$AAn?$AAd?$AAe?$AAx?$AA?5?$AA?$DO?$AA?$DN?$AA?5?$AA0?$AA?5?$AA?$CG?$AA?$CG?$AA?5?$AA?$CK?$AAe?$AAn?$AAd?$AA_?$AAp?$AAo?$AAi@ 0000000180114860     libucrtd:output.obj
 0002:0000e910       ??_C@_1PK@KBJECIEM@?$AA_?$AA_?$AAc?$AAr?$AAt?$AA_?$AAs?$AAt?$AAd?$AAi?$AAo?$AA_?$AAo?$AAu?$AAt?$AAp?$AAu?$AAt?$AA?3?$AA?3?$AAp?$AAo?$AAs?$AAi?$AAt?$AAi?$AAo?$AAn?$AAa?$AAl?$AA_?$AAp@ 0000000180114910     libucrtd:output.obj
 0002:0000ea40       ??_C@_1BNI@IMOCDBNE@?$AA_?$AA_?$AAc?$AAr?$AAt?$AA_?$AAs?$AAt?$AAd?$AAi?$AAo?$AA_?$AAo?$AAu?$AAt?$AAp?$AAu?$AAt?$AA?3?$AA?3?$AAo?$AAu?$AAt?$AAp?$AAu?$AAt?$AA_?$AAp?$AAr?$AAo?$AAc?$AAe@ 0000000180114a40     libucrtd:output.obj
 0002:0000ec80       ??_C@_1BAK@DALINHHB@?$AA_?$AA_?$AAc?$AAr?$AAt?$AA_?$AAs?$AAt?$AAd?$AAi?$AAo?$AA_?$AAo?$AAu?$AAt?$AAp?$AAu?$AAt?$AA?3?$AA?3?$AAp?$AAo?$AAs?$AAi?$AAt?$AAi?$AAo?$AAn?$AAa?$AAl?$AA_?$AAp@ 0000000180114c80     libucrtd:output.obj
 0002:0000edc0       ??_C@_1BAG@DOFNHDMF@?$AA_?$AA_?$AAc?$AAr?$AAt?$AA_?$AAs?$AAt?$AAd?$AAi?$AAo?$AA_?$AAo?$AAu?$AAt?$AAp?$AAu?$AAt?$AA?3?$AA?3?$AAp?$AAo?$AAs?$AAi?$AAt?$AAi?$AAo?$AAn?$AAa?$AAl?$AA_?$AAp@ 0000000180114dc0     libucrtd:output.obj
 0002:0000ef00       ??_C@_1BKI@CJEIGDAI@?$AA_?$AA_?$AAc?$AAr?$AAt?$AA_?$AAs?$AAt?$AAd?$AAi?$AAo?$AA_?$AAo?$AAu?$AAt?$AAp?$AAu?$AAt?$AA?3?$AA?3?$AAo?$AAu?$AAt?$AAp?$AAu?$AAt?$AA_?$AAp?$AAr?$AAo?$AAc?$AAe@ 0000000180114f00     libucrtd:output.obj
 0002:0000f100       ??_C@_1BMA@IHIBOLMD@?$AA_?$AA_?$AAc?$AAr?$AAt?$AA_?$AAs?$AAt?$AAd?$AAi?$AAo?$AA_?$AAo?$AAu?$AAt?$AAp?$AAu?$AAt?$AA?3?$AA?3?$AAo?$AAu?$AAt?$AAp?$AAu?$AAt?$AA_?$AAp?$AAr?$AAo?$AAc?$AAe@ 0000000180115100     libucrtd:output.obj
 0002:0000f320       ??_C@_1BMA@CBPCAOAB@?$AA_?$AA_?$AAc?$AAr?$AAt?$AA_?$AAs?$AAt?$AAd?$AAi?$AAo?$AA_?$AAo?$AAu?$AAt?$AAp?$AAu?$AAt?$AA?3?$AA?3?$AAo?$AAu?$AAt?$AAp?$AAu?$AAt?$AA_?$AAp?$AAr?$AAo?$AAc?$AAe@ 0000000180115320     libucrtd:output.obj
 0002:0000f540       ??_C@_1PO@PODEJAGE@?$AA_?$AA_?$AAc?$AAr?$AAt?$AA_?$AAs?$AAt?$AAd?$AAi?$AAo?$AA_?$AAo?$AAu?$AAt?$AAp?$AAu?$AAt?$AA?3?$AA?3?$AAp?$AAo?$AAs?$AAi?$AAt?$AAi?$AAo?$AAn?$AAa?$AAl?$AA_?$AAp@ 0000000180115540     libucrtd:output.obj
 0002:0000f670       ??_C@_1PK@KBJLALII@?$AA_?$AA_?$AAc?$AAr?$AAt?$AA_?$AAs?$AAt?$AAd?$AAi?$AAo?$AA_?$AAo?$AAu?$AAt?$AAp?$AAu?$AAt?$AA?3?$AA?3?$AAp?$AAo?$AAs?$AAi?$AAt?$AAi?$AAo?$AAn?$AAa?$AAl?$AA_?$AAp@ 0000000180115670     libucrtd:output.obj
 0002:0000f7a0       ??_C@_1BDG@KOLEFKPF@?$AA_?$AA_?$AAc?$AAr?$AAt?$AA_?$AAs?$AAt?$AAd?$AAi?$AAo?$AA_?$AAo?$AAu?$AAt?$AAp?$AAu?$AAt?$AA?3?$AA?3?$AAf?$AAo?$AAr?$AAm?$AAa?$AAt?$AA_?$AAv?$AAa?$AAl?$AAi?$AAd@ 00000001801157a0     libucrtd:output.obj
 0002:0000f920       ??_C@_1BNI@OPBGCNOB@?$AA_?$AA_?$AAc?$AAr?$AAt?$AA_?$AAs?$AAt?$AAd?$AAi?$AAo?$AA_?$AAo?$AAu?$AAt?$AAp?$AAu?$AAt?$AA?3?$AA?3?$AAo?$AAu?$AAt?$AAp?$AAu?$AAt?$AA_?$AAp?$AAr?$AAo?$AAc?$AAe@ 0000000180115920     libucrtd:output.obj
 0002:0000fb60       ??_C@_1BAK@CDLANFGA@?$AA_?$AA_?$AAc?$AAr?$AAt?$AA_?$AAs?$AAt?$AAd?$AAi?$AAo?$AA_?$AAo?$AAu?$AAt?$AAp?$AAu?$AAt?$AA?3?$AA?3?$AAp?$AAo?$AAs?$AAi?$AAt?$AAi?$AAo?$AAn?$AAa?$AAl?$AA_?$AAp@ 0000000180115b60     libucrtd:output.obj
 0002:0000fca0       ??_C@_1BAG@GKCGGKOF@?$AA_?$AA_?$AAc?$AAr?$AAt?$AA_?$AAs?$AAt?$AAd?$AAi?$AAo?$AA_?$AAo?$AAu?$AAt?$AAp?$AAu?$AAt?$AA?3?$AA?3?$AAp?$AAo?$AAs?$AAi?$AAt?$AAi?$AAo?$AAn?$AAa?$AAl?$AA_?$AAp@ 0000000180115ca0     libucrtd:output.obj
 0002:0000fde0       ??_C@_1BEC@NDOOKIMC@?$AA_?$AA_?$AAc?$AAr?$AAt?$AA_?$AAs?$AAt?$AAd?$AAi?$AAo?$AA_?$AAo?$AAu?$AAt?$AAp?$AAu?$AAt?$AA?3?$AA?3?$AAf?$AAo?$AAr?$AAm?$AAa?$AAt?$AA_?$AAv?$AAa?$AAl?$AAi?$AAd@ 0000000180115de0     libucrtd:output.obj
 0002:0000ff68       ??_C@_1CK@LGDCECDH@?$AA_?$AAf?$AAo?$AAr?$AAm?$AAa?$AAt?$AA_?$AAc?$AAh?$AAa?$AAr?$AA?5?$AA?$CB?$AA?$DN?$AA?5?$AA?8?$AA?2?$AA0?$AA?8?$AA?$AA@ 0000000180115f68     libucrtd:output.obj
 0002:0000ffa0       ??_C@_1BMA@MEBEEDJE@?$AA_?$AA_?$AAc?$AAr?$AAt?$AA_?$AAs?$AAt?$AAd?$AAi?$AAo?$AA_?$AAo?$AAu?$AAt?$AAp?$AAu?$AAt?$AA?3?$AA?3?$AAo?$AAu?$AAt?$AAp?$AAu?$AAt?$AA_?$AAp?$AAr?$AAo?$AAc?$AAe@ 0000000180115fa0     libucrtd:output.obj
 0002:000101c0       ??_C@_1BLE@MHLEAOID@?$AA_?$AA_?$AAc?$AAr?$AAt?$AA_?$AAs?$AAt?$AAd?$AAi?$AAo?$AA_?$AAo?$AAu?$AAt?$AAp?$AAu?$AAt?$AA?3?$AA?3?$AAo?$AAu?$AAt?$AAp?$AAu?$AAt?$AA_?$AAp?$AAr?$AAo?$AAc?$AAe@ 00000001801161c0     libucrtd:output.obj
 0002:000103cc       ??_C@_06OJHGLDPL@?$CInull?$CJ?$AA@ 00000001801163cc     libucrtd:output.obj
 0002:000103d8       ??_C@_1O@CEDCILHN@?$AA?$CI?$AAn?$AAu?$AAl?$AAl?$AA?$CJ?$AA?$AA@ 00000001801163d8     libucrtd:output.obj
 0002:000103f0       ??_C@_1BMM@KANDEEGK@?$AA_?$AA_?$AAc?$AAr?$AAt?$AA_?$AAs?$AAt?$AAd?$AAi?$AAo?$AA_?$AAo?$AAu?$AAt?$AAp?$AAu?$AAt?$AA?3?$AA?3?$AAo?$AAu?$AAt?$AAp?$AAu?$AAt?$AA_?$AAp?$AAr?$AAo?$AAc?$AAe@ 00000001801163f0     libucrtd:output.obj
 0002:00010620       ??_C@_1BNC@BAMNIOCM@?$AA_?$AA_?$AAc?$AAr?$AAt?$AA_?$AAs?$AAt?$AAd?$AAi?$AAo?$AA_?$AAo?$AAu?$AAt?$AAp?$AAu?$AAt?$AA?3?$AA?3?$AAo?$AAu?$AAt?$AAp?$AAu?$AAt?$AA_?$AAp?$AAr?$AAo?$AAc?$AAe@ 0000000180116620     libucrtd:output.obj
 0002:00010850       ??_C@_1BMG@JJPLEEHI@?$AA_?$AA_?$AAc?$AAr?$AAt?$AA_?$AAs?$AAt?$AAd?$AAi?$AAo?$AA_?$AAo?$AAu?$AAt?$AAp?$AAu?$AAt?$AA?3?$AA?3?$AAo?$AAu?$AAt?$AAp?$AAu?$AAt?$AA_?$AAp?$AAr?$AAo?$AAc?$AAe@ 0000000180116850     libucrtd:output.obj
 0002:00010a70       ??_C@_1BNO@ILHNHKFA@?$AA_?$AA_?$AAc?$AAr?$AAt?$AA_?$AAs?$AAt?$AAd?$AAi?$AAo?$AA_?$AAo?$AAu?$AAt?$AAp?$AAu?$AAt?$AA?3?$AA?3?$AAo?$AAu?$AAt?$AAp?$AAu?$AAt?$AA_?$AAp?$AAr?$AAo?$AAc?$AAe@ 0000000180116a70     libucrtd:output.obj
 0002:00010cb0       ??_C@_1BNI@EJPCEBAG@?$AA_?$AA_?$AAc?$AAr?$AAt?$AA_?$AAs?$AAt?$AAd?$AAi?$AAo?$AA_?$AAo?$AAu?$AAt?$AAp?$AAu?$AAt?$AA?3?$AA?3?$AAo?$AAu?$AAt?$AAp?$AAu?$AAt?$AA_?$AAp?$AAr?$AAo?$AAc?$AAe@ 0000000180116cb0     libucrtd:output.obj
 0002:00010ef0       ??_C@_1BMM@CMKPNHDJ@?$AA_?$AA_?$AAc?$AAr?$AAt?$AA_?$AAs?$AAt?$AAd?$AAi?$AAo?$AA_?$AAo?$AAu?$AAt?$AAp?$AAu?$AAt?$AA?3?$AA?3?$AAo?$AAu?$AAt?$AAp?$AAu?$AAt?$AA_?$AAp?$AAr?$AAo?$AAc?$AAe@ 0000000180116ef0     libucrtd:output.obj
 0002:00011120       ??_C@_1FE@IAFJEKN@?$AA_?$AAt?$AAy?$AAp?$AAe?$AA_?$AAi?$AAn?$AAd?$AAe?$AAx?$AA?5?$AA?$DO?$AA?$DN?$AA?5?$AA0?$AA?5?$AA?$CG?$AA?$CG?$AA?5?$AA_?$AAt?$AAy?$AAp?$AAe?$AA_?$AAi?$AAn?$AAd?$AAe?$AAx?$AA?5@ 0000000180117120     libucrtd:output.obj
 0002:00011190       ??_C@_1BBG@JLLDGFML@?$AA_?$AA_?$AAc?$AAr?$AAt?$AA_?$AAs?$AAt?$AAd?$AAi?$AAo?$AA_?$AAo?$AAu?$AAt?$AAp?$AAu?$AAt?$AA?3?$AA?3?$AAp?$AAo?$AAs?$AAi?$AAt?$AAi?$AAo?$AAn?$AAa?$AAl?$AA_?$AAp@ 0000000180117190     libucrtd:output.obj
 0002:000112e0       ??_C@_1LO@HECDHMMI@?$AAi?$AAs?$AA_?$AAp?$AAo?$AAs?$AAi?$AAt?$AAi?$AAo?$AAn?$AAa?$AAl?$AA_?$AAp?$AAa?$AAr?$AAa?$AAm?$AAe?$AAt?$AAe?$AAr?$AA_?$AAr?$AAe?$AAa?$AAp?$AAp?$AAe?$AAa?$AAr@ 00000001801172e0     libucrtd:output.obj
 0002:000113d0       ??_C@_1BBM@LLHBCDAF@?$AA_?$AA_?$AAc?$AAr?$AAt?$AA_?$AAs?$AAt?$AAd?$AAi?$AAo?$AA_?$AAo?$AAu?$AAt?$AAp?$AAu?$AAt?$AA?3?$AA?3?$AAp?$AAo?$AAs?$AAi?$AAt?$AAi?$AAo?$AAn?$AAa?$AAl?$AA_?$AAp@ 00000001801173d0     libucrtd:output.obj
 0002:00011530       ??_C@_1BOE@OMDELMGH@?$AA_?$AA_?$AAc?$AAr?$AAt?$AA_?$AAs?$AAt?$AAd?$AAi?$AAo?$AA_?$AAo?$AAu?$AAt?$AAp?$AAu?$AAt?$AA?3?$AA?3?$AAo?$AAu?$AAt?$AAp?$AAu?$AAt?$AA_?$AAp?$AAr?$AAo?$AAc?$AAe@ 0000000180117530     libucrtd:output.obj
 0002:00011780       ??_C@_1BCC@PDNLFIHK@?$AA_?$AA_?$AAc?$AAr?$AAt?$AA_?$AAs?$AAt?$AAd?$AAi?$AAo?$AA_?$AAo?$AAu?$AAt?$AAp?$AAu?$AAt?$AA?3?$AA?3?$AAp?$AAo?$AAs?$AAi?$AAt?$AAi?$AAo?$AAn?$AAa?$AAl?$AA_?$AAp@ 0000000180117780     libucrtd:output.obj
 0002:000118e0       ??_C@_1BCI@ILAANKJG@?$AA_?$AA_?$AAc?$AAr?$AAt?$AA_?$AAs?$AAt?$AAd?$AAi?$AAo?$AA_?$AAo?$AAu?$AAt?$AAp?$AAu?$AAt?$AA?3?$AA?3?$AAp?$AAo?$AAs?$AAi?$AAt?$AAi?$AAo?$AAn?$AAa?$AAl?$AA_?$AAp@ 00000001801178e0     libucrtd:output.obj
 0002:00011a50       ??_C@_1BMA@FANDDEHK@?$AA_?$AA_?$AAc?$AAr?$AAt?$AA_?$AAs?$AAt?$AAd?$AAi?$AAo?$AA_?$AAo?$AAu?$AAt?$AAp?$AAu?$AAt?$AA?3?$AA?3?$AAo?$AAu?$AAt?$AAp?$AAu?$AAt?$AA_?$AAp?$AAr?$AAo?$AAc?$AAe@ 0000000180117a50     libucrtd:output.obj
 0002:00011c70       ??_C@_1BLE@IFBJPNFE@?$AA_?$AA_?$AAc?$AAr?$AAt?$AA_?$AAs?$AAt?$AAd?$AAi?$AAo?$AA_?$AAo?$AAu?$AAt?$AAp?$AAu?$AAt?$AA?3?$AA?3?$AAo?$AAu?$AAt?$AAp?$AAu?$AAt?$AA_?$AAp?$AAr?$AAo?$AAc?$AAe@ 0000000180117c70     libucrtd:output.obj
 0002:00011e80       ??_C@_1BMM@MBMBCJIF@?$AA_?$AA_?$AAc?$AAr?$AAt?$AA_?$AAs?$AAt?$AAd?$AAi?$AAo?$AA_?$AAo?$AAu?$AAt?$AAp?$AAu?$AAt?$AA?3?$AA?3?$AAo?$AAu?$AAt?$AAp?$AAu?$AAt?$AA_?$AAp?$AAr?$AAo?$AAc?$AAe@ 0000000180117e80     libucrtd:output.obj
 0002:000120b0       ??_C@_1BNI@EDCGAPJB@?$AA_?$AA_?$AAc?$AAr?$AAt?$AA_?$AAs?$AAt?$AAd?$AAi?$AAo?$AA_?$AAo?$AAu?$AAt?$AAp?$AAu?$AAt?$AA?3?$AA?3?$AAo?$AAu?$AAt?$AAp?$AAu?$AAt?$AA_?$AAp?$AAr?$AAo?$AAc?$AAe@ 00000001801180b0     libucrtd:output.obj
 0002:000122f0       ??_C@_1BMM@KBPMKFBC@?$AA_?$AA_?$AAc?$AAr?$AAt?$AA_?$AAs?$AAt?$AAd?$AAi?$AAo?$AA_?$AAo?$AAu?$AAt?$AAp?$AAu?$AAt?$AA?3?$AA?3?$AAo?$AAu?$AAt?$AAp?$AAu?$AAt?$AA_?$AAp?$AAr?$AAo?$AAc?$AAe@ 00000001801182f0     libucrtd:output.obj
 0002:00012520       ??_C@_1BBG@KIHCHFIM@?$AA_?$AA_?$AAc?$AAr?$AAt?$AA_?$AAs?$AAt?$AAd?$AAi?$AAo?$AA_?$AAo?$AAu?$AAt?$AAp?$AAu?$AAt?$AA?3?$AA?3?$AAp?$AAo?$AAs?$AAi?$AAt?$AAi?$AAo?$AAn?$AAa?$AAl?$AA_?$AAp@ 0000000180118520     libucrtd:output.obj
 0002:00012670       ??_C@_1BBM@CBBAFMPJ@?$AA_?$AA_?$AAc?$AAr?$AAt?$AA_?$AAs?$AAt?$AAd?$AAi?$AAo?$AA_?$AAo?$AAu?$AAt?$AAp?$AAu?$AAt?$AA?3?$AA?3?$AAp?$AAo?$AAs?$AAi?$AAt?$AAi?$AAo?$AAn?$AAa?$AAl?$AA_?$AAp@ 0000000180118670     libucrtd:output.obj
 0002:000127d0       ??_C@_1BOE@LIBLDKPN@?$AA_?$AA_?$AAc?$AAr?$AAt?$AA_?$AAs?$AAt?$AAd?$AAi?$AAo?$AA_?$AAo?$AAu?$AAt?$AAp?$AAu?$AAt?$AA?3?$AA?3?$AAo?$AAu?$AAt?$AAp?$AAu?$AAt?$AA_?$AAp?$AAr?$AAo?$AAc?$AAe@ 00000001801187d0     libucrtd:output.obj
 0002:00012a20       ??_C@_1BCC@GJLKCHIG@?$AA_?$AA_?$AAc?$AAr?$AAt?$AA_?$AAs?$AAt?$AAd?$AAi?$AAo?$AA_?$AAo?$AAu?$AAt?$AAp?$AAu?$AAt?$AA?3?$AA?3?$AAp?$AAo?$AAs?$AAi?$AAt?$AAi?$AAo?$AAn?$AAa?$AAl?$AA_?$AAp@ 0000000180118a20     libucrtd:output.obj
 0002:00012b80       ??_C@_1BCI@OBMMNJKK@?$AA_?$AA_?$AAc?$AAr?$AAt?$AA_?$AAs?$AAt?$AAd?$AAi?$AAo?$AA_?$AAo?$AAu?$AAt?$AAp?$AAu?$AAt?$AA?3?$AA?3?$AAp?$AAo?$AAs?$AAi?$AAt?$AAi?$AAo?$AAn?$AAa?$AAl?$AA_?$AAp@ 0000000180118b80     libucrtd:output.obj
 0002:00012ce8       ??_C@_0DI@KIFBHMNO@minkernel?2crts?2ucrt?2inc?2corecrt_@ 0000000180118ce8     libucrtd:output.obj
 0002:00012d30       ??_C@_1BBE@FLKADCDA@?$AA_?$AA_?$AAc?$AAr?$AAt?$AA_?$AAs?$AAt?$AAd?$AAi?$AAo?$AA_?$AAo?$AAu?$AAt?$AAp?$AAu?$AAt?$AA?3?$AA?3?$AAp?$AAo?$AAs?$AAi?$AAt?$AAi?$AAo?$AAn?$AAa?$AAl?$AA_?$AAp@ 0000000180118d30     libucrtd:output.obj
 0002:00012e80       ??_C@_1BCA@FCGNBIN@?$AA_?$AA_?$AAc?$AAr?$AAt?$AA_?$AAs?$AAt?$AAd?$AAi?$AAo?$AA_?$AAo?$AAu?$AAt?$AAp?$AAu?$AAt?$AA?3?$AA?3?$AAp?$AAo?$AAs?$AAi?$AAt?$AAi?$AAo?$AAn?$AAa?$AAl?$AA_?$AAp@ 0000000180118e80     libucrtd:output.obj
 0002:00012fe0       ??_C@_1BBE@IBPNPIIM@?$AA_?$AA_?$AAc?$AAr?$AAt?$AA_?$AAs?$AAt?$AAd?$AAi?$AAo?$AA_?$AAo?$AAu?$AAt?$AAp?$AAu?$AAt?$AA?3?$AA?3?$AAp?$AAo?$AAs?$AAi?$AAt?$AAi?$AAo?$AAn?$AAa?$AAl?$AA_?$AAp@ 0000000180118fe0     libucrtd:output.obj
 0002:00013130       ??_C@_1BCA@HCPCJFGA@?$AA_?$AA_?$AAc?$AAr?$AAt?$AA_?$AAs?$AAt?$AAd?$AAi?$AAo?$AA_?$AAo?$AAu?$AAt?$AAp?$AAu?$AAt?$AA?3?$AA?3?$AAp?$AAo?$AAs?$AAi?$AAt?$AAi?$AAo?$AAn?$AAa?$AAl?$AA_?$AAp@ 0000000180119130     libucrtd:output.obj
 0002:00013290       ??_C@_1BLC@INKIGOCN@?$AA_?$AA_?$AAc?$AAr?$AAt?$AA_?$AAs?$AAt?$AAd?$AAi?$AAo?$AA_?$AAo?$AAu?$AAt?$AAp?$AAu?$AAt?$AA?3?$AA?3?$AAo?$AAu?$AAt?$AAp?$AAu?$AAt?$AA_?$AAp?$AAr?$AAo?$AAc?$AAe@ 0000000180119290     libucrtd:output.obj
 0002:000134a0       ??_C@_1BMK@JGIBNIA@?$AA_?$AA_?$AAc?$AAr?$AAt?$AA_?$AAs?$AAt?$AAd?$AAi?$AAo?$AA_?$AAo?$AAu?$AAt?$AAp?$AAu?$AAt?$AA?3?$AA?3?$AAo?$AAu?$AAt?$AAp?$AAu?$AAt?$AA_?$AAp?$AAr?$AAo?$AAc?$AAe@ 00000001801194a0     libucrtd:output.obj
 0002:000136d0       ??_C@_1BMG@CGPDIFDK@?$AA_?$AA_?$AAc?$AAr?$AAt?$AA_?$AAs?$AAt?$AAd?$AAi?$AAo?$AA_?$AAo?$AAu?$AAt?$AAp?$AAu?$AAt?$AA?3?$AA?3?$AAo?$AAu?$AAt?$AAp?$AAu?$AAt?$AA_?$AAp?$AAr?$AAo?$AAc?$AAe@ 00000001801196d0     libucrtd:output.obj
 0002:000138f0       ??_C@_1BMC@FAGJFBLI@?$AA_?$AA_?$AAc?$AAr?$AAt?$AA_?$AAs?$AAt?$AAd?$AAi?$AAo?$AA_?$AAo?$AAu?$AAt?$AAp?$AAu?$AAt?$AA?3?$AA?3?$AAo?$AAu?$AAt?$AAp?$AAu?$AAt?$AA_?$AAp?$AAr?$AAo?$AAc?$AAe@ 00000001801198f0     libucrtd:output.obj
 0002:00013b10       ??_C@_1BNO@OHFFMOOJ@?$AA_?$AA_?$AAc?$AAr?$AAt?$AA_?$AAs?$AAt?$AAd?$AAi?$AAo?$AA_?$AAo?$AAu?$AAt?$AAp?$AAu?$AAt?$AA?3?$AA?3?$AAo?$AAu?$AAt?$AAp?$AAu?$AAt?$AA_?$AAp?$AAr?$AAo?$AAc?$AAe@ 0000000180119b10     libucrtd:output.obj
 0002:00013d50       ??_C@_1BNK@KHNJGCCP@?$AA_?$AA_?$AAc?$AAr?$AAt?$AA_?$AAs?$AAt?$AAd?$AAi?$AAo?$AA_?$AAo?$AAu?$AAt?$AAp?$AAu?$AAt?$AA?3?$AA?3?$AAo?$AAu?$AAt?$AAp?$AAu?$AAt?$AA_?$AAp?$AAr?$AAo?$AAc?$AAe@ 0000000180119d50     libucrtd:output.obj
 0002:00013f90       ??_C@_1BLK@FOLFMPJH@?$AA_?$AA_?$AAc?$AAr?$AAt?$AA_?$AAs?$AAt?$AAd?$AAi?$AAo?$AA_?$AAo?$AAu?$AAt?$AAp?$AAu?$AAt?$AA?3?$AA?3?$AAo?$AAu?$AAt?$AAp?$AAu?$AAt?$AA_?$AAp?$AAr?$AAo?$AAc?$AAe@ 0000000180119f90     libucrtd:output.obj
 0002:000141b0       ??_C@_1BNC@OHPDPPJK@?$AA_?$AA_?$AAc?$AAr?$AAt?$AA_?$AAs?$AAt?$AAd?$AAi?$AAo?$AA_?$AAo?$AAu?$AAt?$AAp?$AAu?$AAt?$AA?3?$AA?3?$AAo?$AAu?$AAt?$AAp?$AAu?$AAt?$AA_?$AAp?$AAr?$AAo?$AAc?$AAe@ 000000018011a1b0     libucrtd:output.obj
 0002:000143e0       ??_C@_1BNC@JPKLPOHO@?$AA_?$AA_?$AAc?$AAr?$AAt?$AA_?$AAs?$AAt?$AAd?$AAi?$AAo?$AA_?$AAo?$AAu?$AAt?$AAp?$AAu?$AAt?$AA?3?$AA?3?$AAo?$AAu?$AAt?$AAp?$AAu?$AAt?$AA_?$AAp?$AAr?$AAo?$AAc?$AAe@ 000000018011a3e0     libucrtd:output.obj
 0002:00014610       ??_C@_1BMG@BBEFGBID@?$AA_?$AA_?$AAc?$AAr?$AAt?$AA_?$AAs?$AAt?$AAd?$AAi?$AAo?$AA_?$AAo?$AAu?$AAt?$AAp?$AAu?$AAt?$AA?3?$AA?3?$AAo?$AAu?$AAt?$AAp?$AAu?$AAt?$AA_?$AAp?$AAr?$AAo?$AAc?$AAe@ 000000018011a610     libucrtd:output.obj
 0002:00014830       ??_C@_1BNO@NAODCKFA@?$AA_?$AA_?$AAc?$AAr?$AAt?$AA_?$AAs?$AAt?$AAd?$AAi?$AAo?$AA_?$AAo?$AAu?$AAt?$AAp?$AAu?$AAt?$AA?3?$AA?3?$AAo?$AAu?$AAt?$AAp?$AAu?$AAt?$AA_?$AAp?$AAr?$AAo?$AAc?$AAe@ 000000018011a830     libucrtd:output.obj
 0002:000157a0       __real@3f1a36e2eb1c432d    000000018011b7a0     libucrtd:atan2f.obj
 0002:000157b0       __real@3fb0000000000000    000000018011b7b0     libucrtd:atan2f.obj
 0002:000157c0       __real@3fc2492482bd6be1    000000018011b7c0     libucrtd:atan2f.obj
 0002:000157d0       __real@3fc99999999643a3    000000018011b7d0     libucrtd:atan2f.obj
 0002:000157e0       __real@3fd5555555550877    000000018011b7e0     libucrtd:atan2f.obj
 0002:000157f0       __real@3fd5555555555538    000000018011b7f0     libucrtd:atan2f.obj
 0002:00015800       __real@3fe0000000000000    000000018011b800     libucrtd:atan2f.obj
 0002:00015810       __real@4070000000000000    000000018011b810     libucrtd:atan2f.obj
 0002:0001581c       __real@80000000            000000018011b81c     libucrtd:atan2f.obj
 0002:00015840       ??_C@_1BA@GLMCNLEM@?$AAW?$AAa?$AAr?$AAn?$AAi?$AAn?$AAg?$AA?$AA@ 000000018011b840     libucrtd:dbgrpt.obj
 0002:00015858       ??_C@_1M@ILHOPKA@?$AAE?$AAr?$AAr?$AAo?$AAr?$AA?$AA@ 000000018011b858     libucrtd:dbgrpt.obj
 0002:00015868       ??_C@_1CC@CGHMNGDG@?$AAA?$AAs?$AAs?$AAe?$AAr?$AAt?$AAi?$AAo?$AAn?$AA?5?$AAF?$AAa?$AAi?$AAl?$AAe?$AAd?$AA?$AA@ 000000018011b868     libucrtd:dbgrpt.obj
 0002:000158a0       ??_C@_1OG@PMPPFHAF@?$AA?6?$AA?6?$AAF?$AAo?$AAr?$AA?5?$AAi?$AAn?$AAf?$AAo?$AAr?$AAm?$AAa?$AAt?$AAi?$AAo?$AAn?$AA?5?$AAo?$AAn?$AA?5?$AAh?$AAo?$AAw?$AA?5?$AAy?$AAo?$AAu?$AAr?$AA?5?$AAp?$AAr@ 000000018011b8a0     libucrtd:dbgrpt.obj
 0002:000159c0       ??_C@_1MG@LJLILFFD@?$AAD?$AAe?$AAb?$AAu?$AAg?$AA?5?$AA?$CF?$AAl?$AAs?$AA?$CB?$AA?6?$AA?6?$AAP?$AAr?$AAo?$AAg?$AAr?$AAa?$AAm?$AA?3?$AA?5?$AA?$CF?$AAh?$AAs?$AA?$CF?$AAl?$AAs?$AA?$CF?$AAl?$AAs?$AA?$CF?$AAh@ 000000018011b9c0     libucrtd:dbgrpt.obj
 0002:00015ab0       ??_C@_1MG@OODCADGL@?$AAD?$AAe?$AAb?$AAu?$AAg?$AA?5?$AA?$CF?$AAl?$AAs?$AA?$CB?$AA?6?$AA?6?$AAP?$AAr?$AAo?$AAg?$AAr?$AAa?$AAm?$AA?3?$AA?5?$AA?$CF?$AAl?$AAs?$AA?$CF?$AAl?$AAs?$AA?$CF?$AAl?$AAs?$AA?$CF?$AAl@ 000000018011bab0     libucrtd:dbgrpt.obj
 0002:00015ba0       ??_C@_0BH@DNAGHKFM@?$DMprogram?5name?5unknown?$DO?$AA@ 000000018011bba0     libucrtd:dbgrpt.obj
 0002:00015bc0       ??_C@_1CO@EAEJAADC@?$AA?$DM?$AAp?$AAr?$AAo?$AAg?$AAr?$AAa?$AAm?$AA?5?$AAn?$AAa?$AAm?$AAe?$AA?5?$AAu?$AAn?$AAk?$AAn?$AAo?$AAw?$AAn?$AA?$DO?$AA?$AA@ 000000018011bbc0     libucrtd:dbgrpt.obj
 0002:00015c00       ??_C@_1HI@OFEHGPPC@?$AAm?$AAo?$AAd?$AAe?$AA?5?$AA?$DN?$AA?$DN?$AA?5?$AA_?$AAC?$AAR?$AAT?$AA_?$AAR?$AAP?$AAT?$AAH?$AAO?$AAO?$AAK?$AA_?$AAI?$AAN?$AAS?$AAT?$AAA?$AAL?$AAL?$AA?5?$AA?$HM?$AA?$HM?$AA?5@ 000000018011bc00     libucrtd:dbgrpt.obj
 0002:00015c90       ??_C@_1FO@GMJDLAJD@?$AAm?$AAi?$AAn?$AAk?$AAe?$AAr?$AAn?$AAe?$AAl?$AA?2?$AAc?$AAr?$AAt?$AAs?$AA?2?$AAu?$AAc?$AAr?$AAt?$AA?2?$AAs?$AAr?$AAc?$AA?2?$AAa?$AAp?$AAp?$AAc?$AAr?$AAt?$AA?2?$AAm@ 000000018011bc90     libucrtd:dbgrpt.obj
 0002:00015d00       ??_C@_1CO@FFNKOJOG@?$AAc?$AAo?$AAm?$AAm?$AAo?$AAn?$AA_?$AAs?$AAe?$AAt?$AA_?$AAr?$AAe?$AAp?$AAo?$AAr?$AAt?$AA_?$AAh?$AAo?$AAo?$AAk?$AA?$AA@ 000000018011bd00     libucrtd:dbgrpt.obj
 0002:00015d38       ??_C@_1CI@ONEHFNHD@?$AAn?$AAe?$AAw?$AA_?$AAh?$AAo?$AAo?$AAk?$AA?5?$AA?$CB?$AA?$DN?$AA?5?$AAn?$AAu?$AAl?$AAl?$AAp?$AAt?$AAr?$AA?$AA@ 000000018011bd38     libucrtd:dbgrpt.obj
 0002:00015d68       ??_C@_1CM@EHMOGBJJ@?$AAc?$AAo?$AAm?$AAm?$AAo?$AAn?$AA_?$AAm?$AAe?$AAs?$AAs?$AAa?$AAg?$AAe?$AA_?$AAw?$AAi?$AAn?$AAd?$AAo?$AAw?$AA?$AA@ 000000018011bd68     libucrtd:dbgrpt.obj
 0002:00015da0       ??_C@_1PE@ECNALGCA@?$AAt?$AAr?$AAa?$AAi?$AAt?$AAs?$AA?3?$AA?3?$AAt?$AAc?$AAs?$AAc?$AAp?$AAy?$AA_?$AAs?$AA?$CI?$AAp?$AAr?$AAo?$AAg?$AAr?$AAa?$AAm?$AA_?$AAn?$AAa?$AAm?$AAe?$AA?0?$AA?5?$AA?$CI@ 000000018011bda0     libucrtd:dbgrpt.obj
 0002:00015ec8       ??_C@_1BK@PEDCIPMA@?$AAE?$AAx?$AAp?$AAr?$AAe?$AAs?$AAs?$AAi?$AAo?$AAn?$AA?3?$AA?5?$AA?$AA@ 000000018011bec8     libucrtd:dbgrpt.obj
 0002:00015ee8       ??_C@_15IABLJNFO@?$AA?6?$AA?6?$AA?$AA@ 000000018011bee8     libucrtd:dbgrpt.obj
 0002:00015ef0       ??_C@_1BA@GLLGCPCK@?$AA?6?$AAL?$AAi?$AAn?$AAe?$AA?3?$AA?5?$AA?$AA@ 000000018011bef0     libucrtd:dbgrpt.obj
 0002:00015f08       ??_C@_1BA@LNHECFIM@?$AA?6?$AAF?$AAi?$AAl?$AAe?$AA?3?$AA?5?$AA?$AA@ 000000018011bf08     libucrtd:dbgrpt.obj
 0002:00015f20       ??_C@_17LGKOMLJ@?$AA?4?$AA?4?$AA?4?$AA?$AA@ 000000018011bf20     libucrtd:dbgrpt.obj
 0002:00015f30       ??_C@_1BE@CGCJKGHI@?$AA?6?$AAM?$AAo?$AAd?$AAu?$AAl?$AAe?$AA?3?$AA?5?$AA?$AA@ 000000018011bf30     libucrtd:dbgrpt.obj
 0002:00015f48       ??_C@_1BI@KALLJECN@?$AA?$CI?$AA?$CK?$AA_?$AAe?$AAr?$AAr?$AAn?$AAo?$AA?$CI?$AA?$CJ?$AA?$CJ?$AA?$AA@ 000000018011bf48     libucrtd:dbgrpt.obj
 0002:00015f70       ??_C@_1JM@IBOIJEOO@?$AAw?$AAc?$AAs?$AAc?$AAp?$AAy?$AA_?$AAs?$AA?$CI?$AAm?$AAe?$AAs?$AAs?$AAa?$AAg?$AAe?$AA_?$AAb?$AAu?$AAf?$AAf?$AAe?$AAr?$AA?0?$AA?5?$AA4?$AA0?$AA9?$AA6?$AA?0?$AA?5?$AAL@ 000000018011bf70     libucrtd:dbgrpt.obj
 0002:00016030       ??_C@_1FG@BBOLDHGF@?$AA_?$AAC?$AAr?$AAt?$AAD?$AAb?$AAg?$AAR?$AAe?$AAp?$AAo?$AAr?$AAt?$AA?3?$AA?5?$AAS?$AAt?$AAr?$AAi?$AAn?$AAg?$AA?5?$AAt?$AAo?$AAo?$AA?5?$AAl?$AAo?$AAn?$AAg?$AA?5?$AAo@ 000000018011c030     libucrtd:dbgrpt.obj
 0002:000160a0       ??_C@_1EK@MBDPDCGA@?$AAM?$AAi?$AAc?$AAr?$AAo?$AAs?$AAo?$AAf?$AAt?$AA?5?$AAV?$AAi?$AAs?$AAu?$AAa?$AAl?$AA?5?$AAC?$AA?$CL?$AA?$CL?$AA?5?$AAR?$AAu?$AAn?$AAt?$AAi?$AAm?$AAe?$AA?5?$AAL?$AAi?$AAb@ 000000018011c0a0     libucrtd:dbgrpt.obj
 0002:00016100       ??_C@_1FK@BNNDOGMN@?$AA?$CI?$AA?$CC?$AAT?$AAh?$AAe?$AA?5?$AAh?$AAo?$AAo?$AAk?$AA?5?$AAf?$AAu?$AAn?$AAc?$AAt?$AAi?$AAo?$AAn?$AA?5?$AAi?$AAs?$AA?5?$AAn?$AAo?$AAt?$AA?5?$AAi?$AAn?$AA?5?$AAt?$AAh@ 000000018011c100     libucrtd:dbgrpt.obj
 0002:00016170       ??_C@_0CP@HDJNPEFB@minkernel?2crts?2ucrt?2src?2appcrt?2m@ 000000018011c170     libucrtd:dbgrpt.obj
 0002:000161a8       ??_C@_1CC@LLFJPCJO@?$AAn?$AAe?$AAw?$AA_?$AAh?$AAa?$AAn?$AAd?$AAl?$AAe?$AAr?$AA?5?$AA?$DN?$AA?$DN?$AA?5?$AA0?$AA?$AA@ 000000018011c1a8     libucrtd:new_handler.obj
 0002:000161d0       ??_C@_1GI@GALDAPMM@?$AAm?$AAi?$AAn?$AAk?$AAe?$AAr?$AAn?$AAe?$AAl?$AA?2?$AAc?$AAr?$AAt?$AAs?$AA?2?$AAu?$AAc?$AAr?$AAt?$AA?2?$AAs?$AAr?$AAc?$AA?2?$AAa?$AAp?$AAp?$AAc?$AAr?$AAt?$AA?2?$AAh@ 000000018011c1d0     libucrtd:new_handler.obj
 0002:00016280       ??_C@_04HJMOFLDF@Free?$AA@ 000000018011c280     libucrtd:debug_heap.obj
 0002:00016288       ??_C@_06EFAGIKOH@Normal?$AA@ 000000018011c288     libucrtd:debug_heap.obj
 0002:00016290       ??_C@_03OGPFLFLO@CRT?$AA@  000000018011c290     libucrtd:debug_heap.obj
 0002:00016294       ??_C@_06KMEJCCGM@Ignore?$AA@ 000000018011c294     libucrtd:debug_heap.obj
 0002:0001629c       ??_C@_06PJIGMIJB@Client?$AA@ 000000018011c29c     libucrtd:debug_heap.obj
 0002:000162a8       ??_C@_1CE@LJFEPPMP@?$AA_?$AAC?$AAr?$AAt?$AAC?$AAh?$AAe?$AAc?$AAk?$AAM?$AAe?$AAm?$AAo?$AAr?$AAy?$AA?$CI?$AA?$CJ?$AA?$AA@ 000000018011c2a8     libucrtd:debug_heap.obj
 0002:000162e0       ??_C@_1GG@OCLHPJPK@?$AAm?$AAi?$AAn?$AAk?$AAe?$AAr?$AAn?$AAe?$AAl?$AA?2?$AAc?$AAr?$AAt?$AAs?$AA?2?$AAu?$AAc?$AAr?$AAt?$AA?2?$AAs?$AAr?$AAc?$AA?2?$AAa?$AAp?$AAp?$AAc?$AAr?$AAt?$AA?2?$AAh@ 000000018011c2e0     libucrtd:debug_heap.obj
 0002:00016360       ??_C@_0DF@BBEGIFEK@Client?5hook?5allocation?5failure?5a@ 000000018011c360     libucrtd:debug_heap.obj
 0002:000163a0       ??_C@_0CB@CCLOLAHO@Client?5hook?5allocation?5failure?4?6@ 000000018011c3a0     libucrtd:debug_heap.obj
 0002:000163c8       ??_C@_02DKCKIIND@?$CFs?$AA@ 000000018011c3c8     libucrtd:debug_heap.obj
 0002:000163d0       ??_C@_0DC@JEMAGEKG@Error?3?5memory?5allocation?3?5bad?5me@ 000000018011c3d0     libucrtd:debug_heap.obj
 0002:00016410       ??_C@_0DI@KKJPDPGM@Client?5hook?5re?9allocation?5failur@ 000000018011c410     libucrtd:debug_heap.obj
 0002:00016458       ??_C@_0CE@DOFMDOL@Client?5hook?5re?9allocation?5failur@ 000000018011c458     libucrtd:debug_heap.obj
 0002:00016490       ??_C@_0FA@EFEIGJKG@Error?3?5memory?5allocation?3?5bad?5me@ 000000018011c490     libucrtd:debug_heap.obj
 0002:000164f0       ??_C@_0EM@LGFLMAGJ@The?5Block?5at?50x?$CFp?5was?5allocated?5@ 000000018011c4f0     libucrtd:debug_heap.obj
 0002:00016550       ??_C@_1DM@DEDLGNML@?$AA_?$AAC?$AAr?$AAt?$AAI?$AAs?$AAV?$AAa?$AAl?$AAi?$AAd?$AAH?$AAe?$AAa?$AAp?$AAP?$AAo?$AAi?$AAn?$AAt?$AAe?$AAr?$AA?$CI?$AAb?$AAl?$AAo?$AAc?$AAk?$AA?$CJ?$AA?$AA@ 000000018011c550     libucrtd:debug_heap.obj
 0002:000165a0       ??_C@_1PC@MCGKJLN@?$AAo?$AAl?$AAd?$AA_?$AAh?$AAe?$AAa?$AAd?$AA?9?$AA?$DO?$AA_?$AAl?$AAi?$AAn?$AAe?$AA_?$AAn?$AAu?$AAm?$AAb?$AAe?$AAr?$AA?5?$AA?$DN?$AA?$DN?$AA?5?$AAl?$AAi?$AAn?$AAe?$AA_?$AAn@ 000000018011c5a0     libucrtd:debug_heap.obj
 0002:000166c8       ??_C@_0DA@HFBKENN@Error?3?5possible?5heap?5corruption?5@ 000000018011c6c8     libucrtd:debug_heap.obj
 0002:00016710       ??_C@_1JM@MCMEPJEP@?$AAr?$AAe?$AAa?$AAl?$AAl?$AAo?$AAc?$AAa?$AAt?$AAi?$AAo?$AAn?$AA_?$AAi?$AAs?$AA_?$AAa?$AAl?$AAl?$AAo?$AAw?$AAe?$AAd?$AA?5?$AA?$HM?$AA?$HM?$AA?5?$AA?$CI?$AA?$CB?$AAr?$AAe?$AAa@ 000000018011c710     libucrtd:debug_heap.obj
 0002:000167d0       ??_C@_1DM@LNOPKAIJ@?$AA_?$AA_?$AAa?$AAc?$AAr?$AAt?$AA_?$AAl?$AAa?$AAs?$AAt?$AA_?$AAb?$AAl?$AAo?$AAc?$AAk?$AA?5?$AA?$DN?$AA?$DN?$AA?5?$AAo?$AAl?$AAd?$AA_?$AAh?$AAe?$AAa?$AAd?$AA?$AA@ 000000018011c7d0     libucrtd:debug_heap.obj
 0002:00016818       ??_C@_1DO@HABCJBHO@?$AA_?$AA_?$AAa?$AAc?$AAr?$AAt?$AA_?$AAf?$AAi?$AAr?$AAs?$AAt?$AA_?$AAb?$AAl?$AAo?$AAc?$AAk?$AA?5?$AA?$DN?$AA?$DN?$AA?5?$AAo?$AAl?$AAd?$AA_?$AAh?$AAe?$AAa?$AAd?$AA?$AA@ 000000018011c818     libucrtd:debug_heap.obj
 0002:00016868       ??_C@_1CC@CKEAHJPH@?$AAb?$AAl?$AAo?$AAc?$AAk?$AA?5?$AA?$CB?$AA?$DN?$AA?5?$AAn?$AAu?$AAl?$AAl?$AAp?$AAt?$AAr?$AA?$AA@ 000000018011c868     libucrtd:debug_heap.obj
 0002:00016890       ??_C@_1BI@HAPNGHDP@?$AA_?$AAe?$AAx?$AAp?$AAa?$AAn?$AAd?$AA_?$AAd?$AAb?$AAg?$AA?$AA@ 000000018011c890     libucrtd:debug_heap.obj
 0002:000168b0       ??_C@_0EJ@HEIBCIMJ@The?5Block?5at?50x?$CFp?5was?5allocated?5@ 000000018011c8b0     libucrtd:debug_heap.obj
 0002:00016908       ??_C@_0BL@KEIPLFAC@Client?5hook?5free?5failure?4?6?$AA@ 000000018011c908     libucrtd:debug_heap.obj
 0002:00016930       ??_C@_1FA@KDNEBILF@?$AAi?$AAs?$AA_?$AAb?$AAl?$AAo?$AAc?$AAk?$AA_?$AAt?$AAy?$AAp?$AAe?$AA_?$AAv?$AAa?$AAl?$AAi?$AAd?$AA?$CI?$AAh?$AAe?$AAa?$AAd?$AAe?$AAr?$AA?9?$AA?$DO?$AA_?$AAb?$AAl?$AAo@ 000000018011c930     libucrtd:debug_heap.obj
 0002:00016990       ??_C@_0KI@JGFOHMEB@HEAP?5CORRUPTION?5DETECTED?3?5before@ 000000018011c990     libucrtd:debug_heap.obj
 0002:00016a60       ??_C@_0IK@PJCGLBOB@HEAP?5CORRUPTION?5DETECTED?3?5before@ 000000018011ca60     libucrtd:debug_heap.obj
 0002:00016b10       ??_C@_0KE@MBMNHHHN@HEAP?5CORRUPTION?5DETECTED?3?5after?5@ 000000018011cb10     libucrtd:debug_heap.obj
 0002:00016be0       ??_C@_0IG@LEMBDCJK@HEAP?5CORRUPTION?5DETECTED?3?5after?5@ 000000018011cbe0     libucrtd:debug_heap.obj
 0002:00016c80       ??_C@_1OK@GFEOEJAF@?$AAh?$AAe?$AAa?$AAd?$AAe?$AAr?$AA?9?$AA?$DO?$AA_?$AAl?$AAi?$AAn?$AAe?$AA_?$AAn?$AAu?$AAm?$AAb?$AAe?$AAr?$AA?5?$AA?$DN?$AA?$DN?$AA?5?$AAl?$AAi?$AAn?$AAe?$AA_?$AAn?$AAu?$AAm@ 000000018011cc80     libucrtd:debug_heap.obj
 0002:00016da0       ??_C@_1ME@GFALMLNA@?$AAh?$AAe?$AAa?$AAd?$AAe?$AAr?$AA?9?$AA?$DO?$AA_?$AAb?$AAl?$AAo?$AAc?$AAk?$AA_?$AAu?$AAs?$AAe?$AA?5?$AA?$DN?$AA?$DN?$AA?5?$AAb?$AAl?$AAo?$AAc?$AAk?$AA_?$AAu?$AAs?$AAe?$AA?5@ 000000018011cda0     libucrtd:debug_heap.obj
 0002:00016e90       ??_C@_1DI@ILNOPEPI@?$AA_?$AA_?$AAa?$AAc?$AAr?$AAt?$AA_?$AAl?$AAa?$AAs?$AAt?$AA_?$AAb?$AAl?$AAo?$AAc?$AAk?$AA?5?$AA?$DN?$AA?$DN?$AA?5?$AAh?$AAe?$AAa?$AAd?$AAe?$AAr?$AA?$AA@ 000000018011ce90     libucrtd:debug_heap.obj
 0002:00016ed8       ??_C@_1DK@KEHFGDIJ@?$AA_?$AA_?$AAa?$AAc?$AAr?$AAt?$AA_?$AAf?$AAi?$AAr?$AAs?$AAt?$AA_?$AAb?$AAl?$AAo?$AAc?$AAk?$AA?5?$AA?$DN?$AA?$DN?$AA?5?$AAh?$AAe?$AAa?$AAd?$AAe?$AAr?$AA?$AA@ 000000018011ced8     libucrtd:debug_heap.obj
 0002:00016f20       ??_C@_1BG@MBKOGDLD@?$AA_?$AAm?$AAs?$AAi?$AAz?$AAe?$AA_?$AAd?$AAb?$AAg?$AA?$AA@ 000000018011cf20     libucrtd:debug_heap.obj
 0002:00016f40       ??_C@_07OHKEFPKJ@DAMAGED?$AA@ 000000018011cf40     libucrtd:debug_heap.obj
 0002:00016f50       ??_C@_0KA@IHNJJKPL@HEAP?5CORRUPTION?5DETECTED?3?5on?5top@ 000000018011cf50     libucrtd:debug_heap.obj
 0002:00017010       ??_C@_0IC@BBJIOOJH@HEAP?5CORRUPTION?5DETECTED?3?5on?5top@ 000000018011d010     libucrtd:debug_heap.obj
 0002:000170b0       ??_C@_0EG@DGJMPDBH@?$CFhs?5located?5at?50x?$CFp?5is?5?$CFIu?5bytes@ 000000018011d0b0     libucrtd:debug_heap.obj
 0002:00017108       ??_C@_0CI@JMLBEDHJ@?$CFhs?5located?5at?50x?$CFp?5is?5?$CFIu?5bytes@ 000000018011d108     libucrtd:debug_heap.obj
 0002:00017140       ??_C@_0EG@GPFHANHO@Cycle?5in?5block?5list?5detected?5whi@ 000000018011d140     libucrtd:debug_heap.obj
 0002:00017198       ??_C@_0BJ@ELMAOCAJ@Heap?5validation?5failed?4?6?$AA@ 000000018011d198     libucrtd:debug_heap.obj
 0002:000171c0       ??_C@_1IE@BBIFDGEB@?$AAn?$AAe?$AAw?$AA_?$AAb?$AAi?$AAt?$AAs?$AA?5?$AA?$DN?$AA?$DN?$AA?5?$AA_?$AAC?$AAR?$AAT?$AAD?$AAB?$AAG?$AA_?$AAR?$AAE?$AAP?$AAO?$AAR?$AAT?$AA_?$AAF?$AAL?$AAA?$AAG?$AA?5@ 000000018011d1c0     libucrtd:debug_heap.obj
 0002:00017260       ??_C@_1BO@GJFDNMNF@?$AA_?$AAC?$AAr?$AAt?$AAS?$AAe?$AAt?$AAD?$AAb?$AAg?$AAF?$AAl?$AAa?$AAg?$AA?$AA@ 000000018011d260     libucrtd:debug_heap.obj
 0002:00017288       ??_C@_1CI@CEIBPAIA@?$AAc?$AAa?$AAl?$AAl?$AAb?$AAa?$AAc?$AAk?$AA?5?$AA?$CB?$AA?$DN?$AA?5?$AAn?$AAu?$AAl?$AAl?$AAp?$AAt?$AAr?$AA?$AA@ 000000018011d288     libucrtd:debug_heap.obj
 0002:000172b8       ??_C@_1DE@GJCKCKEC@?$AA_?$AAC?$AAr?$AAt?$AAD?$AAo?$AAF?$AAo?$AAr?$AAA?$AAl?$AAl?$AAC?$AAl?$AAi?$AAe?$AAn?$AAt?$AAO?$AAb?$AAj?$AAe?$AAc?$AAt?$AAs?$AA?$AA@ 000000018011d2b8     libucrtd:debug_heap.obj
 0002:000172f8       ??_C@_1CC@BBKMONGA@?$AAs?$AAt?$AAa?$AAt?$AAe?$AA?5?$AA?$CB?$AA?$DN?$AA?5?$AAn?$AAu?$AAl?$AAl?$AAp?$AAt?$AAr?$AA?$AA@ 000000018011d2f8     libucrtd:debug_heap.obj
 0002:00017320       ??_C@_1CE@NJJKELF@?$AA_?$AAC?$AAr?$AAt?$AAM?$AAe?$AAm?$AAC?$AAh?$AAe?$AAc?$AAk?$AAp?$AAo?$AAi?$AAn?$AAt?$AA?$AA@ 000000018011d320     libucrtd:debug_heap.obj
 0002:00017350       ??_C@_0DP@LEFMFBOD@Bad?5memory?5block?5found?5at?50x?$CFp?4?6@ 000000018011d350     libucrtd:debug_heap.obj
 0002:000173a0       ??_C@_0CB@EAAIGELO@Bad?5memory?5block?5found?5at?50x?$CFp?4?6@ 000000018011d3a0     libucrtd:debug_heap.obj
 0002:000173c8       ??_C@_1CE@PDIENACM@?$AA_?$AAC?$AAr?$AAt?$AAM?$AAe?$AAm?$AAD?$AAi?$AAf?$AAf?$AAe?$AAr?$AAe?$AAn?$AAc?$AAe?$AA?$AA@ 000000018011d3c8     libucrtd:debug_heap.obj
 0002:000173f8       ??_C@_1CK@FFKLBHMD@?$AAo?$AAl?$AAd?$AA_?$AAs?$AAt?$AAa?$AAt?$AAe?$AA?5?$AA?$CB?$AA?$DN?$AA?5?$AAn?$AAu?$AAl?$AAl?$AAp?$AAt?$AAr?$AA?$AA@ 000000018011d3f8     libucrtd:debug_heap.obj
 0002:00017430       ??_C@_1CK@NJPPHDJP@?$AAn?$AAe?$AAw?$AA_?$AAs?$AAt?$AAa?$AAt?$AAe?$AA?5?$AA?$CB?$AA?$DN?$AA?5?$AAn?$AAu?$AAl?$AAl?$AAp?$AAt?$AAr?$AA?$AA@ 000000018011d430     libucrtd:debug_heap.obj
 0002:00017468       ??_C@_1CC@DIJAHFFJ@?$AAp?$AAr?$AAi?$AAn?$AAt?$AA_?$AAb?$AAl?$AAo?$AAc?$AAk?$AA_?$AAd?$AAa?$AAt?$AAa?$AA?$AA@ 000000018011d468     libucrtd:debug_heap.obj
 0002:00017490       ??_C@_0BA@HJBKCELP@?5Data?3?5?$DM?$CFs?$DO?5?$CFs?6?$AA@ 000000018011d490     libucrtd:debug_heap.obj
 0002:000174a8       ??_C@_0BE@KCIPKCIA@Dumping?5objects?5?9?$DO?6?$AA@ 000000018011d4a8     libucrtd:debug_heap.obj
 0002:000174c0       ??_C@_0BE@OIEFNFL@?$CDFile?5Error?$CD?$CI?$CFd?$CJ?5?3?5?$AA@ 000000018011d4c0     libucrtd:debug_heap.obj
 0002:000174d8       ??_C@_0L@JMEFFCCJ@?$CFhs?$CI?$CFd?$CJ?5?3?5?$AA@ 000000018011d4d8     libucrtd:debug_heap.obj
 0002:000174e8       ??_C@_06PKLGBFGM@?$HL?$CFld?$HN?5?$AA@ 000000018011d4e8     libucrtd:debug_heap.obj
 0002:000174f0       ??_C@_0DD@GHNAAKBB@client?5block?5at?50x?$CFp?0?5subtype?5?$CFx@ 000000018011d4f0     libucrtd:debug_heap.obj
 0002:00017530       ??_C@_0CH@FAGDDGPN@normal?5block?5at?50x?$CFp?0?5?$CFIu?5bytes?5@ 000000018011d530     libucrtd:debug_heap.obj
 0002:00017560       ??_C@_0DA@MDLBNIBM@crt?5block?5at?50x?$CFp?0?5subtype?5?$CFx?0?5?$CF@ 000000018011d560     libucrtd:debug_heap.obj
 0002:000175a0       ??_C@_0BH@GFGKJDCO@Object?5dump?5complete?4?6?$AA@ 000000018011d5a0     libucrtd:debug_heap.obj
 0002:000175c0       ??_C@_0BI@JBFPOEJA@Detected?5memory?5leaks?$CB?6?$AA@ 000000018011d5c0     libucrtd:debug_heap.obj
 0002:000175e0       ??_C@_1CM@MPNIBKGK@?$AA_?$AAC?$AAr?$AAt?$AAM?$AAe?$AAm?$AAD?$AAu?$AAm?$AAp?$AAS?$AAt?$AAa?$AAt?$AAi?$AAs?$AAt?$AAi?$AAc?$AAs?$AA?$AA@ 000000018011d5e0     libucrtd:debug_heap.obj
 0002:00017618       ??_C@_0BO@DACNIABB@?$CFId?5bytes?5in?5?$CFId?5?$CFhs?5Blocks?4?6?$AA@ 000000018011d618     libucrtd:debug_heap.obj
 0002:00017640       ??_C@_0CB@BLHDAFNE@Largest?5number?5used?3?5?$CFId?5bytes?4?6@ 000000018011d640     libucrtd:debug_heap.obj
 0002:00017668       ??_C@_0BP@DEDHGGGI@Total?5allocations?3?5?$CFId?5bytes?4?6?$AA@ 000000018011d668     libucrtd:debug_heap.obj
 0002:00017690       ??_C@_1CM@JKMDHENJ@?$AAI?$AAS?$AA_?$AA2?$AA_?$AAP?$AAO?$AAW?$AA_?$AAN?$AA?$CI?$AAa?$AAl?$AAi?$AAg?$AAn?$AAm?$AAe?$AAn?$AAt?$AA?$CJ?$AA?$AA@ 000000018011d690     libucrtd:debug_heap.obj
 0002:000176c8       ??_C@_1DG@DONCJBBJ@?$AA_?$AAa?$AAl?$AAi?$AAg?$AAn?$AAe?$AAd?$AA_?$AAo?$AAf?$AAf?$AAs?$AAe?$AAt?$AA_?$AAm?$AAa?$AAl?$AAl?$AAo?$AAc?$AA_?$AAd?$AAb?$AAg?$AA?$AA@ 000000018011d6c8     libucrtd:debug_heap.obj
 0002:00017708       ??_C@_1DK@LFLKFPDA@?$AAo?$AAf?$AAf?$AAs?$AAe?$AAt?$AA?5?$AA?$DN?$AA?$DN?$AA?5?$AA0?$AA?5?$AA?$HM?$AA?$HM?$AA?5?$AAo?$AAf?$AAf?$AAs?$AAe?$AAt?$AA?5?$AA?$DM?$AA?5?$AAs?$AAi?$AAz?$AAe?$AA?$AA@ 000000018011d708     libucrtd:debug_heap.obj
 0002:00017750       ??_C@_0EI@NDNJMAJK@The?5block?5at?50x?$CFp?5was?5not?5alloca@ 000000018011d750     libucrtd:debug_heap.obj
 0002:000177a8       ??_C@_0DL@PGHMMKNE@Damage?5before?50x?$CFp?5which?5was?5all@ 000000018011d7a8     libucrtd:debug_heap.obj
 0002:000177f0       ??_C@_1DI@NINIKFFK@?$AA_?$AAa?$AAl?$AAi?$AAg?$AAn?$AAe?$AAd?$AA_?$AAo?$AAf?$AAf?$AAs?$AAe?$AAt?$AA_?$AAr?$AAe?$AAa?$AAl?$AAl?$AAo?$AAc?$AA_?$AAd?$AAb?$AAg?$AA?$AA@ 000000018011d7f0     libucrtd:debug_heap.obj
 0002:00017838       ??_C@_1CG@CEGMHIMN@?$AA_?$AAa?$AAl?$AAi?$AAg?$AAn?$AAe?$AAd?$AA_?$AAm?$AAs?$AAi?$AAz?$AAe?$AA_?$AAd?$AAb?$AAg?$AA?$AA@ 000000018011d838     libucrtd:debug_heap.obj
 0002:00017870       ??_C@_0EF@PGELACII@The?5block?5at?50x?$CFp?5was?5not?5alloca@ 000000018011d870     libucrtd:debug_heap.obj
 0002:000178d0       __acrt_exception_action_table 000000018011d8d0     libucrtd:exception_filter.obj
 0002:000179b8       __acrt_signal_action_table_count 000000018011d9b8     libucrtd:exception_filter.obj
 0002:000179c8       __acrt_signal_action_table_size 000000018011d9c8     libucrtd:exception_filter.obj
 0002:000179d8       __acrt_signal_action_first_fpe_index 000000018011d9d8     libucrtd:exception_filter.obj
 0002:000179e8       __acrt_signal_action_fpe_count 000000018011d9e8     libucrtd:exception_filter.obj
 0002:000179f8       RtlNtPathSeperatorString   000000018011d9f8     libucrtd:exit.obj
 0002:00017a0c       ??_C@_13FPGAJAPJ@?$AA?2?$AA?$AA@ 000000018011da0c     libucrtd:exit.obj
 0002:00017a10       RtlDosPathSeperatorsString 000000018011da10     libucrtd:exit.obj
 0002:00017a24       ??_C@_15MNCACJLI@?$AA?2?$AA?1?$AA?$AA@ 000000018011da24     libucrtd:exit.obj
 0002:00017a30       RtlAlternateDosPathSeperatorString 000000018011da30     libucrtd:exit.obj
 0002:00017a44       ??_C@_13CGOKJPIL@?$AA?1?$AA?$AA@ 000000018011da44     libucrtd:exit.obj
 0002:00017a48       ??_C@_1BI@BGOHAHKC@?$AAm?$AAs?$AAc?$AAo?$AAr?$AAe?$AAe?$AA?4?$AAd?$AAl?$AAl?$AA?$AA@ 000000018011da48     libucrtd:exit.obj
 0002:00017a68       ??_C@_0P@MIGLKIOC@CorExitProcess?$AA@ 000000018011da68     libucrtd:exit.obj
 0002:00017a80       ??_C@_0EG@LEHKHOEH@minkernel?2crts?2ucrt?2src?2desktopc@ 000000018011da80     libucrtd:environment_initialization.obj
 0002:00017ae0       ??_C@_1IM@IMOFFPLG@?$AAm?$AAi?$AAn?$AAk?$AAe?$AAr?$AAn?$AAe?$AAl?$AA?2?$AAc?$AAr?$AAt?$AAs?$AA?2?$AAu?$AAc?$AAr?$AAt?$AA?2?$AAs?$AAr?$AAc?$AA?2?$AAd?$AAe?$AAs?$AAk?$AAt?$AAo?$AAp?$AAc@ 000000018011dae0     libucrtd:environment_initialization.obj
 0002:00017b88       ??_C@_1CG@MNNNBNAK@?$AAc?$AAr?$AAe?$AAa?$AAt?$AAe?$AA_?$AAe?$AAn?$AAv?$AAi?$AAr?$AAo?$AAn?$AAm?$AAe?$AAn?$AAt?$AA?$AA@ 000000018011db88     libucrtd:environment_initialization.obj
 0002:00017bc0       ??_C@_1HI@OOPIFFGA@?$AAt?$AAr?$AAa?$AAi?$AAt?$AAs?$AA?3?$AA?3?$AAt?$AAc?$AAs?$AAc?$AAp?$AAy?$AA_?$AAs?$AA?$CI?$AAv?$AAa?$AAr?$AAi?$AAa?$AAb?$AAl?$AAe?$AA?4?$AAg?$AAe?$AAt?$AA?$CI?$AA?$CJ?$AA?0@ 000000018011dbc0     libucrtd:environment_initialization.obj
 0002:00017c50       ??_C@_0DC@NBHMIIKL@minkernel?2crts?2ucrt?2src?2appcrt?2s@ 000000018011dc50     libucrtd:onexit.obj
 0002:00017db0       ??_C@_1GE@IHIGNC@?$AA?$CI?$AA?$CI?$AAr?$AAe?$AAs?$AAu?$AAl?$AAt?$AA_?$AAb?$AAu?$AAf?$AAf?$AAe?$AAr?$AA?$CJ?$AA?$CJ?$AA?5?$AA?$CB?$AA?$DN?$AA?5?$AAN?$AAU?$AAL?$AAL?$AA?5?$AA?$CG?$AA?$CG?$AA?5?$AA?$CI?$AA?$CI?$AAr@ 000000018011ddb0     libucrtd:makepath.obj
 0002:00017e30       ??_C@_1GO@CPMBDHKK@?$AAm?$AAi?$AAn?$AAk?$AAe?$AAr?$AAn?$AAe?$AAl?$AA?2?$AAc?$AAr?$AAt?$AAs?$AA?2?$AAu?$AAc?$AAr?$AAt?$AA?2?$AAs?$AAr?$AAc?$AA?2?$AAa?$AAp?$AAp?$AAc?$AAr?$AAt?$AA?2?$AAf@ 000000018011de30     libucrtd:makepath.obj
 0002:00017eb8       ??_C@_1CE@GNNMAAIL@?$AAc?$AAo?$AAm?$AAm?$AAo?$AAn?$AA_?$AAm?$AAa?$AAk?$AAe?$AAp?$AAa?$AAt?$AAh?$AA_?$AAs?$AA?$AA@ 000000018011deb8     libucrtd:makepath.obj
 0002:00017ee8       ??_C@_1CI@HCPHDDLE@?$AAB?$AAu?$AAf?$AAf?$AAe?$AAr?$AA?5?$AAi?$AAs?$AA?5?$AAt?$AAo?$AAo?$AA?5?$AAs?$AAm?$AAa?$AAl?$AAl?$AA?$AA@ 000000018011dee8     libucrtd:makepath.obj
 0002:00017f18       ??_C@_1DM@MADKGDLO@?$AA?$CI?$AAL?$AA?$CC?$AAB?$AAu?$AAf?$AAf?$AAe?$AAr?$AA?5?$AAi?$AAs?$AA?5?$AAt?$AAo?$AAo?$AA?5?$AAs?$AAm?$AAa?$AAl?$AAl?$AA?$CC?$AA?5?$AA?$CG?$AA?$CG?$AA?5?$AA0?$AA?$CJ?$AA?$AA@ 000000018011df18     libucrtd:makepath.obj
 0002:00017f60       ??_C@_1CI@KGHCCPCN@?$AAc?$AAl?$AAe?$AAa?$AAn?$AAu?$AAp?$AA_?$AAa?$AAf?$AAt?$AAe?$AAr?$AA_?$AAe?$AAr?$AAr?$AAo?$AAr?$AA?$AA@ 000000018011df60     libucrtd:makepath.obj
 0002:00017f90       ??_C@_1M@HLGKFCJM@?$AAf?$AAa?$AAl?$AAs?$AAe?$AA?$AA@ 000000018011df90     libucrtd:splitpath.obj
 0002:00017fa0       ??_C@_1HA@BEJINBHO@?$AAm?$AAi?$AAn?$AAk?$AAe?$AAr?$AAn?$AAe?$AAl?$AA?2?$AAc?$AAr?$AAt?$AAs?$AA?2?$AAu?$AAc?$AAr?$AAt?$AA?2?$AAs?$AAr?$AAc?$AA?2?$AAa?$AAp?$AAp?$AAc?$AAr?$AAt?$AA?2?$AAf@ 000000018011dfa0     libucrtd:splitpath.obj
 0002:00018028       ??_C@_1DE@EEECINKG@?$AAc?$AAo?$AAm?$AAm?$AAo?$AAn?$AA_?$AAs?$AAp?$AAl?$AAi?$AAt?$AAp?$AAa?$AAt?$AAh?$AA_?$AAi?$AAn?$AAt?$AAe?$AAr?$AAn?$AAa?$AAl?$AA?$AA@ 000000018011e028     libucrtd:splitpath.obj
 0002:00018070       ??_C@_1GI@BBAEIKL@?$AA?$CI?$AA?$CI?$AAd?$AAe?$AAs?$AAt?$AAi?$AAn?$AAa?$AAt?$AAi?$AAo?$AAn?$AA?$CJ?$AA?$CJ?$AA?5?$AA?$CB?$AA?$DN?$AA?5?$AAN?$AAU?$AAL?$AAL?$AA?5?$AA?$CG?$AA?$CG?$AA?5?$AA?$CI?$AA?$CI?$AAs?$AAi?$AAz@ 000000018011e070     libucrtd:wcscpy_s.obj
 0002:000180f0       ??_C@_1HI@PBJPCEBC@?$AAm?$AAi?$AAn?$AAk?$AAe?$AAr?$AAn?$AAe?$AAl?$AA?2?$AAc?$AAr?$AAt?$AAs?$AA?2?$AAu?$AAc?$AAr?$AAt?$AA?2?$AAi?$AAn?$AAc?$AA?2?$AAc?$AAo?$AAr?$AAe?$AAc?$AAr?$AAt?$AA_@ 000000018011e0f0     libucrtd:wcscpy_s.obj
 0002:00018180       ??_C@_1CA@FHIAGDFH@?$AAc?$AAo?$AAm?$AAm?$AAo?$AAn?$AA_?$AAt?$AAc?$AAs?$AAc?$AAp?$AAy?$AA_?$AAs?$AA?$AA@ 000000018011e180     libucrtd:wcscpy_s.obj
 0002:000181a8       ??_C@_1CK@EIOKGPJL@?$AA?$CI?$AA?$CI?$AA?$CI?$AAs?$AAo?$AAu?$AAr?$AAc?$AAe?$AA?$CJ?$AA?$CJ?$AA?$CJ?$AA?5?$AA?$CB?$AA?$DN?$AA?5?$AAN?$AAU?$AAL?$AAL?$AA?$AA@ 000000018011e1a8     libucrtd:wcscpy_s.obj
 0002:000181e0       ??_C@_1DA@LLLMNMKI@?$AAa?$AAb?$AAo?$AAr?$AAt?$AA?$CI?$AA?$CJ?$AA?5?$AAh?$AAa?$AAs?$AA?5?$AAb?$AAe?$AAe?$AAn?$AA?5?$AAc?$AAa?$AAl?$AAl?$AAe?$AAd?$AA?$AA@ 000000018011e1e0     libucrtd:abort.obj
 0002:00018220       _Fenv0                     000000018011e220     libucrtd:atox.obj
 0002:00018230       ??_C@_1GE@DPGDJKLM@?$AAm?$AAi?$AAn?$AAk?$AAe?$AAr?$AAn?$AAe?$AAl?$AA?2?$AAc?$AAr?$AAt?$AAs?$AA?2?$AAu?$AAc?$AAr?$AAt?$AA?2?$AAi?$AAn?$AAc?$AA?2?$AAc?$AAo?$AAr?$AAe?$AAc?$AAr?$AAt?$AA_@ 000000018011e230     libucrtd:atox.obj
 0002:000182b0       ??_C@_1EO@MLJCKPIB@?$AAb?$AAa?$AAs?$AAe?$AA?5?$AA?$DN?$AA?$DN?$AA?5?$AA0?$AA?5?$AA?$HM?$AA?$HM?$AA?5?$AA?$CI?$AA2?$AA?5?$AA?$DM?$AA?$DN?$AA?5?$AAb?$AAa?$AAs?$AAe?$AA?5?$AA?$CG?$AA?$CG?$AA?5?$AAb?$AAa?$AAs?$AAe?$AA?5@ 000000018011e2b0     libucrtd:atox.obj
 0002:00018310       ??_C@_1DI@BANODKFL@?$AA_?$AA_?$AAc?$AAr?$AAt?$AA_?$AAs?$AAt?$AAr?$AAt?$AAo?$AAx?$AA?3?$AA?3?$AAp?$AAa?$AAr?$AAs?$AAe?$AA_?$AAi?$AAn?$AAt?$AAe?$AAg?$AAe?$AAr?$AA?$AA@ 000000018011e310     libucrtd:atox.obj
 0002:00018358       ??_C@_1BM@PNEBBBDO@?$AA_?$AAp?$AA?5?$AA?$CB?$AA?$DN?$AA?5?$AAn?$AAu?$AAl?$AAl?$AAp?$AAt?$AAr?$AA?$AA@ 000000018011e358     libucrtd:atox.obj
 0002:00018380       ??_C@_1HA@MKKIHBHP@?$AA_?$AA_?$AAc?$AAr?$AAt?$AA_?$AAs?$AAt?$AAr?$AAt?$AAo?$AAx?$AA?3?$AA?3?$AAc?$AA_?$AAs?$AAt?$AAr?$AAi?$AAn?$AAg?$AA_?$AAc?$AAh?$AAa?$AAr?$AAa?$AAc?$AAt?$AAe?$AAr@ 000000018011e380     libucrtd:atox.obj
 0002:00018408       ??_C@_1CM@GJENOOEJ@?$AAc?$AA?5?$AA?$DN?$AA?$DN?$AA?5?$AA?8?$AA?2?$AA0?$AA?8?$AA?5?$AA?$HM?$AA?$HM?$AA?5?$AA?$CK?$AA_?$AAp?$AA?5?$AA?$DN?$AA?$DN?$AA?5?$AAc?$AA?$AA@ 000000018011e408     libucrtd:atox.obj
 0002:00018440       ??_C@_1GK@MNHIDABG@?$AA_?$AA_?$AAc?$AAr?$AAt?$AA_?$AAs?$AAt?$AAr?$AAt?$AAo?$AAx?$AA?3?$AA?3?$AAc?$AA_?$AAs?$AAt?$AAr?$AAi?$AAn?$AAg?$AA_?$AAc?$AAh?$AAa?$AAr?$AAa?$AAc?$AAt?$AAe?$AAr@ 000000018011e440     libucrtd:atox.obj
 0002:000184c0       ??_C@_1HG@FCDBLOEG@?$AA_?$AA_?$AAc?$AAr?$AAt?$AA_?$AAs?$AAt?$AAr?$AAt?$AAo?$AAx?$AA?3?$AA?3?$AAc?$AA_?$AAs?$AAt?$AAr?$AAi?$AAn?$AAg?$AA_?$AAc?$AAh?$AAa?$AAr?$AAa?$AAc?$AAt?$AAe?$AAr@ 000000018011e4c0     libucrtd:atox.obj
 0002:00018550       ??_C@_1HA@CONLANFI@?$AA_?$AA_?$AAc?$AAr?$AAt?$AA_?$AAs?$AAt?$AAr?$AAt?$AAo?$AAx?$AA?3?$AA?3?$AAc?$AA_?$AAs?$AAt?$AAr?$AAi?$AAn?$AAg?$AA_?$AAc?$AAh?$AAa?$AAr?$AAa?$AAc?$AAt?$AAe?$AAr@ 000000018011e550     libucrtd:atox.obj
 0002:000185d8       _d_inf                     000000018011e5d8     libucrtd:util.obj
 0002:000185e8       _d_ind                     000000018011e5e8     libucrtd:util.obj
 0002:000185f8       _d_max                     000000018011e5f8     libucrtd:util.obj
 0002:00018608       _d_min                     000000018011e608     libucrtd:util.obj
 0002:00018618       _d_mzero                   000000018011e618     libucrtd:util.obj
 0002:00018630       __two_to_jby64_table       000000018011e630     libucrtd:two_to_jby64_table.obj
 0002:000188a0       __log_F_inv_qword          000000018011e8a0     libucrtd:log_f_inv_qword_table.obj
 0002:0001924c       ??_C@_04MBFDLNIM@powf?$AA@ 000000018011f24c     libucrtd:pow_special.obj
 0002:00019254       ??_C@_03JGHBODFD@pow?$AA@  000000018011f254     libucrtd:pow_special.obj
 0002:00019410       ??_C@_1CE@JMFACANE@?$AAr?$AAe?$AAs?$AAu?$AAl?$AAt?$AA?5?$AA?$CB?$AA?$DN?$AA?5?$AAn?$AAu?$AAl?$AAl?$AAp?$AAt?$AAr?$AA?$AA@ 000000018011f410     libucrtd:errno.obj
 0002:00019440       ??_C@_1FM@MJJGEFKM@?$AAm?$AAi?$AAn?$AAk?$AAe?$AAr?$AAn?$AAe?$AAl?$AA?2?$AAc?$AAr?$AAt?$AAs?$AA?2?$AAu?$AAc?$AAr?$AAt?$AA?2?$AAs?$AAr?$AAc?$AA?2?$AAa?$AAp?$AAp?$AAc?$AAr?$AAt?$AA?2?$AAm@ 000000018011f440     libucrtd:errno.obj
 0002:000194b0       ??_C@_1BG@KCMPBBDK@?$AA_?$AAg?$AAe?$AAt?$AA_?$AAe?$AAr?$AAr?$AAn?$AAo?$AA?$AA@ 000000018011f4b0     libucrtd:errno.obj
 0002:000194d0       ??_C@_1BM@INIPHHDD@?$AA_?$AAg?$AAe?$AAt?$AA_?$AAd?$AAo?$AAs?$AAe?$AAr?$AAr?$AAn?$AAo?$AA?$AA@ 000000018011f4d0     libucrtd:errno.obj
 0002:000195c0       ??_C@_1EG@CNNIPFIM@?$AAa?$AAp?$AAi?$AA?9?$AAm?$AAs?$AA?9?$AAw?$AAi?$AAn?$AA?9?$AAa?$AAp?$AAp?$AAm?$AAo?$AAd?$AAe?$AAl?$AA?9?$AAr?$AAu?$AAn?$AAt?$AAi?$AAm?$AAe?$AA?9?$AAl?$AA1?$AA?9?$AA1@ 000000018011f5c0     libucrtd:winapi_thunks.obj
 0002:00019620       ??_C@_1EA@JGEFHKEI@?$AAa?$AAp?$AAi?$AA?9?$AAm?$AAs?$AA?9?$AAw?$AAi?$AAn?$AA?9?$AAc?$AAo?$AAr?$AAe?$AA?9?$AAd?$AAa?$AAt?$AAe?$AAt?$AAi?$AAm?$AAe?$AA?9?$AAl?$AA1?$AA?9?$AA1?$AA?9?$AA1?$AA?$AA@ 000000018011f620     libucrtd:winapi_thunks.obj
 0002:00019670       ??_C@_1DI@GCIAAENM@?$AAa?$AAp?$AAi?$AA?9?$AAm?$AAs?$AA?9?$AAw?$AAi?$AAn?$AA?9?$AAc?$AAo?$AAr?$AAe?$AA?9?$AAf?$AAi?$AAl?$AAe?$AA?9?$AAl?$AA2?$AA?9?$AA1?$AA?9?$AA1?$AA?$AA@ 000000018011f670     libucrtd:winapi_thunks.obj
 0002:000196c0       ??_C@_1EI@MPIAOHOC@?$AAa?$AAp?$AAi?$AA?9?$AAm?$AAs?$AA?9?$AAw?$AAi?$AAn?$AA?9?$AAc?$AAo?$AAr?$AAe?$AA?9?$AAl?$AAo?$AAc?$AAa?$AAl?$AAi?$AAz?$AAa?$AAt?$AAi?$AAo?$AAn?$AA?9?$AAl?$AA1?$AA?9@ 000000018011f6c0     libucrtd:winapi_thunks.obj
 0002:00019720       ??_C@_1FK@FPHCKFIE@?$AAa?$AAp?$AAi?$AA?9?$AAm?$AAs?$AA?9?$AAw?$AAi?$AAn?$AA?9?$AAc?$AAo?$AAr?$AAe?$AA?9?$AAl?$AAo?$AAc?$AAa?$AAl?$AAi?$AAz?$AAa?$AAt?$AAi?$AAo?$AAn?$AA?9?$AAo?$AAb?$AAs@ 000000018011f720     libucrtd:winapi_thunks.obj
 0002:00019790       ??_C@_1EM@DILCGIIO@?$AAa?$AAp?$AAi?$AA?9?$AAm?$AAs?$AA?9?$AAw?$AAi?$AAn?$AA?9?$AAc?$AAo?$AAr?$AAe?$AA?9?$AAp?$AAr?$AAo?$AAc?$AAe?$AAs?$AAs?$AAt?$AAh?$AAr?$AAe?$AAa?$AAd?$AAs?$AA?9?$AAl@ 000000018011f790     libucrtd:winapi_thunks.obj
 0002:000197f0       ??_C@_1DM@LNCGDDPN@?$AAa?$AAp?$AAi?$AA?9?$AAm?$AAs?$AA?9?$AAw?$AAi?$AAn?$AA?9?$AAc?$AAo?$AAr?$AAe?$AA?9?$AAs?$AAt?$AAr?$AAi?$AAn?$AAg?$AA?9?$AAl?$AA1?$AA?9?$AA1?$AA?9?$AA0?$AA?$AA@ 000000018011f7f0     libucrtd:winapi_thunks.obj
 0002:00019838       ??_C@_1DO@FPAPJEMD@?$AAa?$AAp?$AAi?$AA?9?$AAm?$AAs?$AA?9?$AAw?$AAi?$AAn?$AA?9?$AAc?$AAo?$AAr?$AAe?$AA?9?$AAs?$AAy?$AAs?$AAi?$AAn?$AAf?$AAo?$AA?9?$AAl?$AA1?$AA?9?$AA2?$AA?9?$AA1?$AA?$AA@ 000000018011f838     libucrtd:winapi_thunks.obj
 0002:00019888       ??_C@_1DK@NDHNAHIO@?$AAa?$AAp?$AAi?$AA?9?$AAm?$AAs?$AA?9?$AAw?$AAi?$AAn?$AA?9?$AAc?$AAo?$AAr?$AAe?$AA?9?$AAw?$AAi?$AAn?$AAr?$AAt?$AA?9?$AAl?$AA1?$AA?9?$AA1?$AA?9?$AA0?$AA?$AA@ 000000018011f888     libucrtd:winapi_thunks.obj
 0002:000198d0       ??_C@_1DM@KGHDGBCM@?$AAa?$AAp?$AAi?$AA?9?$AAm?$AAs?$AA?9?$AAw?$AAi?$AAn?$AA?9?$AAc?$AAo?$AAr?$AAe?$AA?9?$AAx?$AAs?$AAt?$AAa?$AAt?$AAe?$AA?9?$AAl?$AA2?$AA?9?$AA1?$AA?9?$AA0?$AA?$AA@ 000000018011f8d0     libucrtd:winapi_thunks.obj
 0002:00019920       ??_C@_1EO@IJIOEFOH@?$AAa?$AAp?$AAi?$AA?9?$AAm?$AAs?$AA?9?$AAw?$AAi?$AAn?$AA?9?$AAr?$AAt?$AAc?$AAo?$AAr?$AAe?$AA?9?$AAn?$AAt?$AAu?$AAs?$AAe?$AAr?$AA?9?$AAw?$AAi?$AAn?$AAd?$AAo?$AAw?$AA?9@ 000000018011f920     libucrtd:winapi_thunks.obj
 0002:00019980       ??_C@_1FG@HHGEKANL@?$AAa?$AAp?$AAi?$AA?9?$AAm?$AAs?$AA?9?$AAw?$AAi?$AAn?$AA?9?$AAs?$AAe?$AAc?$AAu?$AAr?$AAi?$AAt?$AAy?$AA?9?$AAs?$AAy?$AAs?$AAt?$AAe?$AAm?$AAf?$AAu?$AAn?$AAc?$AAt?$AAi@ 000000018011f980     libucrtd:winapi_thunks.obj
 0002:000199f0       ??_C@_1FG@NCKKOLKO@?$AAe?$AAx?$AAt?$AA?9?$AAm?$AAs?$AA?9?$AAw?$AAi?$AAn?$AA?9?$AAk?$AAe?$AAr?$AAn?$AAe?$AAl?$AA3?$AA2?$AA?9?$AAp?$AAa?$AAc?$AAk?$AAa?$AAg?$AAe?$AA?9?$AAc?$AAu?$AAr?$AAr@ 000000018011f9f0     libucrtd:winapi_thunks.obj
 0002:00019a60       ??_C@_1EG@DBIOJECG@?$AAe?$AAx?$AAt?$AA?9?$AAm?$AAs?$AA?9?$AAw?$AAi?$AAn?$AA?9?$AAn?$AAt?$AAu?$AAs?$AAe?$AAr?$AA?9?$AAd?$AAi?$AAa?$AAl?$AAo?$AAg?$AAb?$AAo?$AAx?$AA?9?$AAl?$AA1?$AA?9?$AA1@ 000000018011fa60     libucrtd:winapi_thunks.obj
 0002:00019ac0       ??_C@_1EO@FIHMJCLF@?$AAe?$AAx?$AAt?$AA?9?$AAm?$AAs?$AA?9?$AAw?$AAi?$AAn?$AA?9?$AAn?$AAt?$AAu?$AAs?$AAe?$AAr?$AA?9?$AAw?$AAi?$AAn?$AAd?$AAo?$AAw?$AAs?$AAt?$AAa?$AAt?$AAi?$AAo?$AAn?$AA?9@ 000000018011fac0     libucrtd:winapi_thunks.obj
 0002:00019b20       ??_C@_1O@BCCLBEOE@?$AAu?$AAs?$AAe?$AAr?$AA3?$AA2?$AA?$AA@ 000000018011fb20     libucrtd:winapi_thunks.obj
 0002:00019b30       ??_C@_1HE@OILMBOBA@?$AAm?$AAi?$AAn?$AAk?$AAe?$AAr?$AAn?$AAe?$AAl?$AA?2?$AAc?$AAr?$AAt?$AAs?$AA?2?$AAu?$AAc?$AAr?$AAt?$AA?2?$AAs?$AAr?$AAc?$AA?2?$AAa?$AAp?$AAp?$AAc?$AAr?$AAt?$AA?2?$AAi@ 000000018011fb30     libucrtd:winapi_thunks.obj
 0002:00019bc0       ??_C@_0BA@FHFNEAED@AreFileApisANSI?$AA@ 000000018011fbc0     libucrtd:winapi_thunks.obj
 0002:00019be8       ??_C@_0BA@IHGNDAEB@CompareStringEx?$AA@ 000000018011fbe8     libucrtd:winapi_thunks.obj
 0002:00019c10       ??_C@_0BE@LJANKFHF@EnumSystemLocalesEx?$AA@ 000000018011fc10     libucrtd:winapi_thunks.obj
 0002:00019c78       ??_C@_0BA@HNOPNCHB@GetActiveWindow?$AA@ 000000018011fc78     libucrtd:winapi_thunks.obj
 0002:00019ca0       ??_C@_0BE@JOGNEJCI@GetCurrentPackageId?$AA@ 000000018011fca0     libucrtd:winapi_thunks.obj
 0002:00019cc8       ??_C@_0BA@EPCJIIPD@GetDateFormatEx?$AA@ 000000018011fcc8     libucrtd:winapi_thunks.obj
 0002:00019cf0       ??_C@_0BJ@DIBIJBHA@GetEnabledXStateFeatures?$AA@ 000000018011fcf0     libucrtd:winapi_thunks.obj
 0002:00019d20       ??_C@_0BN@NEEHBBPO@GetFileInformationByHandleEx?$AA@ 000000018011fd20     libucrtd:winapi_thunks.obj
 0002:00019d58       ??_C@_0BD@HHGDFDBJ@GetLastActivePopup?$AA@ 000000018011fd58     libucrtd:winapi_thunks.obj
 0002:00019d80       ??_C@_0BA@ONOKGCMP@GetLocaleInfoEx?$AA@ 000000018011fd80     libucrtd:winapi_thunks.obj
 0002:00019da8       ??_C@_0BI@DFKBFLJE@GetProcessWindowStation?$AA@ 000000018011fda8     libucrtd:winapi_thunks.obj
 0002:00019dc8       ??_C@_0BP@FPNJPEJC@GetSystemTimePreciseAsFileTime?$AA@ 000000018011fdc8     libucrtd:winapi_thunks.obj
 0002:00019e00       ??_C@_0BA@CIJJKCJJ@GetTimeFormatEx?$AA@ 000000018011fe00     libucrtd:winapi_thunks.obj
 0002:00019e28       ??_C@_0BJ@PBCCBIPI@GetUserDefaultLocaleName?$AA@ 000000018011fe28     libucrtd:winapi_thunks.obj
 0002:00019e58       ??_C@_0BK@DEKFELLI@GetUserObjectInformationW?$AA@ 000000018011fe58     libucrtd:winapi_thunks.obj
 0002:00019e88       ??_C@_0BG@IKLDMBLM@GetXStateFeaturesMask?$AA@ 000000018011fe88     libucrtd:winapi_thunks.obj
 0002:00019ec8       ??_C@_0BC@CELBKLLA@IsValidLocaleName?$AA@ 000000018011fec8     libucrtd:winapi_thunks.obj
 0002:00019ef0       ??_C@_0O@KKBNKAPF@LCMapStringEx?$AA@ 000000018011fef0     libucrtd:winapi_thunks.obj
 0002:00019f10       ??_C@_0BB@CDHDDLLP@LCIDToLocaleName?$AA@ 000000018011ff10     libucrtd:winapi_thunks.obj
 0002:00019f38       ??_C@_0BB@HBDEELFH@LocaleNameToLCID?$AA@ 000000018011ff38     libucrtd:winapi_thunks.obj
 0002:00019f60       ??_C@_0BE@KINNKFDA@LocateXStateFeature?$AA@ 000000018011ff60     libucrtd:winapi_thunks.obj
 0002:00019f88       ??_C@_0M@CHKKJDAI@MessageBoxA?$AA@ 000000018011ff88     libucrtd:winapi_thunks.obj
 0002:00019fa8       ??_C@_0M@DLDCCGNP@MessageBoxW?$AA@ 000000018011ffa8     libucrtd:winapi_thunks.obj
 0002:00019fc0       ??_C@_0N@PPOMPGGK@RoInitialize?$AA@ 000000018011ffc0     libucrtd:winapi_thunks.obj
 0002:00019fd8       ??_C@_0P@LLFHBIJD@RoUninitialize?$AA@ 000000018011ffd8     libucrtd:winapi_thunks.obj
 0002:0001a000       ??_C@_0BI@BKLFFAPO@SetThreadStackGuarantee?$AA@ 0000000180120000     libucrtd:winapi_thunks.obj
 0002:0001a030       ??_C@_0BC@JEAENNKH@SystemFunction036?$AA@ 0000000180120030     libucrtd:winapi_thunks.obj
 0002:0001a048       ??_C@_1DC@JKJAOJNC@?$AAc?$AAa?$AAc?$AAh?$AAe?$AAd?$AA_?$AAs?$AAt?$AAa?$AAt?$AAe?$AA?5?$AA?$DN?$AA?$DN?$AA?5?$AAp?$AAa?$AAc?$AAk?$AAa?$AAg?$AAe?$AAd?$AA?$AA@ 0000000180120048     libucrtd:winapi_thunks.obj
 0002:0001a088       ??_C@_1DK@JOPMHFDB@?$AAc?$AAa?$AAc?$AAh?$AAe?$AAd?$AA_?$AAs?$AAt?$AAa?$AAt?$AAe?$AA?5?$AA?$DN?$AA?$DN?$AA?5?$AAn?$AAo?$AAt?$AA_?$AAp?$AAa?$AAc?$AAk?$AAa?$AAg?$AAe?$AAd?$AA?$AA@ 0000000180120088     libucrtd:winapi_thunks.obj
 0002:0001a0d0       ??_C@_1GE@GPOPIOIG@?$AAm?$AAi?$AAn?$AAk?$AAe?$AAr?$AAn?$AAe?$AAl?$AA?2?$AAc?$AAr?$AAt?$AAs?$AA?2?$AAu?$AAc?$AAr?$AAt?$AA?2?$AAs?$AAr?$AAc?$AA?2?$AAa?$AAp?$AAp?$AAc?$AAr?$AAt?$AA?2?$AAs@ 00000001801200d0     libucrtd:_freebuf.obj
 0002:0001a150       ??_C@_1BBC@DECGKMGJ@?$AA_?$AAl?$AAo?$AAc?$AA_?$AAu?$AAp?$AAd?$AAa?$AAt?$AAe?$AA?4?$AAG?$AAe?$AAt?$AAL?$AAo?$AAc?$AAa?$AAl?$AAe?$AAT?$AA?$CI?$AA?$CJ?$AA?9?$AA?$DO?$AAl?$AAo?$AAc?$AAi?$AAn?$AAf@ 0000000180120150     libucrtd:mbtowc.obj
 0002:0001a2a0       ??_C@_1GE@CGIHMDEJ@?$AAm?$AAi?$AAn?$AAk?$AAe?$AAr?$AAn?$AAe?$AAl?$AA?2?$AAc?$AAr?$AAt?$AAs?$AA?2?$AAu?$AAc?$AAr?$AAt?$AA?2?$AAs?$AAr?$AAc?$AA?2?$AAa?$AAp?$AAp?$AAc?$AAr?$AAt?$AA?2?$AAc@ 00000001801202a0     libucrtd:mbtowc.obj
 0002:0001a318       ??_C@_1DK@NBNOAGKB@?$AAd?$AAe?$AAs?$AAt?$AAi?$AAn?$AAa?$AAt?$AAi?$AAo?$AAn?$AA_?$AAc?$AAo?$AAu?$AAn?$AAt?$AA?5?$AA?$DM?$AA?$DN?$AA?5?$AAI?$AAN?$AAT?$AA_?$AAM?$AAA?$AAX?$AA?$AA@ 0000000180120318     libucrtd:wctomb.obj
 0002:0001a360       ??_C@_1GE@FCCEPHFG@?$AAm?$AAi?$AAn?$AAk?$AAe?$AAr?$AAn?$AAe?$AAl?$AA?2?$AAc?$AAr?$AAt?$AAs?$AA?2?$AAu?$AAc?$AAr?$AAt?$AA?2?$AAs?$AAr?$AAc?$AA?2?$AAa?$AAp?$AAp?$AAc?$AAr?$AAt?$AA?2?$AAc@ 0000000180120360     libucrtd:wctomb.obj
 0002:0001a3d8       ??_C@_1BI@IEADNOHF@?$AA_?$AAw?$AAc?$AAt?$AAo?$AAm?$AAb?$AA_?$AAs?$AA_?$AAl?$AA?$AA@ 00000001801203d8     libucrtd:wctomb.obj
 0002:0001a3f8       ??_C@_1CM@ENFEGCNE@?$AAd?$AAe?$AAs?$AAt?$AAi?$AAn?$AAa?$AAt?$AAi?$AAo?$AAn?$AA_?$AAc?$AAo?$AAu?$AAn?$AAt?$AA?5?$AA?$DO?$AA?5?$AA0?$AA?$AA@ 00000001801203f8     libucrtd:wctomb.obj
 0002:0001a430       ??_C@_0DM@DKIFNNOL@minkernel?2crts?2ucrt?2src?2appcrt?2i@ 0000000180120430     libucrtd:per_thread_data.obj
 0002:0001a4a8       ??_C@_03OEIAHPBN@INF?$AA@  00000001801204a8     libucrtd:cvt.obj
 0002:0001a4ac       ??_C@_03OJHLLCGB@inf?$AA@  00000001801204ac     libucrtd:cvt.obj
 0002:0001a4b0       ??_C@_03LKNCIKJB@NAN?$AA@  00000001801204b0     libucrtd:cvt.obj
 0002:0001a4b4       ??_C@_03LHCJEHON@nan?$AA@  00000001801204b4     libucrtd:cvt.obj
 0002:0001a4b8       ??_C@_09OFJJIMPC@NAN?$CISNAN?$CJ?$AA@ 00000001801204b8     libucrtd:cvt.obj
 0002:0001a4c8       ??_C@_09IPFBKMDL@nan?$CIsnan?$CJ?$AA@ 00000001801204c8     libucrtd:cvt.obj
 0002:0001a4d8       ??_C@_08IKHNHAJ@NAN?$CIIND?$CJ?$AA@ 00000001801204d8     libucrtd:cvt.obj
 0002:0001a4e8       ??_C@_08OFCDMILK@nan?$CIind?$CJ?$AA@ 00000001801204e8     libucrtd:cvt.obj
 0002:0001a500       ??_C@_1FO@GKAKAPLI@?$AAm?$AAi?$AAn?$AAk?$AAe?$AAr?$AAn?$AAe?$AAl?$AA?2?$AAc?$AAr?$AAt?$AAs?$AA?2?$AAu?$AAc?$AAr?$AAt?$AA?2?$AAs?$AAr?$AAc?$AA?2?$AAa?$AAp?$AAp?$AAc?$AAr?$AAt?$AA?2?$AAc@ 0000000180120500     libucrtd:cvt.obj
 0002:0001a570       ??_C@_1DE@EHGIGIDK@?$AAf?$AAp?$AA_?$AAf?$AAo?$AAr?$AAm?$AAa?$AAt?$AA_?$AAn?$AAa?$AAn?$AA_?$AAo?$AAr?$AA_?$AAi?$AAn?$AAf?$AAi?$AAn?$AAi?$AAt?$AAy?$AA?$AA@ 0000000180120570     libucrtd:cvt.obj
 0002:0001a5b0       ??_C@_1LI@PCMLJPCO@?$AAs?$AAt?$AAr?$AAc?$AAp?$AAy?$AA_?$AAs?$AA?$CI?$AA?5?$AAr?$AAe?$AAs?$AAu?$AAl?$AAt?$AA_?$AAb?$AAu?$AAf?$AAf?$AAe?$AAr?$AA?0?$AA?5?$AAr?$AAe?$AAs?$AAu?$AAl?$AAt?$AA_@ 00000001801205b0     libucrtd:cvt.obj
 0002:0001a690       ??_C@_1KO@LJHOFBCD@?$AAr?$AAe?$AAs?$AAu?$AAl?$AAt?$AA_?$AAb?$AAu?$AAf?$AAf?$AAe?$AAr?$AA_?$AAc?$AAo?$AAu?$AAn?$AAt?$AA?5?$AA?$DO?$AA?5?$AAs?$AAt?$AAa?$AAt?$AAi?$AAc?$AA_?$AAc?$AAa?$AAs@ 0000000180120690     libucrtd:cvt.obj
 0002:0001a760       ??_C@_1CK@BOLHOMFO@?$AAf?$AAp?$AA_?$AAf?$AAo?$AAr?$AAm?$AAa?$AAt?$AA_?$AAe?$AA_?$AAi?$AAn?$AAt?$AAe?$AAr?$AAn?$AAa?$AAl?$AA?$AA@ 0000000180120760     libucrtd:cvt.obj
 0002:0001a7a0       ??_C@_1BBA@FHDJNBGM@?$AAs?$AAt?$AAr?$AAc?$AAp?$AAy?$AA_?$AAs?$AA?$CI?$AA?5?$AAp?$AA?0?$AA?5?$AAr?$AAe?$AAs?$AAu?$AAl?$AAt?$AA_?$AAb?$AAu?$AAf?$AAf?$AAe?$AAr?$AA_?$AAc?$AAo?$AAu?$AAn?$AAt@ 00000001801207a0     libucrtd:cvt.obj
 0002:0001a8e8       ??_C@_05KLBDPFGC@e?$CL000?$AA@ 00000001801208e8     libucrtd:cvt.obj
 0002:0001a8f0       ??_C@_1IC@FILKPBAB@?$AAr?$AAe?$AAs?$AAu?$AAl?$AAt?$AA_?$AAb?$AAu?$AAf?$AAf?$AAe?$AAr?$AA_?$AAc?$AAo?$AAu?$AAn?$AAt?$AA?5?$AA?$DO?$AA?5?$AAs?$AAt?$AAa?$AAt?$AAi?$AAc?$AA_?$AAc?$AAa?$AAs@ 00000001801208f0     libucrtd:cvt.obj
 0002:0001a990       ??_C@_1BI@PNBDLNBB@?$AAf?$AAp?$AA_?$AAf?$AAo?$AAr?$AAm?$AAa?$AAt?$AA_?$AAa?$AA?$AA@ 0000000180120990     libucrtd:cvt.obj
 0002:0001a9b0       ??_C@_1DC@MGKAFPFD@?$AAr?$AAe?$AAs?$AAu?$AAl?$AAt?$AA_?$AAb?$AAu?$AAf?$AAf?$AAe?$AAr?$AA?5?$AA?$CB?$AA?$DN?$AA?5?$AAn?$AAu?$AAl?$AAl?$AAp?$AAt?$AAr?$AA?$AA@ 00000001801209b0     libucrtd:cvt.obj
 0002:0001a9f0       ??_C@_1CC@LDAHJAKK@?$AA_?$AA_?$AAa?$AAc?$AAr?$AAt?$AA_?$AAf?$AAp?$AA_?$AAf?$AAo?$AAr?$AAm?$AAa?$AAt?$AA?$AA@ 00000001801209f0     libucrtd:cvt.obj
 0002:0001aa18       ??_C@_1DA@NMLJJOCO@?$AAr?$AAe?$AAs?$AAu?$AAl?$AAt?$AA_?$AAb?$AAu?$AAf?$AAf?$AAe?$AAr?$AA_?$AAc?$AAo?$AAu?$AAn?$AAt?$AA?5?$AA?$DO?$AA?5?$AA0?$AA?$AA@ 0000000180120a18     libucrtd:cvt.obj
 0002:0001aa58       ??_C@_1DE@MNOPBCOK@?$AAs?$AAc?$AAr?$AAa?$AAt?$AAc?$AAh?$AA_?$AAb?$AAu?$AAf?$AAf?$AAe?$AAr?$AA?5?$AA?$CB?$AA?$DN?$AA?5?$AAn?$AAu?$AAl?$AAl?$AAp?$AAt?$AAr?$AA?$AA@ 0000000180120a58     libucrtd:cvt.obj
 0002:0001aa98       ??_C@_1DC@CKBKNFKH@?$AAs?$AAc?$AAr?$AAa?$AAt?$AAc?$AAh?$AA_?$AAb?$AAu?$AAf?$AAf?$AAe?$AAr?$AA_?$AAc?$AAo?$AAu?$AAn?$AAt?$AA?5?$AA?$DO?$AA?5?$AA0?$AA?$AA@ 0000000180120a98     libucrtd:cvt.obj
 0002:0001aae0       ??_C@_1EI@JAHBOGIM@?$AA?$CI?$AA?$CC?$AAU?$AAn?$AAs?$AAu?$AAp?$AAp?$AAo?$AAr?$AAt?$AAe?$AAd?$AA?5?$AAf?$AAo?$AAr?$AAm?$AAa?$AAt?$AA?5?$AAs?$AAp?$AAe?$AAc?$AAi?$AAf?$AAi?$AAe?$AAr?$AA?$CC?$AA?0@ 0000000180120ae0     libucrtd:cvt.obj
 0002:0001ab40       ??_C@_1GA@OJHMFOOJ@?$AAm?$AAi?$AAn?$AAk?$AAe?$AAr?$AAn?$AAe?$AAl?$AA?2?$AAc?$AAr?$AAt?$AAs?$AA?2?$AAu?$AAc?$AAr?$AAt?$AA?2?$AAs?$AAr?$AAc?$AA?2?$AAa?$AAp?$AAp?$AAc?$AAr?$AAt?$AA?2?$AAs@ 0000000180120b40     libucrtd:fputwc.obj
 0002:0001abb8       ??_C@_1O@HJNPHHHB@?$AAf?$AAp?$AAu?$AAt?$AAw?$AAc?$AA?$AA@ 0000000180120bb8     libucrtd:fputwc.obj
 0002:0001abc8       ??_C@_1BO@MHPFFFJJ@?$AAs?$AAt?$AAr?$AAe?$AAa?$AAm?$AA?4?$AAv?$AAa?$AAl?$AAi?$AAd?$AA?$CI?$AA?$CJ?$AA?$AA@ 0000000180120bc8     libucrtd:fileno.obj
 0002:0001abf0       ??_C@_1GA@KCAHHNGP@?$AAm?$AAi?$AAn?$AAk?$AAe?$AAr?$AAn?$AAe?$AAl?$AA?2?$AAc?$AAr?$AAt?$AAs?$AA?2?$AAu?$AAc?$AAr?$AAt?$AA?2?$AAs?$AAr?$AAc?$AA?2?$AAa?$AAp?$AAp?$AAc?$AAr?$AAt?$AA?2?$AAs@ 0000000180120bf0     libucrtd:fileno.obj
 0002:0001ac68       ??_C@_1BA@JGHIEKKM@?$AA_?$AAf?$AAi?$AAl?$AAe?$AAn?$AAo?$AA?$AA@ 0000000180120c68     libucrtd:fileno.obj
 0002:0001ac80       ??_C@_1FO@FNOAOMLP@?$AAm?$AAi?$AAn?$AAk?$AAe?$AAr?$AAn?$AAe?$AAl?$AA?2?$AAc?$AAr?$AAt?$AAs?$AA?2?$AAu?$AAc?$AAr?$AAt?$AA?2?$AAs?$AAr?$AAc?$AA?2?$AAa?$AAp?$AAp?$AAc?$AAr?$AAt?$AA?2?$AAs@ 0000000180120c80     libucrtd:fputc.obj
 0002:0001acf0       ??_C@_1M@OIJMPNCO@?$AAf?$AAp?$AAu?$AAt?$AAc?$AA?$AA@ 0000000180120cf0     libucrtd:fputc.obj
 0002:0001ad00       ??_C@_1GC@GBMDABED@?$AAm?$AAi?$AAn?$AAk?$AAe?$AAr?$AAn?$AAe?$AAl?$AA?2?$AAc?$AAr?$AAt?$AAs?$AA?2?$AAu?$AAc?$AAr?$AAt?$AA?2?$AAs?$AAr?$AAc?$AA?2?$AAa?$AAp?$AAp?$AAc?$AAr?$AAt?$AA?2?$AAs@ 0000000180120d00     libucrtd:_sftbuf.obj
 0002:0001ad78       ??_C@_0DB@EPIHMFLB@minkernel?2crts?2ucrt?2src?2appcrt?2s@ 0000000180120d78     libucrtd:_sftbuf.obj
 0002:0001adc0       __lc_category              0000000180120dc0     libucrtd:wsetlocale.obj
 0002:0001ae70       ??_C@_1O@GIFLHMA@?$AAL?$AAC?$AA_?$AAA?$AAL?$AAL?$AA?$AA@ 0000000180120e70     libucrtd:wsetlocale.obj
 0002:0001ae80       ??_C@_1BG@PPOMIBNJ@?$AAL?$AAC?$AA_?$AAC?$AAO?$AAL?$AAL?$AAA?$AAT?$AAE?$AA?$AA@ 0000000180120e80     libucrtd:wsetlocale.obj
 0002:0001aea0       ??_C@_1BC@FFJGAPJM@?$AAL?$AAC?$AA_?$AAC?$AAT?$AAY?$AAP?$AAE?$AA?$AA@ 0000000180120ea0     libucrtd:wsetlocale.obj
 0002:0001aeb8       ??_C@_1BI@PCKFNJFB@?$AAL?$AAC?$AA_?$AAM?$AAO?$AAN?$AAE?$AAT?$AAA?$AAR?$AAY?$AA?$AA@ 0000000180120eb8     libucrtd:wsetlocale.obj
 0002:0001aed8       ??_C@_1BG@ENIEDKID@?$AAL?$AAC?$AA_?$AAN?$AAU?$AAM?$AAE?$AAR?$AAI?$AAC?$AA?$AA@ 0000000180120ed8     libucrtd:wsetlocale.obj
 0002:0001aef8       ??_C@_1BA@HAAOMIIG@?$AAL?$AAC?$AA_?$AAT?$AAI?$AAM?$AAE?$AA?$AA@ 0000000180120ef8     libucrtd:wsetlocale.obj
 0002:0001afb0       ??_C@_1GA@LDEGDKD@?$AA?$CI?$AA?$CC?$AAI?$AAn?$AAv?$AAa?$AAl?$AAi?$AAd?$AA?5?$AAp?$AAa?$AAr?$AAa?$AAm?$AAe?$AAt?$AAe?$AAr?$AA?5?$AAf?$AAo?$AAr?$AA?5?$AA_?$AAc?$AAo?$AAn?$AAf?$AAi?$AAg?$AAt@ 0000000180120fb0     libucrtd:wsetlocale.obj
 0002:0001b030       ??_C@_1GK@DPKNLBIE@?$AAm?$AAi?$AAn?$AAk?$AAe?$AAr?$AAn?$AAe?$AAl?$AA?2?$AAc?$AAr?$AAt?$AAs?$AA?2?$AAu?$AAc?$AAr?$AAt?$AA?2?$AAs?$AAr?$AAc?$AA?2?$AAa?$AAp?$AAp?$AAc?$AAr?$AAt?$AA?2?$AAl@ 0000000180121030     libucrtd:wsetlocale.obj
 0002:0001b0b0       ??_C@_1CI@FGIONOJM@?$AA_?$AAc?$AAo?$AAn?$AAf?$AAi?$AAg?$AAt?$AAh?$AAr?$AAe?$AAa?$AAd?$AAl?$AAo?$AAc?$AAa?$AAl?$AAe?$AA?$AA@ 00000001801210b0     libucrtd:wsetlocale.obj
 0002:0001b0e0       ??_C@_0DF@MKMHJGEJ@minkernel?2crts?2ucrt?2src?2appcrt?2l@ 00000001801210e0     libucrtd:wsetlocale.obj
 0002:0001b120       ??_C@_1FG@OHLFEKMC@?$AAL?$AAC?$AA_?$AAM?$AAI?$AAN?$AA?5?$AA?$DM?$AA?$DN?$AA?5?$AA_?$AAc?$AAa?$AAt?$AAe?$AAg?$AAo?$AAr?$AAy?$AA?5?$AA?$CG?$AA?$CG?$AA?5?$AA_?$AAc?$AAa?$AAt?$AAe?$AAg?$AAo?$AAr?$AAy@ 0000000180121120     libucrtd:wsetlocale.obj
 0002:0001b188       ??_C@_1BI@KJNPAEHL@?$AA_?$AAw?$AAs?$AAe?$AAt?$AAl?$AAo?$AAc?$AAa?$AAl?$AAe?$AA?$AA@ 0000000180121188     libucrtd:wsetlocale.obj
 0002:0001b1a4       ??_C@_15NBPDDFIP@?$AA?$DN?$AA?$DL?$AA?$AA@ 00000001801211a4     libucrtd:wsetlocale.obj
 0002:0001b1ac       ??_C@_13PJJBFPED@?$AA?$DL?$AA?$AA@ 00000001801211ac     libucrtd:wsetlocale.obj
 0002:0001b1b0       ??_C@_1CG@DKJCBBPP@?$AA_?$AAw?$AAs?$AAe?$AAt?$AAl?$AAo?$AAc?$AAa?$AAl?$AAe?$AA_?$AAn?$AAo?$AAl?$AAo?$AAc?$AAk?$AA?$AA@ 00000001801211b0     libucrtd:wsetlocale.obj
 0002:0001b1e0       ??_C@_1IG@NGDCPCDE@?$AAw?$AAc?$AAs?$AAn?$AAc?$AAp?$AAy?$AA_?$AAs?$AA?$CI?$AAl?$AAc?$AAt?$AAe?$AAm?$AAp?$AA?0?$AA?5?$AA?$CI?$AAs?$AAi?$AAz?$AAe?$AAo?$AAf?$AA?$CI?$AA?$CK?$AA_?$AA_?$AAc?$AAo?$AAu@ 00000001801211e0     libucrtd:wsetlocale.obj
 0002:0001b280       ??_C@_1CI@ODOPEMNJ@?$AA_?$AAw?$AAs?$AAe?$AAt?$AAl?$AAo?$AAc?$AAa?$AAl?$AAe?$AA_?$AAs?$AAe?$AAt?$AA_?$AAc?$AAa?$AAt?$AA?$AA@ 0000000180121280     libucrtd:wsetlocale.obj
 0002:0001b2b0       ??_C@_1EM@MHOCNIAA@?$AAw?$AAc?$AAs?$AAc?$AAp?$AAy?$AA_?$AAs?$AA?$CI?$AAp?$AAc?$AAh?$AA_?$AAc?$AAa?$AAt?$AA_?$AAl?$AAo?$AAc?$AAa?$AAl?$AAe?$AA?0?$AA?5?$AAc?$AAc?$AAh?$AA?0?$AA?5?$AAl?$AAc@ 00000001801212b0     libucrtd:wsetlocale.obj
 0002:0001b30c       ??_C@_13NMPKAAJP@?$AA?$DN?$AA?$AA@ 000000018012130c     libucrtd:wsetlocale.obj
 0002:0001b310       ??_C@_1CI@LKOPFFBD@?$AA_?$AAw?$AAs?$AAe?$AAt?$AAl?$AAo?$AAc?$AAa?$AAl?$AAe?$AA_?$AAg?$AAe?$AAt?$AA_?$AAa?$AAl?$AAl?$AA?$AA@ 0000000180121310     libucrtd:wsetlocale.obj
 0002:0001b340       ??_C@_1DC@HMLJMODP@?$AAw?$AAc?$AAs?$AAc?$AAa?$AAt?$AA_?$AAs?$AA?$CI?$AAp?$AAc?$AAh?$AA?0?$AA?5?$AAc?$AAc?$AAh?$AA?0?$AA?5?$AAL?$AA?$CC?$AA?$DL?$AA?$CC?$AA?$CJ?$AA?$AA@ 0000000180121340     libucrtd:wsetlocale.obj
 0002:0001b380       ??_C@_1BM@OIIBLEFG@?$AA_?$AAe?$AAx?$AAp?$AAa?$AAn?$AAd?$AAl?$AAo?$AAc?$AAa?$AAl?$AAe?$AA?$AA@ 0000000180121380     libucrtd:wsetlocale.obj
 0002:0001b3b0       ??_C@_1BCM@BOFLACKH@?$AAw?$AAc?$AAs?$AAn?$AAc?$AAp?$AAy?$AA_?$AAs?$AA?$CI?$AAl?$AAo?$AAc?$AAa?$AAl?$AAe?$AAN?$AAa?$AAm?$AAe?$AAO?$AAu?$AAt?$AAp?$AAu?$AAt?$AA?0?$AA?5?$AAl?$AAo?$AAc?$AAa@ 00000001801213b0     libucrtd:wsetlocale.obj
 0002:0001b520       ??_C@_1EI@OCINLCHN@?$AAw?$AAc?$AAs?$AAc?$AAp?$AAy?$AA_?$AAs?$AA?$CI?$AAo?$AAu?$AAt?$AAp?$AAu?$AAt?$AA?0?$AA?5?$AAs?$AAi?$AAz?$AAe?$AAI?$AAn?$AAC?$AAh?$AAa?$AAr?$AAs?$AA?0?$AA?5?$AAL?$AA?$CC@ 0000000180121520     libucrtd:wsetlocale.obj
 0002:0001b578       ??_C@_13FHBKNHDA@?$AAC?$AA?$AA@ 0000000180121578     libucrtd:wsetlocale.obj
 0002:0001b580       ??_C@_1MO@NNCNEOAP@?$AAw?$AAc?$AAs?$AAn?$AAc?$AAp?$AAy?$AA_?$AAs?$AA?$CI?$AAl?$AAo?$AAc?$AAa?$AAl?$AAe?$AAN?$AAa?$AAm?$AAe?$AAO?$AAu?$AAt?$AAp?$AAu?$AAt?$AA?0?$AA?5?$AAl?$AAo?$AAc?$AAa@ 0000000180121580     libucrtd:wsetlocale.obj
 0002:0001b680       ??_C@_1IG@MKDIEKFD@?$AAw?$AAc?$AAs?$AAn?$AAc?$AAp?$AAy?$AA_?$AAs?$AA?$CI?$AAc?$AAa?$AAc?$AAh?$AAe?$AAo?$AAu?$AAt?$AA?0?$AA?5?$AAc?$AAa?$AAc?$AAh?$AAe?$AAo?$AAu?$AAt?$AAL?$AAe?$AAn?$AA?0@ 0000000180121680     libucrtd:wsetlocale.obj
 0002:0001b720       ??_C@_1KK@KMIFPBBC@?$AAw?$AAc?$AAs?$AAn?$AAc?$AAp?$AAy?$AA_?$AAs?$AA?$CI?$AAl?$AAo?$AAc?$AAa?$AAl?$AAe?$AAN?$AAa?$AAm?$AAe?$AAO?$AAu?$AAt?$AAp?$AAu?$AAt?$AA?0?$AA?5?$AAl?$AAo?$AAc?$AAa@ 0000000180121720     libucrtd:wsetlocale.obj
 0002:0001b7f0       ??_C@_1BBO@MGLBPLBP@?$AAw?$AAc?$AAs?$AAn?$AAc?$AAp?$AAy?$AA_?$AAs?$AA?$CI?$AA_?$AAp?$AAs?$AAe?$AAt?$AAl?$AAo?$AAc?$AA_?$AAd?$AAa?$AAt?$AAa?$AA?9?$AA?$DO?$AA_?$AAc?$AAa?$AAc?$AAh?$AAe?$AAL@ 00000001801217f0     libucrtd:wsetlocale.obj
 0002:0001b950       ??_C@_1BDK@DHHMOMPJ@?$AAw?$AAc?$AAs?$AAn?$AAc?$AAp?$AAy?$AA_?$AAs?$AA?$CI?$AA_?$AAp?$AAs?$AAe?$AAt?$AAl?$AAo?$AAc?$AA_?$AAd?$AAa?$AAt?$AAa?$AA?9?$AA?$DO?$AA_?$AAc?$AAa?$AAc?$AAh?$AAe?$AAL@ 0000000180121950     libucrtd:wsetlocale.obj
 0002:0001bad0       ??_C@_1IC@FCCDBGLL@?$AAw?$AAc?$AAs?$AAn?$AAc?$AAp?$AAy?$AA_?$AAs?$AA?$CI?$AAc?$AAa?$AAc?$AAh?$AAe?$AAi?$AAn?$AA?0?$AA?5?$AAc?$AAa?$AAc?$AAh?$AAe?$AAi?$AAn?$AAL?$AAe?$AAn?$AA?0?$AA?5?$AAe@ 0000000180121ad0     libucrtd:wsetlocale.obj
 0002:0001bb70       ??_C@_1FA@HOOAAHFF@?$AAw?$AAc?$AAs?$AAc?$AAp?$AAy?$AA_?$AAs?$AA?$CI?$AAo?$AAu?$AAt?$AAp?$AAu?$AAt?$AA?0?$AA?5?$AAs?$AAi?$AAz?$AAe?$AAI?$AAn?$AAC?$AAh?$AAa?$AAr?$AAs?$AA?0?$AA?5?$AAc?$AAa@ 0000000180121b70     libucrtd:wsetlocale.obj
 0002:0001bbd0       ??_C@_1BC@LEOKFFML@?$AA_?$AAw?$AAc?$AAs?$AAc?$AAa?$AAt?$AAs?$AA?$AA@ 0000000180121bd0     libucrtd:wsetlocale.obj
 0002:0001bbf0       ??_C@_1CAG@PIBCFPMG@?$AAw?$AAc?$AAs?$AAc?$AAa?$AAt?$AA_?$AAs?$AA?$CI?$AAo?$AAu?$AAt?$AAs?$AAt?$AAr?$AA?0?$AA?5?$AAn?$AAu?$AAm?$AAb?$AAe?$AAr?$AAO?$AAf?$AAE?$AAl?$AAe?$AAm?$AAe?$AAn?$AAt@ 0000000180121bf0     libucrtd:wsetlocale.obj
 0002:0001be60       ??_C@_1BK@GNCHCGCN@?$AA_?$AA_?$AAl?$AAc?$AA_?$AAw?$AAc?$AAs?$AAt?$AAo?$AAl?$AAc?$AA?$AA@ 0000000180121e60     libucrtd:wsetlocale.obj
 0002:0001be80       ??_C@_1MI@MGHKCMFH@?$AAw?$AAc?$AAs?$AAn?$AAc?$AAp?$AAy?$AA_?$AAs?$AA?$CI?$AAn?$AAa?$AAm?$AAe?$AAs?$AA?9?$AA?$DO?$AAs?$AAz?$AAC?$AAo?$AAd?$AAe?$AAP?$AAa?$AAg?$AAe?$AA?0?$AA?5?$AA?$CI?$AAs?$AAi@ 0000000180121e80     libucrtd:wsetlocale.obj
 0002:0001bf70       ??_C@_17MBJJLFDM@?$AA_?$AA?4?$AA?0?$AA?$AA@ 0000000180121f70     libucrtd:wsetlocale.obj
 0002:0001bf80       ??_C@_1LO@GGCCDNLJ@?$AAw?$AAc?$AAs?$AAn?$AAc?$AAp?$AAy?$AA_?$AAs?$AA?$CI?$AAn?$AAa?$AAm?$AAe?$AAs?$AA?9?$AA?$DO?$AAs?$AAz?$AAL?$AAa?$AAn?$AAg?$AAu?$AAa?$AAg?$AAe?$AA?0?$AA?5?$AA?$CI?$AAs?$AAi@ 0000000180121f80     libucrtd:wsetlocale.obj
 0002:0001c070       ??_C@_1LK@JOIOCOID@?$AAw?$AAc?$AAs?$AAn?$AAc?$AAp?$AAy?$AA_?$AAs?$AA?$CI?$AAn?$AAa?$AAm?$AAe?$AAs?$AA?9?$AA?$DO?$AAs?$AAz?$AAC?$AAo?$AAu?$AAn?$AAt?$AAr?$AAy?$AA?0?$AA?5?$AA?$CI?$AAs?$AAi?$AAz@ 0000000180122070     libucrtd:wsetlocale.obj
 0002:0001c150       ??_C@_1LO@OJICFEP@?$AAw?$AAc?$AAs?$AAn?$AAc?$AAp?$AAy?$AA_?$AAs?$AA?$CI?$AAn?$AAa?$AAm?$AAe?$AAs?$AA?9?$AA?$DO?$AAs?$AAz?$AAC?$AAo?$AAd?$AAe?$AAP?$AAa?$AAg?$AAe?$AA?0?$AA?5?$AA?$CI?$AAs?$AAi@ 0000000180122150     libucrtd:wsetlocale.obj
 0002:0001c238       ??_C@_1BK@HEBMGPEK@?$AA_?$AA_?$AAl?$AAc?$AA_?$AAl?$AAc?$AAt?$AAo?$AAw?$AAc?$AAs?$AA?$AA@ 0000000180122238     libucrtd:wsetlocale.obj
 0002:0001c260       ??_C@_1GM@FOFMGOEK@?$AAw?$AAc?$AAs?$AAc?$AAp?$AAy?$AA_?$AAs?$AA?$CI?$AAl?$AAo?$AAc?$AAa?$AAl?$AAe?$AA?0?$AA?5?$AAn?$AAu?$AAm?$AAb?$AAe?$AAr?$AAO?$AAf?$AAE?$AAl?$AAe?$AAm?$AAe?$AAn?$AAt@ 0000000180122260     libucrtd:wsetlocale.obj
 0002:0001c2e4       ??_C@_13ENNFDPBH@?$AA_?$AA?$AA@ 00000001801222e4     libucrtd:wsetlocale.obj
 0002:0001c2e8       ??_C@_13JOFGPIOO@?$AA?4?$AA?$AA@ 00000001801222e8     libucrtd:wsetlocale.obj
 0002:0001c2f0       ??_C@_1DA@BBIOOKDN@?$AA_?$AA_?$AAa?$AAc?$AAr?$AAt?$AA_?$AAc?$AAo?$AAp?$AAy?$AA_?$AAl?$AAo?$AAc?$AAa?$AAl?$AAe?$AA_?$AAn?$AAa?$AAm?$AAe?$AA?$AA@ 00000001801222f0     libucrtd:wsetlocale.obj
 0002:0001c330       ??_C@_1GI@HBNMCKGD@?$AAw?$AAc?$AAs?$AAn?$AAc?$AAp?$AAy?$AA_?$AAs?$AA?$CI?$AAl?$AAo?$AAc?$AAa?$AAl?$AAe?$AAN?$AAa?$AAm?$AAe?$AAC?$AAo?$AAp?$AAy?$AA?0?$AA?5?$AAc?$AAc?$AAh?$AA?$CL?$AA1?$AA?0@ 0000000180122330     libucrtd:wsetlocale.obj
 0002:0001c3b0       __lc_time_c                00000001801223b0     libucrtd:nlsdata.obj
 0002:0001c6fc       ??_C@_03KOEHGMDN@Sun?$AA@  00000001801226fc     libucrtd:nlsdata.obj
 0002:0001c700       ??_C@_03PDAGKDH@Mon?$AA@   0000000180122700     libucrtd:nlsdata.obj
 0002:0001c704       ??_C@_03NAGEINEP@Tue?$AA@  0000000180122704     libucrtd:nlsdata.obj
 0002:0001c708       ??_C@_03MHOMLAJA@Wed?$AA@  0000000180122708     libucrtd:nlsdata.obj
 0002:0001c70c       ??_C@_03IOFIKPDN@Thu?$AA@  000000018012270c     libucrtd:nlsdata.obj
 0002:0001c710       ??_C@_03IDIOELNC@Fri?$AA@  0000000180122710     libucrtd:nlsdata.obj
 0002:0001c714       ??_C@_03FEFJNEK@Sat?$AA@   0000000180122714     libucrtd:nlsdata.obj
 0002:0001c718       ??_C@_06OOPIFAJ@Sunday?$AA@ 0000000180122718     libucrtd:nlsdata.obj
 0002:0001c720       ??_C@_06JLEDEDGH@Monday?$AA@ 0000000180122720     libucrtd:nlsdata.obj
 0002:0001c728       ??_C@_07BAAGCFCM@Tuesday?$AA@ 0000000180122728     libucrtd:nlsdata.obj
 0002:0001c738       ??_C@_09DLIGFAKA@Wednesday?$AA@ 0000000180122738     libucrtd:nlsdata.obj
 0002:0001c748       ??_C@_08HACCIKIA@Thursday?$AA@ 0000000180122748     libucrtd:nlsdata.obj
 0002:0001c754       ??_C@_06JECMNKMI@Friday?$AA@ 0000000180122754     libucrtd:nlsdata.obj
 0002:0001c760       ??_C@_08INBOOONO@Saturday?$AA@ 0000000180122760     libucrtd:nlsdata.obj
 0002:0001c76c       ??_C@_03JIHJHPIE@Jan?$AA@  000000018012276c     libucrtd:nlsdata.obj
 0002:0001c770       ??_C@_03HJBDCHOM@Feb?$AA@  0000000180122770     libucrtd:nlsdata.obj
 0002:0001c774       ??_C@_03ODNJBKGA@Mar?$AA@  0000000180122774     libucrtd:nlsdata.obj
 0002:0001c778       ??_C@_03LEOLGMJP@Apr?$AA@  0000000180122778     libucrtd:nlsdata.obj
 0002:0001c77c       ??_C@_03CNMDKL@May?$AA@    000000018012277c     libucrtd:nlsdata.obj
 0002:0001c780       ??_C@_03IDFGHECI@Jun?$AA@  0000000180122780     libucrtd:nlsdata.obj
 0002:0001c784       ??_C@_03LBGABGKK@Jul?$AA@  0000000180122784     libucrtd:nlsdata.obj
 0002:0001c788       ??_C@_03IFJFEIGA@Aug?$AA@  0000000180122788     libucrtd:nlsdata.obj
 0002:0001c78c       ??_C@_03GGCAPAJC@Sep?$AA@  000000018012278c     libucrtd:nlsdata.obj
 0002:0001c790       ??_C@_03BMAOKBAD@Oct?$AA@  0000000180122790     libucrtd:nlsdata.obj
 0002:0001c794       ??_C@_03JPJOFNIA@Nov?$AA@  0000000180122794     libucrtd:nlsdata.obj
 0002:0001c798       ??_C@_03MKABNOCG@Dec?$AA@  0000000180122798     libucrtd:nlsdata.obj
 0002:0001c7a0       ??_C@_07CGJPFGJA@January?$AA@ 00000001801227a0     libucrtd:nlsdata.obj
 0002:0001c7b0       ??_C@_08GNJGEPFN@February?$AA@ 00000001801227b0     libucrtd:nlsdata.obj
 0002:0001c7bc       ??_C@_05HPCKOFNC@March?$AA@ 00000001801227bc     libucrtd:nlsdata.obj
 0002:0001c7c4       ??_C@_05DMJDNLEJ@April?$AA@ 00000001801227c4     libucrtd:nlsdata.obj
 0002:0001c7cc       ??_C@_04CNLMGBGM@June?$AA@ 00000001801227cc     libucrtd:nlsdata.obj
 0002:0001c7d4       ??_C@_04MIEPOIFP@July?$AA@ 00000001801227d4     libucrtd:nlsdata.obj
 0002:0001c7dc       ??_C@_06LBBHFDDG@August?$AA@ 00000001801227dc     libucrtd:nlsdata.obj
 0002:0001c7e8       ??_C@_09BHHEALKD@September?$AA@ 00000001801227e8     libucrtd:nlsdata.obj
 0002:0001c7f8       ??_C@_07JJNFCEND@October?$AA@ 00000001801227f8     libucrtd:nlsdata.obj
 0002:0001c808       ??_C@_08HCHEGEOA@November?$AA@ 0000000180122808     libucrtd:nlsdata.obj
 0002:0001c818       ??_C@_08EDHMEBNP@December?$AA@ 0000000180122818     libucrtd:nlsdata.obj
 0002:0001c824       ??_C@_02DEDBPAFC@AM?$AA@   0000000180122824     libucrtd:nlsdata.obj
 0002:0001c828       ??_C@_02CJNFDJBF@PM?$AA@   0000000180122828     libucrtd:nlsdata.obj
 0002:0001c830       ??_C@_08BPBNCDIB@MM?1dd?1yy?$AA@ 0000000180122830     libucrtd:nlsdata.obj
 0002:0001c840       ??_C@_0BE@CKGJFCPC@dddd?0?5MMMM?5dd?0?5yyyy?$AA@ 0000000180122840     libucrtd:nlsdata.obj
 0002:0001c858       ??_C@_08JCCMCCIL@HH?3mm?3ss?$AA@ 0000000180122858     libucrtd:nlsdata.obj
 0002:0001c868       ??_C@_17MBGCMIPB@?$AAS?$AAu?$AAn?$AA?$AA@ 0000000180122868     libucrtd:nlsdata.obj
 0002:0001c878       ??_C@_17KBOMKBF@?$AAM?$AAo?$AAn?$AA?$AA@ 0000000180122878     libucrtd:nlsdata.obj
 0002:0001c888       ??_C@_17BMKGEGOJ@?$AAT?$AAu?$AAe?$AA?$AA@ 0000000180122888     libucrtd:nlsdata.obj
 0002:0001c898       ??_C@_17CJEDCEPE@?$AAW?$AAe?$AAd?$AA?$AA@ 0000000180122898     libucrtd:nlsdata.obj
 0002:0001c8a8       ??_C@_17PDPHAADD@?$AAT?$AAh?$AAu?$AA?$AA@ 00000001801228a8     libucrtd:nlsdata.obj
 0002:0001c8b8       ??_C@_17HFOLPPLP@?$AAF?$AAr?$AAi?$AA?$AA@ 00000001801228b8     libucrtd:nlsdata.obj
 0002:0001c8c8       ??_C@_17GGIBDPIH@?$AAS?$AAa?$AAt?$AA?$AA@ 00000001801228c8     libucrtd:nlsdata.obj
 0002:0001c8d8       ??_C@_1O@IHNHDHPB@?$AAS?$AAu?$AAn?$AAd?$AAa?$AAy?$AA?$AA@ 00000001801228d8     libucrtd:nlsdata.obj
 0002:0001c8e8       ??_C@_1O@MMNBFLIA@?$AAM?$AAo?$AAn?$AAd?$AAa?$AAy?$AA?$AA@ 00000001801228e8     libucrtd:nlsdata.obj
 0002:0001c8f8       ??_C@_1BA@ENFBFFEK@?$AAT?$AAu?$AAe?$AAs?$AAd?$AAa?$AAy?$AA?$AA@ 00000001801228f8     libucrtd:nlsdata.obj
 0002:0001c910       ??_C@_1BE@EBOGMDOH@?$AAW?$AAe?$AAd?$AAn?$AAe?$AAs?$AAd?$AAa?$AAy?$AA?$AA@ 0000000180122910     libucrtd:nlsdata.obj
 0002:0001c928       ??_C@_1BC@HHMNLIHE@?$AAT?$AAh?$AAu?$AAr?$AAs?$AAd?$AAa?$AAy?$AA?$AA@ 0000000180122928     libucrtd:nlsdata.obj
 0002:0001c940       ??_C@_1O@PDICJHAG@?$AAF?$AAr?$AAi?$AAd?$AAa?$AAy?$AA?$AA@ 0000000180122940     libucrtd:nlsdata.obj
 0002:0001c950       ??_C@_1BC@ENMNNPAJ@?$AAS?$AAa?$AAt?$AAu?$AAr?$AAd?$AAa?$AAy?$AA?$AA@ 0000000180122950     libucrtd:nlsdata.obj
 0002:0001c968       ??_C@_17DKNBKCHM@?$AAJ?$AAa?$AAn?$AA?$AA@ 0000000180122968     libucrtd:nlsdata.obj
 0002:0001c978       ??_C@_17LMDJEKJN@?$AAF?$AAe?$AAb?$AA?$AA@ 0000000180122978     libucrtd:nlsdata.obj
 0002:0001c988       ??_C@_17CKNLEDEC@?$AAM?$AAa?$AAr?$AA?$AA@ 0000000180122988     libucrtd:nlsdata.obj
 0002:0001c998       ??_C@_17LFPOIHDD@?$AAA?$AAp?$AAr?$AA?$AA@ 0000000180122998     libucrtd:nlsdata.obj
 0002:0001c9a8       ??_C@_17PNNKMEED@?$AAM?$AAa?$AAy?$AA?$AA@ 00000001801229a8     libucrtd:nlsdata.obj
 0002:0001c9b8       ??_C@_17KCJGOCPB@?$AAJ?$AAu?$AAn?$AA?$AA@ 00000001801229b8     libucrtd:nlsdata.obj
 0002:0001c9c8       ??_C@_17IJPCKHK@?$AAJ?$AAu?$AAl?$AA?$AA@ 00000001801229c8     libucrtd:nlsdata.obj
 0002:0001c9d8       ??_C@_17ICPELBCN@?$AAA?$AAu?$AAg?$AA?$AA@ 00000001801229d8     libucrtd:nlsdata.obj
 0002:0001c9e8       ??_C@_17HCHCOKMG@?$AAS?$AAe?$AAp?$AA?$AA@ 00000001801229e8     libucrtd:nlsdata.obj
 0002:0001c9f8       ??_C@_17FNLKOI@?$AAO?$AAc?$AAt?$AA?$AA@ 00000001801229f8     libucrtd:nlsdata.obj
 0002:0001ca08       ??_C@_17BBDMLCIG@?$AAN?$AAo?$AAv?$AA?$AA@ 0000000180122a08     libucrtd:nlsdata.obj
 0002:0001ca18       ??_C@_17EGKACKIF@?$AAD?$AAe?$AAc?$AA?$AA@ 0000000180122a18     libucrtd:nlsdata.obj
 0002:0001ca28       ??_C@_1BA@EFMEIEBA@?$AAJ?$AAa?$AAn?$AAu?$AAa?$AAr?$AAy?$AA?$AA@ 0000000180122a28     libucrtd:nlsdata.obj
 0002:0001ca40       ??_C@_1BC@JGDDFFAM@?$AAF?$AAe?$AAb?$AAr?$AAu?$AAa?$AAr?$AAy?$AA?$AA@ 0000000180122a40     libucrtd:nlsdata.obj
 0002:0001ca58       ??_C@_1M@IKEENEDF@?$AAM?$AAa?$AAr?$AAc?$AAh?$AA?$AA@ 0000000180122a58     libucrtd:nlsdata.obj
 0002:0001ca68       ??_C@_1M@GJNLMHFD@?$AAA?$AAp?$AAr?$AAi?$AAl?$AA?$AA@ 0000000180122a68     libucrtd:nlsdata.obj
 0002:0001ca78       ??_C@_19EPFLPGAP@?$AAJ?$AAu?$AAn?$AAe?$AA?$AA@ 0000000180122a78     libucrtd:nlsdata.obj
 0002:0001ca88       ??_C@_19BIFMLPCD@?$AAJ?$AAu?$AAl?$AAy?$AA?$AA@ 0000000180122a88     libucrtd:nlsdata.obj
 0002:0001ca98       ??_C@_1O@PAHLKOAC@?$AAA?$AAu?$AAg?$AAu?$AAs?$AAt?$AA?$AA@ 0000000180122a98     libucrtd:nlsdata.obj
 0002:0001caa8       ??_C@_1BE@DKAAMBJL@?$AAS?$AAe?$AAp?$AAt?$AAe?$AAm?$AAb?$AAe?$AAr?$AA?$AA@ 0000000180122aa8     libucrtd:nlsdata.obj
 0002:0001cac0       ??_C@_1BA@EPANDLNG@?$AAO?$AAc?$AAt?$AAo?$AAb?$AAe?$AAr?$AA?$AA@ 0000000180122ac0     libucrtd:nlsdata.obj
 0002:0001cad8       ??_C@_1BC@BGLIFPF@?$AAN?$AAo?$AAv?$AAe?$AAm?$AAb?$AAe?$AAr?$AA?$AA@ 0000000180122ad8     libucrtd:nlsdata.obj
 0002:0001caf0       ??_C@_1BC@FEMKIFH@?$AAD?$AAe?$AAc?$AAe?$AAm?$AAb?$AAe?$AAr?$AA?$AA@ 0000000180122af0     libucrtd:nlsdata.obj
 0002:0001cb08       ??_C@_15ODEHAHHF@?$AAA?$AAM?$AA?$AA@ 0000000180122b08     libucrtd:nlsdata.obj
 0002:0001cb10       ??_C@_15CLMNNGEL@?$AAP?$AAM?$AA?$AA@ 0000000180122b10     libucrtd:nlsdata.obj
 0002:0001cb18       ??_C@_1BC@IEBCMHCM@?$AAM?$AAM?$AA?1?$AAd?$AAd?$AA?1?$AAy?$AAy?$AA?$AA@ 0000000180122b18     libucrtd:nlsdata.obj
 0002:0001cb30       ??_C@_1CI@KNAKOEBC@?$AAd?$AAd?$AAd?$AAd?$AA?0?$AA?5?$AAM?$AAM?$AAM?$AAM?$AA?5?$AAd?$AAd?$AA?0?$AA?5?$AAy?$AAy?$AAy?$AAy?$AA?$AA@ 0000000180122b30     libucrtd:nlsdata.obj
 0002:0001cb60       ??_C@_1BC@GDGBMEMK@?$AAH?$AAH?$AA?3?$AAm?$AAm?$AA?3?$AAs?$AAs?$AA?$AA@ 0000000180122b60     libucrtd:nlsdata.obj
 0002:0001cb78       ??_C@_1M@BMHNFIME@?$AAe?$AAn?$AA?9?$AAU?$AAS?$AA?$AA@ 0000000180122b78     libucrtd:nlsdata.obj
 0002:0001cb90       __Lcosarray                0000000180122b90     libucrtd:lsincos_array.obj
 0002:0001cbf0       __Lsinarray                0000000180122bf0     libucrtd:lsincos_array.obj
 0002:0001d048       ??_C@_04LAGPAAHP@sinf?$AA@ 0000000180123048     libucrtd:sincos_special.obj
 0002:0001d050       ??_C@_03BLEJJJBH@sin?$AA@  0000000180123050     libucrtd:sincos_special.obj
 0002:0001d054       ??_C@_04OBBKPIAC@cosf?$AA@ 0000000180123054     libucrtd:sincos_special.obj
 0002:0001d05c       ??_C@_03LALBNOCG@cos?$AA@  000000018012305c     libucrtd:sincos_special.obj
 0002:0001d060       ??_C@_03IIINPABG@tan?$AA@  0000000180123060     libucrtd:sincos_special.obj
 0002:0001d064       ??_C@_04MHPLPEIA@tanf?$AA@ 0000000180123064     libucrtd:sincos_special.obj
 0002:0001d080       __Lcosfarray               0000000180123080     libucrtd:lsincosf_array.obj
 0002:0001d0b0       __Lsinfarray               00000001801230b0     libucrtd:lsincosf_array.obj
 0002:0001d0e0       __L_2_by_pi_bits           00000001801230e0     libucrtd:l2_by_pi_bits.obj
 0002:0001d270       ??_C@_1FA@IFFFOLDJ@?$AAn?$AAR?$AAp?$AAt?$AAT?$AAy?$AAp?$AAe?$AA?5?$AA?$DO?$AA?$DN?$AA?5?$AA0?$AA?5?$AA?$CG?$AA?$CG?$AA?5?$AAn?$AAR?$AAp?$AAt?$AAT?$AAy?$AAp?$AAe?$AA?5?$AA?$DM?$AA?5?$AA_?$AAC?$AAR?$AAT@ 0000000180123270     libucrtd:dbgrptt.obj
 0002:0001d2d0       ??_C@_1GA@LFAOKOOP@?$AAm?$AAi?$AAn?$AAk?$AAe?$AAr?$AAn?$AAe?$AAl?$AA?2?$AAc?$AAr?$AAt?$AAs?$AA?2?$AAu?$AAc?$AAr?$AAt?$AA?2?$AAs?$AAr?$AAc?$AA?2?$AAa?$AAp?$AAp?$AAc?$AAr?$AAt?$AA?2?$AAm@ 00000001801232d0     libucrtd:dbgrptt.obj
 0002:0001d348       ??_C@_1CE@FIHIECNJ@?$AA_?$AAC?$AAr?$AAt?$AAS?$AAe?$AAt?$AAR?$AAe?$AAp?$AAo?$AAr?$AAt?$AAM?$AAo?$AAd?$AAe?$AA?$AA@ 0000000180123348     libucrtd:dbgrptt.obj
 0002:0001d380       ??_C@_1NK@LOFHIHFC@?$AAf?$AAM?$AAo?$AAd?$AAe?$AA?5?$AA?$DN?$AA?$DN?$AA?5?$AA_?$AAC?$AAR?$AAT?$AAD?$AAB?$AAG?$AA_?$AAR?$AAE?$AAP?$AAO?$AAR?$AAT?$AA_?$AAM?$AAO?$AAD?$AAE?$AA?5?$AA?$HM?$AA?$HM?$AA?5@ 0000000180123380     libucrtd:dbgrptt.obj
 0002:0001d488       ??_C@_1CE@IKKEDCME@?$AA_?$AAC?$AAr?$AAt?$AAS?$AAe?$AAt?$AAR?$AAe?$AAp?$AAo?$AAr?$AAt?$AAF?$AAi?$AAl?$AAe?$AA?$AA@ 0000000180123488     libucrtd:dbgrptt.obj
 0002:0001d4b8       ??_C@_1CA@KHJHLKA@?$AA_?$AAV?$AAC?$AAr?$AAt?$AAD?$AAb?$AAg?$AAR?$AAe?$AAp?$AAo?$AAr?$AAt?$AAA?$AA?$AA@ 00000001801234b8     libucrtd:dbgrptt.obj
 0002:0001d4e0       ??_C@_1FA@JPHJBHEM@?$AA_?$AAi?$AAt?$AAo?$AAa?$AA_?$AAs?$AA?$CI?$AAn?$AAL?$AAi?$AAn?$AAe?$AA?0?$AA?5?$AAs?$AAz?$AAL?$AAi?$AAn?$AAe?$AAM?$AAe?$AAs?$AAs?$AAa?$AAg?$AAe?$AA?0?$AA?5?$AA4?$AA0@ 00000001801234e0     libucrtd:dbgrptt.obj
 0002:0001d540       ??_C@_0CG@BNGLOCEO@Second?5Chance?5Assertion?5Failed?3?5@ 0000000180123540     libucrtd:dbgrptt.obj
 0002:0001d570       ??_C@_0P@DFJNDPOP@?$DMfile?5unknown?$DO?$AA@ 0000000180123570     libucrtd:dbgrptt.obj
 0002:0001d588       ??_C@_07BHGABMGB@?0?5Line?5?$AA@ 0000000180123588     libucrtd:dbgrptt.obj
 0002:0001d5a0       ??_C@_1JI@GAALPGBM@?$AAs?$AAt?$AAr?$AAc?$AAp?$AAy?$AA_?$AAs?$AA?$CI?$AAs?$AAz?$AAU?$AAs?$AAe?$AAr?$AAM?$AAe?$AAs?$AAs?$AAa?$AAg?$AAe?$AA?0?$AA?5?$AA4?$AA0?$AA9?$AA6?$AA?0?$AA?5?$AA?$CC?$AA_@ 00000001801235a0     libucrtd:dbgrptt.obj
 0002:0001d658       ??_C@_0CL@EACFGMNB@_CrtDbgReport?3?5String?5too?5long?5o@ 0000000180123658     libucrtd:dbgrptt.obj
 0002:0001d690       ??_C@_1KK@GIGAEDMO@?$AAs?$AAt?$AAr?$AAc?$AAp?$AAy?$AA_?$AAs?$AA?$CI?$AAs?$AAz?$AAL?$AAi?$AAn?$AAe?$AAM?$AAe?$AAs?$AAs?$AAa?$AAg?$AAe?$AA?0?$AA?5?$AA4?$AA0?$AA9?$AA6?$AA?0?$AA?5?$AAs?$AAz@ 0000000180123690     libucrtd:dbgrptt.obj
 0002:0001d760       ??_C@_0BD@CAENFOHP@Assertion?5failed?3?5?$AA@ 0000000180123760     libucrtd:dbgrptt.obj
 0002:0001d778       ??_C@_0BC@LAIDCHCH@Assertion?5failed?$CB?$AA@ 0000000180123778     libucrtd:dbgrptt.obj
 0002:0001d790       ??_C@_1FK@NPGBPOFO@?$AAs?$AAt?$AAr?$AAc?$AAa?$AAt?$AA_?$AAs?$AA?$CI?$AAs?$AAz?$AAL?$AAi?$AAn?$AAe?$AAM?$AAe?$AAs?$AAs?$AAa?$AAg?$AAe?$AA?0?$AA?5?$AA4?$AA0?$AA9?$AA6?$AA?0?$AA?5?$AAs?$AAz@ 0000000180123790     libucrtd:dbgrptt.obj
 0002:0001d800       ??_C@_1EI@CACDLAFK@?$AAs?$AAt?$AAr?$AAc?$AAa?$AAt?$AA_?$AAs?$AA?$CI?$AAs?$AAz?$AAL?$AAi?$AAn?$AAe?$AAM?$AAe?$AAs?$AAs?$AAa?$AAg?$AAe?$AA?0?$AA?5?$AA4?$AA0?$AA9?$AA6?$AA?0?$AA?5?$AA?$CC?$AA?2@ 0000000180123800     libucrtd:dbgrptt.obj
 0002:0001d858       ??_C@_01LIIJDEN@?$AN?$AA@  0000000180123858     libucrtd:dbgrptt.obj
 0002:0001d860       ??_C@_1EI@LDHJEDO@?$AAs?$AAt?$AAr?$AAc?$AAa?$AAt?$AA_?$AAs?$AA?$CI?$AAs?$AAz?$AAL?$AAi?$AAn?$AAe?$AAM?$AAe?$AAs?$AAs?$AAa?$AAg?$AAe?$AA?0?$AA?5?$AA4?$AA0?$AA9?$AA6?$AA?0?$AA?5?$AA?$CC?$AA?2@ 0000000180123860     libucrtd:dbgrptt.obj
 0002:0001d8b8       ??_C@_0M@IPILFDFN@?$CFs?$CI?$CFd?$CJ?5?3?5?$CFs?$AA@ 00000001801238b8     libucrtd:dbgrptt.obj
 0002:0001d8d0       ??_C@_1JG@CPKCIOEE@?$AAs?$AAt?$AAr?$AAc?$AAp?$AAy?$AA_?$AAs?$AA?$CI?$AAs?$AAz?$AAO?$AAu?$AAt?$AAM?$AAe?$AAs?$AAs?$AAa?$AAg?$AAe?$AA?0?$AA?5?$AA4?$AA0?$AA9?$AA6?$AA?0?$AA?5?$AA?$CC?$AA_?$AAC@ 00000001801238d0     libucrtd:dbgrptt.obj
 0002:0001d990       ??_C@_1FI@IBIOIHEG@?$AAs?$AAt?$AAr?$AAc?$AAp?$AAy?$AA_?$AAs?$AA?$CI?$AAs?$AAz?$AAO?$AAu?$AAt?$AAM?$AAe?$AAs?$AAs?$AAa?$AAg?$AAe?$AA?0?$AA?5?$AA4?$AA0?$AA9?$AA6?$AA?0?$AA?5?$AAs?$AAz?$AAL@ 0000000180123990     libucrtd:dbgrptt.obj
 0002:0001da00       ??_C@_1IM@OOKIFKOH@?$AAe?$AA?5?$AA?$DN?$AA?5?$AAm?$AAb?$AAs?$AAt?$AAo?$AAw?$AAc?$AAs?$AA_?$AAs?$AA?$CI?$AA?$CG?$AAr?$AAe?$AAt?$AA?0?$AA?5?$AAs?$AAz?$AAO?$AAu?$AAt?$AAM?$AAe?$AAs?$AAs?$AAa?$AAg@ 0000000180123a00     libucrtd:dbgrptt.obj
 0002:0001dab0       ??_C@_1MC@IGEECMDB@?$AAw?$AAc?$AAs?$AAc?$AAp?$AAy?$AA_?$AAs?$AA?$CI?$AAs?$AAz?$AAO?$AAu?$AAt?$AAM?$AAe?$AAs?$AAs?$AAa?$AAg?$AAe?$AA2?$AA?0?$AA?5?$AA4?$AA0?$AA9?$AA6?$AA?0?$AA?5?$AAL?$AA?$CC@ 0000000180123ab0     libucrtd:dbgrptt.obj
 0002:0001dba0       ??_C@_1HO@PJOFIKFE@?$AA_?$AAC?$AAr?$AAt?$AAD?$AAb?$AAg?$AAR?$AAe?$AAp?$AAo?$AAr?$AAt?$AA?3?$AA?5?$AAS?$AAt?$AAr?$AAi?$AAn?$AAg?$AA?5?$AAt?$AAo?$AAo?$AA?5?$AAl?$AAo?$AAn?$AAg?$AA?5?$AAo@ 0000000180123ba0     libucrtd:dbgrptt.obj
 0002:0001dc38       ??_C@_1CA@HPALHDOD@?$AA_?$AAV?$AAC?$AAr?$AAt?$AAD?$AAb?$AAg?$AAR?$AAe?$AAp?$AAo?$AAr?$AAt?$AAW?$AA?$AA@ 0000000180123c38     libucrtd:dbgrptt.obj
 0002:0001dc60       ??_C@_1FA@CNLLOMHI@?$AA_?$AAi?$AAt?$AAo?$AAw?$AA_?$AAs?$AA?$CI?$AAn?$AAL?$AAi?$AAn?$AAe?$AA?0?$AA?5?$AAs?$AAz?$AAL?$AAi?$AAn?$AAe?$AAM?$AAe?$AAs?$AAs?$AAa?$AAg?$AAe?$AA?0?$AA?5?$AA4?$AA0@ 0000000180123c60     libucrtd:dbgrptt.obj
 0002:0001dcc0       ??_C@_1EM@MJFLEDMB@?$AAS?$AAe?$AAc?$AAo?$AAn?$AAd?$AA?5?$AAC?$AAh?$AAa?$AAn?$AAc?$AAe?$AA?5?$AAA?$AAs?$AAs?$AAe?$AAr?$AAt?$AAi?$AAo?$AAn?$AA?5?$AAF?$AAa?$AAi?$AAl?$AAe?$AAd?$AA?3?$AA?5@ 0000000180123cc0     libucrtd:dbgrptt.obj
 0002:0001dd20       ??_C@_1BO@OCHMLCAG@?$AA?$DM?$AAf?$AAi?$AAl?$AAe?$AA?5?$AAu?$AAn?$AAk?$AAn?$AAo?$AAw?$AAn?$AA?$DO?$AA?$AA@ 0000000180123d20     libucrtd:dbgrptt.obj
 0002:0001dd48       ??_C@_1BA@ELMMDCFC@?$AA?0?$AA?5?$AAL?$AAi?$AAn?$AAe?$AA?5?$AA?$AA@ 0000000180123d48     libucrtd:dbgrptt.obj
 0002:0001dd5c       ??_C@_13LBAGMAIH@?$AA?6?$AA?$AA@ 0000000180123d5c     libucrtd:dbgrptt.obj
 0002:0001dd60       ??_C@_1JK@KHFABAEO@?$AAw?$AAc?$AAs?$AAc?$AAp?$AAy?$AA_?$AAs?$AA?$CI?$AAs?$AAz?$AAU?$AAs?$AAe?$AAr?$AAM?$AAe?$AAs?$AAs?$AAa?$AAg?$AAe?$AA?0?$AA?5?$AA4?$AA0?$AA9?$AA6?$AA?0?$AA?5?$AAL?$AA?$CC@ 0000000180123d60     libucrtd:dbgrptt.obj
 0002:0001de20       ??_C@_1KO@DGAHENCH@?$AAw?$AAc?$AAs?$AAc?$AAp?$AAy?$AA_?$AAs?$AA?$CI?$AAs?$AAz?$AAL?$AAi?$AAn?$AAe?$AAM?$AAe?$AAs?$AAs?$AAa?$AAg?$AAe?$AA?0?$AA?5?$AA4?$AA0?$AA9?$AA6?$AA?0?$AA?5?$AAs?$AAz@ 0000000180123e20     libucrtd:dbgrptt.obj
 0002:0001def0       ??_C@_1CG@FFFGGODN@?$AAA?$AAs?$AAs?$AAe?$AAr?$AAt?$AAi?$AAo?$AAn?$AA?5?$AAf?$AAa?$AAi?$AAl?$AAe?$AAd?$AA?3?$AA?5?$AA?$AA@ 0000000180123ef0     libucrtd:dbgrptt.obj
 0002:0001df20       ??_C@_1CE@OJBNHDMO@?$AAA?$AAs?$AAs?$AAe?$AAr?$AAt?$AAi?$AAo?$AAn?$AA?5?$AAf?$AAa?$AAi?$AAl?$AAe?$AAd?$AA?$CB?$AA?$AA@ 0000000180123f20     libucrtd:dbgrptt.obj
 0002:0001df50       ??_C@_1FK@HPADHBBD@?$AAw?$AAc?$AAs?$AAc?$AAa?$AAt?$AA_?$AAs?$AA?$CI?$AAs?$AAz?$AAL?$AAi?$AAn?$AAe?$AAM?$AAe?$AAs?$AAs?$AAa?$AAg?$AAe?$AA?0?$AA?5?$AA4?$AA0?$AA9?$AA6?$AA?0?$AA?5?$AAs?$AAz@ 0000000180123f50     libucrtd:dbgrptt.obj
 0002:0001dfc0       ??_C@_1EK@NMDFGHMF@?$AAw?$AAc?$AAs?$AAc?$AAa?$AAt?$AA_?$AAs?$AA?$CI?$AAs?$AAz?$AAL?$AAi?$AAn?$AAe?$AAM?$AAe?$AAs?$AAs?$AAa?$AAg?$AAe?$AA?0?$AA?5?$AA4?$AA0?$AA9?$AA6?$AA?0?$AA?5?$AAL?$AA?$CC@ 0000000180123fc0     libucrtd:dbgrptt.obj
 0002:0001e018       ??_C@_13CMNBPIDO@?$AA?$AN?$AA?$AA@ 0000000180124018     libucrtd:dbgrptt.obj
 0002:0001e020       ??_C@_1EK@PHCBEDKB@?$AAw?$AAc?$AAs?$AAc?$AAa?$AAt?$AA_?$AAs?$AA?$CI?$AAs?$AAz?$AAL?$AAi?$AAn?$AAe?$AAM?$AAe?$AAs?$AAs?$AAa?$AAg?$AAe?$AA?0?$AA?5?$AA4?$AA0?$AA9?$AA6?$AA?0?$AA?5?$AAL?$AA?$CC@ 0000000180124020     libucrtd:dbgrptt.obj
 0002:0001e078       ??_C@_1BM@GIBPMLNL@?$AA?$CF?$AAl?$AAs?$AA?$CI?$AA?$CF?$AAd?$AA?$CJ?$AA?5?$AA?3?$AA?5?$AA?$CF?$AAl?$AAs?$AA?$AA@ 0000000180124078     libucrtd:dbgrptt.obj
 0002:0001e0a0       ??_C@_1JI@EACPGHID@?$AAw?$AAc?$AAs?$AAc?$AAp?$AAy?$AA_?$AAs?$AA?$CI?$AAs?$AAz?$AAO?$AAu?$AAt?$AAM?$AAe?$AAs?$AAs?$AAa?$AAg?$AAe?$AA?0?$AA?5?$AA4?$AA0?$AA9?$AA6?$AA?0?$AA?5?$AAL?$AA?$CC?$AA_@ 00000001801240a0     libucrtd:dbgrptt.obj
 0002:0001e160       ??_C@_1FI@DBAIJPJE@?$AAw?$AAc?$AAs?$AAc?$AAp?$AAy?$AA_?$AAs?$AA?$CI?$AAs?$AAz?$AAO?$AAu?$AAt?$AAM?$AAe?$AAs?$AAs?$AAa?$AAg?$AAe?$AA?0?$AA?5?$AA4?$AA0?$AA9?$AA6?$AA?0?$AA?5?$AAs?$AAz?$AAL@ 0000000180124160     libucrtd:dbgrptt.obj
 0002:0001e1d0       ??_C@_1IK@LEBMBAP@?$AAw?$AAc?$AAs?$AAt?$AAo?$AAm?$AAb?$AAs?$AA_?$AAs?$AA?$CI?$AAn?$AAu?$AAl?$AAl?$AAp?$AAt?$AAr?$AA?0?$AA?5?$AAs?$AAz?$AAO?$AAu?$AAt?$AAM?$AAe?$AAs?$AAs?$AAa?$AAg?$AAe@ 00000001801241d0     libucrtd:dbgrptt.obj
 0002:0001e280       ??_C@_1MA@LBAMNNOB@?$AAs?$AAt?$AAr?$AAc?$AAp?$AAy?$AA_?$AAs?$AA?$CI?$AAs?$AAz?$AAO?$AAu?$AAt?$AAM?$AAe?$AAs?$AAs?$AAa?$AAg?$AAe?$AA2?$AA?0?$AA?5?$AA4?$AA0?$AA9?$AA6?$AA?0?$AA?5?$AA?$CC?$AA_@ 0000000180124280     libucrtd:dbgrptt.obj
 0002:0001e368       ??_C@_0DP@GNPEPHJD@_CrtDbgReport?3?5String?5too?5long?5o@ 0000000180124368     libucrtd:dbgrptt.obj
 0002:0001e3c0       ??_C@_1IE@CPGKIAGP@?$AAw?$AAc?$AAs?$AAt?$AAo?$AAm?$AAb?$AAs?$AA_?$AAs?$AA?$CI?$AA?$CG?$AAr?$AAe?$AAt?$AA?0?$AA?5?$AAs?$AAz?$AAa?$AAO?$AAu?$AAt?$AAM?$AAe?$AAs?$AAs?$AAa?$AAg?$AAe?$AA?0?$AA?5@ 00000001801243c0     libucrtd:dbgrptt.obj
 0002:0001e460       ??_C@_0CP@JIIONAG@minkernel?2crts?2ucrt?2src?2appcrt?2m@ 0000000180124460     libucrtd:signal.obj
 0002:0001e498       ??_C@_1DA@NBILLKNO@?$AAl?$AAo?$AAc?$AAa?$AAl?$AA_?$AAa?$AAc?$AAt?$AAi?$AAo?$AAn?$AA?5?$AA?$CB?$AA?$DN?$AA?5?$AAn?$AAu?$AAl?$AAl?$AAp?$AAt?$AAr?$AA?$AA@ 0000000180124498     libucrtd:signal.obj
 0002:0001e4e0       ??_C@_1FO@CCGDPEKE@?$AAm?$AAi?$AAn?$AAk?$AAe?$AAr?$AAn?$AAe?$AAl?$AA?2?$AAc?$AAr?$AAt?$AAs?$AA?2?$AAu?$AAc?$AAr?$AAt?$AA?2?$AAs?$AAr?$AAc?$AA?2?$AAa?$AAp?$AAp?$AAc?$AAr?$AAt?$AA?2?$AAm@ 00000001801244e0     libucrtd:signal.obj
 0002:0001e550       ??_C@_1M@DMJEIKHL@?$AAr?$AAa?$AAi?$AAs?$AAe?$AA?$AA@ 0000000180124550     libucrtd:signal.obj
 0002:0001e560       ??_C@_1DO@MLNEDKGB@?$AA?$CI?$AA?$CC?$AAI?$AAn?$AAv?$AAa?$AAl?$AAi?$AAd?$AA?5?$AAs?$AAi?$AAg?$AAn?$AAa?$AAl?$AA?5?$AAo?$AAr?$AA?5?$AAe?$AAr?$AAr?$AAo?$AAr?$AA?$CC?$AA?0?$AA?5?$AA0?$AA?$CJ?$AA?$AA@ 0000000180124560     libucrtd:signal.obj
 0002:0001e5b0       ??_C@_1BG@HHIFPOEK@?$AAm?$AAs?$AAv?$AAc?$AAr?$AAt?$AA?4?$AAd?$AAl?$AAl?$AA?$AA@ 00000001801245b0     libucrtd:free_base.obj
 0002:0001e5d0       ??_C@_1CE@NPMGPNNP@?$AAI?$AAS?$AA_?$AA2?$AA_?$AAP?$AAO?$AAW?$AA_?$AAN?$AA?$CI?$AAa?$AAl?$AAi?$AAg?$AAn?$AA?$CJ?$AA?$AA@ 00000001801245d0     libucrtd:align.obj
 0002:0001e600       ??_C@_1FM@GHAMPDNO@?$AAm?$AAi?$AAn?$AAk?$AAe?$AAr?$AAn?$AAe?$AAl?$AA?2?$AAc?$AAr?$AAt?$AAs?$AA?2?$AAu?$AAc?$AAr?$AAt?$AA?2?$AAs?$AAr?$AAc?$AA?2?$AAa?$AAp?$AAp?$AAc?$AAr?$AAt?$AA?2?$AAh@ 0000000180124600     libucrtd:align.obj
 0002:0001e670       ??_C@_1DI@LCGAEAA@?$AA_?$AAa?$AAl?$AAi?$AAg?$AAn?$AAe?$AAd?$AA_?$AAo?$AAf?$AAf?$AAs?$AAe?$AAt?$AA_?$AAm?$AAa?$AAl?$AAl?$AAo?$AAc?$AA_?$AAb?$AAa?$AAs?$AAe?$AA?$AA@ 0000000180124670     libucrtd:align.obj
 0002:0001e6b8       ??_C@_1DK@PBMGAKHJ@?$AA_?$AAa?$AAl?$AAi?$AAg?$AAn?$AAe?$AAd?$AA_?$AAo?$AAf?$AAf?$AAs?$AAe?$AAt?$AA_?$AAr?$AAe?$AAa?$AAl?$AAl?$AAo?$AAc?$AA_?$AAb?$AAa?$AAs?$AAe?$AA?$AA@ 00000001801246b8     libucrtd:align.obj
 0002:0001e700       ??_C@_1CI@DHKEEEHJ@?$AA_?$AAa?$AAl?$AAi?$AAg?$AAn?$AAe?$AAd?$AA_?$AAm?$AAs?$AAi?$AAz?$AAe?$AA_?$AAb?$AAa?$AAs?$AAe?$AA?$AA@ 0000000180124700     libucrtd:align.obj
 0002:0001e730       ??_C@_1CI@JELMFMDH@?$AAc?$AA?5?$AA?$DO?$AA?$DN?$AA?5?$AA?9?$AA1?$AA?5?$AA?$CG?$AA?$CG?$AA?5?$AAc?$AA?5?$AA?$DM?$AA?$DN?$AA?5?$AA2?$AA5?$AA5?$AA?$AA@ 0000000180124730     libucrtd:isctype.obj
 0002:0001e760       ??_C@_1GG@KPBGDFHJ@?$AAm?$AAi?$AAn?$AAk?$AAe?$AAr?$AAn?$AAe?$AAl?$AA?2?$AAc?$AAr?$AAt?$AAs?$AA?2?$AAu?$AAc?$AAr?$AAt?$AA?2?$AAs?$AAr?$AAc?$AA?2?$AAa?$AAp?$AAp?$AAc?$AAr?$AAt?$AA?2?$AAc@ 0000000180124760     libucrtd:isctype.obj
 0002:0001e7e0       ??_C@_1FO@GEKPJHID@?$AAm?$AAi?$AAn?$AAk?$AAe?$AAr?$AAn?$AAe?$AAl?$AA?2?$AAc?$AAr?$AAt?$AAs?$AA?2?$AAu?$AAc?$AAr?$AAt?$AA?2?$AAs?$AAr?$AAc?$AA?2?$AAa?$AAp?$AAp?$AAc?$AAr?$AAt?$AA?2?$AAh@ 00000001801247e0     libucrtd:expand.obj
 0002:0001e850       ??_C@_1BK@JMCGJOCC@?$AA_?$AAe?$AAx?$AAp?$AAa?$AAn?$AAd?$AA_?$AAb?$AAa?$AAs?$AAe?$AA?$AA@ 0000000180124850     libucrtd:expand.obj
 0002:0001e870       ??_C@_1CO@JKFLNGDK@?$AAm?$AAo?$AAd?$AAe?$AA?5?$AA?$DN?$AA?$DN?$AA?5?$AA0?$AA?5?$AA?$HM?$AA?$HM?$AA?5?$AAm?$AAo?$AAd?$AAe?$AA?5?$AA?$DN?$AA?$DN?$AA?5?$AA1?$AA?$AA@ 0000000180124870     libucrtd:new_mode.obj
 0002:0001e8b0       ??_C@_1GC@PJMKBHEK@?$AAm?$AAi?$AAn?$AAk?$AAe?$AAr?$AAn?$AAe?$AAl?$AA?2?$AAc?$AAr?$AAt?$AAs?$AA?2?$AAu?$AAc?$AAr?$AAt?$AA?2?$AAs?$AAr?$AAc?$AA?2?$AAa?$AAp?$AAp?$AAc?$AAr?$AAt?$AA?2?$AAh@ 00000001801248b0     libucrtd:new_mode.obj
 0002:0001e928       ??_C@_1BM@PDPAKJNF@?$AA_?$AAs?$AAe?$AAt?$AA_?$AAn?$AAe?$AAw?$AA_?$AAm?$AAo?$AAd?$AAe?$AA?$AA@ 0000000180124928     libucrtd:new_mode.obj
 0002:0001e950       ??_C@_1CO@HCPPKOH@?$AA_?$AA_?$AAa?$AAc?$AAr?$AAt?$AA_?$AAh?$AAe?$AAa?$AAp?$AA?5?$AA?$CB?$AA?$DN?$AA?5?$AAn?$AAu?$AAl?$AAl?$AAp?$AAt?$AAr?$AA?$AA@ 0000000180124950     libucrtd:heap_handle.obj
 0002:0001e990       ??_C@_1GI@OADBAEGE@?$AAm?$AAi?$AAn?$AAk?$AAe?$AAr?$AAn?$AAe?$AAl?$AA?2?$AAc?$AAr?$AAt?$AAs?$AA?2?$AAu?$AAc?$AAr?$AAt?$AA?2?$AAs?$AAr?$AAc?$AA?2?$AAa?$AAp?$AAp?$AAc?$AAr?$AAt?$AA?2?$AAh@ 0000000180124990     libucrtd:heap_handle.obj
 0002:0001ea38       ??_C@_1M@HPNHIDJI@?$AAj?$AAa?$AA?9?$AAJ?$AAP?$AA?$AA@ 0000000180124a38     libucrtd:mbctype.obj
 0002:0001ea48       ??_C@_1M@BIBDDEMK@?$AAz?$AAh?$AA?9?$AAC?$AAN?$AA?$AA@ 0000000180124a48     libucrtd:mbctype.obj
 0002:0001ea58       ??_C@_1M@JLOOOEGK@?$AAk?$AAo?$AA?9?$AAK?$AAR?$AA?$AA@ 0000000180124a58     libucrtd:mbctype.obj
 0002:0001ea68       ??_C@_1M@CLNBBOPM@?$AAz?$AAh?$AA?9?$AAT?$AAW?$AA?$AA@ 0000000180124a68     libucrtd:mbctype.obj
 0002:0001ea78       ??_C@_0DE@HGDKNBFD@minkernel?2crts?2ucrt?2src?2appcrt?2m@ 0000000180124a78     libucrtd:mbctype.obj
 0002:0001eac0       ??_C@_0ED@BLPEHJAI@minkernel?2crts?2ucrt?2src?2desktopc@ 0000000180124ac0     libucrtd:get_environment_from_os.obj
 0002:0001eb10       ??_C@_1DO@PANKIJNP@?$AAe?$AAq?$AAu?$AAa?$AAl?$AA_?$AAs?$AAi?$AAg?$AAn?$AA?5?$AA?9?$AA?5?$AAo?$AAp?$AAt?$AAi?$AAo?$AAn?$AA?5?$AA?$DM?$AA?5?$AA_?$AAM?$AAA?$AAX?$AA_?$AAE?$AAN?$AAV?$AA?$AA@ 0000000180124b10     libucrtd:setenv.obj
 0002:0001eb60       ??_C@_1GE@MMOHBENP@?$AAm?$AAi?$AAn?$AAk?$AAe?$AAr?$AAn?$AAe?$AAl?$AA?2?$AAc?$AAr?$AAt?$AAs?$AA?2?$AAu?$AAc?$AAr?$AAt?$AA?2?$AAs?$AAr?$AAc?$AA?2?$AAd?$AAe?$AAs?$AAk?$AAt?$AAo?$AAp?$AAc@ 0000000180124b60     libucrtd:setenv.obj
 0002:0001ebe0       ??_C@_1GK@KBABANDM@?$AAt?$AAr?$AAa?$AAi?$AAt?$AAs?$AA?3?$AA?3?$AAt?$AAc?$AAs?$AAn?$AAl?$AAe?$AAn?$AA?$CI?$AAe?$AAq?$AAu?$AAa?$AAl?$AA_?$AAs?$AAi?$AAg?$AAn?$AA?5?$AA?$CL?$AA?5?$AA1?$AA?0?$AA?5@ 0000000180124be0     libucrtd:setenv.obj
 0002:0001ec60       ??_C@_0DC@NJKMKCIL@minkernel?2crts?2ucrt?2src?2desktopc@ 0000000180124c60     libucrtd:setenv.obj
 0002:0001eca0       ??_C@_1EC@IKJPFBIM@?$AA?$CI?$AA?$CC?$AAC?$AAR?$AAT?$AA?5?$AAl?$AAo?$AAg?$AAi?$AAc?$AA?5?$AAe?$AAr?$AAr?$AAo?$AAr?$AA?5?$AAi?$AAn?$AA?5?$AAs?$AAe?$AAt?$AAe?$AAn?$AAv?$AA?$CC?$AA?0?$AA?5?$AA0?$AA?$CJ@ 0000000180124ca0     libucrtd:setenv.obj
 0002:0001ecf0       ??_C@_1FE@KHMDCEEJ@?$AAc?$AAo?$AAm?$AAm?$AAo?$AAn?$AA_?$AAs?$AAe?$AAt?$AA_?$AAv?$AAa?$AAr?$AAi?$AAa?$AAb?$AAl?$AAe?$AA_?$AAi?$AAn?$AA_?$AAe?$AAn?$AAv?$AAi?$AAr?$AAo?$AAn?$AAm?$AAe@ 0000000180124cf0     libucrtd:setenv.obj
 0002:0001ed60       ??_C@_1EM@NIOJJLEA@?$AAt?$AAr?$AAa?$AAi?$AAt?$AAs?$AA?3?$AA?3?$AAt?$AAc?$AAs?$AAc?$AAp?$AAy?$AA_?$AAs?$AA?$CI?$AAn?$AAa?$AAm?$AAe?$AA?0?$AA?5?$AAc?$AAo?$AAu?$AAn?$AAt?$AA?0?$AA?5?$AAo?$AAp@ 0000000180124d60     libucrtd:setenv.obj
 0002:0001edc0       ??_C@_1CC@PIMGMDJH@?$AAc?$AAo?$AAp?$AAy?$AA_?$AAe?$AAn?$AAv?$AAi?$AAr?$AAo?$AAn?$AAm?$AAe?$AAn?$AAt?$AA?$AA@ 0000000180124dc0     libucrtd:setenv.obj
 0002:0001edf0       ??_C@_1GG@EDHOMIDL@?$AAt?$AAr?$AAa?$AAi?$AAt?$AAs?$AA?3?$AA?3?$AAt?$AAc?$AAs?$AAc?$AAp?$AAy?$AA_?$AAs?$AA?$CI?$AA?$CK?$AAn?$AAe?$AAw?$AA_?$AAi?$AAt?$AA?0?$AA?5?$AAr?$AAe?$AAq?$AAu?$AAi?$AAr@ 0000000180124df0     libucrtd:setenv.obj
 0002:0001ee70       ??_C@_1GK@EMNILMBI@?$AAm?$AAi?$AAn?$AAk?$AAe?$AAr?$AAn?$AAe?$AAl?$AA?2?$AAc?$AAr?$AAt?$AAs?$AA?2?$AAu?$AAc?$AAr?$AAt?$AA?2?$AAs?$AAr?$AAc?$AA?2?$AAa?$AAp?$AAp?$AAc?$AAr?$AAt?$AA?2?$AAs@ 0000000180124e70     libucrtd:argv_data.obj
 0002:0001eef0       ??_C@_1BK@PNLDCCDP@?$AA_?$AAg?$AAe?$AAt?$AA_?$AAw?$AAp?$AAg?$AAm?$AAp?$AAt?$AAr?$AA?$AA@ 0000000180124ef0     libucrtd:argv_data.obj
 0002:0001ef10       ??_C@_1CI@ENCADPBF@?$AA_?$AAw?$AAp?$AAg?$AAm?$AAp?$AAt?$AAr?$AA?5?$AA?$CB?$AA?$DN?$AA?5?$AAn?$AAu?$AAl?$AAl?$AAp?$AAt?$AAr?$AA?$AA@ 0000000180124f10     libucrtd:argv_data.obj
 0002:0001ef40       ??_C@_1BI@COAAPHJK@?$AA_?$AAg?$AAe?$AAt?$AA_?$AAp?$AAg?$AAm?$AAp?$AAt?$AAr?$AA?$AA@ 0000000180124f40     libucrtd:argv_data.obj
 0002:0001ef60       ??_C@_1CG@CKJHPBDG@?$AA_?$AAp?$AAg?$AAm?$AAp?$AAt?$AAr?$AA?5?$AA?$CB?$AA?$DN?$AA?5?$AAn?$AAu?$AAl?$AAl?$AAp?$AAt?$AAr?$AA?$AA@ 0000000180124f60     libucrtd:argv_data.obj
 0002:0001ef90       ??_C@_1CE@BLLJFLOH@?$AAs?$AAt?$AAr?$AAi?$AAn?$AAg?$AA?5?$AA?$CB?$AA?$DN?$AA?5?$AAn?$AAu?$AAl?$AAl?$AAp?$AAt?$AAr?$AA?$AA@ 0000000180124f90     libucrtd:mbsdec.obj
 0002:0001efc0       ??_C@_1GO@DDOMFNGF@?$AAm?$AAi?$AAn?$AAk?$AAe?$AAr?$AAn?$AAe?$AAl?$AA?2?$AAc?$AAr?$AAt?$AAs?$AA?2?$AAu?$AAc?$AAr?$AAt?$AA?2?$AAs?$AAr?$AAc?$AA?2?$AAd?$AAe?$AAs?$AAk?$AAt?$AAo?$AAp?$AAc@ 0000000180124fc0     libucrtd:mbsdec.obj
 0002:0001f048       ??_C@_1BE@KLNCOLCD@?$AA_?$AAm?$AAb?$AAs?$AAd?$AAe?$AAc?$AA_?$AAl?$AA?$AA@ 0000000180125048     libucrtd:mbsdec.obj
 0002:0001f060       ??_C@_1CG@CMGPGAOD@?$AAc?$AAu?$AAr?$AAr?$AAe?$AAn?$AAt?$AA?5?$AA?$CB?$AA?$DN?$AA?5?$AAn?$AAu?$AAl?$AAl?$AAp?$AAt?$AAr?$AA?$AA@ 0000000180125060     libucrtd:mbsdec.obj
 0002:0001f090       ??_C@_1CC@CHNFGJIC@?$AAc?$AAo?$AAm?$AAm?$AAo?$AAn?$AA_?$AAt?$AAc?$AAs?$AAn?$AAc?$AAp?$AAy?$AA_?$AAs?$AA?$AA@ 0000000180125090     libucrtd:wcsncpy_s.obj
 0002:0001f0c0       ??_C@_1IC@DCNEKBE@?$AAm?$AAi?$AAn?$AAk?$AAe?$AAr?$AAn?$AAe?$AAl?$AA?2?$AAc?$AAr?$AAt?$AAs?$AA?2?$AAu?$AAc?$AAr?$AAt?$AA?2?$AAs?$AAr?$AAc?$AA?2?$AAa?$AAp?$AAp?$AAc?$AAr?$AAt?$AA?2?$AAi@ 00000001801250c0     libucrtd:report_runtime_error.obj
 0002:0001f160       ??_C@_1DI@BLFJHKKP@?$AA_?$AA_?$AAa?$AAc?$AAr?$AAt?$AA_?$AAr?$AAe?$AAp?$AAo?$AAr?$AAt?$AA_?$AAr?$AAu?$AAn?$AAt?$AAi?$AAm?$AAe?$AA_?$AAe?$AAr?$AAr?$AAo?$AAr?$AA?$AA@ 0000000180125160     libucrtd:report_runtime_error.obj
 0002:0001f1b0       ??_C@_1LE@MHPGJGKE@?$AAw?$AAc?$AAs?$AAc?$AAp?$AAy?$AA_?$AAs?$AA?$CI?$AAo?$AAu?$AAt?$AAm?$AAs?$AAg?$AA?0?$AA?5?$AA?$CI?$AAs?$AAi?$AAz?$AAe?$AAo?$AAf?$AA?$CI?$AA?$CK?$AA_?$AA_?$AAc?$AAo?$AAu?$AAn@ 00000001801251b0     libucrtd:report_runtime_error.obj
 0002:0001f288       ??_C@_1DE@JNGNBFGO@?$AAR?$AAu?$AAn?$AAt?$AAi?$AAm?$AAe?$AA?5?$AAE?$AAr?$AAr?$AAo?$AAr?$AA?$CB?$AA?6?$AA?6?$AAP?$AAr?$AAo?$AAg?$AAr?$AAa?$AAm?$AA?3?$AA?5?$AA?$AA@ 0000000180125288     libucrtd:report_runtime_error.obj
 0002:0001f2d0       ??_C@_1HK@FJJNAABO@?$AAw?$AAc?$AAs?$AAc?$AAp?$AAy?$AA_?$AAs?$AA?$CI?$AAp?$AAr?$AAo?$AAg?$AAn?$AAa?$AAm?$AAe?$AA?0?$AA?5?$AAp?$AAr?$AAo?$AAg?$AAn?$AAa?$AAm?$AAe?$AA_?$AAs?$AAi?$AAz?$AAe@ 00000001801252d0     libucrtd:report_runtime_error.obj
 0002:0001f370       ??_C@_1HI@FLHKGEBE@?$AAw?$AAc?$AAs?$AAn?$AAc?$AAp?$AAy?$AA_?$AAs?$AA?$CI?$AAp?$AAc?$AAh?$AA?0?$AA?5?$AAp?$AAr?$AAo?$AAg?$AAn?$AAa?$AAm?$AAe?$AA_?$AAs?$AAi?$AAz?$AAe?$AA?5?$AA?9?$AA?5?$AA?$CI@ 0000000180125370     libucrtd:report_runtime_error.obj
 0002:0001f400       ??_C@_1IG@MNNKBLBI@?$AAw?$AAc?$AAs?$AAc?$AAa?$AAt?$AA_?$AAs?$AA?$CI?$AAo?$AAu?$AAt?$AAm?$AAs?$AAg?$AA?0?$AA?5?$AA?$CI?$AAs?$AAi?$AAz?$AAe?$AAo?$AAf?$AA?$CI?$AA?$CK?$AA_?$AA_?$AAc?$AAo?$AAu?$AAn@ 0000000180125400     libucrtd:report_runtime_error.obj
 0002:0001f4a0       ??_C@_1IG@DFBBBDAN@?$AAw?$AAc?$AAs?$AAc?$AAa?$AAt?$AA_?$AAs?$AA?$CI?$AAo?$AAu?$AAt?$AAm?$AAs?$AAg?$AA?0?$AA?5?$AA?$CI?$AAs?$AAi?$AAz?$AAe?$AAo?$AAf?$AA?$CI?$AA?$CK?$AA_?$AA_?$AAc?$AAo?$AAu?$AAn@ 00000001801254a0     libucrtd:report_runtime_error.obj
 0002:0001f76c       ??_C@_03KHJOGHMM@exp?$AA@  000000018012576c     libucrtd:fpexcept.obj
 0002:0001f770       ??_C@_03MGHMBJCF@log?$AA@  0000000180125770     libucrtd:fpexcept.obj
 0002:0001f774       ??_C@_05HGHHAHAP@log10?$AA@ 0000000180125774     libucrtd:fpexcept.obj
 0002:0001f77c       ??_C@_04COOMCNPB@sinh?$AA@ 000000018012577c     libucrtd:fpexcept.obj
 0002:0001f784       ??_C@_04HPJJNFIM@cosh?$AA@ 0000000180125784     libucrtd:fpexcept.obj
 0002:0001f78c       ??_C@_04FJHINJAO@tanh?$AA@ 000000018012578c     libucrtd:fpexcept.obj
 0002:0001f794       ??_C@_04FIHNOPOL@asin?$AA@ 0000000180125794     libucrtd:fpexcept.obj
 0002:0001f79c       ??_C@_04PDIFKINK@acos?$AA@ 000000018012579c     libucrtd:fpexcept.obj
 0002:0001f7a4       ??_C@_04MLLJIGOK@atan?$AA@ 00000001801257a4     libucrtd:fpexcept.obj
 0002:0001f7ac       ??_C@_05KNGEOGJB@atan2?$AA@ 00000001801257ac     libucrtd:fpexcept.obj
 0002:0001f7b4       ??_C@_04EIAKFFMI@sqrt?$AA@ 00000001801257b4     libucrtd:fpexcept.obj
 0002:0001f7bc       ??_C@_04GFPJNGEK@ceil?$AA@ 00000001801257bc     libucrtd:fpexcept.obj
 0002:0001f7c4       ??_C@_05PBJFFIGL@floor?$AA@ 00000001801257c4     libucrtd:fpexcept.obj
 0002:0001f7cc       ??_C@_04ODHECPBC@fabs?$AA@ 00000001801257cc     libucrtd:fpexcept.obj
 0002:0001f7d4       ??_C@_04EHEDPDJG@modf?$AA@ 00000001801257d4     libucrtd:fpexcept.obj
 0002:0001f7dc       ??_C@_05CEJMAHNP@ldexp?$AA@ 00000001801257dc     libucrtd:fpexcept.obj
 0002:0001f7e4       ??_C@_05KBKMEMPO@_cabs?$AA@ 00000001801257e4     libucrtd:fpexcept.obj
 0002:0001f7ec       ??_C@_06MEIMCGCF@_hypot?$AA@ 00000001801257ec     libucrtd:fpexcept.obj
 0002:0001f7f4       ??_C@_04KEPJIHGP@fmod?$AA@ 00000001801257f4     libucrtd:fpexcept.obj
 0002:0001f7fc       ??_C@_05GKKHEGJL@frexp?$AA@ 00000001801257fc     libucrtd:fpexcept.obj
 0002:0001f804       ??_C@_03MJLDFKDL@_y0?$AA@  0000000180125804     libucrtd:fpexcept.obj
 0002:0001f808       ??_C@_03NAKIGLHK@_y1?$AA@  0000000180125808     libucrtd:fpexcept.obj
 0002:0001f80c       ??_C@_03ONILCKOB@_yn?$AA@  000000018012580c     libucrtd:fpexcept.obj
 0002:0001f810       ??_C@_05JGDBENOH@_logb?$AA@ 0000000180125810     libucrtd:fpexcept.obj
 0002:0001f818       ??_C@_0L@KDOEJCKC@_nextafter?$AA@ 0000000180125818     libucrtd:fpexcept.obj
 0002:0001f848       ??_C@_1BG@NDGMJIMJ@?$AAu?$AAz?$AA?9?$AAU?$AAZ?$AA?9?$AAL?$AAa?$AAt?$AAn?$AA?$AA@ 0000000180125848     libucrtd:lcidtoname_downlevel.obj
 0002:0001f868       ??_C@_1M@IDCCIHBC@?$AAt?$AAt?$AA?9?$AAR?$AAU?$AA?$AA@ 0000000180125868     libucrtd:lcidtoname_downlevel.obj
 0002:0001f878       ??_C@_1M@LOICPMOJ@?$AAb?$AAn?$AA?9?$AAI?$AAN?$AA?$AA@ 0000000180125878     libucrtd:lcidtoname_downlevel.obj
 0002:0001f888       ??_C@_1M@KPKKNEAH@?$AAp?$AAa?$AA?9?$AAI?$AAN?$AA?$AA@ 0000000180125888     libucrtd:lcidtoname_downlevel.obj
 0002:0001f898       ??_C@_1M@PJGPPBOG@?$AAg?$AAu?$AA?9?$AAI?$AAN?$AA?$AA@ 0000000180125898     libucrtd:lcidtoname_downlevel.obj
 0002:0001f8a8       ??_C@_1M@KMKMOPHI@?$AAt?$AAa?$AA?9?$AAI?$AAN?$AA?$AA@ 00000001801258a8     libucrtd:lcidtoname_downlevel.obj
 0002:0001f8b8       ??_C@_1M@KFEHEPAC@?$AAt?$AAe?$AA?9?$AAI?$AAN?$AA?$AA@ 00000001801258b8     libucrtd:lcidtoname_downlevel.obj
 0002:0001f8c8       ??_C@_1M@CDCLMGHI@?$AAk?$AAn?$AA?9?$AAI?$AAN?$AA?$AA@ 00000001801258c8     libucrtd:lcidtoname_downlevel.obj
 0002:0001f8d8       ??_C@_1M@MIODLDKF@?$AAm?$AAl?$AA?9?$AAI?$AAN?$AA?$AA@ 00000001801258d8     libucrtd:lcidtoname_downlevel.obj
 0002:0001f8e8       ??_C@_1M@PBIEACPO@?$AAm?$AAr?$AA?9?$AAI?$AAN?$AA?$AA@ 00000001801258e8     libucrtd:lcidtoname_downlevel.obj
 0002:0001f8f8       ??_C@_1M@NIDEAGPH@?$AAs?$AAa?$AA?9?$AAI?$AAN?$AA?$AA@ 00000001801258f8     libucrtd:lcidtoname_downlevel.obj
 0002:0001f908       ??_C@_1M@FHIHCBIO@?$AAm?$AAn?$AA?9?$AAM?$AAN?$AA?$AA@ 0000000180125908     libucrtd:lcidtoname_downlevel.obj
 0002:0001f918       ??_C@_1M@JAIJPENP@?$AAc?$AAy?$AA?9?$AAG?$AAB?$AA?$AA@ 0000000180125918     libucrtd:lcidtoname_downlevel.obj
 0002:0001f928       ??_C@_1M@PHGFBEPN@?$AAg?$AAl?$AA?9?$AAE?$AAS?$AA?$AA@ 0000000180125928     libucrtd:lcidtoname_downlevel.obj
 0002:0001f938       ??_C@_1O@KPIPDNCP@?$AAk?$AAo?$AAk?$AA?9?$AAI?$AAN?$AA?$AA@ 0000000180125938     libucrtd:lcidtoname_downlevel.obj
 0002:0001f948       ??_C@_1O@KNHJLDJA@?$AAs?$AAy?$AAr?$AA?9?$AAS?$AAY?$AA?$AA@ 0000000180125948     libucrtd:lcidtoname_downlevel.obj
 0002:0001f958       ??_C@_1O@MKEKBLAH@?$AAd?$AAi?$AAv?$AA?9?$AAM?$AAV?$AA?$AA@ 0000000180125958     libucrtd:lcidtoname_downlevel.obj
 0002:0001f968       ??_C@_1O@OHDCKDDF@?$AAq?$AAu?$AAz?$AA?9?$AAB?$AAO?$AA?$AA@ 0000000180125968     libucrtd:lcidtoname_downlevel.obj
 0002:0001f978       ??_C@_1M@LEPJNLFD@?$AAn?$AAs?$AA?9?$AAZ?$AAA?$AA?$AA@ 0000000180125978     libucrtd:lcidtoname_downlevel.obj
 0002:0001f988       ??_C@_1M@OMLEIIJB@?$AAm?$AAi?$AA?9?$AAN?$AAZ?$AA?$AA@ 0000000180125988     libucrtd:lcidtoname_downlevel.obj
 0002:0001f998       ??_C@_1M@PMPEAILG@?$AAa?$AAr?$AA?9?$AAI?$AAQ?$AA?$AA@ 0000000180125998     libucrtd:lcidtoname_downlevel.obj
 0002:0001f9a8       ??_C@_1M@CNKPNOEE@?$AAd?$AAe?$AA?9?$AAC?$AAH?$AA?$AA@ 00000001801259a8     libucrtd:lcidtoname_downlevel.obj
 0002:0001f9b8       ??_C@_1M@LKMGMLKO@?$AAe?$AAn?$AA?9?$AAG?$AAB?$AA?$AA@ 00000001801259b8     libucrtd:lcidtoname_downlevel.obj
 0002:0001f9c8       ??_C@_1M@PGKJFFGL@?$AAe?$AAs?$AA?9?$AAM?$AAX?$AA?$AA@ 00000001801259c8     libucrtd:lcidtoname_downlevel.obj
 0002:0001f9d8       ??_C@_1M@DNNANBDC@?$AAf?$AAr?$AA?9?$AAB?$AAE?$AA?$AA@ 00000001801259d8     libucrtd:lcidtoname_downlevel.obj
 0002:0001f9e8       ??_C@_1M@HLGMDFHM@?$AAi?$AAt?$AA?9?$AAC?$AAH?$AA?$AA@ 00000001801259e8     libucrtd:lcidtoname_downlevel.obj
 0002:0001f9f8       ??_C@_1M@CLLBGJH@?$AAn?$AAl?$AA?9?$AAB?$AAE?$AA?$AA@ 00000001801259f8     libucrtd:lcidtoname_downlevel.obj
 0002:0001fa08       ??_C@_1M@BODBOGLF@?$AAn?$AAn?$AA?9?$AAN?$AAO?$AA?$AA@ 0000000180125a08     libucrtd:lcidtoname_downlevel.obj
 0002:0001fa18       ??_C@_1M@HFFAHKAD@?$AAp?$AAt?$AA?9?$AAP?$AAT?$AA?$AA@ 0000000180125a18     libucrtd:lcidtoname_downlevel.obj
 0002:0001fa28       ??_C@_1BG@LNOAKHIE@?$AAs?$AAr?$AA?9?$AAS?$AAP?$AA?9?$AAL?$AAa?$AAt?$AAn?$AA?$AA@ 0000000180125a28     libucrtd:lcidtoname_downlevel.obj
 0002:0001fa48       ??_C@_1M@HBMHBGAK@?$AAs?$AAv?$AA?9?$AAF?$AAI?$AA?$AA@ 0000000180125a48     libucrtd:lcidtoname_downlevel.obj
 0002:0001fa58       ??_C@_1BG@DGCJGJBE@?$AAa?$AAz?$AA?9?$AAA?$AAZ?$AA?9?$AAC?$AAy?$AAr?$AAl?$AA?$AA@ 0000000180125a58     libucrtd:lcidtoname_downlevel.obj
 0002:0001fa78       ??_C@_1M@KEJDAAHB@?$AAs?$AAe?$AA?9?$AAS?$AAE?$AA?$AA@ 0000000180125a78     libucrtd:lcidtoname_downlevel.obj
 0002:0001fa88       ??_C@_1M@HEIBJJAD@?$AAm?$AAs?$AA?9?$AAB?$AAN?$AA?$AA@ 0000000180125a88     libucrtd:lcidtoname_downlevel.obj
 0002:0001fa98       ??_C@_1BG@PBGJMCEM@?$AAu?$AAz?$AA?9?$AAU?$AAZ?$AA?9?$AAC?$AAy?$AAr?$AAl?$AA?$AA@ 0000000180125a98     libucrtd:lcidtoname_downlevel.obj
 0002:0001fab8       ??_C@_1O@LAOBCMDF@?$AAq?$AAu?$AAz?$AA?9?$AAE?$AAC?$AA?$AA@ 0000000180125ab8     libucrtd:lcidtoname_downlevel.obj
 0002:0001fac8       ??_C@_1M@POEEMAIO@?$AAa?$AAr?$AA?9?$AAE?$AAG?$AA?$AA@ 0000000180125ac8     libucrtd:lcidtoname_downlevel.obj
 0002:0001fad8       ??_C@_1M@EFAKDEDL@?$AAz?$AAh?$AA?9?$AAH?$AAK?$AA?$AA@ 0000000180125ad8     libucrtd:lcidtoname_downlevel.obj
 0002:0001fae8       ??_C@_1M@HKKIJHGI@?$AAd?$AAe?$AA?9?$AAA?$AAT?$AA?$AA@ 0000000180125ae8     libucrtd:lcidtoname_downlevel.obj
 0002:0001faf8       ??_C@_1M@KBFBEHJF@?$AAe?$AAn?$AA?9?$AAA?$AAU?$AA?$AA@ 0000000180125af8     libucrtd:lcidtoname_downlevel.obj
 0002:0001fb08       ??_C@_1M@MNPLFAAH@?$AAe?$AAs?$AA?9?$AAE?$AAS?$AA?$AA@ 0000000180125b08     libucrtd:lcidtoname_downlevel.obj
 0002:0001fb18       ??_C@_1M@HJOOJFMA@?$AAf?$AAr?$AA?9?$AAC?$AAA?$AA?$AA@ 0000000180125b18     libucrtd:lcidtoname_downlevel.obj
 0002:0001fb28       ??_C@_1BG@JPOFPNAB@?$AAs?$AAr?$AA?9?$AAS?$AAP?$AA?9?$AAC?$AAy?$AAr?$AAl?$AA?$AA@ 0000000180125b28     libucrtd:lcidtoname_downlevel.obj
 0002:0001fb48       ??_C@_1M@LNFOCMOB@?$AAs?$AAe?$AA?9?$AAF?$AAI?$AA?$AA@ 0000000180125b48     libucrtd:lcidtoname_downlevel.obj
 0002:0001fb58       ??_C@_1O@MGJBOAMB@?$AAq?$AAu?$AAz?$AA?9?$AAP?$AAE?$AA?$AA@ 0000000180125b58     libucrtd:lcidtoname_downlevel.obj
 0002:0001fb68       ??_C@_1M@GJINLBOK@?$AAa?$AAr?$AA?9?$AAL?$AAY?$AA?$AA@ 0000000180125b68     libucrtd:lcidtoname_downlevel.obj
 0002:0001fb78       ??_C@_1M@GGMNHJNL@?$AAz?$AAh?$AA?9?$AAS?$AAG?$AA?$AA@ 0000000180125b78     libucrtd:lcidtoname_downlevel.obj
 0002:0001fb88       ??_C@_1M@HOIKODND@?$AAd?$AAe?$AA?9?$AAL?$AAU?$AA?$AA@ 0000000180125b88     libucrtd:lcidtoname_downlevel.obj
 0002:0001fb98       ??_C@_1M@DDOCCGFG@?$AAe?$AAn?$AA?9?$AAC?$AAA?$AA?$AA@ 0000000180125b98     libucrtd:lcidtoname_downlevel.obj
 0002:0001fba8       ??_C@_1M@BNOEMJLF@?$AAe?$AAs?$AA?9?$AAG?$AAT?$AA?$AA@ 0000000180125ba8     libucrtd:lcidtoname_downlevel.obj
 0002:0001fbb8       ??_C@_1M@EOGNKEK@?$AAf?$AAr?$AA?9?$AAC?$AAH?$AA?$AA@ 0000000180125bb8     libucrtd:lcidtoname_downlevel.obj
 0002:0001fbc8       ??_C@_1M@FLIDJFHL@?$AAh?$AAr?$AA?9?$AAB?$AAA?$AA?$AA@ 0000000180125bc8     libucrtd:lcidtoname_downlevel.obj
 0002:0001fbd8       ??_C@_1O@FMCELNAJ@?$AAs?$AAm?$AAj?$AA?9?$AAN?$AAO?$AA?$AA@ 0000000180125bd8     libucrtd:lcidtoname_downlevel.obj
 0002:0001fbe8       ??_C@_1M@JHGLJMGJ@?$AAa?$AAr?$AA?9?$AAD?$AAZ?$AA?$AA@ 0000000180125be8     libucrtd:lcidtoname_downlevel.obj
 0002:0001fbf8       ??_C@_1M@JKKFDCNP@?$AAz?$AAh?$AA?9?$AAM?$AAO?$AA?$AA@ 0000000180125bf8     libucrtd:lcidtoname_downlevel.obj
 0002:0001fc08       ??_C@_1M@GEEFALPE@?$AAd?$AAe?$AA?9?$AAL?$AAI?$AA?$AA@ 0000000180125c08     libucrtd:lcidtoname_downlevel.obj
 0002:0001fc18       ??_C@_1M@IGEOFBG@?$AAe?$AAn?$AA?9?$AAN?$AAZ?$AA?$AA@ 0000000180125c18     libucrtd:lcidtoname_downlevel.obj
 0002:0001fc28       ??_C@_1M@KDBONEHP@?$AAe?$AAs?$AA?9?$AAC?$AAR?$AA?$AA@ 0000000180125c28     libucrtd:lcidtoname_downlevel.obj
 0002:0001fc38       ??_C@_1M@FHMDOHNN@?$AAf?$AAr?$AA?9?$AAL?$AAU?$AA?$AA@ 0000000180125c38     libucrtd:lcidtoname_downlevel.obj
 0002:0001fc48       ??_C@_1BG@NFKKMAFG@?$AAb?$AAs?$AA?9?$AAB?$AAA?$AA?9?$AAL?$AAa?$AAt?$AAn?$AA?$AA@ 0000000180125c48     libucrtd:lcidtoname_downlevel.obj
 0002:0001fc68       ??_C@_1O@IMNBEMCI@?$AAs?$AAm?$AAj?$AA?9?$AAS?$AAE?$AA?$AA@ 0000000180125c68     libucrtd:lcidtoname_downlevel.obj
 0002:0001fc78       ??_C@_1M@DHHMBNDP@?$AAa?$AAr?$AA?9?$AAM?$AAA?$AA?$AA@ 0000000180125c78     libucrtd:lcidtoname_downlevel.obj
 0002:0001fc88       ??_C@_1M@BNBLJCGH@?$AAe?$AAn?$AA?9?$AAI?$AAE?$AA?$AA@ 0000000180125c88     libucrtd:lcidtoname_downlevel.obj
 0002:0001fc98       ??_C@_1M@GEPAFMDL@?$AAe?$AAs?$AA?9?$AAP?$AAA?$AA?$AA@ 0000000180125c98     libucrtd:lcidtoname_downlevel.obj
 0002:0001fca8       ??_C@_1M@OJONDMDL@?$AAf?$AAr?$AA?9?$AAM?$AAC?$AA?$AA@ 0000000180125ca8     libucrtd:lcidtoname_downlevel.obj
 0002:0001fcb8       ??_C@_1BG@OBCNFJB@?$AAs?$AAr?$AA?9?$AAB?$AAA?$AA?9?$AAL?$AAa?$AAt?$AAn?$AA?$AA@ 0000000180125cb8     libucrtd:lcidtoname_downlevel.obj
 0002:0001fcd8       ??_C@_1O@KEMEEGPO@?$AAs?$AAm?$AAa?$AA?9?$AAN?$AAO?$AA?$AA@ 0000000180125cd8     libucrtd:lcidtoname_downlevel.obj
 0002:0001fce8       ??_C@_1M@ELMGFODK@?$AAa?$AAr?$AA?9?$AAT?$AAN?$AA?$AA@ 0000000180125ce8     libucrtd:lcidtoname_downlevel.obj
 0002:0001fcf8       ??_C@_1M@BHDLHFAF@?$AAe?$AAn?$AA?9?$AAZ?$AAA?$AA?$AA@ 0000000180125cf8     libucrtd:lcidtoname_downlevel.obj
 0002:0001fd08       ??_C@_1M@BMGIGLIF@?$AAe?$AAs?$AA?9?$AAD?$AAO?$AA?$AA@ 0000000180125d08     libucrtd:lcidtoname_downlevel.obj
 0002:0001fd18       ??_C@_1BG@CMBHIPBE@?$AAs?$AAr?$AA?9?$AAB?$AAA?$AA?9?$AAC?$AAy?$AAr?$AAl?$AA?$AA@ 0000000180125d18     libucrtd:lcidtoname_downlevel.obj
 0002:0001fd38       ??_C@_1O@HEDBLHNP@?$AAs?$AAm?$AAa?$AA?9?$AAS?$AAE?$AA?$AA@ 0000000180125d38     libucrtd:lcidtoname_downlevel.obj
 0002:0001fd48       ??_C@_1M@DAGCADIM@?$AAa?$AAr?$AA?9?$AAO?$AAM?$AA?$AA@ 0000000180125d48     libucrtd:lcidtoname_downlevel.obj
 0002:0001fd58       ??_C@_1M@FODLMICG@?$AAe?$AAn?$AA?9?$AAJ?$AAM?$AA?$AA@ 0000000180125d58     libucrtd:lcidtoname_downlevel.obj
 0002:0001fd68       ??_C@_1M@DNMLCIHB@?$AAe?$AAs?$AA?9?$AAV?$AAE?$AA?$AA@ 0000000180125d68     libucrtd:lcidtoname_downlevel.obj
 0002:0001fd78       ??_C@_1O@EOKHMKJK@?$AAs?$AAm?$AAs?$AA?9?$AAF?$AAI?$AA?$AA@ 0000000180125d78     libucrtd:lcidtoname_downlevel.obj
 0002:0001fd88       ??_C@_1M@CAFJMKOF@?$AAa?$AAr?$AA?9?$AAY?$AAE?$AA?$AA@ 0000000180125d88     libucrtd:lcidtoname_downlevel.obj
 0002:0001fd98       ??_C@_1M@CBFHIJLI@?$AAe?$AAn?$AA?9?$AAC?$AAB?$AA?$AA@ 0000000180125d98     libucrtd:lcidtoname_downlevel.obj
 0002:0001fda8       ??_C@_1M@BGNFLDN@?$AAe?$AAs?$AA?9?$AAC?$AAO?$AA?$AA@ 0000000180125da8     libucrtd:lcidtoname_downlevel.obj
 0002:0001fdb8       ??_C@_1O@JMPHMAMC@?$AAs?$AAm?$AAn?$AA?9?$AAF?$AAI?$AA?$AA@ 0000000180125db8     libucrtd:lcidtoname_downlevel.obj
 0002:0001fdc8       ??_C@_1M@JLANABKE@?$AAa?$AAr?$AA?9?$AAS?$AAY?$AA?$AA@ 0000000180125dc8     libucrtd:lcidtoname_downlevel.obj
 0002:0001fdd8       ??_C@_1M@HPKGCFGN@?$AAe?$AAn?$AA?9?$AAB?$AAZ?$AA?$AA@ 0000000180125dd8     libucrtd:lcidtoname_downlevel.obj
 0002:0001fde8       ??_C@_1M@OLJCMLGM@?$AAe?$AAs?$AA?9?$AAP?$AAE?$AA?$AA@ 0000000180125de8     libucrtd:lcidtoname_downlevel.obj
 0002:0001fdf8       ??_C@_1M@MKKGFKLE@?$AAa?$AAr?$AA?9?$AAJ?$AAO?$AA?$AA@ 0000000180125df8     libucrtd:lcidtoname_downlevel.obj
 0002:0001fe08       ??_C@_1M@EKPGLDNI@?$AAe?$AAn?$AA?9?$AAT?$AAT?$AA?$AA@ 0000000180125e08     libucrtd:lcidtoname_downlevel.obj
 0002:0001fe18       ??_C@_1M@OONGHFHE@?$AAe?$AAs?$AA?9?$AAA?$AAR?$AA?$AA@ 0000000180125e18     libucrtd:lcidtoname_downlevel.obj
 0002:0001fe28       ??_C@_1M@OOJFGBHE@?$AAa?$AAr?$AA?9?$AAL?$AAB?$AA?$AA@ 0000000180125e28     libucrtd:lcidtoname_downlevel.obj
 0002:0001fe38       ??_C@_1M@GCEJHNEG@?$AAe?$AAn?$AA?9?$AAZ?$AAW?$AA?$AA@ 0000000180125e38     libucrtd:lcidtoname_downlevel.obj
 0002:0001fe48       ??_C@_1M@JNOCAHJI@?$AAe?$AAs?$AA?9?$AAE?$AAC?$AA?$AA@ 0000000180125e48     libucrtd:lcidtoname_downlevel.obj
 0002:0001fe58       ??_C@_1M@JEFHPGGB@?$AAa?$AAr?$AA?9?$AAK?$AAW?$AA?$AA@ 0000000180125e58     libucrtd:lcidtoname_downlevel.obj
 0002:0001fe68       ??_C@_1M@MLKIBJOJ@?$AAe?$AAn?$AA?9?$AAP?$AAH?$AA?$AA@ 0000000180125e68     libucrtd:lcidtoname_downlevel.obj
 0002:0001fe78       ??_C@_1M@BDNIPEND@?$AAe?$AAs?$AA?9?$AAC?$AAL?$AA?$AA@ 0000000180125e78     libucrtd:lcidtoname_downlevel.obj
 0002:0001fe88       ??_C@_1M@MPNMEKBD@?$AAa?$AAr?$AA?9?$AAA?$AAE?$AA?$AA@ 0000000180125e88     libucrtd:lcidtoname_downlevel.obj
 0002:0001fe98       ??_C@_1M@KBJALCPI@?$AAe?$AAs?$AA?9?$AAU?$AAY?$AA?$AA@ 0000000180125e98     libucrtd:lcidtoname_downlevel.obj
 0002:0001fea8       ??_C@_1M@LLCCOAGA@?$AAa?$AAr?$AA?9?$AAB?$AAH?$AA?$AA@ 0000000180125ea8     libucrtd:lcidtoname_downlevel.obj
 0002:0001feb8       ??_C@_1M@PBFNCDEL@?$AAe?$AAs?$AA?9?$AAP?$AAY?$AA?$AA@ 0000000180125eb8     libucrtd:lcidtoname_downlevel.obj
 0002:0001fec8       ??_C@_1M@EDGINPNP@?$AAa?$AAr?$AA?9?$AAQ?$AAA?$AA?$AA@ 0000000180125ec8     libucrtd:lcidtoname_downlevel.obj
 0002:0001fed8       ??_C@_1M@MKDBIIJI@?$AAe?$AAs?$AA?9?$AAB?$AAO?$AA?$AA@ 0000000180125ed8     libucrtd:lcidtoname_downlevel.obj
 0002:0001fee8       ??_C@_1M@CPKKEBLD@?$AAe?$AAs?$AA?9?$AAS?$AAV?$AA?$AA@ 0000000180125ee8     libucrtd:lcidtoname_downlevel.obj
 0002:0001fef8       ??_C@_1M@NDBGMMJL@?$AAe?$AAs?$AA?9?$AAH?$AAN?$AA?$AA@ 0000000180125ef8     libucrtd:lcidtoname_downlevel.obj
 0002:0001ff08       ??_C@_1M@JIJIBHDP@?$AAe?$AAs?$AA?9?$AAN?$AAI?$AA?$AA@ 0000000180125f08     libucrtd:lcidtoname_downlevel.obj
 0002:0001ff18       ??_C@_1M@CGFMKEEK@?$AAe?$AAs?$AA?9?$AAP?$AAR?$AA?$AA@ 0000000180125f18     libucrtd:lcidtoname_downlevel.obj
 0002:0001ff28       ??_C@_1O@ICJHKIIK@?$AAz?$AAh?$AA?9?$AAC?$AAH?$AAT?$AA?$AA@ 0000000180125f28     libucrtd:lcidtoname_downlevel.obj
 0002:0001ff38       ??_C@_15CLNEJCE@?$AAs?$AAr?$AA?$AA@ 0000000180125f38     libucrtd:lcidtoname_downlevel.obj
 0002:00021060       ??_C@_1M@KAHEKEIG@?$AAa?$AAf?$AA?9?$AAz?$AAa?$AA?$AA@ 0000000180127060     libucrtd:lcidtoname_downlevel.obj
 0002:00021070       ??_C@_1M@GIECOABL@?$AAa?$AAr?$AA?9?$AAa?$AAe?$AA?$AA@ 0000000180127070     libucrtd:lcidtoname_downlevel.obj
 0002:00021080       ??_C@_1M@BMLMEKGI@?$AAa?$AAr?$AA?9?$AAb?$AAh?$AA?$AA@ 0000000180127080     libucrtd:lcidtoname_downlevel.obj
 0002:00021090       ??_C@_1M@DAPFDGGB@?$AAa?$AAr?$AA?9?$AAd?$AAz?$AA?$AA@ 0000000180127090     libucrtd:lcidtoname_downlevel.obj
 0002:000210a0       ??_C@_1M@FJNKGKIG@?$AAa?$AAr?$AA?9?$AAe?$AAg?$AA?$AA@ 00000001801270a0     libucrtd:lcidtoname_downlevel.obj
 0002:000210b0       ??_C@_1M@FLGKKCLO@?$AAa?$AAr?$AA?9?$AAi?$AAq?$AA?$AA@ 00000001801270b0     libucrtd:lcidtoname_downlevel.obj
 0002:000210c0       ??_C@_1M@GNDIPALM@?$AAa?$AAr?$AA?9?$AAj?$AAo?$AA?$AA@ 00000001801270c0     libucrtd:lcidtoname_downlevel.obj
 0002:000210d0       ??_C@_1M@DDMJFMGJ@?$AAa?$AAr?$AA?9?$AAk?$AAw?$AA?$AA@ 00000001801270d0     libucrtd:lcidtoname_downlevel.obj
 0002:000210e0       ??_C@_1M@EJALMLHM@?$AAa?$AAr?$AA?9?$AAl?$AAb?$AA?$AA@ 00000001801270e0     libucrtd:lcidtoname_downlevel.obj
 0002:000210f0       ??_C@_1M@MOBDBLOC@?$AAa?$AAr?$AA?9?$AAl?$AAy?$AA?$AA@ 00000001801270f0     libucrtd:lcidtoname_downlevel.obj
 0002:00021100       ??_C@_1M@JAOCLHDH@?$AAa?$AAr?$AA?9?$AAm?$AAa?$AA?$AA@ 0000000180127100     libucrtd:lcidtoname_downlevel.obj
 0002:00021110       ??_C@_1M@JHPMKJIE@?$AAa?$AAr?$AA?9?$AAo?$AAm?$AA?$AA@ 0000000180127110     libucrtd:lcidtoname_downlevel.obj
 0002:00021120       ??_C@_1M@OEPGHFNH@?$AAa?$AAr?$AA?9?$AAq?$AAa?$AA?$AA@ 0000000180127120     libucrtd:lcidtoname_downlevel.obj
 0002:00021130       ??_C@_1M@KJDONENM@?$AAa?$AAr?$AA?9?$AAs?$AAa?$AA?$AA@ 0000000180127130     libucrtd:lcidtoname_downlevel.obj
 0002:00021140       ??_C@_1M@DMJDKLKM@?$AAa?$AAr?$AA?9?$AAs?$AAy?$AA?$AA@ 0000000180127140     libucrtd:lcidtoname_downlevel.obj
 0002:00021150       ??_C@_1M@OMFIPEDC@?$AAa?$AAr?$AA?9?$AAt?$AAn?$AA?$AA@ 0000000180127150     libucrtd:lcidtoname_downlevel.obj
 0002:00021160       ??_C@_1M@IHMHGAON@?$AAa?$AAr?$AA?9?$AAy?$AAe?$AA?$AA@ 0000000180127160     libucrtd:lcidtoname_downlevel.obj
 0002:00021170       ??_C@_1BG@KDCPGJGB@?$AAa?$AAz?$AA?9?$AAa?$AAz?$AA?9?$AAc?$AAy?$AAr?$AAl?$AA?$AA@ 0000000180127170     libucrtd:lcidtoname_downlevel.obj
 0002:00021190       ??_C@_1BG@IBCKDDOE@?$AAa?$AAz?$AA?9?$AAa?$AAz?$AA?9?$AAl?$AAa?$AAt?$AAn?$AA?$AA@ 0000000180127190     libucrtd:lcidtoname_downlevel.obj
 0002:000211b0       ??_C@_1M@EGPFDCPD@?$AAb?$AAe?$AA?9?$AAb?$AAy?$AA?$AA@ 00000001801271b0     libucrtd:lcidtoname_downlevel.obj
 0002:000211c0       ??_C@_1M@PCMGMCGC@?$AAb?$AAg?$AA?9?$AAb?$AAg?$AA?$AA@ 00000001801271c0     libucrtd:lcidtoname_downlevel.obj
 0002:000211d0       ??_C@_1M@BJBMFGOB@?$AAb?$AAn?$AA?9?$AAi?$AAn?$AA?$AA@ 00000001801271d0     libucrtd:lcidtoname_downlevel.obj
 0002:000211e0       ??_C@_1BG@EAKMMACD@?$AAb?$AAs?$AA?9?$AAb?$AAa?$AA?9?$AAl?$AAa?$AAt?$AAn?$AA?$AA@ 00000001801271e0     libucrtd:lcidtoname_downlevel.obj
 0002:00021200       ??_C@_1M@KGADAODK@?$AAc?$AAa?$AA?9?$AAe?$AAs?$AA?$AA@ 0000000180127200     libucrtd:lcidtoname_downlevel.obj
 0002:00021210       ??_C@_1M@COAJPDHI@?$AAc?$AAs?$AA?9?$AAc?$AAz?$AA?$AA@ 0000000180127210     libucrtd:lcidtoname_downlevel.obj
 0002:00021220       ??_C@_1M@DHBHFONH@?$AAc?$AAy?$AA?9?$AAg?$AAb?$AA?$AA@ 0000000180127220     libucrtd:lcidtoname_downlevel.obj
 0002:00021230       ??_C@_1M@IMGKELGA@?$AAd?$AAa?$AA?9?$AAd?$AAk?$AA?$AA@ 0000000180127230     libucrtd:lcidtoname_downlevel.obj
 0002:00021240       ??_C@_1M@NNDGDNGA@?$AAd?$AAe?$AA?9?$AAa?$AAt?$AA?$AA@ 0000000180127240     libucrtd:lcidtoname_downlevel.obj
 0002:00021250       ??_C@_1M@IKDBHEEM@?$AAd?$AAe?$AA?9?$AAc?$AAh?$AA?$AA@ 0000000180127250     libucrtd:lcidtoname_downlevel.obj
 0002:00021260       ??_C@_1M@GFFOJMCJ@?$AAd?$AAe?$AA?9?$AAd?$AAe?$AA?$AA@ 0000000180127260     libucrtd:lcidtoname_downlevel.obj
 0002:00021270       ??_C@_1M@MDNLKBPM@?$AAd?$AAe?$AA?9?$AAl?$AAi?$AA?$AA@ 0000000180127270     libucrtd:lcidtoname_downlevel.obj
 0002:00021280       ??_C@_1M@NJBEEJNL@?$AAd?$AAe?$AA?9?$AAl?$AAu?$AA?$AA@ 0000000180127280     libucrtd:lcidtoname_downlevel.obj
 0002:00021290       ??_C@_1O@GNNELBAP@?$AAd?$AAi?$AAv?$AA?9?$AAm?$AAv?$AA?$AA@ 0000000180127290     libucrtd:lcidtoname_downlevel.obj
 0002:000212a0       ??_C@_1M@EJLEOGAE@?$AAe?$AAl?$AA?9?$AAg?$AAr?$AA?$AA@ 00000001801272a0     libucrtd:lcidtoname_downlevel.obj
 0002:000212b0       ??_C@_1M@GMPONJN@?$AAe?$AAn?$AA?9?$AAa?$AAu?$AA?$AA@ 00000001801272b0     libucrtd:lcidtoname_downlevel.obj
 0002:000212c0       ??_C@_1M@NIDIIPGF@?$AAe?$AAn?$AA?9?$AAb?$AAz?$AA?$AA@ 00000001801272c0     libucrtd:lcidtoname_downlevel.obj
 0002:000212d0       ??_C@_1M@JEHMIMFO@?$AAe?$AAn?$AA?9?$AAc?$AAa?$AA?$AA@ 00000001801272d0     libucrtd:lcidtoname_downlevel.obj
 0002:000212e0       ??_C@_1M@IGMJCDLA@?$AAe?$AAn?$AA?9?$AAc?$AAb?$AA?$AA@ 00000001801272e0     libucrtd:lcidtoname_downlevel.obj
 0002:000212f0       ??_C@_1M@BNFIGBKG@?$AAe?$AAn?$AA?9?$AAg?$AAb?$AA?$AA@ 00000001801272f0     libucrtd:lcidtoname_downlevel.obj
 0002:00021300       ??_C@_1M@LKIFDIGP@?$AAe?$AAn?$AA?9?$AAi?$AAe?$AA?$AA@ 0000000180127300     libucrtd:lcidtoname_downlevel.obj
 0002:00021310       ??_C@_1M@PJKFGCCO@?$AAe?$AAn?$AA?9?$AAj?$AAm?$AA?$AA@ 0000000180127310     libucrtd:lcidtoname_downlevel.obj
 0002:00021320       ??_C@_1M@KPPKEPBO@?$AAe?$AAn?$AA?9?$AAn?$AAz?$AA?$AA@ 0000000180127320     libucrtd:lcidtoname_downlevel.obj
 0002:00021330       ??_C@_1M@GMDGLDOB@?$AAe?$AAn?$AA?9?$AAp?$AAh?$AA?$AA@ 0000000180127330     libucrtd:lcidtoname_downlevel.obj
 0002:00021340       ??_C@_1M@ONGIBJNA@?$AAe?$AAn?$AA?9?$AAt?$AAt?$AA?$AA@ 0000000180127340     libucrtd:lcidtoname_downlevel.obj
 0002:00021350       ??_C@_1M@LLODPCMM@?$AAe?$AAn?$AA?9?$AAu?$AAs?$AA?$AA@ 0000000180127350     libucrtd:lcidtoname_downlevel.obj
 0002:00021360       ??_C@_1M@LAKFNPAN@?$AAe?$AAn?$AA?9?$AAz?$AAa?$AA?$AA@ 0000000180127360     libucrtd:lcidtoname_downlevel.obj
 0002:00021370       ??_C@_1M@MFNHNHEO@?$AAe?$AAn?$AA?9?$AAz?$AAw?$AA?$AA@ 0000000180127370     libucrtd:lcidtoname_downlevel.obj
 0002:00021380       ??_C@_1M@EJEINPHM@?$AAe?$AAs?$AA?9?$AAa?$AAr?$AA?$AA@ 0000000180127380     libucrtd:lcidtoname_downlevel.obj
 0002:00021390       ??_C@_1M@GNKPCCJA@?$AAe?$AAs?$AA?9?$AAb?$AAo?$AA?$AA@ 0000000180127390     libucrtd:lcidtoname_downlevel.obj
 0002:000213a0       ??_C@_1M@LEEGFONL@?$AAe?$AAs?$AA?9?$AAc?$AAl?$AA?$AA@ 00000001801273a0     libucrtd:lcidtoname_downlevel.obj
 0002:000213b0       ??_C@_1M@KGPDPBDF@?$AAe?$AAs?$AA?9?$AAc?$AAo?$AA?$AA@ 00000001801273b0     libucrtd:lcidtoname_downlevel.obj
 0002:000213c0       ??_C@_1M@EIAHOHH@?$AAe?$AAs?$AA?9?$AAc?$AAr?$AA?$AA@ 00000001801273c0     libucrtd:lcidtoname_downlevel.obj
 0002:000213d0       ??_C@_1M@LLPGMBIN@?$AAe?$AAs?$AA?9?$AAd?$AAo?$AA?$AA@ 00000001801273d0     libucrtd:lcidtoname_downlevel.obj
 0002:000213e0       ??_C@_1M@DKHMKNJA@?$AAe?$AAs?$AA?9?$AAe?$AAc?$AA?$AA@ 00000001801273e0     libucrtd:lcidtoname_downlevel.obj
 0002:000213f0       ??_C@_1M@GKGFPKAP@?$AAe?$AAs?$AA?9?$AAe?$AAs?$AA?$AA@ 00000001801273f0     libucrtd:lcidtoname_downlevel.obj
 0002:00021400       ??_C@_1M@LKHKGDLN@?$AAe?$AAs?$AA?9?$AAg?$AAt?$AA?$AA@ 0000000180127400     libucrtd:lcidtoname_downlevel.obj
 0002:00021410       ??_C@_1M@HEIIGGJD@?$AAe?$AAs?$AA?9?$AAh?$AAn?$AA?$AA@ 0000000180127410     libucrtd:lcidtoname_downlevel.obj
 0002:00021420       ??_C@_1M@FBDHPPGD@?$AAe?$AAs?$AA?9?$AAm?$AAx?$AA?$AA@ 0000000180127420     libucrtd:lcidtoname_downlevel.obj
 0002:00021430       ??_C@_1M@DPAGLNDH@?$AAe?$AAs?$AA?9?$AAn?$AAi?$AA?$AA@ 0000000180127430     libucrtd:lcidtoname_downlevel.obj
 0002:00021440       ??_C@_1M@MDGOPGDD@?$AAe?$AAs?$AA?9?$AAp?$AAa?$AA?$AA@ 0000000180127440     libucrtd:lcidtoname_downlevel.obj
 0002:00021450       ??_C@_1M@EMAMGBGE@?$AAe?$AAs?$AA?9?$AAp?$AAe?$AA?$AA@ 0000000180127450     libucrtd:lcidtoname_downlevel.obj
 0002:00021460       ??_C@_1M@IBMCAOEC@?$AAe?$AAs?$AA?9?$AAp?$AAr?$AA?$AA@ 0000000180127460     libucrtd:lcidtoname_downlevel.obj
 0002:00021470       ??_C@_1M@FGMDIJED@?$AAe?$AAs?$AA?9?$AAp?$AAy?$AA?$AA@ 0000000180127470     libucrtd:lcidtoname_downlevel.obj
 0002:00021480       ??_C@_1M@IIDEOLLL@?$AAe?$AAs?$AA?9?$AAs?$AAv?$AA?$AA@ 0000000180127480     libucrtd:lcidtoname_downlevel.obj
 0002:00021490       ??_C@_1M@GAOBIPA@?$AAe?$AAs?$AA?9?$AAu?$AAy?$AA?$AA@ 0000000180127490     libucrtd:lcidtoname_downlevel.obj
 0002:000214a0       ??_C@_1M@JKFFICHJ@?$AAe?$AAs?$AA?9?$AAv?$AAe?$AA?$AA@ 00000001801274a0     libucrtd:lcidtoname_downlevel.obj
 0002:000214b0       ??_C@_1M@PNMLOJDF@?$AAe?$AAt?$AA?9?$AAe?$AAe?$AA?$AA@ 00000001801274b0     libucrtd:lcidtoname_downlevel.obj
 0002:000214c0       ??_C@_1M@GHHLIKEI@?$AAe?$AAu?$AA?9?$AAe?$AAs?$AA?$AA@ 00000001801274c0     libucrtd:lcidtoname_downlevel.obj
 0002:000214d0       ??_C@_1M@PBNONODE@?$AAf?$AAa?$AA?9?$AAi?$AAr?$AA?$AA@ 00000001801274d0     libucrtd:lcidtoname_downlevel.obj
 0002:000214e0       ??_C@_1M@JEEHPMIL@?$AAf?$AAi?$AA?9?$AAf?$AAi?$AA?$AA@ 00000001801274e0     libucrtd:lcidtoname_downlevel.obj
 0002:000214f0       ??_C@_1M@LMDCNDBA@?$AAf?$AAo?$AA?9?$AAf?$AAo?$AA?$AA@ 00000001801274f0     libucrtd:lcidtoname_downlevel.obj
 0002:00021500       ??_C@_1M@JKEOHLDK@?$AAf?$AAr?$AA?9?$AAb?$AAe?$AA?$AA@ 0000000180127500     libucrtd:lcidtoname_downlevel.obj
 0002:00021510       ??_C@_1M@NOHADPMI@?$AAf?$AAr?$AA?9?$AAc?$AAa?$AA?$AA@ 0000000180127510     libucrtd:lcidtoname_downlevel.obj
 0002:00021520       ??_C@_1M@KDHIHAEC@?$AAf?$AAr?$AA?9?$AAc?$AAh?$AA?$AA@ 0000000180127520     libucrtd:lcidtoname_downlevel.obj
 0002:00021530       ??_C@_1M@MMBBFGAK@?$AAf?$AAr?$AA?9?$AAf?$AAr?$AA?$AA@ 0000000180127530     libucrtd:lcidtoname_downlevel.obj
 0002:00021540       ??_C@_1M@PAFNENNF@?$AAf?$AAr?$AA?9?$AAl?$AAu?$AA?$AA@ 0000000180127540     libucrtd:lcidtoname_downlevel.obj
 0002:00021550       ??_C@_1M@EOHDJGDD@?$AAf?$AAr?$AA?9?$AAm?$AAc?$AA?$AA@ 0000000180127550     libucrtd:lcidtoname_downlevel.obj
 0002:00021560       ??_C@_1M@FAPLLOPF@?$AAg?$AAl?$AA?9?$AAe?$AAs?$AA?$AA@ 0000000180127560     libucrtd:lcidtoname_downlevel.obj
 0002:00021570       ??_C@_1M@FOPBFLOO@?$AAg?$AAu?$AA?9?$AAi?$AAn?$AA?$AA@ 0000000180127570     libucrtd:lcidtoname_downlevel.obj
 0002:00021580       ??_C@_1M@KBMCINPM@?$AAh?$AAe?$AA?9?$AAi?$AAl?$AA?$AA@ 0000000180127580     libucrtd:lcidtoname_downlevel.obj
 0002:00021590       ??_C@_1M@BBPHKFPJ@?$AAh?$AAi?$AA?9?$AAi?$AAn?$AA?$AA@ 0000000180127590     libucrtd:lcidtoname_downlevel.obj
 0002:000215a0       ??_C@_1M@PMBNDPHD@?$AAh?$AAr?$AA?9?$AAb?$AAa?$AA?$AA@ 00000001801275a0     libucrtd:lcidtoname_downlevel.obj
 0002:000215b0       ??_C@_1M@BPCKOEGE@?$AAh?$AAr?$AA?9?$AAh?$AAr?$AA?$AA@ 00000001801275b0     libucrtd:lcidtoname_downlevel.obj
 0002:000215c0       ??_C@_1M@GACBMHKE@?$AAh?$AAu?$AA?9?$AAh?$AAu?$AA?$AA@ 00000001801275c0     libucrtd:lcidtoname_downlevel.obj
 0002:000215d0       ??_C@_1M@MILPAJJC@?$AAh?$AAy?$AA?9?$AAa?$AAm?$AA?$AA@ 00000001801275d0     libucrtd:lcidtoname_downlevel.obj
 0002:000215e0       ??_C@_1M@BABBICEC@?$AAi?$AAd?$AA?9?$AAi?$AAd?$AA?$AA@ 00000001801275e0     libucrtd:lcidtoname_downlevel.obj
 0002:000215f0       ??_C@_1M@BIKNHHPF@?$AAi?$AAs?$AA?9?$AAi?$AAs?$AA?$AA@ 00000001801275f0     libucrtd:lcidtoname_downlevel.obj
 0002:00021600       ??_C@_1M@NMPCJPHE@?$AAi?$AAt?$AA?9?$AAc?$AAh?$AA?$AA@ 0000000180127600     libucrtd:lcidtoname_downlevel.obj
 0002:00021610       ??_C@_1M@GHKGFEDF@?$AAi?$AAt?$AA?9?$AAi?$AAt?$AA?$AA@ 0000000180127610     libucrtd:lcidtoname_downlevel.obj
 0002:00021620       ??_C@_1M@NIEJCJJA@?$AAj?$AAa?$AA?9?$AAj?$AAp?$AA?$AA@ 0000000180127620     libucrtd:lcidtoname_downlevel.obj
 0002:00021630       ??_C@_1M@JILFNBIM@?$AAk?$AAa?$AA?9?$AAg?$AAe?$AA?$AA@ 0000000180127630     libucrtd:lcidtoname_downlevel.obj
 0002:00021640       ??_C@_1M@PACPMGPH@?$AAk?$AAk?$AA?9?$AAk?$AAz?$AA?$AA@ 0000000180127640     libucrtd:lcidtoname_downlevel.obj
 0002:00021650       ??_C@_1M@IELFGMHA@?$AAk?$AAn?$AA?9?$AAi?$AAn?$AA?$AA@ 0000000180127650     libucrtd:lcidtoname_downlevel.obj
 0002:00021660       ??_C@_1O@IBBJHCH@?$AAk?$AAo?$AAk?$AA?9?$AAi?$AAn?$AA?$AA@ 0000000180127660     libucrtd:lcidtoname_downlevel.obj
 0002:00021670       ??_C@_1M@DMHAEOGC@?$AAk?$AAo?$AA?9?$AAk?$AAr?$AA?$AA@ 0000000180127670     libucrtd:lcidtoname_downlevel.obj
 0002:00021680       ??_C@_1M@HBAHBIGA@?$AAk?$AAy?$AA?9?$AAk?$AAg?$AA?$AA@ 0000000180127680     libucrtd:lcidtoname_downlevel.obj
 0002:00021690       ??_C@_1M@KPMILCJG@?$AAl?$AAt?$AA?9?$AAl?$AAt?$AA?$AA@ 0000000180127690     libucrtd:lcidtoname_downlevel.obj
 0002:000216a0       ??_C@_1M@BDEKKCA@?$AAl?$AAv?$AA?9?$AAl?$AAv?$AA?$AA@ 00000001801276a0     libucrtd:lcidtoname_downlevel.obj
 0002:000216b0       ??_C@_1M@ELCKCCJJ@?$AAm?$AAi?$AA?9?$AAn?$AAz?$AA?$AA@ 00000001801276b0     libucrtd:lcidtoname_downlevel.obj
 0002:000216c0       ??_C@_1M@CBOOLAPA@?$AAm?$AAk?$AA?9?$AAm?$AAk?$AA?$AA@ 00000001801276c0     libucrtd:lcidtoname_downlevel.obj
 0002:000216d0       ??_C@_1M@GPHNBJKN@?$AAm?$AAl?$AA?9?$AAi?$AAn?$AA?$AA@ 00000001801276d0     libucrtd:lcidtoname_downlevel.obj
 0002:000216e0       ??_C@_1M@PABJILIG@?$AAm?$AAn?$AA?9?$AAm?$AAn?$AA?$AA@ 00000001801276e0     libucrtd:lcidtoname_downlevel.obj
 0002:000216f0       ??_C@_1M@FGBKKIPG@?$AAm?$AAr?$AA?9?$AAi?$AAn?$AA?$AA@ 00000001801276f0     libucrtd:lcidtoname_downlevel.obj
 0002:00021700       ??_C@_1M@NDBPDDAL@?$AAm?$AAs?$AA?9?$AAb?$AAn?$AA?$AA@ 0000000180127700     libucrtd:lcidtoname_downlevel.obj
 0002:00021710       ??_C@_1M@OPIHOOPI@?$AAm?$AAs?$AA?9?$AAm?$AAy?$AA?$AA@ 0000000180127710     libucrtd:lcidtoname_downlevel.obj
 0002:00021720       ??_C@_1M@PPDBCNFM@?$AAm?$AAt?$AA?9?$AAm?$AAt?$AA?$AA@ 0000000180127720     libucrtd:lcidtoname_downlevel.obj
 0002:00021730       ??_C@_1M@KDJDKMDD@?$AAn?$AAb?$AA?9?$AAn?$AAo?$AA?$AA@ 0000000180127730     libucrtd:lcidtoname_downlevel.obj
 0002:00021740       ??_C@_1M@KFCFLMJP@?$AAn?$AAl?$AA?9?$AAb?$AAe?$AA?$AA@ 0000000180127740     libucrtd:lcidtoname_downlevel.obj
 0002:00021750       ??_C@_1M@KPOPDDGO@?$AAn?$AAl?$AA?9?$AAn?$AAl?$AA?$AA@ 0000000180127750     libucrtd:lcidtoname_downlevel.obj
 0002:00021760       ??_C@_1M@LJKPEMLN@?$AAn?$AAn?$AA?9?$AAn?$AAo?$AA?$AA@ 0000000180127760     libucrtd:lcidtoname_downlevel.obj
 0002:00021770       ??_C@_1M@BDGHHBFL@?$AAn?$AAs?$AA?9?$AAz?$AAa?$AA?$AA@ 0000000180127770     libucrtd:lcidtoname_downlevel.obj
 0002:00021780       ??_C@_1M@IDEHOAP@?$AAp?$AAa?$AA?9?$AAi?$AAn?$AA?$AA@ 0000000180127780     libucrtd:lcidtoname_downlevel.obj
 0002:00021790       ??_C@_1M@HDBKGOGH@?$AAp?$AAl?$AA?9?$AAp?$AAl?$AA?$AA@ 0000000180127790     libucrtd:lcidtoname_downlevel.obj
 0002:000217a0       ??_C@_1M@LJLLCMEH@?$AAp?$AAt?$AA?9?$AAb?$AAr?$AA?$AA@ 00000001801277a0     libucrtd:lcidtoname_downlevel.obj
 0002:000217b0       ??_C@_1M@NCMONAAL@?$AAp?$AAt?$AA?9?$AAp?$AAt?$AA?$AA@ 00000001801277b0     libucrtd:lcidtoname_downlevel.obj
 0002:000217c0       ??_C@_1O@EAKMAJDN@?$AAq?$AAu?$AAz?$AA?9?$AAb?$AAo?$AA?$AA@ 00000001801277c0     libucrtd:lcidtoname_downlevel.obj
 0002:000217d0       ??_C@_1O@BHHPIGDN@?$AAq?$AAu?$AAz?$AA?9?$AAe?$AAc?$AA?$AA@ 00000001801277d0     libucrtd:lcidtoname_downlevel.obj
 0002:000217e0       ??_C@_1O@GBAPEKMJ@?$AAq?$AAu?$AAz?$AA?9?$AAp?$AAe?$AA?$AA@ 00000001801277e0     libucrtd:lcidtoname_downlevel.obj
 0002:000217f0       ??_C@_1M@CLGLEFBO@?$AAr?$AAo?$AA?9?$AAr?$AAo?$AA?$AA@ 00000001801277f0     libucrtd:lcidtoname_downlevel.obj
 0002:00021800       ??_C@_1M@CEEDODME@?$AAr?$AAu?$AA?9?$AAr?$AAu?$AA?$AA@ 0000000180127800     libucrtd:lcidtoname_downlevel.obj
 0002:00021810       ??_C@_1M@HPKKKMPP@?$AAs?$AAa?$AA?9?$AAi?$AAn?$AA?$AA@ 0000000180127810     libucrtd:lcidtoname_downlevel.obj
 0002:00021820       ??_C@_1M@BKMAIGOJ@?$AAs?$AAe?$AA?9?$AAf?$AAi?$AA?$AA@ 0000000180127820     libucrtd:lcidtoname_downlevel.obj
 0002:00021830       ??_C@_1M@NDPIFLFI@?$AAs?$AAe?$AA?9?$AAn?$AAo?$AA?$AA@ 0000000180127830     libucrtd:lcidtoname_downlevel.obj
 0002:00021840       ??_C@_1M@DANKKHJ@?$AAs?$AAe?$AA?9?$AAs?$AAe?$AA?$AA@ 0000000180127840     libucrtd:lcidtoname_downlevel.obj
 0002:00021850       ??_C@_1M@PNBLONPJ@?$AAs?$AAk?$AA?9?$AAs?$AAk?$AA?$AA@ 0000000180127850     libucrtd:lcidtoname_downlevel.obj
 0002:00021860       ??_C@_1M@LFMODOAL@?$AAs?$AAl?$AA?9?$AAs?$AAi?$AA?$AA@ 0000000180127860     libucrtd:lcidtoname_downlevel.obj
 0002:00021870       ??_C@_1O@DFKOMPG@?$AAs?$AAm?$AAa?$AA?9?$AAn?$AAo?$AA?$AA@ 0000000180127870     libucrtd:lcidtoname_downlevel.obj
 0002:00021880       ??_C@_1O@NDKPBNNH@?$AAs?$AAm?$AAa?$AA?9?$AAs?$AAe?$AA?$AA@ 0000000180127880     libucrtd:lcidtoname_downlevel.obj
 0002:00021890       ??_C@_1O@PLLKBHAB@?$AAs?$AAm?$AAj?$AA?9?$AAn?$AAo?$AA?$AA@ 0000000180127890     libucrtd:lcidtoname_downlevel.obj
 0002:000218a0       ??_C@_1O@CLEPOGCA@?$AAs?$AAm?$AAj?$AA?9?$AAs?$AAe?$AA?$AA@ 00000001801278a0     libucrtd:lcidtoname_downlevel.obj
 0002:000218b0       ??_C@_1O@DLGJGKMK@?$AAs?$AAm?$AAn?$AA?9?$AAf?$AAi?$AA?$AA@ 00000001801278b0     libucrtd:lcidtoname_downlevel.obj
 0002:000218c0       ??_C@_1O@OJDJGAJC@?$AAs?$AAm?$AAs?$AA?9?$AAf?$AAi?$AA?$AA@ 00000001801278c0     libucrtd:lcidtoname_downlevel.obj
 0002:000218d0       ??_C@_1M@BOFOGHPB@?$AAs?$AAq?$AA?9?$AAa?$AAl?$AA?$AA@ 00000001801278d0     libucrtd:lcidtoname_downlevel.obj
 0002:000218e0       ??_C@_1BG@LJBBIPGB@?$AAs?$AAr?$AA?9?$AAb?$AAa?$AA?9?$AAc?$AAy?$AAr?$AAl?$AA?$AA@ 00000001801278e0     libucrtd:lcidtoname_downlevel.obj
 0002:00021900       ??_C@_1BG@JLBENFOE@?$AAs?$AAr?$AA?9?$AAb?$AAa?$AA?9?$AAl?$AAa?$AAt?$AAn?$AA?$AA@ 0000000180127900     libucrtd:lcidtoname_downlevel.obj
 0002:00021920       ??_C@_1BG@KODPNHE@?$AAs?$AAr?$AA?9?$AAs?$AAp?$AA?9?$AAc?$AAy?$AAr?$AAl?$AA?$AA@ 0000000180127920     libucrtd:lcidtoname_downlevel.obj
 0002:00021940       ??_C@_1BG@CIOGKHPB@?$AAs?$AAr?$AA?9?$AAs?$AAp?$AA?9?$AAl?$AAa?$AAt?$AAn?$AA?$AA@ 0000000180127940     libucrtd:lcidtoname_downlevel.obj
 0002:00021960       ??_C@_1M@NGFJLMAC@?$AAs?$AAv?$AA?9?$AAf?$AAi?$AA?$AA@ 0000000180127960     libucrtd:lcidtoname_downlevel.obj
 0002:00021970       ??_C@_1M@MPJEJAJC@?$AAs?$AAv?$AA?9?$AAs?$AAe?$AA?$AA@ 0000000180127970     libucrtd:lcidtoname_downlevel.obj
 0002:00021980       ??_C@_1M@MPNDHLFK@?$AAs?$AAw?$AA?9?$AAk?$AAe?$AA?$AA@ 0000000180127980     libucrtd:lcidtoname_downlevel.obj
 0002:00021990       ??_C@_1O@KOHBJJI@?$AAs?$AAy?$AAr?$AA?9?$AAs?$AAy?$AA?$AA@ 0000000180127990     libucrtd:lcidtoname_downlevel.obj
 0002:000219a0       ??_C@_1M@LDCEFHA@?$AAt?$AAa?$AA?9?$AAi?$AAn?$AA?$AA@ 00000001801279a0     libucrtd:lcidtoname_downlevel.obj
 0002:000219b0       ??_C@_1M@CNJOFAK@?$AAt?$AAe?$AA?9?$AAi?$AAn?$AA?$AA@ 00000001801279b0     libucrtd:lcidtoname_downlevel.obj
 0002:000219c0       ??_C@_1M@GNAECACD@?$AAt?$AAh?$AA?9?$AAt?$AAh?$AA?$AA@ 00000001801279c0     libucrtd:lcidtoname_downlevel.obj
 0002:000219d0       ??_C@_1M@CHBIHOJO@?$AAt?$AAn?$AA?9?$AAz?$AAa?$AA?$AA@ 00000001801279d0     libucrtd:lcidtoname_downlevel.obj
 0002:000219e0       ??_C@_1M@GCCMIGPJ@?$AAt?$AAr?$AA?9?$AAt?$AAr?$AA?$AA@ 00000001801279e0     libucrtd:lcidtoname_downlevel.obj
 0002:000219f0       ??_C@_1M@CELMCNBK@?$AAt?$AAt?$AA?9?$AAr?$AAu?$AA?$AA@ 00000001801279f0     libucrtd:lcidtoname_downlevel.obj
 0002:00021a00       ??_C@_1M@KLMCELGA@?$AAu?$AAk?$AA?9?$AAu?$AAa?$AA?$AA@ 0000000180127a00     libucrtd:lcidtoname_downlevel.obj
 0002:00021a10       ??_C@_1M@EPAJJAJF@?$AAu?$AAr?$AA?9?$AAp?$AAk?$AA?$AA@ 0000000180127a10     libucrtd:lcidtoname_downlevel.obj
 0002:00021a20       ??_C@_1BG@GEGPMCDJ@?$AAu?$AAz?$AA?9?$AAu?$AAz?$AA?9?$AAc?$AAy?$AAr?$AAl?$AA?$AA@ 0000000180127a20     libucrtd:lcidtoname_downlevel.obj
 0002:00021a40       ??_C@_1BG@EGGKJILM@?$AAu?$AAz?$AA?9?$AAu?$AAz?$AA?9?$AAl?$AAa?$AAt?$AAn?$AA?$AA@ 0000000180127a40     libucrtd:lcidtoname_downlevel.obj
 0002:00021a60       ??_C@_1M@GFOCLFF@?$AAv?$AAi?$AA?9?$AAv?$AAn?$AA?$AA@ 0000000180127a60     libucrtd:lcidtoname_downlevel.obj
 0002:00021a70       ??_C@_1M@CPAMEDFI@?$AAx?$AAh?$AA?9?$AAz?$AAa?$AA?$AA@ 0000000180127a70     libucrtd:lcidtoname_downlevel.obj
 0002:00021a80       ??_C@_1O@EBKIFIGN@?$AAz?$AAh?$AA?9?$AAc?$AAh?$AAs?$AA?$AA@ 0000000180127a80     libucrtd:lcidtoname_downlevel.obj
 0002:00021a90       ??_C@_1O@NMHPGANE@?$AAz?$AAh?$AA?9?$AAc?$AAh?$AAt?$AA?$AA@ 0000000180127a90     libucrtd:lcidtoname_downlevel.obj
 0002:00021aa0       ??_C@_1M@LPINJOMC@?$AAz?$AAh?$AA?9?$AAc?$AAn?$AA?$AA@ 0000000180127aa0     libucrtd:lcidtoname_downlevel.obj
 0002:00021ab0       ??_C@_1M@OCJEJODD@?$AAz?$AAh?$AA?9?$AAh?$AAk?$AA?$AA@ 0000000180127ab0     libucrtd:lcidtoname_downlevel.obj
 0002:00021ac0       ??_C@_1M@DNDLJINH@?$AAz?$AAh?$AA?9?$AAm?$AAo?$AA?$AA@ 0000000180127ac0     libucrtd:lcidtoname_downlevel.obj
 0002:00021ad0       ??_C@_1M@MBFDNDND@?$AAz?$AAh?$AA?9?$AAs?$AAg?$AA?$AA@ 0000000180127ad0     libucrtd:lcidtoname_downlevel.obj
 0002:00021ae0       ??_C@_1M@IMEPLEPE@?$AAz?$AAh?$AA?9?$AAt?$AAw?$AA?$AA@ 0000000180127ae0     libucrtd:lcidtoname_downlevel.obj
 0002:00021af0       ??_C@_1M@BBGHNHJP@?$AAz?$AAu?$AA?9?$AAz?$AAa?$AA?$AA@ 0000000180127af0     libucrtd:lcidtoname_downlevel.obj
 0002:00022c1c       ??_C@_15EMKDOKLE@?$AAa?$AAr?$AA?$AA@ 0000000180128c1c     libucrtd:lcidtoname_downlevel.obj
 0002:00022c24       ??_C@_15KNPADPLH@?$AAb?$AAg?$AA?$AA@ 0000000180128c24     libucrtd:lcidtoname_downlevel.obj
 0002:00022c2c       ??_C@_15EDMHLDMO@?$AAc?$AAa?$AA?$AA@ 0000000180128c2c     libucrtd:lcidtoname_downlevel.obj
 0002:00022c38       ??_C@_1O@BPEAJADD@?$AAz?$AAh?$AA?9?$AAC?$AAH?$AAS?$AA?$AA@ 0000000180128c38     libucrtd:lcidtoname_downlevel.obj
 0002:00022c48       ??_C@_15LJNHCMNK@?$AAc?$AAs?$AA?$AA@ 0000000180128c48     libucrtd:lcidtoname_downlevel.obj
 0002:00022c50       ??_C@_15FOMCIDHG@?$AAd?$AAa?$AA?$AA@ 0000000180128c50     libucrtd:lcidtoname_downlevel.obj
 0002:00022c58       ??_C@_15NBKABECB@?$AAd?$AAe?$AA?$AA@ 0000000180128c58     libucrtd:lcidtoname_downlevel.obj
 0002:00022c60       ??_C@_15GHPEIIAO@?$AAe?$AAl?$AA?$AA@ 0000000180128c60     libucrtd:lcidtoname_downlevel.obj
 0002:00022c68       ??_C@_15MNPNEAIF@?$AAe?$AAn?$AA?$AA@ 0000000180128c68     libucrtd:lcidtoname_downlevel.obj
 0002:00022c70       ??_C@_15GPIOMPMH@?$AAe?$AAs?$AA?$AA@ 0000000180128c70     libucrtd:lcidtoname_downlevel.obj
 0002:00022c78       ??_C@_15NGLOAKJC@?$AAf?$AAi?$AA?$AA@ 0000000180128c78     libucrtd:lcidtoname_downlevel.obj
 0002:00022c80       ??_C@_15FBKGNKAM@?$AAf?$AAr?$AA?$AA@ 0000000180128c80     libucrtd:lcidtoname_downlevel.obj
 0002:00022c88       ??_C@_15KGGCNEFK@?$AAh?$AAe?$AA?$AA@ 0000000180128c88     libucrtd:lcidtoname_downlevel.obj
 0002:00022c90       ??_C@_15PGHLIDMF@?$AAh?$AAu?$AA?$AA@ 0000000180128c90     libucrtd:lcidtoname_downlevel.obj
 0002:00022c98       ??_C@_15BIEMAPLM@?$AAi?$AAs?$AA?$AA@ 0000000180128c98     libucrtd:lcidtoname_downlevel.obj
 0002:00022ca0       ??_C@_15IFJLDHAF@?$AAi?$AAt?$AA?$AA@ 0000000180128ca0     libucrtd:lcidtoname_downlevel.obj
 0002:00022ca8       ??_C@_15GEMIOCAG@?$AAj?$AAa?$AA?$AA@ 0000000180128ca8     libucrtd:lcidtoname_downlevel.obj
 0002:00022cb0       ??_C@_15EPELEGJA@?$AAk?$AAo?$AA?$AA@ 0000000180128cb0     libucrtd:lcidtoname_downlevel.obj
 0002:00022cb8       ??_C@_15NDDHIMN@?$AAn?$AAl?$AA?$AA@ 0000000180128cb8     libucrtd:lcidtoname_downlevel.obj
 0002:00022cc0       ??_C@_15BPIGNHCD@?$AAn?$AAo?$AA?$AA@ 0000000180128cc0     libucrtd:lcidtoname_downlevel.obj
 0002:00022cc8       ??_C@_15DEOPBLCG@?$AAp?$AAl?$AA?$AA@ 0000000180128cc8     libucrtd:lcidtoname_downlevel.obj
 0002:00022cd0       ??_C@_15KBECGEFG@?$AAp?$AAt?$AA?$AA@ 0000000180128cd0     libucrtd:lcidtoname_downlevel.obj
 0002:00022cd8       ??_C@_15GLJCBFMD@?$AAr?$AAo?$AA?$AA@ 0000000180128cd8     libucrtd:lcidtoname_downlevel.obj
 0002:00022ce0       ??_C@_15FEDGKCDI@?$AAr?$AAu?$AA?$AA@ 0000000180128ce0     libucrtd:lcidtoname_downlevel.obj
 0002:00022ce8       ??_C@_15GLKMLLHM@?$AAh?$AAr?$AA?$AA@ 0000000180128ce8     libucrtd:lcidtoname_downlevel.obj
 0002:00022cf0       ??_C@_15CPKMFBDB@?$AAs?$AAk?$AA?$AA@ 0000000180128cf0     libucrtd:lcidtoname_downlevel.obj
 0002:00022cf8       ??_C@_15BAAIOGMK@?$AAs?$AAq?$AA?$AA@ 0000000180128cf8     libucrtd:lcidtoname_downlevel.obj
 0002:00022d00       ??_C@_15INNPNOHD@?$AAs?$AAv?$AA?$AA@ 0000000180128d00     libucrtd:lcidtoname_downlevel.obj
 0002:00022d08       ??_C@_15CABMMOGH@?$AAt?$AAh?$AA?$AA@ 0000000180128d08     libucrtd:lcidtoname_downlevel.obj
 0002:00022d10       ??_C@_15BPLIHJJM@?$AAt?$AAr?$AA?$AA@ 0000000180128d10     libucrtd:lcidtoname_downlevel.obj
 0002:00022d18       ??_C@_15NEOEKKDJ@?$AAu?$AAr?$AA?$AA@ 0000000180128d18     libucrtd:lcidtoname_downlevel.obj
 0002:00022d20       ??_C@_15NFICGAJK@?$AAi?$AAd?$AA?$AA@ 0000000180128d20     libucrtd:lcidtoname_downlevel.obj
 0002:00022d28       ??_C@_15PJPFLCCM@?$AAu?$AAk?$AA?$AA@ 0000000180128d28     libucrtd:lcidtoname_downlevel.obj
 0002:00022d30       ??_C@_15HPJPHDM@?$AAb?$AAe?$AA?$AA@ 0000000180128d30     libucrtd:lcidtoname_downlevel.obj
 0002:00022d38       ??_C@_15LCHLGJII@?$AAs?$AAl?$AA?$AA@ 0000000180128d38     libucrtd:lcidtoname_downlevel.obj
 0002:00022d40       ??_C@_15PCFJPHHO@?$AAe?$AAt?$AA?$AA@ 0000000180128d40     libucrtd:lcidtoname_downlevel.obj
 0002:00022d48       ??_C@_15HPFPGODN@?$AAl?$AAv?$AA?$AA@ 0000000180128d48     libucrtd:lcidtoname_downlevel.obj
 0002:00022d50       ??_C@_15NFFGKGLG@?$AAl?$AAt?$AA?$AA@ 0000000180128d50     libucrtd:lcidtoname_downlevel.obj
 0002:00022d58       ??_C@_15BDAKCCHN@?$AAf?$AAa?$AA?$AA@ 0000000180128d58     libucrtd:lcidtoname_downlevel.obj
 0002:00022d60       ??_C@_15NFGIAIAJ@?$AAv?$AAi?$AA?$AA@ 0000000180128d60     libucrtd:lcidtoname_downlevel.obj
 0002:00022d68       ??_C@_15LMKNDMHN@?$AAh?$AAy?$AA?$AA@ 0000000180128d68     libucrtd:lcidtoname_downlevel.obj
 0002:00022d70       ??_C@_15IJBHMCFL@?$AAa?$AAz?$AA?$AA@ 0000000180128d70     libucrtd:lcidtoname_downlevel.obj
 0002:00022d78       ??_C@_15EKOFJABL@?$AAe?$AAu?$AA?$AA@ 0000000180128d78     libucrtd:lcidtoname_downlevel.obj
 0002:00022d80       ??_C@_15BGHADCNK@?$AAm?$AAk?$AA?$AA@ 0000000180128d80     libucrtd:lcidtoname_downlevel.obj
 0002:00022d88       ??_C@_15JDNICKHM@?$AAa?$AAf?$AA?$AA@ 0000000180128d88     libucrtd:lcidtoname_downlevel.obj
 0002:00022d90       ??_C@_15KPJEDBKD@?$AAk?$AAa?$AA?$AA@ 0000000180128d90     libucrtd:lcidtoname_downlevel.obj
 0002:00022d98       ??_C@_15PDNFFFEO@?$AAf?$AAo?$AA?$AA@ 0000000180128d98     libucrtd:lcidtoname_downlevel.obj
 0002:00022da0       ??_C@_15OMLEGLOC@?$AAh?$AAi?$AA?$AA@ 0000000180128da0     libucrtd:lcidtoname_downlevel.obj
 0002:00022da8       ??_C@_15IDNNENKK@?$AAm?$AAs?$AA?$AA@ 0000000180128da8     libucrtd:lcidtoname_downlevel.obj
 0002:00022db0       ??_C@_15MACJNBMH@?$AAk?$AAk?$AA?$AA@ 0000000180128db0     libucrtd:lcidtoname_downlevel.obj
 0002:00022db8       ??_C@_15DKDJEOND@?$AAk?$AAy?$AA?$AA@ 0000000180128db8     libucrtd:lcidtoname_downlevel.obj
 0002:00022dc0       ??_C@_15DFGDLJBG@?$AAs?$AAw?$AA?$AA@ 0000000180128dc0     libucrtd:lcidtoname_downlevel.obj
 0002:00022dc8       ??_C@_15BBFAICNG@?$AAu?$AAz?$AA?$AA@ 0000000180128dc8     libucrtd:lcidtoname_downlevel.obj
 0002:00022dd0       ??_C@_15DKNDCGEA@?$AAt?$AAt?$AA?$AA@ 0000000180128dd0     libucrtd:lcidtoname_downlevel.obj
 0002:00022dd8       ??_C@_15MGIFMDPL@?$AAp?$AAa?$AA?$AA@ 0000000180128dd8     libucrtd:lcidtoname_downlevel.obj
 0002:00022de0       ??_C@_15HCNDBBA@?$AAg?$AAu?$AA?$AA@ 0000000180128de0     libucrtd:lcidtoname_downlevel.obj
 0002:00022de8       ??_C@_15FNBEIBON@?$AAt?$AAa?$AA?$AA@ 0000000180128de8     libucrtd:lcidtoname_downlevel.obj
 0002:00022df0       ??_C@_15NCHGBGLK@?$AAt?$AAe?$AA?$AA@ 0000000180128df0     libucrtd:lcidtoname_downlevel.obj
 0002:00022df8       ??_C@_15PHPHCBPF@?$AAk?$AAn?$AA?$AA@ 0000000180128df8     libucrtd:lcidtoname_downlevel.obj
 0002:00022e00       ??_C@_15DLGBCKMP@?$AAm?$AAr?$AA?$AA@ 0000000180128e00     libucrtd:lcidtoname_downlevel.obj
 0002:00022e08       ??_C@_15EABBLBFF@?$AAs?$AAa?$AA?$AA@ 0000000180128e08     libucrtd:lcidtoname_downlevel.obj
 0002:00022e10       ??_C@_15CBKOMCOI@?$AAm?$AAn?$AA?$AA@ 0000000180128e10     libucrtd:lcidtoname_downlevel.obj
 0002:00022e18       ??_C@_15CKDMCJAF@?$AAg?$AAl?$AA?$AA@ 0000000180128e18     libucrtd:lcidtoname_downlevel.obj
 0002:00022e20       ??_C@_17CNJFBPG@?$AAk?$AAo?$AAk?$AA?$AA@ 0000000180128e20     libucrtd:lcidtoname_downlevel.obj
 0002:00022e30       ??_C@_17FFBJICPL@?$AAs?$AAy?$AAr?$AA?$AA@ 0000000180128e30     libucrtd:lcidtoname_downlevel.obj
 0002:00022e40       ??_C@_17KPNDCPAF@?$AAd?$AAi?$AAv?$AA?$AA@ 0000000180128e40     libucrtd:lcidtoname_downlevel.obj
 0002:00022e50       ??_C@_1M@OKAHONE@?$AAa?$AAr?$AA?9?$AAS?$AAA?$AA?$AA@ 0000000180128e50     libucrtd:lcidtoname_downlevel.obj
 0002:00022e60       ??_C@_1M@FFFIGIGK@?$AAb?$AAg?$AA?9?$AAB?$AAG?$AA?$AA@ 0000000180128e60     libucrtd:lcidtoname_downlevel.obj
 0002:00022e70       ??_C@_1M@BJNKEDC@?$AAc?$AAa?$AA?9?$AAE?$AAS?$AA?$AA@ 0000000180128e70     libucrtd:lcidtoname_downlevel.obj
 0002:00022e80       ??_C@_1M@IJJHFJHA@?$AAc?$AAs?$AA?9?$AAC?$AAZ?$AA?$AA@ 0000000180128e80     libucrtd:lcidtoname_downlevel.obj
 0002:00022e90       ??_C@_1M@CLPEOBGI@?$AAd?$AAa?$AA?9?$AAD?$AAK?$AA?$AA@ 0000000180128e90     libucrtd:lcidtoname_downlevel.obj
 0002:00022ea0       ??_C@_1M@MCMADGCB@?$AAd?$AAe?$AA?9?$AAD?$AAE?$AA?$AA@ 0000000180128ea0     libucrtd:lcidtoname_downlevel.obj
 0002:00022eb0       ??_C@_1M@OOCKEMAM@?$AAe?$AAl?$AA?9?$AAG?$AAR?$AA?$AA@ 0000000180128eb0     libucrtd:lcidtoname_downlevel.obj
 0002:00022ec0       ??_C@_1M@DDNJFGID@?$AAf?$AAi?$AA?9?$AAF?$AAI?$AA?$AA@ 0000000180128ec0     libucrtd:lcidtoname_downlevel.obj
 0002:00022ed0       ??_C@_1M@GLIPPMAC@?$AAf?$AAr?$AA?9?$AAF?$AAR?$AA?$AA@ 0000000180128ed0     libucrtd:lcidtoname_downlevel.obj
 0002:00022ee0       ??_C@_1M@GFMCHPE@?$AAh?$AAe?$AA?9?$AAI?$AAL?$AA?$AA@ 0000000180128ee0     libucrtd:lcidtoname_downlevel.obj
 0002:00022ef0       ??_C@_1M@MHLPGNKM@?$AAh?$AAu?$AA?9?$AAH?$AAU?$AA?$AA@ 0000000180128ef0     libucrtd:lcidtoname_downlevel.obj
 0002:00022f00       ??_C@_1M@LPDDNNPN@?$AAi?$AAs?$AA?9?$AAI?$AAS?$AA?$AA@ 0000000180128f00     libucrtd:lcidtoname_downlevel.obj
 0002:00022f10       ??_C@_1M@MADIPODN@?$AAi?$AAt?$AA?9?$AAI?$AAT?$AA?$AA@ 0000000180128f10     libucrtd:lcidtoname_downlevel.obj
 0002:00022f20       ??_C@_1M@IHBJJGG@?$AAn?$AAl?$AA?9?$AAN?$AAL?$AA?$AA@ 0000000180128f20     libucrtd:lcidtoname_downlevel.obj
 0002:00022f30       ??_C@_1M@EANAGDL@?$AAn?$AAb?$AA?9?$AAN?$AAO?$AA?$AA@ 0000000180128f30     libucrtd:lcidtoname_downlevel.obj
 0002:00022f40       ??_C@_1M@NEIEMEGP@?$AAp?$AAl?$AA?9?$AAP?$AAL?$AA?$AA@ 0000000180128f40     libucrtd:lcidtoname_downlevel.obj
 0002:00022f50       ??_C@_1M@BOCFIGEP@?$AAp?$AAt?$AA?9?$AAB?$AAR?$AA?$AA@ 0000000180128f50     libucrtd:lcidtoname_downlevel.obj
 0002:00022f60       ??_C@_1M@IMPFOPBG@?$AAr?$AAo?$AA?9?$AAR?$AAO?$AA?$AA@ 0000000180128f60     libucrtd:lcidtoname_downlevel.obj
 0002:00022f70       ??_C@_1M@IDNNEJMM@?$AAr?$AAu?$AA?9?$AAR?$AAU?$AA?$AA@ 0000000180128f70     libucrtd:lcidtoname_downlevel.obj
 0002:00022f80       ??_C@_1M@LILEEOGM@?$AAh?$AAr?$AA?9?$AAH?$AAR?$AA?$AA@ 0000000180128f80     libucrtd:lcidtoname_downlevel.obj
 0002:00022f90       ??_C@_1M@FKIFEHPB@?$AAs?$AAk?$AA?9?$AAS?$AAK?$AA?$AA@ 0000000180128f90     libucrtd:lcidtoname_downlevel.obj
 0002:00022fa0       ??_C@_1M@LJMAMNPJ@?$AAs?$AAq?$AA?9?$AAA?$AAL?$AA?$AA@ 0000000180128fa0     libucrtd:lcidtoname_downlevel.obj
 0002:00022fb0       ??_C@_1M@GIAKDKJK@?$AAs?$AAv?$AA?9?$AAS?$AAE?$AA?$AA@ 0000000180128fb0     libucrtd:lcidtoname_downlevel.obj
 0002:00022fc0       ??_C@_1M@MKJKIKCL@?$AAt?$AAh?$AA?9?$AAT?$AAH?$AA?$AA@ 0000000180128fc0     libucrtd:lcidtoname_downlevel.obj
 0002:00022fd0       ??_C@_1M@MFLCCMPB@?$AAt?$AAr?$AA?9?$AAT?$AAR?$AA?$AA@ 0000000180128fd0     libucrtd:lcidtoname_downlevel.obj
 0002:00022fe0       ??_C@_1M@OIJHDKJN@?$AAu?$AAr?$AA?9?$AAP?$AAK?$AA?$AA@ 0000000180128fe0     libucrtd:lcidtoname_downlevel.obj
 0002:00022ff0       ??_C@_1M@LHIPCIEK@?$AAi?$AAd?$AA?9?$AAI?$AAD?$AA?$AA@ 0000000180128ff0     libucrtd:lcidtoname_downlevel.obj
 0002:00023000       ??_C@_1M@MFMOBGI@?$AAu?$AAk?$AA?9?$AAU?$AAA?$AA?$AA@ 0000000180129000     libucrtd:lcidtoname_downlevel.obj
 0002:00023010       ??_C@_1M@OBGLJIPL@?$AAb?$AAe?$AA?9?$AAB?$AAY?$AA?$AA@ 0000000180129010     libucrtd:lcidtoname_downlevel.obj
 0002:00023020       ??_C@_1M@BCFAJEAD@?$AAs?$AAl?$AA?9?$AAS?$AAI?$AA?$AA@ 0000000180129020     libucrtd:lcidtoname_downlevel.obj
 0002:00023030       ??_C@_1M@FKFFEDDN@?$AAe?$AAt?$AA?9?$AAE?$AAE?$AA?$AA@ 0000000180129030     libucrtd:lcidtoname_downlevel.obj
 0002:00023040       ??_C@_1M@KGKKAACI@?$AAl?$AAv?$AA?9?$AAL?$AAV?$AA?$AA@ 0000000180129040     libucrtd:lcidtoname_downlevel.obj
 0002:00023050       ??_C@_1M@IFGBIJO@?$AAl?$AAt?$AA?9?$AAL?$AAT?$AA?$AA@ 0000000180129050     libucrtd:lcidtoname_downlevel.obj
 0002:00023060       ??_C@_1M@FGEAHEDM@?$AAf?$AAa?$AA?9?$AAI?$AAR?$AA?$AA@ 0000000180129060     libucrtd:lcidtoname_downlevel.obj
 0002:00023070       ??_C@_1M@KBMAIBFN@?$AAv?$AAi?$AA?9?$AAV?$AAN?$AA?$AA@ 0000000180129070     libucrtd:lcidtoname_downlevel.obj
 0002:00023080       ??_C@_1M@GPCBKDJK@?$AAh?$AAy?$AA?9?$AAA?$AAM?$AA?$AA@ 0000000180129080     libucrtd:lcidtoname_downlevel.obj
 0002:00023090       ??_C@_1BG@BECMDDJB@?$AAa?$AAz?$AA?9?$AAA?$AAZ?$AA?9?$AAL?$AAa?$AAt?$AAn?$AA?$AA@ 0000000180129090     libucrtd:lcidtoname_downlevel.obj
 0002:000230b0       ??_C@_1M@MAOFCAEA@?$AAe?$AAu?$AA?9?$AAE?$AAS?$AA?$AA@ 00000001801290b0     libucrtd:lcidtoname_downlevel.obj
 0002:000230c0       ??_C@_1M@IGHABKPI@?$AAm?$AAk?$AA?9?$AAM?$AAK?$AA?$AA@ 00000001801290c0     libucrtd:lcidtoname_downlevel.obj
 0002:000230d0       ??_C@_1M@IAIGNEJG@?$AAt?$AAn?$AA?9?$AAZ?$AAA?$AA?$AA@ 00000001801290d0     libucrtd:lcidtoname_downlevel.obj
 0002:000230e0       ??_C@_1M@IIJCOJFA@?$AAx?$AAh?$AA?9?$AAZ?$AAA?$AA?$AA@ 00000001801290e0     libucrtd:lcidtoname_downlevel.obj
 0002:000230f0       ??_C@_1M@LGPJHNJH@?$AAz?$AAu?$AA?9?$AAZ?$AAA?$AA?$AA@ 00000001801290f0     libucrtd:lcidtoname_downlevel.obj
 0002:00023100       ??_C@_1M@HOKAOIO@?$AAa?$AAf?$AA?9?$AAZ?$AAA?$AA?$AA@ 0000000180129100     libucrtd:lcidtoname_downlevel.obj
 0002:00023110       ??_C@_1M@DPCLHLIE@?$AAk?$AAa?$AA?9?$AAG?$AAE?$AA?$AA@ 0000000180129110     libucrtd:lcidtoname_downlevel.obj
 0002:00023120       ??_C@_1M@BLKMHJBI@?$AAf?$AAo?$AA?9?$AAF?$AAO?$AA?$AA@ 0000000180129120     libucrtd:lcidtoname_downlevel.obj
 0002:00023130       ??_C@_1M@LGGJAPPB@?$AAh?$AAi?$AA?9?$AAI?$AAN?$AA?$AA@ 0000000180129130     libucrtd:lcidtoname_downlevel.obj
 0002:00023140       ??_C@_1M@FIKPIHFE@?$AAm?$AAt?$AA?9?$AAM?$AAT?$AA?$AA@ 0000000180129140     libucrtd:lcidtoname_downlevel.obj
 0002:00023150       ??_C@_1M@HEGGPBFA@?$AAs?$AAe?$AA?9?$AAN?$AAO?$AA?$AA@ 0000000180129150     libucrtd:lcidtoname_downlevel.obj
 0002:00023160       ??_C@_1M@EIBJEEPA@?$AAm?$AAs?$AA?9?$AAM?$AAY?$AA?$AA@ 0000000180129160     libucrtd:lcidtoname_downlevel.obj
 0002:00023170       ??_C@_1M@FHLBGMPP@?$AAk?$AAk?$AA?9?$AAK?$AAZ?$AA?$AA@ 0000000180129170     libucrtd:lcidtoname_downlevel.obj
 0002:00023180       ??_C@_1M@NGJJLCGI@?$AAk?$AAy?$AA?9?$AAK?$AAG?$AA?$AA@ 0000000180129180     libucrtd:lcidtoname_downlevel.obj
 0002:00023190       ??_C@_1M@GIENNBFC@?$AAs?$AAw?$AA?9?$AAK?$AAE?$AA?$AA@ 0000000180129190     libucrtd:lcidtoname_downlevel.obj
 0002:000231a0       ??_C@_1HO@KHHMOCBO@?$AAm?$AAi?$AAn?$AAk?$AAe?$AAr?$AAn?$AAe?$AAl?$AA?2?$AAc?$AAr?$AAt?$AAs?$AA?2?$AAu?$AAc?$AAr?$AAt?$AA?2?$AAs?$AAr?$AAc?$AA?2?$AAa?$AAp?$AAp?$AAc?$AAr?$AAt?$AA?2?$AAl@ 00000001801291a0     libucrtd:lcidtoname_downlevel.obj
 0002:00023240       ??_C@_1EC@MDFDCHIL@?$AA_?$AA_?$AAa?$AAc?$AAr?$AAt?$AA_?$AAD?$AAo?$AAw?$AAn?$AAl?$AAe?$AAv?$AAe?$AAl?$AAL?$AAC?$AAI?$AAD?$AAT?$AAo?$AAL?$AAo?$AAc?$AAa?$AAl?$AAe?$AAN?$AAa?$AAm?$AAe@ 0000000180129240     libucrtd:lcidtoname_downlevel.obj
 0002:00023290       ??_C@_1FO@LFACCMJH@?$AAw?$AAc?$AAs?$AAc?$AAp?$AAy?$AA_?$AAs?$AA?$CI?$AAo?$AAu?$AAt?$AAL?$AAo?$AAc?$AAa?$AAl?$AAe?$AAN?$AAa?$AAm?$AAe?$AA?0?$AA?5?$AAc?$AAc?$AAh?$AAL?$AAo?$AAc?$AAa?$AAl@ 0000000180129290     libucrtd:lcidtoname_downlevel.obj
 0002:00023300       ??_C@_1GA@DKNOMDCL@?$AAm?$AAi?$AAn?$AAk?$AAe?$AAr?$AAn?$AAe?$AAl?$AA?2?$AAc?$AAr?$AAt?$AAs?$AA?2?$AAu?$AAc?$AAr?$AAt?$AA?2?$AAs?$AAr?$AAc?$AA?2?$AAa?$AAp?$AAp?$AAc?$AAr?$AAt?$AA?2?$AAs@ 0000000180129300     libucrtd:fclose.obj
 0002:00023378       ??_C@_1O@EGMJNCOI@?$AAf?$AAc?$AAl?$AAo?$AAs?$AAe?$AA?$AA@ 0000000180129378     libucrtd:fclose.obj
 0002:00023388       ??_C@_1BO@JINCABEC@?$AA_?$AAf?$AAc?$AAl?$AAo?$AAs?$AAe?$AA_?$AAn?$AAo?$AAl?$AAo?$AAc?$AAk?$AA?$AA@ 0000000180129388     libucrtd:fclose.obj
 0002:000233b0       ??_C@_1FO@LPCLHKGE@?$AA?$CI?$AAf?$AAh?$AA?5?$AA?$DO?$AA?$DN?$AA?5?$AA0?$AA?5?$AA?$CG?$AA?$CG?$AA?5?$AA?$CI?$AAu?$AAn?$AAs?$AAi?$AAg?$AAn?$AAe?$AAd?$AA?$CJ?$AAf?$AAh?$AA?5?$AA?$DM?$AA?5?$AA?$CI?$AAu?$AAn?$AAs?$AAi@ 00000001801293b0     libucrtd:commit.obj
 0002:00023420       ??_C@_1GA@MPOOLHCO@?$AAm?$AAi?$AAn?$AAk?$AAe?$AAr?$AAn?$AAe?$AAl?$AA?2?$AAc?$AAr?$AAt?$AAs?$AA?2?$AAu?$AAc?$AAr?$AAt?$AA?2?$AAs?$AAr?$AAc?$AA?2?$AAa?$AAp?$AAp?$AAc?$AAr?$AAt?$AA?2?$AAl@ 0000000180129420     libucrtd:commit.obj
 0002:00023498       ??_C@_1BA@FLNMBBIM@?$AA_?$AAc?$AAo?$AAm?$AAm?$AAi?$AAt?$AA?$AA@ 0000000180129498     libucrtd:commit.obj
 0002:000234b0       ??_C@_1CM@OKGMMMDH@?$AA?$CI?$AA_?$AAo?$AAs?$AAf?$AAi?$AAl?$AAe?$AA?$CI?$AAf?$AAh?$AA?$CJ?$AA?5?$AA?$CG?$AA?5?$AAF?$AAO?$AAP?$AAE?$AAN?$AA?$CJ?$AA?$AA@ 00000001801294b0     libucrtd:commit.obj
 0002:000234f0       ??_C@_1JE@ECKHFIFP@?$AA?$CI?$AA?$CC?$AAI?$AAn?$AAv?$AAa?$AAl?$AAi?$AAd?$AA?5?$AAf?$AAi?$AAl?$AAe?$AA?5?$AAd?$AAe?$AAs?$AAc?$AAr?$AAi?$AAp?$AAt?$AAo?$AAr?$AA?4?$AA?5?$AAF?$AAi?$AAl?$AAe?$AA?5@ 00000001801294f0     libucrtd:commit.obj
 0002:000235b0       ??_C@_1FO@CAMPMGCN@?$AAm?$AAi?$AAn?$AAk?$AAe?$AAr?$AAn?$AAe?$AAl?$AA?2?$AAc?$AAr?$AAt?$AAs?$AA?2?$AAu?$AAc?$AAr?$AAt?$AA?2?$AAs?$AAr?$AAc?$AA?2?$AAa?$AAp?$AAp?$AAc?$AAr?$AAt?$AA?2?$AAl@ 00000001801295b0     libucrtd:write.obj
 0002:00023620       ??_C@_1O@KOFKDHPL@?$AA_?$AAw?$AAr?$AAi?$AAt?$AAe?$AA?$AA@ 0000000180129620     libucrtd:write.obj
 0002:00023630       ??_C@_1DI@CNMHHHLG@?$AAi?$AAs?$AAl?$AAe?$AAa?$AAd?$AAb?$AAy?$AAt?$AAe?$AA?$CI?$AA_?$AAd?$AAb?$AAc?$AAs?$AAB?$AAu?$AAf?$AAf?$AAe?$AAr?$AA?$CI?$AAf?$AAh?$AA?$CJ?$AA?$CJ?$AA?$AA@ 0000000180129630     libucrtd:write.obj
 0002:00023678       ??_C@_1CE@MCCHPLBM@?$AAb?$AAu?$AAf?$AAf?$AAe?$AAr?$AA?5?$AA?$CB?$AA?$DN?$AA?5?$AAn?$AAu?$AAl?$AAl?$AAp?$AAt?$AAr?$AA?$AA@ 0000000180129678     libucrtd:write.obj
 0002:000236a8       ??_C@_1BM@NCANHCIP@?$AA_?$AAw?$AAr?$AAi?$AAt?$AAe?$AA_?$AAn?$AAo?$AAl?$AAo?$AAc?$AAk?$AA?$AA@ 00000001801296a8     libucrtd:write.obj
 0002:000236d0       ??_C@_1CK@CPEAGIIP@?$AAb?$AAu?$AAf?$AAf?$AAe?$AAr?$AA_?$AAs?$AAi?$AAz?$AAe?$AA?5?$AA?$CF?$AA?5?$AA2?$AA?5?$AA?$DN?$AA?$DN?$AA?5?$AA0?$AA?$AA@ 00000001801296d0     libucrtd:write.obj
 0002:00023708       ??_C@_0DB@JFFPGLDM@minkernel?2crts?2ucrt?2src?2appcrt?2l@ 0000000180129708     libucrtd:osfinfo.obj
 0002:00023750       ??_C@_1EM@BPODPNEJ@?$AAs?$AAt?$AAa?$AAt?$AAi?$AAc?$AA_?$AAc?$AAa?$AAs?$AAt?$AA?$DM?$AAu?$AAn?$AAs?$AAi?$AAg?$AAn?$AAe?$AAd?$AA?$DO?$AA?$CI?$AAf?$AAh?$AA?$CJ?$AA?5?$AA?$DM?$AA?5?$AA_?$AAN?$AAH?$AAA@ 0000000180129750     libucrtd:osfinfo.obj
 0002:000237b0       ??_C@_1GC@LDGKBAFM@?$AAm?$AAi?$AAn?$AAk?$AAe?$AAr?$AAn?$AAe?$AAl?$AA?2?$AAc?$AAr?$AAt?$AAs?$AA?2?$AAu?$AAc?$AAr?$AAt?$AA?2?$AAs?$AAr?$AAc?$AA?2?$AAa?$AAp?$AAp?$AAc?$AAr?$AAt?$AA?2?$AAl@ 00000001801297b0     libucrtd:osfinfo.obj
 0002:00023828       ??_C@_1DM@JELNOMLN@?$AA_?$AA_?$AAa?$AAc?$AAr?$AAt?$AA_?$AAl?$AAo?$AAw?$AAi?$AAo?$AA_?$AAe?$AAn?$AAs?$AAu?$AAr?$AAe?$AA_?$AAf?$AAh?$AA_?$AAe?$AAx?$AAi?$AAs?$AAt?$AAs?$AA?$AA@ 0000000180129828     libucrtd:osfinfo.obj
 0002:00023870       ??_C@_1FK@MGHFJLAL@?$AAf?$AAh?$AA?5?$AA?$DO?$AA?$DN?$AA?5?$AA0?$AA?5?$AA?$CG?$AA?$CG?$AA?5?$AA?$CI?$AAu?$AAn?$AAs?$AAi?$AAg?$AAn?$AAe?$AAd?$AA?$CJ?$AAf?$AAh?$AA?5?$AA?$DM?$AA?5?$AA?$CI?$AAu?$AAn?$AAs?$AAi?$AAg@ 0000000180129870     libucrtd:osfinfo.obj
 0002:000238e0       ??_C@_1BO@EMBOBGKE@?$AA_?$AAg?$AAe?$AAt?$AA_?$AAo?$AAs?$AAf?$AAh?$AAa?$AAn?$AAd?$AAl?$AAe?$AA?$AA@ 00000001801298e0     libucrtd:osfinfo.obj
 0002:00023908       ??_C@_1CI@ILOIOBLM@?$AA_?$AAo?$AAs?$AAf?$AAi?$AAl?$AAe?$AA?$CI?$AAf?$AAh?$AA?$CJ?$AA?5?$AA?$CG?$AA?5?$AAF?$AAO?$AAP?$AAE?$AAN?$AA?$AA@ 0000000180129908     libucrtd:osfinfo.obj
 0002:00023940       ??_C@_1FE@KNPCCODH@?$AA?$CI?$AA?$CC?$AAC?$AAo?$AAr?$AAr?$AAu?$AAp?$AAt?$AAe?$AAd?$AA?5?$AAp?$AAo?$AAi?$AAn?$AAt?$AAe?$AAr?$AA?5?$AAp?$AAa?$AAs?$AAs?$AAe?$AAd?$AA?5?$AAt?$AAo?$AA?5?$AA_?$AAf@ 0000000180129940     libucrtd:lcmapstringa.obj
 0002:000239b0       ??_C@_1HG@NGPLHMCI@?$AAm?$AAi?$AAn?$AAk?$AAe?$AAr?$AAn?$AAe?$AAl?$AA?2?$AAc?$AAr?$AAt?$AAs?$AA?2?$AAu?$AAc?$AAr?$AAt?$AA?2?$AAd?$AAe?$AAv?$AAd?$AAi?$AAv?$AA?2?$AAv?$AAc?$AAr?$AAu?$AAn@ 00000001801299b0     libucrtd:lcmapstringa.obj
 0002:00023a40       ??_C@_0DH@IKPCBLP@minkernel?2crts?2ucrt?2src?2appcrt?2l@ 0000000180129a40     libucrtd:lcmapstringa.obj
 0002:00023a88       ??_C@_0DE@PKCHMIOF@minkernel?2crts?2ucrt?2src?2appcrt?2l@ 0000000180129a88     libucrtd:initctype.obj
 0002:00023ad0       ??_C@_1GI@DPHPBMAL@?$AAm?$AAi?$AAn?$AAk?$AAe?$AAr?$AAn?$AAe?$AAl?$AA?2?$AAc?$AAr?$AAt?$AAs?$AA?2?$AAu?$AAc?$AAr?$AAt?$AA?2?$AAs?$AAr?$AAc?$AA?2?$AAa?$AAp?$AAp?$AAc?$AAr?$AAt?$AA?2?$AAl@ 0000000180129ad0     libucrtd:initctype.obj
 0002:00023b50       ??_C@_1DG@NMBGBDM@?$AAp?$AAl?$AAo?$AAc?$AAi?$AA?9?$AA?$DO?$AAc?$AAt?$AAy?$AAp?$AAe?$AA1?$AA_?$AAr?$AAe?$AAf?$AAc?$AAo?$AAu?$AAn?$AAt?$AA?5?$AA?$DO?$AA?5?$AA0?$AA?$AA@ 0000000180129b50     libucrtd:initctype.obj
 0002:00023b90       ??_C@_1BKC@NBNHJIDM@?$AA?$CI?$AAp?$AAt?$AAl?$AAo?$AAc?$AAi?$AA?9?$AA?$DO?$AAl?$AAc?$AA_?$AAc?$AAa?$AAt?$AAe?$AAg?$AAo?$AAr?$AAy?$AA?$FL?$AAc?$AAa?$AAt?$AAe?$AAg?$AAo?$AAr?$AAy?$AA?$FN?$AA?4?$AAl@ 0000000180129b90     libucrtd:locale_refcounting.obj
 0002:00023d90       ??_C@_1HK@HCNMEOLA@?$AAm?$AAi?$AAn?$AAk?$AAe?$AAr?$AAn?$AAe?$AAl?$AA?2?$AAc?$AAr?$AAt?$AAs?$AA?2?$AAu?$AAc?$AAr?$AAt?$AA?2?$AAs?$AAr?$AAc?$AA?2?$AAa?$AAp?$AAp?$AAc?$AAr?$AAt?$AA?2?$AAl@ 0000000180129d90     libucrtd:locale_refcounting.obj
 0002:00023e30       ??_C@_1GI@IMEEHIAK@?$AAm?$AAi?$AAn?$AAk?$AAe?$AAr?$AAn?$AAe?$AAl?$AA?2?$AAc?$AAr?$AAt?$AAs?$AA?2?$AAu?$AAc?$AAr?$AAt?$AA?2?$AAs?$AAr?$AAc?$AA?2?$AAa?$AAp?$AAp?$AAc?$AAr?$AAt?$AA?2?$AAc@ 0000000180129e30     libucrtd:_fptostr.obj
 0002:00023eb0       ??_C@_1DG@NMGBKPMI@?$AA_?$AA_?$AAa?$AAc?$AAr?$AAt?$AA_?$AAf?$AAp?$AA_?$AAs?$AAt?$AAr?$AAf?$AAl?$AAt?$AA_?$AAt?$AAo?$AA_?$AAs?$AAt?$AAr?$AAi?$AAn?$AAg?$AA?$AA@ 0000000180129eb0     libucrtd:_fptostr.obj
 0002:00023ef0       ??_C@_1CC@ONIJBMJF@?$AAb?$AAu?$AAf?$AAf?$AAe?$AAr?$AA_?$AAc?$AAo?$AAu?$AAn?$AAt?$AA?5?$AA?$DO?$AA?5?$AA0?$AA?$AA@ 0000000180129ef0     libucrtd:_fptostr.obj
 0002:00023f20       ??_C@_1IE@EAOKIIFP@?$AAb?$AAu?$AAf?$AAf?$AAe?$AAr?$AA_?$AAc?$AAo?$AAu?$AAn?$AAt?$AA?5?$AA?$DO?$AA?5?$AAs?$AAt?$AAa?$AAt?$AAi?$AAc?$AA_?$AAc?$AAa?$AAs?$AAt?$AA?$DM?$AAs?$AAi?$AAz?$AAe?$AA_@ 0000000180129f20     libucrtd:_fptostr.obj
 0002:00023fc0       ??_C@_1CA@EDEEBMBB@?$AAp?$AAf?$AAl?$AAt?$AA?5?$AA?$CB?$AA?$DN?$AA?5?$AAn?$AAu?$AAl?$AAl?$AAp?$AAt?$AAr?$AA?$AA@ 0000000180129fc0     libucrtd:_fptostr.obj
 0002:00023ff0       ?large_power_data@?1??multiply_by_power_of_ten@__crt_strtox@@YA_NAEAUbig_integer@2@I@Z@4QBIB 0000000180129ff0     libucrtd:cfout.obj
 0002:00024ad0       ?large_power_indices@?1??multiply_by_power_of_ten@__crt_strtox@@YA_NAEAUbig_integer@2@I@Z@4QBUunpack_index@?1??12@YA_N0I@Z@B 000000018012aad0     libucrtd:cfout.obj
 0002:00024b88       ?small_powers_of_ten@?6??multiply_by_power_of_ten@__crt_strtox@@YA_NAEAUbig_integer@2@I@Z@4QBIB 000000018012ab88     libucrtd:cfout.obj
 0002:00024bb8       ??_C@_1DI@GICAMMFM@?$AA?$CI?$AA?$CC?$AAD?$AAi?$AAv?$AAi?$AAs?$AAi?$AAo?$AAn?$AA?5?$AAb?$AAy?$AA?5?$AAz?$AAe?$AAr?$AAo?$AA?$CC?$AA?0?$AA?5?$AAf?$AAa?$AAl?$AAs?$AAe?$AA?$CJ?$AA?$AA@ 000000018012abb8     libucrtd:cfout.obj
 0002:00024c00       ??_C@_1GO@BFGDDONN@?$AAm?$AAi?$AAn?$AAk?$AAe?$AAr?$AAn?$AAe?$AAl?$AA?2?$AAc?$AAr?$AAt?$AAs?$AA?2?$AAu?$AAc?$AAr?$AAt?$AA?2?$AAi?$AAn?$AAc?$AA?2?$AAc?$AAo?$AAr?$AAe?$AAc?$AAr?$AAt?$AA_@ 000000018012ac00     libucrtd:cfout.obj
 0002:00024c90       ??_C@_1GC@DDAKNBNC@?$AAm?$AAi?$AAn?$AAk?$AAe?$AAr?$AAn?$AAe?$AAl?$AA?2?$AAc?$AAr?$AAt?$AAs?$AA?2?$AAu?$AAc?$AAr?$AAt?$AA?2?$AAs?$AAr?$AAc?$AA?2?$AAa?$AAp?$AAp?$AAc?$AAr?$AAt?$AA?2?$AAc@ 000000018012ac90     libucrtd:cfout.obj
 0002:00024d08       ??_C@_1BM@FAAOAKKO@?$AA_?$AA_?$AAa?$AAc?$AAr?$AAt?$AA_?$AAf?$AAl?$AAt?$AAo?$AAu?$AAt?$AA?$AA@ 000000018012ad08     libucrtd:cfout.obj
 0002:00024d30       ??_C@_1EI@OACEJKEP@?$AAs?$AAt?$AAr?$AAc?$AAp?$AAy?$AA_?$AAs?$AA?$CI?$AAr?$AAe?$AAs?$AAu?$AAl?$AAt?$AA?0?$AA?5?$AAr?$AAe?$AAs?$AAu?$AAl?$AAt?$AA_?$AAc?$AAo?$AAu?$AAn?$AAt?$AA?0?$AA?5?$AA?$CC@ 000000018012ad30     libucrtd:cfout.obj
 0002:00024d90       ??_C@_1FC@KIECGFMP@?$AAs?$AAt?$AAr?$AAc?$AAp?$AAy?$AA_?$AAs?$AA?$CI?$AAr?$AAe?$AAs?$AAu?$AAl?$AAt?$AA?0?$AA?5?$AAr?$AAe?$AAs?$AAu?$AAl?$AAt?$AA_?$AAc?$AAo?$AAu?$AAn?$AAt?$AA?0?$AA?5?$AA?$CC@ 000000018012ad90     libucrtd:cfout.obj
 0002:00024df4       ??_C@_05DNEBIAHO@1?$CDINF?$AA@ 000000018012adf4     libucrtd:cfout.obj
 0002:00024e00       ??_C@_1FC@NFPJEIBD@?$AAs?$AAt?$AAr?$AAc?$AAp?$AAy?$AA_?$AAs?$AA?$CI?$AAr?$AAe?$AAs?$AAu?$AAl?$AAt?$AA?0?$AA?5?$AAr?$AAe?$AAs?$AAu?$AAl?$AAt?$AA_?$AAc?$AAo?$AAu?$AAn?$AAt?$AA?0?$AA?5?$AA?$CC@ 000000018012ae00     libucrtd:cfout.obj
 0002:00024e64       ??_C@_06IMKFLFPG@1?$CDQNAN?$AA@ 000000018012ae64     libucrtd:cfout.obj
 0002:00024e70       ??_C@_1FC@DEJHIMLO@?$AAs?$AAt?$AAr?$AAc?$AAp?$AAy?$AA_?$AAs?$AA?$CI?$AAr?$AAe?$AAs?$AAu?$AAl?$AAt?$AA?0?$AA?5?$AAr?$AAe?$AAs?$AAu?$AAl?$AAt?$AA_?$AAc?$AAo?$AAu?$AAn?$AAt?$AA?0?$AA?5?$AA?$CC@ 000000018012ae70     libucrtd:cfout.obj
 0002:00024ed4       ??_C@_06PGGFOGJG@1?$CDSNAN?$AA@ 000000018012aed4     libucrtd:cfout.obj
 0002:00024ee0       ??_C@_1FC@KMLHLFPC@?$AAs?$AAt?$AAr?$AAc?$AAp?$AAy?$AA_?$AAs?$AA?$CI?$AAr?$AAe?$AAs?$AAu?$AAl?$AAt?$AA?0?$AA?5?$AAr?$AAe?$AAs?$AAu?$AAl?$AAt?$AA_?$AAc?$AAo?$AAu?$AAn?$AAt?$AA?0?$AA?5?$AA?$CC@ 000000018012aee0     libucrtd:cfout.obj
 0002:00024f44       ??_C@_05PHHOCPM@1?$CDIND?$AA@ 000000018012af44     libucrtd:cfout.obj
 0002:00024f50       ??_C@_1DE@KHKADFOO@?$AAm?$AAa?$AAn?$AAt?$AAi?$AAs?$AAs?$AAa?$AA_?$AAb?$AAu?$AAf?$AAf?$AAe?$AAr?$AA_?$AAc?$AAo?$AAu?$AAn?$AAt?$AA?5?$AA?$DO?$AA?5?$AA0?$AA?$AA@ 000000018012af50     libucrtd:cfout.obj
 0002:00024f90       ??_C@_1FI@LFKLOPAC@?$AA?$CI?$AA?$CC?$AAu?$AAn?$AAe?$AAx?$AAp?$AAe?$AAc?$AAt?$AAe?$AAd?$AA?5?$AAi?$AAn?$AAp?$AAu?$AAt?$AA?5?$AAv?$AAa?$AAl?$AAu?$AAe?$AA?$DL?$AA?5?$AAl?$AAo?$AAg?$AA1?$AA0?$AA?5@ 000000018012af90     libucrtd:cfout.obj
 0002:00025000       ??_C@_1FG@MLHBDPBG@?$AAq?$AAu?$AAo?$AAt?$AAi?$AAe?$AAn?$AAt?$AA?5?$AA?$DM?$AA?5?$AAd?$AAi?$AAg?$AAi?$AAt?$AAs?$AA_?$AAp?$AAe?$AAr?$AA_?$AAi?$AAt?$AAe?$AAr?$AAa?$AAt?$AAi?$AAo?$AAn?$AA_@ 000000018012b000     libucrtd:cfout.obj
 0002:00025070       ??_C@_1GC@DFIGBGJI@?$AAm?$AAi?$AAn?$AAk?$AAe?$AAr?$AAn?$AAe?$AAl?$AA?2?$AAc?$AAr?$AAt?$AAs?$AA?2?$AAu?$AAc?$AAr?$AAt?$AA?2?$AAs?$AAr?$AAc?$AA?2?$AAa?$AAp?$AAp?$AAc?$AAr?$AAt?$AA?2?$AAs@ 000000018012b070     libucrtd:_flsbuf.obj
 0002:000250f0       ??_C@_1HO@MLMGPAFH@?$AA?$CI?$AA?$CC?$AAi?$AAn?$AAc?$AAo?$AAn?$AAs?$AAi?$AAs?$AAt?$AAe?$AAn?$AAt?$AA?5?$AAI?$AAO?$AAB?$AA?5?$AAf?$AAi?$AAe?$AAl?$AAd?$AAs?$AA?$CC?$AA?0?$AA?5?$AAs?$AAt?$AAr?$AAe@ 000000018012b0f0     libucrtd:_flsbuf.obj
 0002:00025190       ??_C@_1GA@DEPMKPD@?$AAm?$AAi?$AAn?$AAk?$AAe?$AAr?$AAn?$AAe?$AAl?$AA?2?$AAc?$AAr?$AAt?$AAs?$AA?2?$AAu?$AAc?$AAr?$AAt?$AA?2?$AAs?$AAr?$AAc?$AA?2?$AAa?$AAp?$AAp?$AAc?$AAr?$AAt?$AA?2?$AAl@ 000000018012b190     libucrtd:isatty.obj
 0002:00025208       ??_C@_1BA@LEBDGIHM@?$AA_?$AAi?$AAs?$AAa?$AAt?$AAt?$AAy?$AA?$AA@ 000000018012b208     libucrtd:isatty.obj
 0002:00025220       ??_C@_0DC@GMDOHFAP@minkernel?2crts?2ucrt?2src?2appcrt?2l@ 000000018012b220     libucrtd:initmon.obj
 0002:00025260       ??_C@_1DM@GKAPAMDO@?$AAp?$AAl?$AAo?$AAc?$AAi?$AA?9?$AA?$DO?$AAl?$AAc?$AAo?$AAn?$AAv?$AA_?$AAm?$AAo?$AAn?$AA_?$AAr?$AAe?$AAf?$AAc?$AAo?$AAu?$AAn?$AAt?$AA?5?$AA?$DO?$AA?5?$AA0?$AA?$AA@ 000000018012b260     libucrtd:initmon.obj
 0002:000252b0       ??_C@_1GE@IEFGCKMH@?$AAm?$AAi?$AAn?$AAk?$AAe?$AAr?$AAn?$AAe?$AAl?$AA?2?$AAc?$AAr?$AAt?$AAs?$AA?2?$AAu?$AAc?$AAr?$AAt?$AA?2?$AAs?$AAr?$AAc?$AA?2?$AAa?$AAp?$AAp?$AAc?$AAr?$AAt?$AA?2?$AAl@ 000000018012b2b0     libucrtd:initmon.obj
 0002:00025328       ??_C@_0DC@KHILMDMC@minkernel?2crts?2ucrt?2src?2appcrt?2l@ 000000018012b328     libucrtd:initnum.obj
 0002:00025368       ??_C@_1DM@IFKAINNE@?$AAp?$AAl?$AAo?$AAc?$AAi?$AA?9?$AA?$DO?$AAl?$AAc?$AAo?$AAn?$AAv?$AA_?$AAn?$AAu?$AAm?$AA_?$AAr?$AAe?$AAf?$AAc?$AAo?$AAu?$AAn?$AAt?$AA?5?$AA?$DO?$AA?5?$AA0?$AA?$AA@ 000000018012b368     libucrtd:initnum.obj
 0002:000253b0       ??_C@_1GE@GOIFKKDC@?$AAm?$AAi?$AAn?$AAk?$AAe?$AAr?$AAn?$AAe?$AAl?$AA?2?$AAc?$AAr?$AAt?$AAs?$AA?2?$AAu?$AAc?$AAr?$AAt?$AA?2?$AAs?$AAr?$AAc?$AA?2?$AAa?$AAp?$AAp?$AAc?$AAr?$AAt?$AA?2?$AAl@ 000000018012b3b0     libucrtd:initnum.obj
 0002:00025428       ??_C@_0DD@MPFICDAE@minkernel?2crts?2ucrt?2src?2appcrt?2l@ 000000018012b428     libucrtd:inittime.obj
 0002:00025470       ??_C@_1HK@HACABKKK@?$AA?$CI?$AA?$CC?$AAl?$AAc?$AA_?$AAt?$AAi?$AAm?$AAe?$AA_?$AAc?$AAu?$AAr?$AAr?$AA?5?$AAu?$AAn?$AAe?$AAx?$AAp?$AAe?$AAc?$AAt?$AAe?$AAd?$AAl?$AAy?$AA?5?$AAh?$AAa?$AAs?$AA?5@ 000000018012b470     libucrtd:inittime.obj
 0002:00025510       ??_C@_1GG@BFOOANHJ@?$AAm?$AAi?$AAn?$AAk?$AAe?$AAr?$AAn?$AAe?$AAl?$AA?2?$AAc?$AAr?$AAt?$AAs?$AA?2?$AAu?$AAc?$AAr?$AAt?$AA?2?$AAs?$AAr?$AAc?$AA?2?$AAa?$AAp?$AAp?$AAc?$AAr?$AAt?$AA?2?$AAl@ 000000018012b510     libucrtd:inittime.obj
 0002:00025590       __newctype                 000000018012b590     libucrtd:ctype.obj
 0002:00025930       __newclmap                 000000018012b930     libucrtd:ctype.obj
 0002:00025b00       __newcumap                 000000018012bb00     libucrtd:ctype.obj
 0002:00025cd0       _wctype                    000000018012bcd0     libucrtd:ctype.obj
 0002:00025f40       ??_C@_1CA@EOJJMFA@?$AAc?$AAo?$AAm?$AAm?$AAo?$AAn?$AA_?$AAt?$AAc?$AAs?$AAc?$AAa?$AAt?$AA_?$AAs?$AA?$AA@ 000000018012bf40     libucrtd:wcscat_s.obj
 0002:00025f68       ??_C@_1DM@FHLMIEG@?$AAS?$AAt?$AAr?$AAi?$AAn?$AAg?$AA?5?$AAi?$AAs?$AA?5?$AAn?$AAo?$AAt?$AA?5?$AAn?$AAu?$AAl?$AAl?$AA?5?$AAt?$AAe?$AAr?$AAm?$AAi?$AAn?$AAa?$AAt?$AAe?$AAd?$AA?$AA@ 000000018012bf68     libucrtd:wcscat_s.obj
 0002:00025fb0       ??_C@_1FA@MJKDNFFB@?$AA?$CI?$AAL?$AA?$CC?$AAS?$AAt?$AAr?$AAi?$AAn?$AAg?$AA?5?$AAi?$AAs?$AA?5?$AAn?$AAo?$AAt?$AA?5?$AAn?$AAu?$AAl?$AAl?$AA?5?$AAt?$AAe?$AAr?$AAm?$AAi?$AAn?$AAa?$AAt?$AAe?$AAd@ 000000018012bfb0     libucrtd:wcscat_s.obj
 0002:00026010       ??_C@_0DJ@HCPJODDK@minkernel?2crts?2ucrt?2src?2appcrt?2l@ 000000018012c010     libucrtd:getstringtypea.obj
 0002:00026058       ??_C@_1BK@FIHMCKAM@?$AAs?$AAo?$AAu?$AAt?$AAh?$AA?5?$AAa?$AAf?$AAr?$AAi?$AAc?$AAa?$AA?$AA@ 000000018012c058     libucrtd:get_qualified_locale.obj
 0002:00026078       ??_C@_1BI@NAEOODKB@?$AAs?$AAo?$AAu?$AAt?$AAh?$AA?5?$AAk?$AAo?$AAr?$AAe?$AAa?$AA?$AA@ 000000018012c078     libucrtd:get_qualified_locale.obj
 0002:00026098       ??_C@_1BK@FBDGGIFF@?$AAs?$AAo?$AAu?$AAt?$AAh?$AA?9?$AAa?$AAf?$AAr?$AAi?$AAc?$AAa?$AA?$AA@ 000000018012c098     libucrtd:get_qualified_locale.obj
 0002:000260b8       ??_C@_1BI@GHLEJDPK@?$AAs?$AAo?$AAu?$AAt?$AAh?$AA?9?$AAk?$AAo?$AAr?$AAe?$AAa?$AA?$AA@ 000000018012c0b8     libucrtd:get_qualified_locale.obj
 0002:000260d8       ??_C@_1CE@PLHLOMJF@?$AAt?$AAr?$AAi?$AAn?$AAi?$AAd?$AAa?$AAd?$AA?5?$AA?$CG?$AA?5?$AAt?$AAo?$AAb?$AAa?$AAg?$AAo?$AA?$AA@ 000000018012c0d8     libucrtd:get_qualified_locale.obj
 0002:00026108       ??_C@_1BO@MODIMHHI@?$AAu?$AAn?$AAi?$AAt?$AAe?$AAd?$AA?9?$AAk?$AAi?$AAn?$AAg?$AAd?$AAo?$AAm?$AA?$AA@ 000000018012c108     libucrtd:get_qualified_locale.obj
 0002:00026130       ??_C@_1BM@FFHJONBJ@?$AAu?$AAn?$AAi?$AAt?$AAe?$AAd?$AA?9?$AAs?$AAt?$AAa?$AAt?$AAe?$AAs?$AA?$AA@ 000000018012c130     libucrtd:get_qualified_locale.obj
 0002:00026160       __acrt_rg_language         000000018012c160     libucrtd:get_qualified_locale.obj
 0002:00026640       __acrt_rg_language_count   000000018012c640     libucrtd:get_qualified_locale.obj
 0002:00026650       __acrt_rg_country          000000018012c650     libucrtd:get_qualified_locale.obj
 0002:00026810       __acrt_rg_country_count    000000018012c810     libucrtd:get_qualified_locale.obj
 0002:00026820       ??_C@_1BC@LLOKLNP@?$AAa?$AAm?$AAe?$AAr?$AAi?$AAc?$AAa?$AAn?$AA?$AA@ 000000018012c820     libucrtd:get_qualified_locale.obj
 0002:00026838       ??_C@_1CC@HEIGCDGG@?$AAa?$AAm?$AAe?$AAr?$AAi?$AAc?$AAa?$AAn?$AA?5?$AAe?$AAn?$AAg?$AAl?$AAi?$AAs?$AAh?$AA?$AA@ 000000018012c838     libucrtd:get_qualified_locale.obj
 0002:00026860       ??_C@_1CC@IHCNOMIN@?$AAa?$AAm?$AAe?$AAr?$AAi?$AAc?$AAa?$AAn?$AA?9?$AAe?$AAn?$AAg?$AAl?$AAi?$AAs?$AAh?$AA?$AA@ 000000018012c860     libucrtd:get_qualified_locale.obj
 0002:00026888       ??_C@_1BG@GKAGPCGG@?$AAa?$AAu?$AAs?$AAt?$AAr?$AAa?$AAl?$AAi?$AAa?$AAn?$AA?$AA@ 000000018012c888     libucrtd:get_qualified_locale.obj
 0002:000268a8       ??_C@_1BA@GMENCENF@?$AAb?$AAe?$AAl?$AAg?$AAi?$AAa?$AAn?$AA?$AA@ 000000018012c8a8     libucrtd:get_qualified_locale.obj
 0002:000268c0       ??_C@_1BC@PJMIIAAN@?$AAc?$AAa?$AAn?$AAa?$AAd?$AAi?$AAa?$AAn?$AA?$AA@ 000000018012c8c0     libucrtd:get_qualified_locale.obj
 0002:000268d8       ??_C@_17NOIMNFBF@?$AAc?$AAh?$AAh?$AA?$AA@ 000000018012c8d8     libucrtd:get_qualified_locale.obj
 0002:000268e8       ??_C@_17GGDALCHA@?$AAc?$AAh?$AAi?$AA?$AA@ 000000018012c8e8     libucrtd:get_qualified_locale.obj
 0002:000268f8       ??_C@_1BA@NPNJKIBL@?$AAc?$AAh?$AAi?$AAn?$AAe?$AAs?$AAe?$AA?$AA@ 000000018012c8f8     libucrtd:get_qualified_locale.obj
 0002:00026910       ??_C@_1CC@DINBAMMJ@?$AAc?$AAh?$AAi?$AAn?$AAe?$AAs?$AAe?$AA?9?$AAh?$AAo?$AAn?$AAg?$AAk?$AAo?$AAn?$AAg?$AA?$AA@ 000000018012c910     libucrtd:get_qualified_locale.obj
 0002:00026938       ??_C@_1CG@IOBJPACO@?$AAc?$AAh?$AAi?$AAn?$AAe?$AAs?$AAe?$AA?9?$AAs?$AAi?$AAm?$AAp?$AAl?$AAi?$AAf?$AAi?$AAe?$AAd?$AA?$AA@ 000000018012c938     libucrtd:get_qualified_locale.obj
 0002:00026968       ??_C@_1CE@GAJNDCKG@?$AAc?$AAh?$AAi?$AAn?$AAe?$AAs?$AAe?$AA?9?$AAs?$AAi?$AAn?$AAg?$AAa?$AAp?$AAo?$AAr?$AAe?$AA?$AA@ 000000018012c968     libucrtd:get_qualified_locale.obj
 0002:00026998       ??_C@_1CI@PAJPIOOD@?$AAc?$AAh?$AAi?$AAn?$AAe?$AAs?$AAe?$AA?9?$AAt?$AAr?$AAa?$AAd?$AAi?$AAt?$AAi?$AAo?$AAn?$AAa?$AAl?$AA?$AA@ 000000018012c998     libucrtd:get_qualified_locale.obj
 0002:000269c8       ??_C@_1BM@NILJBMMD@?$AAd?$AAu?$AAt?$AAc?$AAh?$AA?9?$AAb?$AAe?$AAl?$AAg?$AAi?$AAa?$AAn?$AA?$AA@ 000000018012c9c8     libucrtd:get_qualified_locale.obj
 0002:000269f0       ??_C@_1CC@OOJPJNEJ@?$AAe?$AAn?$AAg?$AAl?$AAi?$AAs?$AAh?$AA?9?$AAa?$AAm?$AAe?$AAr?$AAi?$AAc?$AAa?$AAn?$AA?$AA@ 000000018012c9f0     libucrtd:get_qualified_locale.obj
 0002:00026a18       ??_C@_1BI@IOLFEEM@?$AAe?$AAn?$AAg?$AAl?$AAi?$AAs?$AAh?$AA?9?$AAa?$AAu?$AAs?$AA?$AA@ 000000018012ca18     libucrtd:get_qualified_locale.obj
 0002:00026a38       ??_C@_1BO@HFFNLENJ@?$AAe?$AAn?$AAg?$AAl?$AAi?$AAs?$AAh?$AA?9?$AAb?$AAe?$AAl?$AAi?$AAz?$AAe?$AA?$AA@ 000000018012ca38     libucrtd:get_qualified_locale.obj
 0002:00026a60       ??_C@_1BI@HAPKJMPO@?$AAe?$AAn?$AAg?$AAl?$AAi?$AAs?$AAh?$AA?9?$AAc?$AAa?$AAn?$AA?$AA@ 000000018012ca60     libucrtd:get_qualified_locale.obj
 0002:00026a80       ??_C@_1CE@HLNDMIOJ@?$AAe?$AAn?$AAg?$AAl?$AAi?$AAs?$AAh?$AA?9?$AAc?$AAa?$AAr?$AAi?$AAb?$AAb?$AAe?$AAa?$AAn?$AA?$AA@ 000000018012ca80     libucrtd:get_qualified_locale.obj
 0002:00026ab0       ??_C@_1BI@LDHJHHAC@?$AAe?$AAn?$AAg?$AAl?$AAi?$AAs?$AAh?$AA?9?$AAi?$AAr?$AAe?$AA?$AA@ 000000018012cab0     libucrtd:get_qualified_locale.obj
 0002:00026ad0       ??_C@_1CA@NJMMCFOC@?$AAe?$AAn?$AAg?$AAl?$AAi?$AAs?$AAh?$AA?9?$AAj?$AAa?$AAm?$AAa?$AAi?$AAc?$AAa?$AA?$AA@ 000000018012cad0     libucrtd:get_qualified_locale.obj
 0002:00026af8       ??_C@_1BG@BHJEBBGG@?$AAe?$AAn?$AAg?$AAl?$AAi?$AAs?$AAh?$AA?9?$AAn?$AAz?$AA?$AA@ 000000018012caf8     libucrtd:get_qualified_locale.obj
 0002:00026b18       ??_C@_1CK@FGOEJJCO@?$AAe?$AAn?$AAg?$AAl?$AAi?$AAs?$AAh?$AA?9?$AAs?$AAo?$AAu?$AAt?$AAh?$AA?5?$AAa?$AAf?$AAr?$AAi?$AAc?$AAa?$AA?$AA@ 000000018012cb18     libucrtd:get_qualified_locale.obj
 0002:00026b50       ??_C@_1DE@PDBJPCJ@?$AAe?$AAn?$AAg?$AAl?$AAi?$AAs?$AAh?$AA?9?$AAt?$AAr?$AAi?$AAn?$AAi?$AAd?$AAa?$AAd?$AA?5?$AAy?$AA?5?$AAt?$AAo?$AAb?$AAa?$AAg?$AAo?$AA?$AA@ 000000018012cb50     libucrtd:get_qualified_locale.obj
 0002:00026b90       ??_C@_1BG@JGCANDME@?$AAe?$AAn?$AAg?$AAl?$AAi?$AAs?$AAh?$AA?9?$AAu?$AAk?$AA?$AA@ 000000018012cb90     libucrtd:get_qualified_locale.obj
 0002:00026bb0       ??_C@_1BG@DINKMLE@?$AAe?$AAn?$AAg?$AAl?$AAi?$AAs?$AAh?$AA?9?$AAu?$AAs?$AA?$AA@ 000000018012cbb0     libucrtd:get_qualified_locale.obj
 0002:00026bd0       ??_C@_1BI@NMFDBHJE@?$AAe?$AAn?$AAg?$AAl?$AAi?$AAs?$AAh?$AA?9?$AAu?$AAs?$AAa?$AA?$AA@ 000000018012cbd0     libucrtd:get_qualified_locale.obj
 0002:00026bf0       ??_C@_1BO@OIHKJKII@?$AAf?$AAr?$AAe?$AAn?$AAc?$AAh?$AA?9?$AAb?$AAe?$AAl?$AAg?$AAi?$AAa?$AAn?$AA?$AA@ 000000018012cbf0     libucrtd:get_qualified_locale.obj
 0002:00026c18       ??_C@_1CA@NKAELJKI@?$AAf?$AAr?$AAe?$AAn?$AAc?$AAh?$AA?9?$AAc?$AAa?$AAn?$AAa?$AAd?$AAi?$AAa?$AAn?$AA?$AA@ 000000018012cc18     libucrtd:get_qualified_locale.obj
 0002:00026c40       ??_C@_1CE@MGKCNLGN@?$AAf?$AAr?$AAe?$AAn?$AAc?$AAh?$AA?9?$AAl?$AAu?$AAx?$AAe?$AAm?$AAb?$AAo?$AAu?$AAr?$AAg?$AA?$AA@ 000000018012cc40     libucrtd:get_qualified_locale.obj
 0002:00026c70       ??_C@_1BK@CEGEAILM@?$AAf?$AAr?$AAe?$AAn?$AAc?$AAh?$AA?9?$AAs?$AAw?$AAi?$AAs?$AAs?$AA?$AA@ 000000018012cc70     libucrtd:get_qualified_locale.obj
 0002:00026c90       ??_C@_1CA@PAFKEOCC@?$AAg?$AAe?$AAr?$AAm?$AAa?$AAn?$AA?9?$AAa?$AAu?$AAs?$AAt?$AAr?$AAi?$AAa?$AAn?$AA?$AA@ 000000018012cc90     libucrtd:get_qualified_locale.obj
 0002:00026cb8       ??_C@_1CI@HCFHGOFD@?$AAg?$AAe?$AAr?$AAm?$AAa?$AAn?$AA?9?$AAl?$AAi?$AAc?$AAh?$AAt?$AAe?$AAn?$AAs?$AAt?$AAe?$AAi?$AAn?$AA?$AA@ 000000018012ccb8     libucrtd:get_qualified_locale.obj
 0002:00026ce8       ??_C@_1CE@FEDDNPDG@?$AAg?$AAe?$AAr?$AAm?$AAa?$AAn?$AA?9?$AAl?$AAu?$AAx?$AAe?$AAm?$AAb?$AAo?$AAu?$AAr?$AAg?$AA?$AA@ 000000018012cce8     libucrtd:get_qualified_locale.obj
 0002:00026d18       ??_C@_1BK@LIMINNMN@?$AAg?$AAe?$AAr?$AAm?$AAa?$AAn?$AA?9?$AAs?$AAw?$AAi?$AAs?$AAs?$AA?$AA@ 000000018012cd18     libucrtd:get_qualified_locale.obj
 0002:00026d38       ??_C@_1BM@LGMDBEPD@?$AAi?$AAr?$AAi?$AAs?$AAh?$AA?9?$AAe?$AAn?$AAg?$AAl?$AAi?$AAs?$AAh?$AA?$AA@ 000000018012cd38     libucrtd:get_qualified_locale.obj
 0002:00026d60       ??_C@_1BM@NNCFBAEE@?$AAi?$AAt?$AAa?$AAl?$AAi?$AAa?$AAn?$AA?9?$AAs?$AAw?$AAi?$AAs?$AAs?$AA?$AA@ 000000018012cd60     libucrtd:get_qualified_locale.obj
 0002:00026d88       ??_C@_1BE@FEDJNPIB@?$AAn?$AAo?$AAr?$AAw?$AAe?$AAg?$AAi?$AAa?$AAn?$AA?$AA@ 000000018012cd88     libucrtd:get_qualified_locale.obj
 0002:00026da0       ??_C@_1CC@CILKDEIE@?$AAn?$AAo?$AAr?$AAw?$AAe?$AAg?$AAi?$AAa?$AAn?$AA?9?$AAb?$AAo?$AAk?$AAm?$AAa?$AAl?$AA?$AA@ 000000018012cda0     libucrtd:get_qualified_locale.obj
 0002:00026dc8       ??_C@_1CE@DHMMHEPL@?$AAn?$AAo?$AAr?$AAw?$AAe?$AAg?$AAi?$AAa?$AAn?$AA?9?$AAn?$AAy?$AAn?$AAo?$AAr?$AAs?$AAk?$AA?$AA@ 000000018012cdc8     libucrtd:get_qualified_locale.obj
 0002:00026df8       ??_C@_1CK@OPNMHECD@?$AAp?$AAo?$AAr?$AAt?$AAu?$AAg?$AAu?$AAe?$AAs?$AAe?$AA?9?$AAb?$AAr?$AAa?$AAz?$AAi?$AAl?$AAi?$AAa?$AAn?$AA?$AA@ 000000018012cdf8     libucrtd:get_qualified_locale.obj
 0002:00026e30       ??_C@_1CE@KEEHCDB@?$AAs?$AAp?$AAa?$AAn?$AAi?$AAs?$AAh?$AA?9?$AAa?$AAr?$AAg?$AAe?$AAn?$AAt?$AAi?$AAn?$AAa?$AA?$AA@ 000000018012ce30     libucrtd:get_qualified_locale.obj
 0002:00026e60       ??_C@_1CA@GIAOLHJD@?$AAs?$AAp?$AAa?$AAn?$AAi?$AAs?$AAh?$AA?9?$AAb?$AAo?$AAl?$AAi?$AAv?$AAi?$AAa?$AA?$AA@ 000000018012ce60     libucrtd:get_qualified_locale.obj
 0002:00026e88       ??_C@_1BM@OJNDFNPD@?$AAs?$AAp?$AAa?$AAn?$AAi?$AAs?$AAh?$AA?9?$AAc?$AAh?$AAi?$AAl?$AAe?$AA?$AA@ 000000018012ce88     libucrtd:get_qualified_locale.obj
 0002:00026eb0       ??_C@_1CC@OCOLPALL@?$AAs?$AAp?$AAa?$AAn?$AAi?$AAs?$AAh?$AA?9?$AAc?$AAo?$AAl?$AAo?$AAm?$AAb?$AAi?$AAa?$AA?$AA@ 000000018012ceb0     libucrtd:get_qualified_locale.obj
 0002:00026ed8       ??_C@_1CG@BPOFMKBB@?$AAs?$AAp?$AAa?$AAn?$AAi?$AAs?$AAh?$AA?9?$AAc?$AAo?$AAs?$AAt?$AAa?$AA?5?$AAr?$AAi?$AAc?$AAa?$AA?$AA@ 000000018012ced8     libucrtd:get_qualified_locale.obj
 0002:00026f08       ??_C@_1DG@IGOBAPBB@?$AAs?$AAp?$AAa?$AAn?$AAi?$AAs?$AAh?$AA?9?$AAd?$AAo?$AAm?$AAi?$AAn?$AAi?$AAc?$AAa?$AAn?$AA?5?$AAr?$AAe?$AAp?$AAu?$AAb?$AAl?$AAi?$AAc?$AA?$AA@ 000000018012cf08     libucrtd:get_qualified_locale.obj
 0002:00026f48       ??_C@_1CA@JHAPGEGI@?$AAs?$AAp?$AAa?$AAn?$AAi?$AAs?$AAh?$AA?9?$AAe?$AAc?$AAu?$AAa?$AAd?$AAo?$AAr?$AA?$AA@ 000000018012cf48     libucrtd:get_qualified_locale.obj
 0002:00026f70       ??_C@_1CI@LAPALJPP@?$AAs?$AAp?$AAa?$AAn?$AAi?$AAs?$AAh?$AA?9?$AAe?$AAl?$AA?5?$AAs?$AAa?$AAl?$AAv?$AAa?$AAd?$AAo?$AAr?$AA?$AA@ 000000018012cf70     libucrtd:get_qualified_locale.obj
 0002:00026fa0       ??_C@_1CE@PDGBOFOM@?$AAs?$AAp?$AAa?$AAn?$AAi?$AAs?$AAh?$AA?9?$AAg?$AAu?$AAa?$AAt?$AAe?$AAm?$AAa?$AAl?$AAa?$AA?$AA@ 000000018012cfa0     libucrtd:get_qualified_locale.obj
 0002:00026fd0       ??_C@_1CC@NBEBAODI@?$AAs?$AAp?$AAa?$AAn?$AAi?$AAs?$AAh?$AA?9?$AAh?$AAo?$AAn?$AAd?$AAu?$AAr?$AAa?$AAs?$AA?$AA@ 000000018012cfd0     libucrtd:get_qualified_locale.obj
 0002:00026ff8       ??_C@_1CA@LLKGHBMF@?$AAs?$AAp?$AAa?$AAn?$AAi?$AAs?$AAh?$AA?9?$AAm?$AAe?$AAx?$AAi?$AAc?$AAa?$AAn?$AA?$AA@ 000000018012cff8     libucrtd:get_qualified_locale.obj
 0002:00027020       ??_C@_1BO@LKNDOIGD@?$AAs?$AAp?$AAa?$AAn?$AAi?$AAs?$AAh?$AA?9?$AAm?$AAo?$AAd?$AAe?$AAr?$AAn?$AA?$AA@ 000000018012d020     libucrtd:get_qualified_locale.obj
 0002:00027048       ??_C@_1CE@NMDMOEEB@?$AAs?$AAp?$AAa?$AAn?$AAi?$AAs?$AAh?$AA?9?$AAn?$AAi?$AAc?$AAa?$AAr?$AAa?$AAg?$AAu?$AAa?$AA?$AA@ 000000018012d048     libucrtd:get_qualified_locale.obj
 0002:00027078       ??_C@_1BO@LLCBEJGB@?$AAs?$AAp?$AAa?$AAn?$AAi?$AAs?$AAh?$AA?9?$AAp?$AAa?$AAn?$AAa?$AAm?$AAa?$AA?$AA@ 000000018012d078     libucrtd:get_qualified_locale.obj
 0002:000270a0       ??_C@_1CC@FKPGGIHO@?$AAs?$AAp?$AAa?$AAn?$AAi?$AAs?$AAh?$AA?9?$AAp?$AAa?$AAr?$AAa?$AAg?$AAu?$AAa?$AAy?$AA?$AA@ 000000018012d0a0     libucrtd:get_qualified_locale.obj
 0002:000270c8       ??_C@_1BK@CDEIHOOP@?$AAs?$AAp?$AAa?$AAn?$AAi?$AAs?$AAh?$AA?9?$AAp?$AAe?$AAr?$AAu?$AA?$AA@ 000000018012d0c8     libucrtd:get_qualified_locale.obj
 0002:000270e8       ??_C@_1CI@GAHAKKGP@?$AAs?$AAp?$AAa?$AAn?$AAi?$AAs?$AAh?$AA?9?$AAp?$AAu?$AAe?$AAr?$AAt?$AAo?$AA?5?$AAr?$AAi?$AAc?$AAo?$AA?$AA@ 000000018012d0e8     libucrtd:get_qualified_locale.obj
 0002:00027118       ??_C@_1CA@NKJBCAGP@?$AAs?$AAp?$AAa?$AAn?$AAi?$AAs?$AAh?$AA?9?$AAu?$AAr?$AAu?$AAg?$AAu?$AAa?$AAy?$AA?$AA@ 000000018012d118     libucrtd:get_qualified_locale.obj
 0002:00027140       ??_C@_1CE@ODILCONM@?$AAs?$AAp?$AAa?$AAn?$AAi?$AAs?$AAh?$AA?9?$AAv?$AAe?$AAn?$AAe?$AAz?$AAu?$AAe?$AAl?$AAa?$AA?$AA@ 000000018012d140     libucrtd:get_qualified_locale.obj
 0002:00027170       ??_C@_1CA@OBNMCGFO@?$AAs?$AAw?$AAe?$AAd?$AAi?$AAs?$AAh?$AA?9?$AAf?$AAi?$AAn?$AAl?$AAa?$AAn?$AAd?$AA?$AA@ 000000018012d170     libucrtd:get_qualified_locale.obj
 0002:00027198       ??_C@_1M@PIPDDPPI@?$AAs?$AAw?$AAi?$AAs?$AAs?$AA?$AA@ 000000018012d198     libucrtd:get_qualified_locale.obj
 0002:000271a8       ??_C@_15GMFIMNFM@?$AAu?$AAs?$AA?$AA@ 000000018012d1a8     libucrtd:get_qualified_locale.obj
 0002:000271b0       ??_C@_17HAEBFAGL@?$AAu?$AAs?$AAa?$AA?$AA@ 000000018012d1b0     libucrtd:get_qualified_locale.obj
 0002:000271c0       ??_C@_1BA@DPFJEPHB@?$AAa?$AAm?$AAe?$AAr?$AAi?$AAc?$AAa?$AA?$AA@ 000000018012d1c0     libucrtd:get_qualified_locale.obj
 0002:000271d8       ??_C@_1BA@ELOGGFK@?$AAb?$AAr?$AAi?$AAt?$AAa?$AAi?$AAn?$AA?$AA@ 000000018012d1d8     libucrtd:get_qualified_locale.obj
 0002:000271f0       ??_C@_1M@GHBGIGDA@?$AAc?$AAh?$AAi?$AAn?$AAa?$AA?$AA@ 000000018012d1f0     libucrtd:get_qualified_locale.obj
 0002:00027200       ??_C@_1M@NCHEJOPO@?$AAc?$AAz?$AAe?$AAc?$AAh?$AA?$AA@ 000000018012d200     libucrtd:get_qualified_locale.obj
 0002:00027210       ??_C@_1BA@BKPAPBLA@?$AAe?$AAn?$AAg?$AAl?$AAa?$AAn?$AAd?$AA?$AA@ 000000018012d210     libucrtd:get_qualified_locale.obj
 0002:00027228       ??_C@_1BM@HKBCKIPC@?$AAg?$AAr?$AAe?$AAa?$AAt?$AA?5?$AAb?$AAr?$AAi?$AAt?$AAa?$AAi?$AAn?$AA?$AA@ 000000018012d228     libucrtd:get_qualified_locale.obj
 0002:00027250       ??_C@_1BA@PPCHPGJB@?$AAh?$AAo?$AAl?$AAl?$AAa?$AAn?$AAd?$AA?$AA@ 000000018012d250     libucrtd:get_qualified_locale.obj
 0002:00027268       ??_C@_1BE@JBMPEGDG@?$AAh?$AAo?$AAn?$AAg?$AA?9?$AAk?$AAo?$AAn?$AAg?$AA?$AA@ 000000018012d268     libucrtd:get_qualified_locale.obj
 0002:00027280       ??_C@_1BI@KOELBBPJ@?$AAn?$AAe?$AAw?$AA?9?$AAz?$AAe?$AAa?$AAl?$AAa?$AAn?$AAd?$AA?$AA@ 000000018012d280     libucrtd:get_qualified_locale.obj
 0002:0002729c       ??_C@_15HIEBHAIO@?$AAn?$AAz?$AA?$AA@ 000000018012d29c     libucrtd:get_qualified_locale.obj
 0002:000272a8       ??_C@_1BC@CHBCPFPI@?$AAp?$AAr?$AA?5?$AAc?$AAh?$AAi?$AAn?$AAa?$AA?$AA@ 000000018012d2a8     libucrtd:get_qualified_locale.obj
 0002:000272c0       ??_C@_1BC@JAOIIFKD@?$AAp?$AAr?$AA?9?$AAc?$AAh?$AAi?$AAn?$AAa?$AA?$AA@ 000000018012d2c0     libucrtd:get_qualified_locale.obj
 0002:000272d8       ??_C@_1BI@BEHPPHKC@?$AAp?$AAu?$AAe?$AAr?$AAt?$AAo?$AA?9?$AAr?$AAi?$AAc?$AAo?$AA?$AA@ 000000018012d2d8     libucrtd:get_qualified_locale.obj
 0002:000272f8       ??_C@_1O@PAEOFKDI@?$AAs?$AAl?$AAo?$AAv?$AAa?$AAk?$AA?$AA@ 000000018012d2f8     libucrtd:get_qualified_locale.obj
 0002:00027310       ??_C@_1HO@CKHMGCFN@?$AAm?$AAi?$AAn?$AAk?$AAe?$AAr?$AAn?$AAe?$AAl?$AA?2?$AAc?$AAr?$AAt?$AAs?$AA?2?$AAu?$AAc?$AAr?$AAt?$AA?2?$AAs?$AAr?$AAc?$AA?2?$AAa?$AAp?$AAp?$AAc?$AAr?$AAt?$AA?2?$AAl@ 000000018012d310     libucrtd:get_qualified_locale.obj
 0002:000273a8       ??_C@_1DI@HCPCNHHP@?$AA_?$AA_?$AAa?$AAc?$AAr?$AAt?$AA_?$AAg?$AAe?$AAt?$AA_?$AAq?$AAu?$AAa?$AAl?$AAi?$AAf?$AAi?$AAe?$AAd?$AA_?$AAl?$AAo?$AAc?$AAa?$AAl?$AAe?$AA?$AA@ 000000018012d3a8     libucrtd:get_qualified_locale.obj
 0002:000273f0       ??_C@_1BFC@DEALMEIM@?$AAw?$AAc?$AAs?$AAn?$AAc?$AAp?$AAy?$AA_?$AAs?$AA?$CI?$AAl?$AAp?$AAO?$AAu?$AAt?$AAS?$AAt?$AAr?$AA?9?$AA?$DO?$AAs?$AAz?$AAL?$AAo?$AAc?$AAa?$AAl?$AAe?$AAN?$AAa?$AAm?$AAe@ 000000018012d3f0     libucrtd:get_qualified_locale.obj
 0002:00027588       ??_C@_1CM@OGEMFJNJ@?$AAL?$AAa?$AAn?$AAg?$AAC?$AAo?$AAu?$AAn?$AAt?$AAr?$AAy?$AAE?$AAn?$AAu?$AAm?$AAP?$AAr?$AAo?$AAc?$AAE?$AAx?$AA?$AA@ 000000018012d588     libucrtd:get_qualified_locale.obj
 0002:000275c0       ??_C@_1BDC@CGCEDIGP@?$AAw?$AAc?$AAs?$AAn?$AAc?$AAp?$AAy?$AA_?$AAs?$AA?$CI?$AA_?$AAp?$AAs?$AAe?$AAt?$AAl?$AAo?$AAc?$AA_?$AAd?$AAa?$AAt?$AAa?$AA?9?$AA?$DO?$AA_?$AAc?$AAa?$AAc?$AAh?$AAe?$AAL@ 000000018012d5c0     libucrtd:get_qualified_locale.obj
 0002:00027730       ??_C@_1CG@PGLLICHO@?$AAL?$AAa?$AAn?$AAg?$AAu?$AAa?$AAg?$AAe?$AAE?$AAn?$AAu?$AAm?$AAP?$AAr?$AAo?$AAc?$AAE?$AAx?$AA?$AA@ 000000018012d730     libucrtd:get_qualified_locale.obj
 0002:00027760       ??_C@_1DC@CPKFANGP@?$AAG?$AAe?$AAt?$AAL?$AAo?$AAc?$AAa?$AAl?$AAe?$AAN?$AAa?$AAm?$AAe?$AAF?$AAr?$AAo?$AAm?$AAD?$AAe?$AAf?$AAa?$AAu?$AAl?$AAt?$AA?$AA@ 000000018012d760     libucrtd:get_qualified_locale.obj
 0002:000277a0       ??_C@_1BCC@GMJIFDHO@?$AAw?$AAc?$AAs?$AAn?$AAc?$AAp?$AAy?$AA_?$AAs?$AA?$CI?$AA_?$AAp?$AAs?$AAe?$AAt?$AAl?$AAo?$AAc?$AA_?$AAd?$AAa?$AAt?$AAa?$AA?9?$AA?$DO?$AA_?$AAc?$AAa?$AAc?$AAh?$AAe?$AAL@ 000000018012d7a0     libucrtd:get_qualified_locale.obj
 0002:00027900       ??_C@_17DNCLJFIF@?$AAA?$AAC?$AAP?$AA?$AA@ 000000018012d900     libucrtd:get_qualified_locale.obj
 0002:00027910       ??_C@_17CIKBIHLH@?$AAO?$AAC?$AAP?$AA?$AA@ 000000018012d910     libucrtd:get_qualified_locale.obj
 0002:00027920       __rglangidNotDefault       000000018012d920     libucrtd:getqloc_downlevel.obj
 0002:00027940       ??_C@_1GA@HBEFGMHK@?$AAm?$AAi?$AAn?$AAk?$AAe?$AAr?$AAn?$AAe?$AAl?$AA?2?$AAc?$AAr?$AAt?$AAs?$AA?2?$AAu?$AAc?$AAr?$AAt?$AA?2?$AAs?$AAr?$AAc?$AA?2?$AAa?$AAp?$AAp?$AAc?$AAr?$AAt?$AA?2?$AAc@ 000000018012d940     libucrtd:xtoa.obj
 0002:000279b8       ??_C@_1BM@HMPEMLNP@?$AAc?$AAo?$AAm?$AAm?$AAo?$AAn?$AA_?$AAx?$AAt?$AAo?$AAx?$AA_?$AAs?$AA?$AA@ 000000018012d9b8     libucrtd:xtoa.obj
 0002:000279e0       ??_C@_1HA@JFIOFNKD@?$AAb?$AAu?$AAf?$AAf?$AAe?$AAr?$AA_?$AAc?$AAo?$AAu?$AAn?$AAt?$AA?5?$AA?$DO?$AA?5?$AAs?$AAt?$AAa?$AAt?$AAi?$AAc?$AA_?$AAc?$AAa?$AAs?$AAt?$AA?$DM?$AAs?$AAi?$AAz?$AAe?$AA_@ 000000018012d9e0     libucrtd:xtoa.obj
 0002:00027a68       ??_C@_1DE@PCJGDBBD@?$AA2?$AA?5?$AA?$DM?$AA?$DN?$AA?5?$AAr?$AAa?$AAd?$AAi?$AAx?$AA?5?$AA?$CG?$AA?$CG?$AA?5?$AAr?$AAa?$AAd?$AAi?$AAx?$AA?5?$AA?$DM?$AA?$DN?$AA?5?$AA3?$AA6?$AA?$AA@ 000000018012da68     libucrtd:xtoa.obj
 0002:00027aa8       ??_C@_1CM@LONILNIJ@?$AAl?$AAe?$AAn?$AAg?$AAt?$AAh?$AA?5?$AA?$DM?$AA?5?$AAb?$AAu?$AAf?$AAf?$AAe?$AAr?$AA_?$AAc?$AAo?$AAu?$AAn?$AAt?$AA?$AA@ 000000018012daa8     libucrtd:xtoa.obj
 0002:00027ae0       ??_C@_1BI@OLPLFKOE@?$AAc?$AAo?$AAm?$AAm?$AAo?$AAn?$AA_?$AAx?$AAt?$AAo?$AAx?$AA?$AA@ 000000018012dae0     libucrtd:xtoa.obj
 0002:00027b00       ??_C@_1BK@FPAMLIDG@?$AAs?$AA?5?$AA?$CB?$AA?$DN?$AA?5?$AAn?$AAu?$AAl?$AAl?$AAp?$AAt?$AAr?$AA?$AA@ 000000018012db00     libucrtd:mbstowcs.obj
 0002:00027b20       ??_C@_1GI@KABMHNPH@?$AAm?$AAi?$AAn?$AAk?$AAe?$AAr?$AAn?$AAe?$AAl?$AA?2?$AAc?$AAr?$AAt?$AAs?$AA?2?$AAu?$AAc?$AAr?$AAt?$AA?2?$AAs?$AAr?$AAc?$AA?2?$AAa?$AAp?$AAp?$AAc?$AAr?$AAt?$AA?2?$AAc@ 000000018012db20     libucrtd:mbstowcs.obj
 0002:00027ba0       ??_C@_1CG@JEHFHLNG@?$AA_?$AAm?$AAb?$AAs?$AAt?$AAo?$AAw?$AAc?$AAs?$AA_?$AAl?$AA_?$AAh?$AAe?$AAl?$AAp?$AAe?$AAr?$AA?$AA@ 000000018012dba0     libucrtd:mbstowcs.obj
 0002:00027bd0       ??_C@_1JM@MEKBACIG@?$AA?$CI?$AAp?$AAw?$AAc?$AAs?$AA?5?$AA?$DN?$AA?$DN?$AA?5?$AAn?$AAu?$AAl?$AAl?$AAp?$AAt?$AAr?$AA?5?$AA?$CG?$AA?$CG?$AA?5?$AAs?$AAi?$AAz?$AAe?$AAI?$AAn?$AAW?$AAo?$AAr?$AAd?$AAs?$AA?5@ 000000018012dbd0     libucrtd:mbstowcs.obj
 0002:00027c90       ??_C@_1BM@PHENIGHD@?$AA_?$AAm?$AAb?$AAs?$AAt?$AAo?$AAw?$AAc?$AAs?$AA_?$AAs?$AA_?$AAl?$AA?$AA@ 000000018012dc90     libucrtd:mbstowcs.obj
 0002:00027cb8       ??_C@_1CM@LLECFMFH@?$AAb?$AAu?$AAf?$AAf?$AAe?$AAr?$AAS?$AAi?$AAz?$AAe?$AA?5?$AA?$DM?$AA?$DN?$AA?5?$AAI?$AAN?$AAT?$AA_?$AAM?$AAA?$AAX?$AA?$AA@ 000000018012dcb8     libucrtd:mbstowcs.obj
 0002:00027cf0       ??_C@_1CO@JNPEPJAL@?$AAr?$AAe?$AAt?$AAs?$AAi?$AAz?$AAe?$AA?5?$AA?$DM?$AA?$DN?$AA?5?$AAs?$AAi?$AAz?$AAe?$AAI?$AAn?$AAW?$AAo?$AAr?$AAd?$AAs?$AA?$AA@ 000000018012dcf0     libucrtd:mbstowcs.obj
 0002:00027d58       ??_C@_1CA@NOKNKDIG@?$AAp?$AAw?$AAc?$AAs?$AA?5?$AA?$CB?$AA?$DN?$AA?5?$AAn?$AAu?$AAl?$AAl?$AAp?$AAt?$AAr?$AA?$AA@ 000000018012dd58     libucrtd:wcstombs.obj
 0002:00027d80       ??_C@_1GI@EEJDEALP@?$AAm?$AAi?$AAn?$AAk?$AAe?$AAr?$AAn?$AAe?$AAl?$AA?2?$AAc?$AAr?$AAt?$AAs?$AA?2?$AAu?$AAc?$AAr?$AAt?$AA?2?$AAs?$AAr?$AAc?$AA?2?$AAa?$AAp?$AAp?$AAc?$AAr?$AAt?$AA?2?$AAc@ 000000018012dd80     libucrtd:wcstombs.obj
 0002:00027e00       ??_C@_1CG@LLJCAOHF@?$AA_?$AAw?$AAc?$AAs?$AAt?$AAo?$AAm?$AAb?$AAs?$AA_?$AAl?$AA_?$AAh?$AAe?$AAl?$AAp?$AAe?$AAr?$AA?$AA@ 000000018012de00     libucrtd:wcstombs.obj
 0002:00027e30       ??_C@_1JI@DFNKFCLG@?$AA?$CI?$AAd?$AAs?$AAt?$AA?5?$AA?$CB?$AA?$DN?$AA?5?$AAn?$AAu?$AAl?$AAl?$AAp?$AAt?$AAr?$AA?5?$AA?$CG?$AA?$CG?$AA?5?$AAs?$AAi?$AAz?$AAe?$AAI?$AAn?$AAB?$AAy?$AAt?$AAe?$AAs?$AA?5?$AA?$DO@ 000000018012de30     libucrtd:wcstombs.obj
 0002:00027ee8       ??_C@_1BM@BDMCLLDL@?$AA_?$AAw?$AAc?$AAs?$AAt?$AAo?$AAm?$AAb?$AAs?$AA_?$AAs?$AA_?$AAl?$AA?$AA@ 000000018012dee8     libucrtd:wcstombs.obj
 0002:00027f10       ??_C@_1CM@KEOGBFLI@?$AAs?$AAi?$AAz?$AAe?$AAI?$AAn?$AAB?$AAy?$AAt?$AAe?$AAs?$AA?5?$AA?$DO?$AA?5?$AAr?$AAe?$AAt?$AAs?$AAi?$AAz?$AAe?$AA?$AA@ 000000018012df10     libucrtd:wcstombs.obj
 0002:00027f48       ??_C@_1CI@CCKDLILB@?$AA_?$AAs?$AAt?$AAr?$AAi?$AAn?$AAg?$AA1?$AA?5?$AA?$CB?$AA?$DN?$AA?5?$AAn?$AAu?$AAl?$AAl?$AAp?$AAt?$AAr?$AA?$AA@ 000000018012df48     libucrtd:wcsnicol.obj
 0002:00027f80       ??_C@_1GG@MDOKJCAE@?$AAm?$AAi?$AAn?$AAk?$AAe?$AAr?$AAn?$AAe?$AAl?$AA?2?$AAc?$AAr?$AAt?$AAs?$AA?2?$AAu?$AAc?$AAr?$AAt?$AA?2?$AAs?$AAr?$AAc?$AA?2?$AAa?$AAp?$AAp?$AAc?$AAr?$AAt?$AA?2?$AAs@ 000000018012df80     libucrtd:wcsnicol.obj
 0002:00028000       ??_C@_1BK@EONLMOKH@?$AA_?$AAw?$AAc?$AAs?$AAn?$AAi?$AAc?$AAo?$AAl?$AAl?$AA_?$AAl?$AA?$AA@ 000000018012e000     libucrtd:wcsnicol.obj
 0002:00028020       ??_C@_1CI@NAPEFFEJ@?$AA_?$AAs?$AAt?$AAr?$AAi?$AAn?$AAg?$AA2?$AA?5?$AA?$CB?$AA?$DN?$AA?5?$AAn?$AAu?$AAl?$AAl?$AAp?$AAt?$AAr?$AA?$AA@ 000000018012e020     libucrtd:wcsnicol.obj
 0002:00028050       ??_C@_1CC@JLPHKJPH@?$AAc?$AAo?$AAu?$AAn?$AAt?$AA?5?$AA?$DM?$AA?$DN?$AA?5?$AAI?$AAN?$AAT?$AA_?$AAM?$AAA?$AAX?$AA?$AA@ 000000018012e050     libucrtd:wcsnicol.obj
 0002:00028078       ??_C@_1BG@PCPANGGF@?$AA_?$AAw?$AAc?$AAs?$AAn?$AAi?$AAc?$AAo?$AAl?$AAl?$AA?$AA@ 000000018012e078     libucrtd:wcsnicol.obj
 0002:000280a0       ??_C@_1GG@LACFCIFA@?$AAm?$AAi?$AAn?$AAk?$AAe?$AAr?$AAn?$AAe?$AAl?$AA?2?$AAc?$AAr?$AAt?$AAs?$AA?2?$AAu?$AAc?$AAr?$AAt?$AA?2?$AAs?$AAr?$AAc?$AA?2?$AAa?$AAp?$AAp?$AAc?$AAr?$AAt?$AA?2?$AAs@ 000000018012e0a0     libucrtd:strnicol.obj
 0002:00028120       ??_C@_1BK@IOJEBPLP@?$AA_?$AAs?$AAt?$AAr?$AAn?$AAi?$AAc?$AAo?$AAl?$AAl?$AA_?$AAl?$AA?$AA@ 000000018012e120     libucrtd:strnicol.obj
 0002:00028140       ??_C@_1DE@BCNCAIK@?$AA?$CI?$AA?$CC?$AAI?$AAn?$AAv?$AAa?$AAl?$AAi?$AAd?$AA?5?$AAe?$AAr?$AAr?$AAo?$AAr?$AA_?$AAm?$AAo?$AAd?$AAe?$AA?$CC?$AA?0?$AA?5?$AA0?$AA?$CJ?$AA?$AA@ 000000018012e140     libucrtd:set_error_mode.obj
 0002:00028180       ??_C@_1GO@EBFPMMIJ@?$AAm?$AAi?$AAn?$AAk?$AAe?$AAr?$AAn?$AAe?$AAl?$AA?2?$AAc?$AAr?$AAt?$AAs?$AA?2?$AAu?$AAc?$AAr?$AAt?$AA?2?$AAs?$AAr?$AAc?$AA?2?$AAa?$AAp?$AAp?$AAc?$AAr?$AAt?$AA?2?$AAm@ 000000018012e180     libucrtd:set_error_mode.obj
 0002:00028208       ??_C@_1CA@LFDHAMEM@?$AA_?$AAs?$AAe?$AAt?$AA_?$AAe?$AAr?$AAr?$AAo?$AAr?$AA_?$AAm?$AAo?$AAd?$AAe?$AA?$AA@ 000000018012e208     libucrtd:set_error_mode.obj
 0002:000282c0       ??_C@_1FO@IPDGALOE@?$AAm?$AAi?$AAn?$AAk?$AAe?$AAr?$AAn?$AAe?$AAl?$AA?2?$AAc?$AAr?$AAt?$AAs?$AA?2?$AAu?$AAc?$AAr?$AAt?$AA?2?$AAs?$AAr?$AAc?$AA?2?$AAa?$AAp?$AAp?$AAc?$AAr?$AAt?$AA?2?$AAl@ 000000018012e2c0     libucrtd:close.obj
 0002:00028330       ??_C@_1O@EDEJGJBM@?$AA_?$AAc?$AAl?$AAo?$AAs?$AAe?$AA?$AA@ 000000018012e330     libucrtd:close.obj
 0002:00028340       ??_C@_0DA@OGKFKCBE@minkernel?2crts?2ucrt?2src?2appcrt?2s@ 000000018012e340     libucrtd:stream.obj
 0002:00028380       ??_C@_1FO@KIIHJNFN@?$AAm?$AAi?$AAn?$AAk?$AAe?$AAr?$AAn?$AAe?$AAl?$AA?2?$AAc?$AAr?$AAt?$AAs?$AA?2?$AAu?$AAc?$AAr?$AAt?$AA?2?$AAs?$AAr?$AAc?$AA?2?$AAa?$AAp?$AAp?$AAc?$AAr?$AAt?$AA?2?$AAl@ 000000018012e380     libucrtd:lseek.obj
 0002:000283f0       ??_C@_1BK@JOMBNFIM@?$AAc?$AAo?$AAm?$AAm?$AAo?$AAn?$AA_?$AAl?$AAs?$AAe?$AAe?$AAk?$AA?$AA@ 000000018012e3f0     libucrtd:lseek.obj
 0002:00028410       ??_C@_1DM@LMLOLGJ@?$AA?$CI?$AA?$CC?$AAI?$AAn?$AAv?$AAa?$AAl?$AAi?$AAd?$AA?5?$AAf?$AAi?$AAl?$AAe?$AA?5?$AAd?$AAe?$AAs?$AAc?$AAr?$AAi?$AAp?$AAt?$AAo?$AAr?$AA?$CC?$AA?0?$AA0?$AA?$CJ?$AA?$AA@ 000000018012e410     libucrtd:lseek.obj
 0002:00028458       ??_C@_0DJ@JBBOOIAE@minkernel?2crts?2ucrt?2src?2appcrt?2l@ 000000018012e458     libucrtd:getlocaleinfoa.obj
 0002:000284a0       ??_C@_1HC@KAIIOBKJ@?$AAm?$AAi?$AAn?$AAk?$AAe?$AAr?$AAn?$AAe?$AAl?$AA?2?$AAc?$AAr?$AAt?$AAs?$AA?2?$AAu?$AAc?$AAr?$AAt?$AA?2?$AAs?$AAr?$AAc?$AA?2?$AAa?$AAp?$AAp?$AAc?$AAr?$AAt?$AA?2?$AAl@ 000000018012e4a0     libucrtd:getlocaleinfoa.obj
 0002:00028528       ??_C@_1CM@LGLMFNOK@?$AA_?$AA_?$AAa?$AAc?$AAr?$AAt?$AA_?$AAG?$AAe?$AAt?$AAL?$AAo?$AAc?$AAa?$AAl?$AAe?$AAI?$AAn?$AAf?$AAo?$AAA?$AA?$AA@ 000000018012e528     libucrtd:getlocaleinfoa.obj
 0002:00028560       ??_C@_1IM@HJPPDDKJ@?$AAs?$AAt?$AAr?$AAn?$AAc?$AAp?$AAy?$AA_?$AAs?$AA?$CI?$AA?$CK?$AAc?$AAh?$AAa?$AAr?$AA_?$AAr?$AAe?$AAs?$AAu?$AAl?$AAt?$AA?0?$AA?5?$AAl?$AAo?$AAc?$AAa?$AAl?$AA_?$AAl?$AAe@ 000000018012e560     libucrtd:getlocaleinfoa.obj
 0002:000288e0       ??_C@_1GC@DLDMJFMI@?$AAm?$AAi?$AAn?$AAk?$AAe?$AAr?$AAn?$AAe?$AAl?$AA?2?$AAc?$AAr?$AAt?$AAs?$AA?2?$AAu?$AAc?$AAr?$AAt?$AA?2?$AAs?$AAr?$AAc?$AA?2?$AAa?$AAp?$AAp?$AAc?$AAr?$AAt?$AA?2?$AAs@ 000000018012e8e0     libucrtd:_getbuf.obj
 0002:00028958       ??_C@_0DB@LKJPMJPL@minkernel?2crts?2ucrt?2src?2appcrt?2s@ 000000018012e958     libucrtd:_getbuf.obj
 0002:00028998       ??_C@_1BO@GCPMHDON@?$AAd?$AAs?$AAt?$AA?5?$AA?$CB?$AA?$DN?$AA?5?$AAn?$AAu?$AAl?$AAl?$AAp?$AAt?$AAr?$AA?$AA@ 000000018012e998     libucrtd:wcsicmp.obj
 0002:000289c0       ??_C@_1GE@FNNJGCGI@?$AAm?$AAi?$AAn?$AAk?$AAe?$AAr?$AAn?$AAe?$AAl?$AA?2?$AAc?$AAr?$AAt?$AAs?$AA?2?$AAu?$AAc?$AAr?$AAt?$AA?2?$AAs?$AAr?$AAc?$AA?2?$AAa?$AAp?$AAp?$AAc?$AAr?$AAt?$AA?2?$AAs@ 000000018012e9c0     libucrtd:wcsicmp.obj
 0002:00028a38       ??_C@_1BG@EELGPCPD@?$AA_?$AAw?$AAc?$AAs?$AAi?$AAc?$AAm?$AAp?$AA_?$AAl?$AA?$AA@ 000000018012ea38     libucrtd:wcsicmp.obj
 0002:00028a58       ??_C@_1BO@NEBGDLJE@?$AAs?$AAr?$AAc?$AA?5?$AA?$CB?$AA?$DN?$AA?5?$AAn?$AAu?$AAl?$AAl?$AAp?$AAt?$AAr?$AA?$AA@ 000000018012ea58     libucrtd:wcsicmp.obj
 0002:00028a80       ??_C@_1BC@NHIBDOMC@?$AA_?$AAw?$AAc?$AAs?$AAi?$AAc?$AAm?$AAp?$AA?$AA@ 000000018012ea80     libucrtd:wcsicmp.obj
 0002:00028a98       ??_C@_1CC@IBIHLDLG@?$AAf?$AAi?$AAr?$AAs?$AAt?$AA?5?$AA?$CB?$AA?$DN?$AA?5?$AAn?$AAu?$AAl?$AAl?$AAp?$AAt?$AAr?$AA?$AA@ 000000018012ea98     libucrtd:wcsnicmp.obj
 0002:00028ac0       ??_C@_1GG@CLJGPGNE@?$AAm?$AAi?$AAn?$AAk?$AAe?$AAr?$AAn?$AAe?$AAl?$AA?2?$AAc?$AAr?$AAt?$AAs?$AA?2?$AAu?$AAc?$AAr?$AAt?$AA?2?$AAs?$AAr?$AAc?$AA?2?$AAa?$AAp?$AAp?$AAc?$AAr?$AAt?$AA?2?$AAs@ 000000018012eac0     libucrtd:wcsnicmp.obj
 0002:00028b40       ??_C@_1BI@KLMFNDBC@?$AA_?$AAw?$AAc?$AAs?$AAn?$AAi?$AAc?$AAm?$AAp?$AA_?$AAl?$AA?$AA@ 000000018012eb40     libucrtd:wcsnicmp.obj
 0002:00028b60       ??_C@_1CA@GLFIDPNF@?$AAl?$AAa?$AAs?$AAt?$AA?5?$AA?$CB?$AA?$DN?$AA?5?$AAn?$AAu?$AAl?$AAl?$AAp?$AAt?$AAr?$AA?$AA@ 000000018012eb60     libucrtd:wcsnicmp.obj
 0002:00028b88       ??_C@_1BE@JKOKKFEL@?$AA_?$AAw?$AAc?$AAs?$AAn?$AAi?$AAc?$AAm?$AAp?$AA?$AA@ 000000018012eb88     libucrtd:wcsnicmp.obj
 0002:00028ba0       ??_C@_1GG@FIFJEMIA@?$AAm?$AAi?$AAn?$AAk?$AAe?$AAr?$AAn?$AAe?$AAl?$AA?2?$AAc?$AAr?$AAt?$AAs?$AA?2?$AAu?$AAc?$AAr?$AAt?$AA?2?$AAs?$AAr?$AAc?$AA?2?$AAa?$AAp?$AAp?$AAc?$AAr?$AAt?$AA?2?$AAs@ 000000018012eba0     libucrtd:strnicmp.obj
 0002:00028c20       ??_C@_1BI@BJLEPLEF@?$AA_?$AAs?$AAt?$AAr?$AAn?$AAi?$AAc?$AAm?$AAp?$AA_?$AAl?$AA?$AA@ 000000018012ec20     libucrtd:strnicmp.obj
 0002:00028c40       ??_C@_1BE@BHJDFFNA@?$AA_?$AAs?$AAt?$AAr?$AAn?$AAi?$AAc?$AAm?$AAp?$AA?$AA@ 000000018012ec40     libucrtd:strnicmp.obj
 0002:00028c60       ??_C@_1HK@ELDMAMK@?$AAc?$AAc?$AAh?$AAC?$AAo?$AAu?$AAn?$AAt?$AA1?$AA?$DN?$AA?$DN?$AA0?$AA?5?$AA?$CG?$AA?$CG?$AA?5?$AAc?$AAc?$AAh?$AAC?$AAo?$AAu?$AAn?$AAt?$AA2?$AA?$DN?$AA?$DN?$AA1?$AA?5?$AA?$HM?$AA?$HM?$AA?5@ 000000018012ec60     libucrtd:comparestringa.obj
 0002:00028d00       ??_C@_1HC@NLKDIKED@?$AAm?$AAi?$AAn?$AAk?$AAe?$AAr?$AAn?$AAe?$AAl?$AA?2?$AAc?$AAr?$AAt?$AAs?$AA?2?$AAu?$AAc?$AAr?$AAt?$AA?2?$AAs?$AAr?$AAc?$AA?2?$AAa?$AAp?$AAp?$AAc?$AAr?$AAt?$AA?2?$AAl@ 000000018012ed00     libucrtd:comparestringa.obj
 0002:00028d88       ??_C@_0DJ@MBLHFEOE@minkernel?2crts?2ucrt?2src?2appcrt?2l@ 000000018012ed88     libucrtd:comparestringa.obj
 0002:00028dd0       ??_C@_1BA@BALFACEM@?$AAC?$AAO?$AAN?$AAO?$AAU?$AAT?$AA$?$AA?$AA@ 000000018012edd0     libucrtd:initcon.obj
 0002:00028df0       __log10_256_lead           000000018012edf0     libucrtd:log10_256_lead_tail_table.obj
 0002:00029600       __log10_256_tail           000000018012f600     libucrtd:log10_256_lead_tail_table.obj
 0002:0002a140       ??_C@_04HIGFGEHP@logf?$AA@ 0000000180130140     libucrtd:log_special.obj
 0002:0002a148       ??_C@_06KDGOKGLH@log10f?$AA@ 0000000180130148     libucrtd:log_special.obj
 0002:0002a150       ??_C@_1EK@PDBKILLM@?$AA?$CI?$AAm?$AAa?$AAs?$AAk?$AA?$CG?$AA?$HO?$AA?$CI?$AA_?$AAM?$AAC?$AAW?$AA_?$AAD?$AAN?$AA?$HM?$AA_?$AAM?$AAC?$AAW?$AA_?$AAE?$AAM?$AA?$HM?$AA_?$AAM?$AAC?$AAW?$AA_?$AAR?$AAC?$AA?$CJ@ 0000000180130150     libucrtd:ieee.obj
 0002:0002a1b0       ??_C@_1GC@IEFABLII@?$AAm?$AAi?$AAn?$AAk?$AAe?$AAr?$AAn?$AAe?$AAl?$AA?2?$AAc?$AAr?$AAt?$AAs?$AA?2?$AAu?$AAc?$AAr?$AAt?$AA?2?$AAs?$AAr?$AAc?$AA?2?$AAa?$AAp?$AAp?$AAc?$AAr?$AAt?$AA?2?$AAt@ 00000001801301b0     libucrtd:ieee.obj
 0002:0002a2e8       _pDestructExceptionObject  00000001801302e8     libvcruntimed:frame.obj
 0002:0002a300       ??_7bad_exception@std@@6B@ 0000000180130300     libvcruntimed:frame.obj
 0002:0002a318       ??_C@_0O@DPKOEFFH@bad?5exception?$AA@ 0000000180130318     libvcruntimed:frame.obj
 0002:0002adb0       ??_R4type_info@@6B@        0000000180130db0     LIBCMTD:std_type_info_static.obj
 0002:0002ade0       ??_R3type_info@@8          0000000180130de0     LIBCMTD:std_type_info_static.obj
 0002:0002adf8       ??_R2type_info@@8          0000000180130df8     LIBCMTD:std_type_info_static.obj
 0002:0002ae08       ??_R1A@?0A@EA@type_info@@8 0000000180130e08     LIBCMTD:std_type_info_static.obj
 0002:0002ae38       ??_R4exception@std@@6B@    0000000180130e38     LIBCMTD:throw_bad_alloc.obj
 0002:0002ae68       ??_R3exception@std@@8      0000000180130e68     LIBCMTD:throw_bad_alloc.obj
 0002:0002ae80       ??_R2exception@std@@8      0000000180130e80     LIBCMTD:throw_bad_alloc.obj
 0002:0002ae90       ??_R1A@?0A@EA@exception@std@@8 0000000180130e90     LIBCMTD:throw_bad_alloc.obj
 0002:0002aec0       ??_R4bad_alloc@std@@6B@    0000000180130ec0     LIBCMTD:throw_bad_alloc.obj
 0002:0002aef0       ??_R3bad_alloc@std@@8      0000000180130ef0     LIBCMTD:throw_bad_alloc.obj
 0002:0002af08       ??_R2bad_alloc@std@@8      0000000180130f08     LIBCMTD:throw_bad_alloc.obj
 0002:0002af20       ??_R1A@?0A@EA@bad_alloc@std@@8 0000000180130f20     LIBCMTD:throw_bad_alloc.obj
 0002:0002af50       ??_R4bad_array_new_length@std@@6B@ 0000000180130f50     LIBCMTD:throw_bad_alloc.obj
 0002:0002af80       ??_R3bad_array_new_length@std@@8 0000000180130f80     LIBCMTD:throw_bad_alloc.obj
 0002:0002af98       ??_R2bad_array_new_length@std@@8 0000000180130f98     LIBCMTD:throw_bad_alloc.obj
 0002:0002afc0       ??_R1A@?0A@EA@bad_array_new_length@std@@8 0000000180130fc0     LIBCMTD:throw_bad_alloc.obj
 0002:0002aff0       ??_R4DNameNode@@6B@        0000000180130ff0     libvcruntimed:undname.obj
 0002:0002b020       ??_R3DNameNode@@8          0000000180131020     libvcruntimed:undname.obj
 0002:0002b038       ??_R2DNameNode@@8          0000000180131038     libvcruntimed:undname.obj
 0002:0002b048       ??_R1A@?0A@EA@DNameNode@@8 0000000180131048     libvcruntimed:undname.obj
 0002:0002b078       ??_R4charNode@@6B@         0000000180131078     libvcruntimed:undname.obj
 0002:0002b0a8       ??_R3charNode@@8           00000001801310a8     libvcruntimed:undname.obj
 0002:0002b0c0       ??_R2charNode@@8           00000001801310c0     libvcruntimed:undname.obj
 0002:0002b0d8       ??_R1A@?0A@EA@charNode@@8  00000001801310d8     libvcruntimed:undname.obj
 0002:0002b108       ??_R4pcharNode@@6B@        0000000180131108     libvcruntimed:undname.obj
 0002:0002b138       ??_R3pcharNode@@8          0000000180131138     libvcruntimed:undname.obj
 0002:0002b150       ??_R2pcharNode@@8          0000000180131150     libvcruntimed:undname.obj
 0002:0002b168       ??_R1A@?0A@EA@pcharNode@@8 0000000180131168     libvcruntimed:undname.obj
 0002:0002b198       ??_R4pDNameNode@@6B@       0000000180131198     libvcruntimed:undname.obj
 0002:0002b1c8       ??_R3pDNameNode@@8         00000001801311c8     libvcruntimed:undname.obj
 0002:0002b1e0       ??_R2pDNameNode@@8         00000001801311e0     libvcruntimed:undname.obj
 0002:0002b1f8       ??_R1A@?0A@EA@pDNameNode@@8 00000001801311f8     libvcruntimed:undname.obj
 0002:0002b228       ??_R4DNameStatusNode@@6B@  0000000180131228     libvcruntimed:undname.obj
 0002:0002b258       ??_R3DNameStatusNode@@8    0000000180131258     libvcruntimed:undname.obj
 0002:0002b270       ??_R2DNameStatusNode@@8    0000000180131270     libvcruntimed:undname.obj
 0002:0002b288       ??_R1A@?0A@EA@DNameStatusNode@@8 0000000180131288     libvcruntimed:undname.obj
 0002:0002b2b8       ??_R4pairNode@@6B@         00000001801312b8     libvcruntimed:undname.obj
 0002:0002b2e8       ??_R3pairNode@@8           00000001801312e8     libvcruntimed:undname.obj
 0002:0002b300       ??_R2pairNode@@8           0000000180131300     libvcruntimed:undname.obj
 0002:0002b318       ??_R1A@?0A@EA@pairNode@@8  0000000180131318     libvcruntimed:undname.obj
 0002:0002b348       ??_R4bad_exception@std@@6B@ 0000000180131348     libvcruntimed:frame.obj
 0002:0002b378       ??_R3bad_exception@std@@8  0000000180131378     libvcruntimed:frame.obj
 0002:0002b390       ??_R2bad_exception@std@@8  0000000180131390     libvcruntimed:frame.obj
 0002:0002b3a8       ??_R1A@?0A@EA@bad_exception@std@@8 00000001801313a8     libvcruntimed:frame.obj
 0002:0002b4f0       ?_TraceLoggingMetadata@?1??_TlgWrite@__vcrt_trace_logging_provider@@YAJPEBU_TlgProvider_t@2@PEFBXPEBU_GUID@@2IPEAU_EVENT_DATA_DESCRIPTOR@@@Z@4U_TraceLoggingMetadata_t@2@B 00000001801314f0     libvcruntimed:telemetry.obj
 0002:0002b8c5       ?_TraceLoggingMetadataEnd@?1??_TlgWrite@__vcrt_trace_logging_provider@@YAJPEBU_TlgProvider_t@2@PEFBXPEBU_GUID@@2IPEAU_EVENT_DATA_DESCRIPTOR@@@Z@4EB 00000001801318c5     libvcruntimed:telemetry.obj
 0002:0002bba8       __rtc_iaa                  0000000180131ba8     LIBCMTD:_initsect_.obj
 0002:0002bec0       __rtc_izz                  0000000180131ec0     LIBCMTD:_initsect_.obj
 0002:0002bfd0       __rtc_taa                  0000000180131fd0     LIBCMTD:_initsect_.obj
 0002:0002c2e8       __rtc_tzz                  00000001801322e8     LIBCMTD:_initsect_.obj
 0002:00034328       _TI2?AVbad_alloc@std@@     000000018013a328     LIBCMTD:throw_bad_alloc.obj
 0002:00034348       _CTA2?AVbad_alloc@std@@    000000018013a348     LIBCMTD:throw_bad_alloc.obj
 0002:00034360       _CT??_R0?AVbad_alloc@std@@@8??0bad_alloc@std@@QEAA@AEBV01@@Z24 000000018013a360     LIBCMTD:throw_bad_alloc.obj
 0002:00034388       _CT??_R0?AVexception@std@@@8??0exception@std@@QEAA@AEBV01@@Z24 000000018013a388     LIBCMTD:throw_bad_alloc.obj
 0002:000343b0       _TI3?AVbad_array_new_length@std@@ 000000018013a3b0     LIBCMTD:throw_bad_alloc.obj
 0002:000343d0       _CTA3?AVbad_array_new_length@std@@ 000000018013a3d0     LIBCMTD:throw_bad_alloc.obj
 0002:000343f0       _CT??_R0?AVbad_array_new_length@std@@@8??0bad_array_new_length@std@@QEAA@AEBV01@@Z24 000000018013a3f0     LIBCMTD:throw_bad_alloc.obj
 0002:00034418       _TI2?AVbad_exception@std@@ 000000018013a418     libvcruntimed:frame.obj
 0002:00034438       _CTA2?AVbad_exception@std@@ 000000018013a438     libvcruntimed:frame.obj
 0002:00034450       _CT??_R0?AVbad_exception@std@@@8??0bad_exception@std@@QEAA@AEBV01@@Z24 000000018013a450     libvcruntimed:frame.obj
 0003:00000060       __pfnDliNotifyHook2        000000018013b060     WindowsCookingDelayLoadHook.obj
 0003:0000007c       ?planetestepsilon@physx@@3MA 000000018013b07c     hulllib.obj
 0003:00000084       _fltused                   000000018013b084     LIBCMTD:fltused.obj
 0003:00000090       __scrt_native_dllmain_reason 000000018013b090     LIBCMTD:utility.obj
 0003:00000098       __security_cookie          000000018013b098     LIBCMTD:gs_cookie.obj
 0003:000000a0       __security_cookie_complement 000000018013b0a0     LIBCMTD:gs_cookie.obj
 0003:000000b0       ?_RTC_ErrorLevels@@3PAHA   000000018013b0b0     LIBCMTD:_error_.obj
 0003:000000c8       __isa_available            000000018013b0c8     LIBCMTD:_cpu_disp_.obj
 0003:000000cc       __isa_enabled              000000018013b0cc     LIBCMTD:_cpu_disp_.obj
 0003:000000d0       __memcpy_nt_iters          000000018013b0d0     LIBCMTD:_cpu_disp_.obj
 0003:00000150       _iob                       000000018013b150     libucrtd:_file.obj
 0003:00000294       _crtDbgFlag                000000018013b294     libucrtd:debug_heap.obj
 0003:00000298       _crtBreakAlloc             000000018013b298     libucrtd:debug_heap.obj
 0003:000002a0       __abort_behavior           000000018013b2a0     libucrtd:abort.obj
 0003:000002c0       __badioinfo                000000018013b2c0     libucrtd:ioinit.obj
 0003:0000032c       __mb_cur_max               000000018013b32c     libucrtd:nlsdata.obj
 0003:00000330       __acrt_initial_locale_data 000000018013b330     libucrtd:nlsdata.obj
 0003:000004d0       __acrt_initial_locale_pointers 000000018013b4d0     libucrtd:nlsdata.obj
 0003:000004e4       __acrt_wide_c_locale_string 000000018013b4e4     libucrtd:nlsdata.obj
 0003:000004f0       _crtAssertBusy             000000018013b4f0     libucrtd:dbgrptt.obj
 0003:000004f8       _CrtDbgMode                000000018013b4f8     libucrtd:dbgrptt.obj
 0003:00000508       _CrtDbgFile                000000018013b508     libucrtd:dbgrptt.obj
 0003:00000538       _pfnAllocHook              000000018013b538     libucrtd:debug_heap_hook.obj
 0003:00000550       __acrt_initial_multibyte_data 000000018013b550     libucrtd:mbctype.obj
 0003:000007e8       __acrt_current_multibyte_data 000000018013b7e8     libucrtd:mbctype.obj
 0003:00000920       _mbctype                   000000018013b920     libucrtd:mbctype.obj
 0003:00000a60       _mbcasemap                 000000018013ba60     libucrtd:mbctype.obj
 0003:00000ba0       __globallocalestatus       000000018013bba0     libucrtd:glstatus.obj
 0003:00000ba8       _pctype                    000000018013bba8     libucrtd:ctype.obj
 0003:00000bb8       _pwctype                   000000018013bbb8     libucrtd:ctype.obj
 0003:00000bd0       __acrt_lconv_c             000000018013bbd0     libucrtd:localeconv.obj
 0003:00000c88       __acrt_lconv               000000018013bc88     libucrtd:localeconv.obj
 0003:00000c94       __acrt_lconv_static_decimal 000000018013bc94     libucrtd:localeconv.obj
 0003:00000c98       __acrt_lconv_static_W_decimal 000000018013bc98     libucrtd:localeconv.obj
 0003:00000ca0       __dcrt_lowio_console_output_handle 000000018013bca0     libucrtd:initcon.obj
 0003:00000e08       ??_R0I@8                   000000018013be08     TriangleMeshBuilder.obj
 0003:00000e20       ??_R0G@8                   000000018013be20     BigConvexDataBuilder.obj
 0003:00000e38       ??_R0?AUValency@Gu@physx@@@8 000000018013be38     BigConvexDataBuilder.obj
 0003:00000e68       ??_R0E@8                   000000018013be68     BigConvexDataBuilder.obj
 0003:00000e80       ??_R0?AUEdgeDescData@Gu@physx@@@8 000000018013be80     ConvexHullBuilder.obj
 0003:00000eb8       ??_R0?AUHullTriangleData@physx@@@8 000000018013beb8     ConvexHullBuilder.obj
 0003:00000ef0       ??_R0?AVBigConvexData@physx@@@8 000000018013bef0     ConvexMeshBuilder.obj
 0003:00000f28       ??_R0M@8                   000000018013bf28     hulllib.obj
 0003:00000f40       ??_R0?AVTri@physx@@@8      000000018013bf40     hulllib.obj
 0003:00000f68       ??_R0?AVConvexH@physx@@@8  000000018013bf68     hulllib.obj
 0003:00000f98       ??_R0?AVAdjEdge@@@8        000000018013bf98     Adjacencies.obj
 0003:00000fc0       ??_R0?AVAdjTriangle@physx@@@8 000000018013bfc0     Adjacencies.obj
 0003:00000ff0       ??_R0?AVHeightField@Gu@physx@@@8 000000018013bff0     Cooking.obj
 0003:00001028       ??_R0?AVTriangleMeshBuilder@physx@@@8 000000018013c028     Cooking.obj
 0003:00001068       ??_R0?AVCooking@physx@@@8  000000018013c068     Cooking.obj
 0003:00001098       ??_R0?AUEdgeData@Gu@physx@@@8 000000018013c098     EdgeList.obj
 0003:000010c8       ??_R0?AUEdgeTriangleData@Gu@physx@@@8 000000018013c0c8     EdgeList.obj
 0003:00001108       ??_R0?AVEdgeListBuilder@Gu@physx@@@8 000000018013c108     InternalTriangleMeshBuilder.obj
 0003:00001140       ??_R0?AVtype_info@@@8      000000018013c140     LIBCMTD:std_type_info_static.obj
 0003:00001168       ??_R0?AVbad_alloc@std@@@8  000000018013c168     LIBCMTD:throw_bad_alloc.obj
 0003:00001198       ??_R0?AVexception@std@@@8  000000018013c198     LIBCMTD:throw_bad_alloc.obj
 0003:000011c8       ??_R0?AVbad_array_new_length@std@@@8 000000018013c1c8     LIBCMTD:throw_bad_alloc.obj
 0003:00001200       ??_R0?AVDNameNode@@@8      000000018013c200     libvcruntimed:undname.obj
 0003:00001228       ??_R0?AVcharNode@@@8       000000018013c228     libvcruntimed:undname.obj
 0003:00001250       ??_R0?AVpcharNode@@@8      000000018013c250     libvcruntimed:undname.obj
 0003:00001278       ??_R0?AVpDNameNode@@@8     000000018013c278     libvcruntimed:undname.obj
 0003:000012a0       ??_R0?AVDNameStatusNode@@@8 000000018013c2a0     libvcruntimed:undname.obj
 0003:000012d0       ??_R0?AVpairNode@@@8       000000018013c2d0     libvcruntimed:undname.obj
 0003:000012f8       ??_R0?AVbad_exception@std@@@8 000000018013c2f8     libvcruntimed:frame.obj
 0003:00001459       ?_ignore@?2???APxVec3@physx@@QEBAAEBMI@Z@4_NA 000000018013c459     RTreeCooking.obj
 0003:0000145a       ?_ignore@?2??isInside@PxBounds3@physx@@QEBA_NAEBV23@@Z@4_NA 000000018013c45a     RTreeCooking.obj
 0003:000014d4       ?_ignore@?5??sort4@SubSortQuick@physx@@QEAAXPEIAIIAEAV?$Array@URTreeNodeNQ@physx@@VNamedAllocator@shdfnd@2@@shdfnd@3@AEAIAEAUPxBounds3V@3@I@Z@4_NA 000000018013c4d4     RTreeCooking.obj
 0003:000014d5       ?_ignore@?6??sort4@SubSortQuick@physx@@QEAAXPEIAIIAEAV?$Array@URTreeNodeNQ@physx@@VNamedAllocator@shdfnd@2@@shdfnd@3@AEAIAEAUPxBounds3V@3@I@Z@4_NA 000000018013c4d5     RTreeCooking.obj
 0003:000014d6       ?_ignore@?7??sort4@SubSortQuick@physx@@QEAAXPEIAIIAEAV?$Array@URTreeNodeNQ@physx@@VNamedAllocator@shdfnd@2@@shdfnd@3@AEAIAEAUPxBounds3V@3@I@Z@4_NA 000000018013c4d6     RTreeCooking.obj
 0003:000014d7       ?_ignore@?8??sort4@SubSortQuick@physx@@QEAAXPEIAIIAEAV?$Array@URTreeNodeNQ@physx@@VNamedAllocator@shdfnd@2@@shdfnd@3@AEAIAEAUPxBounds3V@3@I@Z@4_NA 000000018013c4d7     RTreeCooking.obj
 0003:000014d8       ?_ignore@?M@??sort4@SubSortQuick@physx@@QEAAXPEIAIIAEAV?$Array@URTreeNodeNQ@physx@@VNamedAllocator@shdfnd@2@@shdfnd@3@AEAIAEAUPxBounds3V@3@I@Z@4_NA 000000018013c4d8     RTreeCooking.obj
 0003:000014d9       ?_ignore@?BH@??sort4@SubSortQuick@physx@@QEAAXPEIAIIAEAV?$Array@URTreeNodeNQ@physx@@VNamedAllocator@shdfnd@2@@shdfnd@3@AEAIAEAUPxBounds3V@3@I@Z@4_NA 000000018013c4d9     RTreeCooking.obj
 0003:000014da       ?_ignore@?6??split@SubSortSAH@physx@@QEAAIPEAII@Z@4_NA 000000018013c4da     RTreeCooking.obj
 0003:000014db       ?_ignore@?7??split@SubSortSAH@physx@@QEAAIPEAII@Z@4_NA 000000018013c4db     RTreeCooking.obj
 0003:000014dc       ?_ignore@?8??split@SubSortSAH@physx@@QEAAIPEAII@Z@4_NA 000000018013c4dc     RTreeCooking.obj
 0003:000014dd       ?_ignore@?9??split@SubSortSAH@physx@@QEAAIPEAII@Z@4_NA 000000018013c4dd     RTreeCooking.obj
 0003:000014de       ?_ignore@?L@??split@SubSortSAH@physx@@QEAAIPEAII@Z@4_NA 000000018013c4de     RTreeCooking.obj
 0003:000014df       ?_ignore@?BO@??split@SubSortSAH@physx@@QEAAIPEAII@Z@4_NA 000000018013c4df     RTreeCooking.obj
 0003:000014e0       ?_ignore@?CB@??split@SubSortSAH@physx@@QEAAIPEAII@Z@4_NA 000000018013c4e0     RTreeCooking.obj
 0003:000014e1       ?_ignore@?2??computeSA@SubSortSAH@physx@@QEAAMPEBIAEBUInterval@3@@Z@4_NA 000000018013c4e1     RTreeCooking.obj
 0003:000014e2       ?_ignore@?BD@??sort4@SubSortSAH@physx@@QEAAXPEAIIAEAV?$Array@URTreeNodeNQ@physx@@VNamedAllocator@shdfnd@2@@shdfnd@3@AEAIIPEAURTreeNodeNQ@3@@Z@4_NA 000000018013c4e2     RTreeCooking.obj
 0003:000014e3       ?_ignore@?BE@??sort4@SubSortSAH@physx@@QEAAXPEAIIAEAV?$Array@URTreeNodeNQ@physx@@VNamedAllocator@shdfnd@2@@shdfnd@3@AEAIIPEAURTreeNodeNQ@3@@Z@4_NA 000000018013c4e3     RTreeCooking.obj
 0003:000014e4       ?_ignore@?BF@??sort4@SubSortSAH@physx@@QEAAXPEAIIAEAV?$Array@URTreeNodeNQ@physx@@VNamedAllocator@shdfnd@2@@shdfnd@3@AEAIIPEAURTreeNodeNQ@3@@Z@4_NA 000000018013c4e4     RTreeCooking.obj
 0003:000014e5       ?_ignore@?BG@??sort4@SubSortSAH@physx@@QEAAXPEAIIAEAV?$Array@URTreeNodeNQ@physx@@VNamedAllocator@shdfnd@2@@shdfnd@3@AEAIIPEAURTreeNodeNQ@3@@Z@4_NA 000000018013c4e5     RTreeCooking.obj
 0003:000014e6       ?_ignore@?BH@??sort4@SubSortSAH@physx@@QEAAXPEAIIAEAV?$Array@URTreeNodeNQ@physx@@VNamedAllocator@shdfnd@2@@shdfnd@3@AEAIIPEAURTreeNodeNQ@3@@Z@4_NA 000000018013c4e6     RTreeCooking.obj
 0003:000014e7       ?_ignore@?BJ@??sort4@SubSortSAH@physx@@QEAAXPEAIIAEAV?$Array@URTreeNodeNQ@physx@@VNamedAllocator@shdfnd@2@@shdfnd@3@AEAIIPEAURTreeNodeNQ@3@@Z@4_NA 000000018013c4e7     RTreeCooking.obj
 0003:000014e8       ?_ignore@?BP@??sort4@SubSortSAH@physx@@QEAAXPEAIIAEAV?$Array@URTreeNodeNQ@physx@@VNamedAllocator@shdfnd@2@@shdfnd@3@AEAIIPEAURTreeNodeNQ@3@@Z@4_NA 000000018013c4e8     RTreeCooking.obj
 0003:000014e9       ?_ignore@?CA@??sort4@SubSortSAH@physx@@QEAAXPEAIIAEAV?$Array@URTreeNodeNQ@physx@@VNamedAllocator@shdfnd@2@@shdfnd@3@AEAIIPEAURTreeNodeNQ@3@@Z@4_NA 000000018013c4e9     RTreeCooking.obj
 0003:000014ea       ?_ignore@?CB@??sort4@SubSortSAH@physx@@QEAAXPEAIIAEAV?$Array@URTreeNodeNQ@physx@@VNamedAllocator@shdfnd@2@@shdfnd@3@AEAIIPEAURTreeNodeNQ@3@@Z@4_NA 000000018013c4ea     RTreeCooking.obj
 0003:000014eb       ?_ignore@?CC@??sort4@SubSortSAH@physx@@QEAAXPEAIIAEAV?$Array@URTreeNodeNQ@physx@@VNamedAllocator@shdfnd@2@@shdfnd@3@AEAIIPEAURTreeNodeNQ@3@@Z@4_NA 000000018013c4eb     RTreeCooking.obj
 0003:000014ec       ?_ignore@?CD@??sort4@SubSortSAH@physx@@QEAAXPEAIIAEAV?$Array@URTreeNodeNQ@physx@@VNamedAllocator@shdfnd@2@@shdfnd@3@AEAIIPEAURTreeNodeNQ@3@@Z@4_NA 000000018013c4ec     RTreeCooking.obj
 0003:000014ed       ?_ignore@?DD@??sort4@SubSortSAH@physx@@QEAAXPEAIIAEAV?$Array@URTreeNodeNQ@physx@@VNamedAllocator@shdfnd@2@@shdfnd@3@AEAIIPEAURTreeNodeNQ@3@@Z@4_NA 000000018013c4ed     RTreeCooking.obj
 0003:000014ee       ?_ignore@?DI@??sort4@SubSortSAH@physx@@QEAAXPEAIIAEAV?$Array@URTreeNodeNQ@physx@@VNamedAllocator@shdfnd@2@@shdfnd@3@AEAIIPEAURTreeNodeNQ@3@@Z@4_NA 000000018013c4ee     RTreeCooking.obj
 0003:000014f7       ?_ignore@?2???A?$Array@URTreeNodeQ@Gu@physx@@VNamedAllocator@shdfnd@3@@shdfnd@physx@@QEAAAEAURTreeNodeQ@Gu@3@I@Z@4_NA 000000018013c4f7     RTreeCooking.obj
 0003:000014f8       ?_ignore@?2??replaceWithLast@?$Array@UInterval@physx@@V?$InlineAllocator@$0CA@VNamedAllocator@shdfnd@physx@@@shdfnd@2@@shdfnd@physx@@QEAAXI@Z@4_NA 000000018013c4f8     RTreeCooking.obj
 0003:000014f9       ?_ignore@?2???A?$Array@UInterval@physx@@V?$InlineAllocator@$0CA@VNamedAllocator@shdfnd@physx@@@shdfnd@2@@shdfnd@physx@@QEAAAEAUInterval@3@I@Z@4_NA 000000018013c4f9     RTreeCooking.obj
 0003:000014fa       ?_ignore@?2???A?$Array@URTreeNodeNQ@physx@@VNamedAllocator@shdfnd@2@@shdfnd@physx@@QEAAAEAURTreeNodeNQ@3@I@Z@4_NA 000000018013c4fa     RTreeCooking.obj
 0003:000014fb       ?_ignore@?2??popBack@?$Array@IVNamedAllocator@shdfnd@physx@@@shdfnd@physx@@QEAAIXZ@4_NA 000000018013c4fb     RTreeCooking.obj
 0003:000014fc       ?_ignore@?2???A?$Array@IVNamedAllocator@shdfnd@physx@@@shdfnd@physx@@QEAAAEAII@Z@4_NA 000000018013c4fc     RTreeCooking.obj
 0003:000014fd       ?_ignore@?2??grow@?$Array@URTreeNodeQ@Gu@physx@@VNamedAllocator@shdfnd@3@@shdfnd@physx@@IEAAXI@Z@4_NA 000000018013c4fd     RTreeCooking.obj
 0003:000014fe       ?_ignore@?2??grow@?$Array@URTreeNodeNQ@physx@@VNamedAllocator@shdfnd@2@@shdfnd@physx@@IEAAXI@Z@4_NA 000000018013c4fe     RTreeCooking.obj
 0003:000014ff       ?_ignore@?2??grow@?$Array@VPxVec3@physx@@VNamedAllocator@shdfnd@2@@shdfnd@physx@@IEAAXI@Z@4_NA 000000018013c4ff     RTreeCooking.obj
 0003:00001500       ?_ignore@?2??grow@?$Array@UPxBounds3V@physx@@VNamedAllocator@shdfnd@2@@shdfnd@physx@@IEAAXI@Z@4_NA 000000018013c500     RTreeCooking.obj
 0003:00001501       ?_ignore@?2??grow@?$Array@IVNamedAllocator@shdfnd@physx@@@shdfnd@physx@@IEAAXI@Z@4_NA 000000018013c501     RTreeCooking.obj
 0003:00001502       ?_ignore@?2??growAndPushBack@?$Array@IVNamedAllocator@shdfnd@physx@@@shdfnd@physx@@IEAAAEAIAEBI@Z@4_NA 000000018013c502     RTreeCooking.obj
 0003:00001503       ?_ignore@?2??recreate@?$Array@IVNamedAllocator@shdfnd@physx@@@shdfnd@physx@@IEAAXI@Z@4_NA 000000018013c503     RTreeCooking.obj
 0003:00001504       ?_ignore@?2??growAndPushBack@?$Array@UPxBounds3V@physx@@VNamedAllocator@shdfnd@2@@shdfnd@physx@@IEAAAEAUPxBounds3V@4@AEBU54@@Z@4_NA 000000018013c504     RTreeCooking.obj
 0003:00001505       ?_ignore@?2??recreate@?$Array@UPxBounds3V@physx@@VNamedAllocator@shdfnd@2@@shdfnd@physx@@IEAAXI@Z@4_NA 000000018013c505     RTreeCooking.obj
 0003:00001506       ?_ignore@?2??growAndPushBack@?$Array@VPxVec3@physx@@VNamedAllocator@shdfnd@2@@shdfnd@physx@@IEAAAEAVPxVec3@4@AEBV54@@Z@4_NA 000000018013c506     RTreeCooking.obj
 0003:00001507       ?_ignore@?2??recreate@?$Array@VPxVec3@physx@@VNamedAllocator@shdfnd@2@@shdfnd@physx@@IEAAXI@Z@4_NA 000000018013c507     RTreeCooking.obj
 0003:00001508       ?_ignore@?2??growAndPushBack@?$Array@URTreeNodeNQ@physx@@VNamedAllocator@shdfnd@2@@shdfnd@physx@@IEAAAEAURTreeNodeNQ@4@AEBU54@@Z@4_NA 000000018013c508     RTreeCooking.obj
 0003:00001509       ?_ignore@?2??recreate@?$Array@URTreeNodeNQ@physx@@VNamedAllocator@shdfnd@2@@shdfnd@physx@@IEAAXI@Z@4_NA 000000018013c509     RTreeCooking.obj
 0003:0000150a       ?_ignore@?2???$quickSelectFirstK@UBoundsLTE@physx@@@quickSelect@physx@@YAXPEIAIIIIAEBUBoundsLTE@2@@Z@4_NA 000000018013c50a     RTreeCooking.obj
 0003:0000150b       ?_ignore@?M@???$quickSelectFirstK@UBoundsLTE@physx@@@quickSelect@physx@@YAXPEIAIIIIAEBUBoundsLTE@2@@Z@4_NA 000000018013c50b     RTreeCooking.obj
 0003:0000150c       ?_ignore@?2??growAndPushBack@?$Array@UInterval@physx@@V?$InlineAllocator@$0CA@VNamedAllocator@shdfnd@physx@@@shdfnd@2@@shdfnd@physx@@IEAAAEAUInterval@4@AEBU54@@Z@4_NA 000000018013c50c     RTreeCooking.obj
 0003:0000150d       ?_ignore@?2??growAndPushBack@?$Array@URTreeNodeQ@Gu@physx@@VNamedAllocator@shdfnd@3@@shdfnd@physx@@IEAAAEAURTreeNodeQ@Gu@4@AEBU564@@Z@4_NA 000000018013c50d     RTreeCooking.obj
 0003:0000150e       ?_ignore@?2??recreate@?$Array@URTreeNodeQ@Gu@physx@@VNamedAllocator@shdfnd@3@@shdfnd@physx@@IEAAXI@Z@4_NA 000000018013c50e     RTreeCooking.obj
 0003:0000150f       ?_ignore@?2???$partition@UBoundsLTE@physx@@@quickSelect@physx@@YAIPEIAIIIIAEBUBoundsLTE@2@@Z@4_NA 000000018013c50f     RTreeCooking.obj
 0003:00001510       ?_ignore@?M@???$partition@UBoundsLTE@physx@@@quickSelect@physx@@YAIPEIAIIIIAEBUBoundsLTE@2@@Z@4_NA 000000018013c510     RTreeCooking.obj
 0003:00001511       ?_ignore@?O@???$partition@UBoundsLTE@physx@@@quickSelect@physx@@YAIPEIAIIIIAEBUBoundsLTE@2@@Z@4_NA 000000018013c511     RTreeCooking.obj
 0003:00001512       ?_ignore@?O@???$sort@IU?$Less@I@shdfnd@physx@@VNamedAllocator@23@@shdfnd@physx@@YAXPEAIIAEBU?$Less@I@12@AEBVNamedAllocator@12@I@Z@4_NA 000000018013c512     RTreeCooking.obj
 0003:00001513       ?_ignore@?BM@???$sort@IU?$Less@I@shdfnd@physx@@VNamedAllocator@23@@shdfnd@physx@@YAXPEAIIAEBU?$Less@I@12@AEBVNamedAllocator@12@I@Z@4_NA 000000018013c513     RTreeCooking.obj
 0003:00001514       ?_ignore@?O@???$sort@IUSortBoundsPredicate@physx@@VNamedAllocator@shdfnd@2@@shdfnd@physx@@YAXPEAIIAEBUSortBoundsPredicate@2@AEBVNamedAllocator@12@I@Z@4_NA 000000018013c514     RTreeCooking.obj
 0003:00001515       ?_ignore@?BM@???$sort@IUSortBoundsPredicate@physx@@VNamedAllocator@shdfnd@2@@shdfnd@physx@@YAXPEAIIAEBUSortBoundsPredicate@2@AEBVNamedAllocator@12@I@Z@4_NA 000000018013c515     RTreeCooking.obj
 0003:00001516       ?_ignore@?2??pop@?$Stack@VNamedAllocator@shdfnd@physx@@@internal@shdfnd@physx@@QEAAXAEAH0@Z@4_NA 000000018013c516     RTreeCooking.obj
 0003:00001517       ?_ignore@?8???$partition@I$$CBU?$Less@I@shdfnd@physx@@@internal@shdfnd@physx@@YAHPEAIHHAEBU?$Less@I@23@@Z@4_NA 000000018013c517     RTreeCooking.obj
 0003:00001518       ?_ignore@?9???$partition@I$$CBU?$Less@I@shdfnd@physx@@@internal@shdfnd@physx@@YAHPEAIHHAEBU?$Less@I@23@@Z@4_NA 000000018013c518     RTreeCooking.obj
 0003:00001519       ?_ignore@?8???$partition@I$$CBUSortBoundsPredicate@physx@@@internal@shdfnd@physx@@YAHPEAIHHAEBUSortBoundsPredicate@3@@Z@4_NA 000000018013c519     RTreeCooking.obj
 0003:0000151a       ?_ignore@?9???$partition@I$$CBUSortBoundsPredicate@physx@@@internal@shdfnd@physx@@YAHPEAIHHAEBUSortBoundsPredicate@3@@Z@4_NA 000000018013c51a     RTreeCooking.obj
 0003:0000151b       ?_ignore@?2???APxVec3@physx@@QEAAAEAMI@Z@4_NA 000000018013c51b     TriangleMeshBuilder.obj
 0003:00001593       ?_ignore@?2??to16@shdfnd@physx@@YAGI@Z@4_NA 000000018013c593     TriangleMeshBuilder.obj
 0003:0000159b       ?_ignore@?2??to8@shdfnd@physx@@YAEI@Z@4_NA 000000018013c59b     ConvexHullBuilder.obj
 0003:00001633       ?_ignore@?4??PxGetGaussMapVertexLimitForPlatform@physx@@YAIW4Enum@PxPlatform@2@@Z@4_NA 000000018013c633     ConvexMeshBuilder.obj
 0003:00001638       ?_OptionsStorage@?1??__local_stdio_printf_options@@9@4_KA 000000018013c638     hulllib.obj
 0003:00001641       ?_ignore@?2??to8@shdfnd@physx@@YAEG@Z@4_NA 000000018013c641     hulllib.obj
 0003:00001642       ?_ignore@?2???Afloat3@physx@@QEAAAEAMH@Z@4_NA 000000018013c642     hulllib.obj
 0003:00001643       ?_ignore@?2???Afloat3@physx@@QEBAAEBMH@Z@4_NA 000000018013c643     hulllib.obj
 0003:00001644       ?_ignore@?2???Afloat3x3@physx@@QEAAAEAVfloat3@2@H@Z@4_NA 000000018013c644     hulllib.obj
 0003:00001645       ?_ignore@?2???Afloat3x3@physx@@QEBAAEBVfloat3@2@H@Z@4_NA 000000018013c645     hulllib.obj
 0003:00001669       ?_ignore@?9??PlaneCheck@LocalTests@?1??expandhull@HullLibrary@physx@@AEAA?AW4HullError@5@PEAVfloat3@5@HAEAPEAV75@AEAHM@Z@SA_NPEBV75@HAEAV?$Array@UExpandPlane@physx@@@hullLibArray@5@@Z@4_NA 000000018013c669     hulllib.obj
 0003:00001676       ?_ignore@?2???A?$Array@UExpandPlane@physx@@@hullLibArray@physx@@QEAAAEAUExpandPlane@3@H@Z@4_NA 000000018013c676     hulllib.obj
 0003:00001677       ?_ignore@?2???A?$Array@H@hullLibArray@physx@@QEAAAEAHH@Z@4_NA 000000018013c677     hulllib.obj
 0003:00001678       ?_ignore@?2???A?$Array@VHalfEdge@ConvexH@physx@@@hullLibArray@physx@@QEAAAEAVHalfEdge@ConvexH@3@H@Z@4_NA 000000018013c678     hulllib.obj
 0003:00001679       ?_ignore@?2???A?$Array@Vfloat3@physx@@@hullLibArray@physx@@QEAAAEAVfloat3@3@H@Z@4_NA 000000018013c679     hulllib.obj
 0003:0000167a       ?_ignore@?2???A?$Array@VPlane@physx@@@hullLibArray@physx@@QEAAAEAVPlane@3@H@Z@4_NA 000000018013c67a     hulllib.obj
 0003:0000167b       ?_ignore@?2???A?$Array@PEAVTri@physx@@@hullLibArray@physx@@QEAAAEAPEAVTri@3@H@Z@4_NA 000000018013c67b     hulllib.obj
 0003:0000167c       ?_ignore@?2??Add@?$Array@PEAVTri@physx@@@hullLibArray@physx@@QEAAAEAPEAVTri@4@PEAV54@@Z@4_NA 000000018013c67c     hulllib.obj
 0003:0000167d       ?_ignore@?2??Add@?$Array@VPlane@physx@@@hullLibArray@physx@@QEAAAEAVPlane@4@V54@@Z@4_NA 000000018013c67d     hulllib.obj
 0003:0000167e       ?_ignore@?2??Add@?$Array@Vfloat3@physx@@@hullLibArray@physx@@QEAAAEAVfloat3@4@V54@@Z@4_NA 000000018013c67e     hulllib.obj
 0003:0000167f       ?_ignore@?2??Add@?$Array@H@hullLibArray@physx@@QEAAAEAHH@Z@4_NA 000000018013c67f     hulllib.obj
 0003:00001680       ?_ignore@?BI@???$maxdirsterid@Vfloat3@physx@@@physx@@YAHPEBVfloat3@1@HAEBV21@AEAV?$Array@H@hullLibArray@1@@Z@4_NA 000000018013c680     hulllib.obj
 0003:00001681       ?_ignore@?2??Add@?$Array@UExpandPlane@physx@@@hullLibArray@physx@@QEAAAEAUExpandPlane@4@U54@@Z@4_NA 000000018013c681     hulllib.obj
 0003:00001682       ?_ignore@?2???$maxdir@Vfloat3@physx@@@physx@@YAHPEBVfloat3@1@HAEBV21@@Z@4_NA 000000018013c682     hulllib.obj
 0003:00001683       ?_ignore@?2??Add@?$Array@Vint3@physx@@@hullLibArray@physx@@QEAAAEAVint3@4@V54@@Z@4_NA 000000018013c683     hulllib.obj
 0003:00001684       ?_ignore@?2??allocate@?$Array@PEAVTri@physx@@@hullLibArray@physx@@QEAAXH@Z@4_NA 000000018013c684     hulllib.obj
 0003:00001685       ?_ignore@?3??allocate@?$Array@PEAVTri@physx@@@hullLibArray@physx@@QEAAXH@Z@4_NA 000000018013c685     hulllib.obj
 0003:00001686       ?_ignore@?4??allocate@?$Array@PEAVTri@physx@@@hullLibArray@physx@@QEAAXH@Z@4_NA 000000018013c686     hulllib.obj
 0003:00001687       ?_ignore@?2??allocate@?$Array@VPlane@physx@@@hullLibArray@physx@@QEAAXH@Z@4_NA 000000018013c687     hulllib.obj
 0003:00001688       ?_ignore@?3??allocate@?$Array@VPlane@physx@@@hullLibArray@physx@@QEAAXH@Z@4_NA 000000018013c688     hulllib.obj
 0003:00001689       ?_ignore@?4??allocate@?$Array@VPlane@physx@@@hullLibArray@physx@@QEAAXH@Z@4_NA 000000018013c689     hulllib.obj
 0003:0000168a       ?_ignore@?2??allocate@?$Array@Vfloat3@physx@@@hullLibArray@physx@@QEAAXH@Z@4_NA 000000018013c68a     hulllib.obj
 0003:0000168b       ?_ignore@?3??allocate@?$Array@Vfloat3@physx@@@hullLibArray@physx@@QEAAXH@Z@4_NA 000000018013c68b     hulllib.obj
 0003:0000168c       ?_ignore@?4??allocate@?$Array@Vfloat3@physx@@@hullLibArray@physx@@QEAAXH@Z@4_NA 000000018013c68c     hulllib.obj
 0003:0000168d       ?_ignore@?2??allocate@?$Array@VHalfEdge@ConvexH@physx@@@hullLibArray@physx@@QEAAXH@Z@4_NA 000000018013c68d     hulllib.obj
 0003:0000168e       ?_ignore@?3??allocate@?$Array@VHalfEdge@ConvexH@physx@@@hullLibArray@physx@@QEAAXH@Z@4_NA 000000018013c68e     hulllib.obj
 0003:0000168f       ?_ignore@?4??allocate@?$Array@VHalfEdge@ConvexH@physx@@@hullLibArray@physx@@QEAAXH@Z@4_NA 000000018013c68f     hulllib.obj
 0003:00001690       ?_ignore@?2??allocate@?$Array@H@hullLibArray@physx@@QEAAXH@Z@4_NA 000000018013c690     hulllib.obj
 0003:00001691       ?_ignore@?3??allocate@?$Array@H@hullLibArray@physx@@QEAAXH@Z@4_NA 000000018013c691     hulllib.obj
 0003:00001692       ?_ignore@?4??allocate@?$Array@H@hullLibArray@physx@@QEAAXH@Z@4_NA 000000018013c692     hulllib.obj
 0003:00001693       ?_ignore@?2??allocate@?$Array@UExpandPlane@physx@@@hullLibArray@physx@@QEAAXH@Z@4_NA 000000018013c693     hulllib.obj
 0003:00001694       ?_ignore@?3??allocate@?$Array@UExpandPlane@physx@@@hullLibArray@physx@@QEAAXH@Z@4_NA 000000018013c694     hulllib.obj
 0003:00001695       ?_ignore@?4??allocate@?$Array@UExpandPlane@physx@@@hullLibArray@physx@@QEAAXH@Z@4_NA 000000018013c695     hulllib.obj
 0003:00001696       ?_ignore@?2??allocate@?$Array@Vint3@physx@@@hullLibArray@physx@@QEAAXH@Z@4_NA 000000018013c696     hulllib.obj
 0003:00001697       ?_ignore@?3??allocate@?$Array@Vint3@physx@@@hullLibArray@physx@@QEAAXH@Z@4_NA 000000018013c697     hulllib.obj
 0003:00001698       ?_ignore@?4??allocate@?$Array@Vint3@physx@@@hullLibArray@physx@@QEAAXH@Z@4_NA 000000018013c698     hulllib.obj
 0003:00001699       ?_ignore@?2???$maxdirfiltered@Vfloat3@physx@@@physx@@YAHPEBVfloat3@1@HAEBV21@PEA_N@Z@4_NA 000000018013c699     hulllib.obj
 0003:0000169a       ?_ignore@?9???$maxdirfiltered@Vfloat3@physx@@@physx@@YAHPEBVfloat3@1@HAEBV21@PEA_N@Z@4_NA 000000018013c69a     hulllib.obj
 0003:000016a7       ?_ignore@?2??LeafSetData@Gu@physx@@YAIII@Z@4_NA 000000018013c6a7     InternalTriangleMeshBuilder.obj
 0003:000016a8       ?_ignore@?3??LeafSetData@Gu@physx@@YAIII@Z@4_NA 000000018013c6a8     InternalTriangleMeshBuilder.obj
 0003:000016aa       ?_ignore@?2??remap@RTreeCookerRemap@@UEAAXPEAIII@Z@4_NA 000000018013c6aa     InternalTriangleMeshBuilder.obj
 0003:000016ab       ?_ignore@?3??remap@RTreeCookerRemap@@UEAAXPEAIII@Z@4_NA 000000018013c6ab     InternalTriangleMeshBuilder.obj
 0003:000016ac       ?_ignore@?4??remap@RTreeCookerRemap@@UEAAXPEAIII@Z@4_NA 000000018013c6ac     InternalTriangleMeshBuilder.obj
 0003:000016ad       ?_ignore@?5??remap@RTreeCookerRemap@@UEAAXPEAIII@Z@4_NA 000000018013c6ad     InternalTriangleMeshBuilder.obj
 0003:000016ae       ?_ignore@?6??remap@RTreeCookerRemap@@UEAAXPEAIII@Z@4_NA 000000018013c6ae     InternalTriangleMeshBuilder.obj
 0003:000016c0       __hmod__PhysX3CommonDEBUG_x64_dll 000000018013c6c0     PhysX3CommonDEBUG_x64:PhysX3CommonDEBUG_x64.dll
 0003:000016c8       ?DloadKernel32@@3PEAUHINSTANCE__@@EA 000000018013c6c8     delayimp:delayhlp.obj
 0003:000016d0       ?DloadAcquireSRWLockExclusive@@3P6AXPEA_K@ZEA 000000018013c6d0     delayimp:delayhlp.obj
 0003:000016d8       ?DloadReleaseSRWLockExclusive@@3P6AXPEA_K@ZEA 000000018013c6d8     delayimp:delayhlp.obj
 0003:000016e0       ?DloadSrwLock@@3_KA        000000018013c6e0     delayimp:delayhlp.obj
 0003:000016e8       ?DloadSectionLockCount@@3KA 000000018013c6e8     delayimp:delayhlp.obj
 0003:000016ec       ?DloadSectionOldProtection@@3KA 000000018013c6ec     delayimp:delayhlp.obj
 0003:000016f0       ?DloadSectionCommitPermanent@@3KA 000000018013c6f0     delayimp:delayhlp.obj
 0003:00001700       __pfnDliFailureHook2       000000018013c700     delayimp:delayhk1.obj
 0003:00001710       ?__type_info_root_node@@3U__type_info_node@@A 000000018013c710     LIBCMTD:tncleanup.obj
 0003:00001770       __scrt_current_native_startup_state 000000018013c770     LIBCMTD:utility.obj
 0003:00001778       __scrt_native_startup_lock 000000018013c778     LIBCMTD:utility.obj
 0003:00001790       ?_OptionsStorage@?1??__local_stdio_scanf_options@@9@4_KA 000000018013c790     LIBCMTD:default_local_stdio_options.obj
 0003:0000179c       __scrt_debugger_hook_flag  000000018013c79c     LIBCMTD:utility_desktop.obj
 0003:000017a0       __favor                    000000018013c7a0     LIBCMTD:_cpu_disp_.obj
 0003:00001e48       ?pArgList@UnDecorator@@0PEAVReplicator@@EA 000000018013ce48     libvcruntimed:undname.obj
 0003:00001e50       ?pZNameList@UnDecorator@@0PEAVReplicator@@EA 000000018013ce50     libvcruntimed:undname.obj
 0003:00001e58       ?pTemplateArgList@UnDecorator@@0PEAVReplicator@@EA 000000018013ce58     libvcruntimed:undname.obj
 0003:00001e60       ?gName@UnDecorator@@0PEBDEB 000000018013ce60     libvcruntimed:undname.obj
 0003:00001e68       ?name@UnDecorator@@0PEBDEB 000000018013ce68     libvcruntimed:undname.obj
 0003:00001e70       ?outputString@UnDecorator@@0PEADEA 000000018013ce70     libvcruntimed:undname.obj
 0003:00001e78       ?maxStringLength@UnDecorator@@0HA 000000018013ce78     libvcruntimed:undname.obj
 0003:00001e7c       ?disableFlags@UnDecorator@@0KA 000000018013ce7c     libvcruntimed:undname.obj
 0003:00001e80       ?fExplicitTemplateParams@UnDecorator@@0_NA 000000018013ce80     libvcruntimed:undname.obj
 0003:00001e81       ?fGetTemplateArgumentList@UnDecorator@@0_NA 000000018013ce81     libvcruntimed:undname.obj
 0003:00001e88       ?m_pGetParameter@UnDecorator@@0P6APEADJ@ZEA 000000018013ce88     libvcruntimed:undname.obj
 0003:00001f30       ?nodes@?1??make@DNameStatusNode@@SAPEAV2@W4DNameStatus@@@Z@4PAV2@A 000000018013cf30     libvcruntimed:undname.obj
 0003:00001f7c       ??_B?1??make@DNameStatusNode@@SAPEAV1@W4DNameStatus@@@Z@51 000000018013cf7c     libvcruntimed:undname.obj
 0003:00001f80       __pPurecall                000000018013cf80     libvcruntimed:purevirt_data.obj
 0003:000020d8       _nstream                   000000018013d0d8     libucrtd:_file.obj
 0003:000020e0       __piob                     000000018013d0e0     libucrtd:_file.obj
 0003:000020ec       _cflush                    000000018013d0ec     libucrtd:_file.obj
 0003:00002158       _pfnDumpClient             000000018013d158     libucrtd:debug_heap.obj
 0003:00002178       _environ_table             000000018013d178     libucrtd:environment_initialization.obj
 0003:00002180       _wenviron_table            000000018013d180     libucrtd:environment_initialization.obj
 0003:00002190       __dcrt_initial_wide_environment 000000018013d190     libucrtd:environment_initialization.obj
 0003:000021a0       __dcrt_initial_narrow_environment 000000018013d1a0     libucrtd:environment_initialization.obj
 0003:000021b0       __acrt_atexit_table        000000018013d1b0     libucrtd:onexit.obj
 0003:000021d0       __acrt_at_quick_exit_table 000000018013d1d0     libucrtd:onexit.obj
 0003:000021ec       __fma3_is_available        000000018013d1ec     libucrtd:fma3_available.obj
 0003:000021f0       __use_fma3_lib             000000018013d1f0     libucrtd:fma3_available.obj
 0003:00002420       __pioinfo                  000000018013d420     libucrtd:ioinit.obj
 0003:000028ec       _nhandle                   000000018013d8ec     libucrtd:ioinit.obj
 0003:00002900       __acrt_stdout_buffer       000000018013d900     libucrtd:_sftbuf.obj
 0003:00002910       __acrt_stderr_buffer       000000018013d910     libucrtd:_sftbuf.obj
 0003:0000291c       __acrt_locale_changed_data 000000018013d91c     libucrtd:wsetlocale.obj
 0003:00002920       __acrt_current_locale_data 000000018013d920     libucrtd:nlsdata.obj
 0003:00002930       _pfnReportHook             000000018013d930     libucrtd:dbgrptt.obj
 0003:00002938       _pReportHookList           000000018013d938     libucrtd:dbgrptt.obj
 0003:00002940       _pReportHookListW          000000018013d940     libucrtd:dbgrptt.obj
 0003:00002bf8       __acrt_heap                000000018013dbf8     libucrtd:heap_handle.obj
 0003:00002c04       __mbcodepage               000000018013dc04     libucrtd:mbctype.obj
 0003:00002c08       __ismbcodepage             000000018013dc08     libucrtd:mbctype.obj
 0003:00002c10       __mbulinfo                 000000018013dc10     libucrtd:mbctype.obj
 0003:00002c28       __mblocalename             000000018013dc28     libucrtd:mbctype.obj
 0003:00002c34       __argc                     000000018013dc34     libucrtd:argv_data.obj
 0003:00002c38       __argv                     000000018013dc38     libucrtd:argv_data.obj
 0003:00002c48       __wargv                    000000018013dc48     libucrtd:argv_data.obj
 0003:00002c58       _acmdln                    000000018013dc58     libucrtd:argv_data.obj
 0003:00002c68       _wcmdln                    000000018013dc68     libucrtd:argv_data.obj
 0003:00002c78       _pgmptr                    000000018013dc78     libucrtd:argv_data.obj
 0003:00002c88       _wpgmptr                   000000018013dc88     libucrtd:argv_data.obj
 0003:00003413       __acrt_lconv_static_null   000000018013e413     libucrtd:localeconv.obj
 0003:00003414       __acrt_lconv_static_W_null 000000018013e414     libucrtd:localeconv.obj
 0003:00003420       ?g_OutOfMemoryExceptionCallback@@3P6APEAXXZEA 000000018013e420     libvcruntimed:frame.obj
 0003:0000342c       __scrt_ucrt_dll_is_in_use  000000018013e42c     <common>
 0003:00003438       __dyn_tls_init_callback    000000018013e438     <common>
 0005:00000000       __imp_SystemFunction036    0000000180149000     advapi32:ADVAPI32.dll
 0005:00000008       \177ADVAPI32_NULL_THUNK_DATA 0000000180149008     advapi32:ADVAPI32.dll
 0005:00000060       __imp_RaiseException       0000000180149060     kernel32:KERNEL32.dll
 0005:00000068       __imp_GetLastError         0000000180149068     kernel32:KERNEL32.dll
 0005:00000070       __imp_GetSystemInfo        0000000180149070     kernel32:KERNEL32.dll
 0005:00000078       __imp_VirtualProtect       0000000180149078     kernel32:KERNEL32.dll
 0005:00000080       __imp_VirtualQuery         0000000180149080     kernel32:KERNEL32.dll
 0005:00000088       __imp_FreeLibrary          0000000180149088     kernel32:KERNEL32.dll
 0005:00000090       __imp_GetModuleHandleW     0000000180149090     kernel32:KERNEL32.dll
 0005:00000098       __imp_GetProcAddress       0000000180149098     kernel32:KERNEL32.dll
 0005:000000a0       __imp_LoadLibraryExA       00000001801490a0     kernel32:KERNEL32.dll
 0005:000000a8       __imp_InitializeSListHead  00000001801490a8     kernel32:KERNEL32.dll
 0005:000000b0       __imp_QueryPerformanceCounter 00000001801490b0     kernel32:KERNEL32.dll
 0005:000000b8       __imp_GetCurrentProcessId  00000001801490b8     kernel32:KERNEL32.dll
 0005:000000c0       __imp_GetCurrentThreadId   00000001801490c0     kernel32:KERNEL32.dll
 0005:000000c8       __imp_GetSystemTimeAsFileTime 00000001801490c8     kernel32:KERNEL32.dll
 0005:000000d0       __imp_RtlCaptureContext    00000001801490d0     kernel32:KERNEL32.dll
 0005:000000d8       __imp_RtlLookupFunctionEntry 00000001801490d8     kernel32:KERNEL32.dll
 0005:000000e0       __imp_RtlVirtualUnwind     00000001801490e0     kernel32:KERNEL32.dll
 0005:000000e8       __imp_IsDebuggerPresent    00000001801490e8     kernel32:KERNEL32.dll
 0005:000000f0       __imp_UnhandledExceptionFilter 00000001801490f0     kernel32:KERNEL32.dll
 0005:000000f8       __imp_SetUnhandledExceptionFilter 00000001801490f8     kernel32:KERNEL32.dll
 0005:00000100       __imp_GetStartupInfoW      0000000180149100     kernel32:KERNEL32.dll
 0005:00000108       __imp_IsProcessorFeaturePresent 0000000180149108     kernel32:KERNEL32.dll
 0005:00000110       __imp_MultiByteToWideChar  0000000180149110     kernel32:KERNEL32.dll
 0005:00000118       __imp_WideCharToMultiByte  0000000180149118     kernel32:KERNEL32.dll
 0005:00000120       __imp_HeapAlloc            0000000180149120     kernel32:KERNEL32.dll
 0005:00000128       __imp_HeapFree             0000000180149128     kernel32:KERNEL32.dll
 0005:00000130       __imp_GetProcessHeap       0000000180149130     kernel32:KERNEL32.dll
 0005:00000138       __imp_GetCurrentProcess    0000000180149138     kernel32:KERNEL32.dll
 0005:00000140       __imp_TerminateProcess     0000000180149140     kernel32:KERNEL32.dll
 0005:00000148       __imp_InterlockedPushEntrySList 0000000180149148     kernel32:KERNEL32.dll
 0005:00000150       __imp_InterlockedFlushSList 0000000180149150     kernel32:KERNEL32.dll
 0005:00000158       __imp_GetModuleFileNameW   0000000180149158     kernel32:KERNEL32.dll
 0005:00000160       __imp_RtlUnwindEx          0000000180149160     kernel32:KERNEL32.dll
 0005:00000168       __imp_RtlPcToFileHeader    0000000180149168     kernel32:KERNEL32.dll
 0005:00000170       __imp_LoadLibraryExW       0000000180149170     kernel32:KERNEL32.dll
 0005:00000178       __imp_InitializeCriticalSectionAndSpinCount 0000000180149178     kernel32:KERNEL32.dll
 0005:00000180       __imp_TlsAlloc             0000000180149180     kernel32:KERNEL32.dll
 0005:00000188       __imp_TlsGetValue          0000000180149188     kernel32:KERNEL32.dll
 0005:00000190       __imp_TlsSetValue          0000000180149190     kernel32:KERNEL32.dll
 0005:00000198       __imp_TlsFree              0000000180149198     kernel32:KERNEL32.dll
 0005:000001a0       __imp_SetLastError         00000001801491a0     kernel32:KERNEL32.dll
 0005:000001a8       __imp_EnterCriticalSection 00000001801491a8     kernel32:KERNEL32.dll
 0005:000001b0       __imp_LoadLibraryA         00000001801491b0     kernel32:KERNEL32.dll
 0005:000001b8       __imp_DeleteCriticalSection 00000001801491b8     kernel32:KERNEL32.dll
 0005:000001c0       __imp_GetModuleHandleExW   00000001801491c0     kernel32:KERNEL32.dll
 0005:000001c8       __imp_HeapSize             00000001801491c8     kernel32:KERNEL32.dll
 0005:000001d0       __imp_HeapValidate         00000001801491d0     kernel32:KERNEL32.dll
 0005:000001d8       __imp_ExitProcess          00000001801491d8     kernel32:KERNEL32.dll
 0005:000001e0       __imp_GetDateFormatW       00000001801491e0     kernel32:KERNEL32.dll
 0005:000001e8       __imp_GetTimeFormatW       00000001801491e8     kernel32:KERNEL32.dll
 0005:000001f0       __imp_CompareStringW       00000001801491f0     kernel32:KERNEL32.dll
 0005:000001f8       __imp_LCMapStringW         00000001801491f8     kernel32:KERNEL32.dll
 0005:00000200       __imp_GetLocaleInfoW       0000000180149200     kernel32:KERNEL32.dll
 0005:00000208       __imp_IsValidLocale        0000000180149208     kernel32:KERNEL32.dll
 0005:00000210       __imp_GetUserDefaultLCID   0000000180149210     kernel32:KERNEL32.dll
 0005:00000218       __imp_EnumSystemLocalesW   0000000180149218     kernel32:KERNEL32.dll
 0005:00000220       __imp_GetStdHandle         0000000180149220     kernel32:KERNEL32.dll
 0005:00000228       __imp_GetFileType          0000000180149228     kernel32:KERNEL32.dll
 0005:00000230       __imp_GetCurrentThread     0000000180149230     kernel32:KERNEL32.dll
 0005:00000238       __imp_GetACP               0000000180149238     kernel32:KERNEL32.dll
 0005:00000240       __imp_WriteFile            0000000180149240     kernel32:KERNEL32.dll
 0005:00000248       __imp_OutputDebugStringA   0000000180149248     kernel32:KERNEL32.dll
 0005:00000250       __imp_OutputDebugStringW   0000000180149250     kernel32:KERNEL32.dll
 0005:00000258       __imp_WriteConsoleW        0000000180149258     kernel32:KERNEL32.dll
 0005:00000260       __imp_CloseHandle          0000000180149260     kernel32:KERNEL32.dll
 0005:00000268       __imp_WaitForSingleObjectEx 0000000180149268     kernel32:KERNEL32.dll
 0005:00000270       __imp_CreateThread         0000000180149270     kernel32:KERNEL32.dll
 0005:00000278       __imp_SetConsoleCtrlHandler 0000000180149278     kernel32:KERNEL32.dll
 0005:00000280       __imp_HeapReAlloc          0000000180149280     kernel32:KERNEL32.dll
 0005:00000288       __imp_HeapQueryInformation 0000000180149288     kernel32:KERNEL32.dll
 0005:00000290       __imp_IsValidCodePage      0000000180149290     kernel32:KERNEL32.dll
 0005:00000298       __imp_GetOEMCP             0000000180149298     kernel32:KERNEL32.dll
 0005:000002a0       __imp_GetCPInfo            00000001801492a0     kernel32:KERNEL32.dll
 0005:000002a8       __imp_GetEnvironmentStringsW 00000001801492a8     kernel32:KERNEL32.dll
 0005:000002b0       __imp_FreeEnvironmentStringsW 00000001801492b0     kernel32:KERNEL32.dll
 0005:000002b8       __imp_SetEnvironmentVariableA 00000001801492b8     kernel32:KERNEL32.dll
 0005:000002c0       __imp_SetEnvironmentVariableW 00000001801492c0     kernel32:KERNEL32.dll
 0005:000002c8       __imp_GetCommandLineA      00000001801492c8     kernel32:KERNEL32.dll
 0005:000002d0       __imp_GetCommandLineW      00000001801492d0     kernel32:KERNEL32.dll
 0005:000002d8       __imp_GetStringTypeW       00000001801492d8     kernel32:KERNEL32.dll
 0005:000002e0       __imp_FlushFileBuffers     00000001801492e0     kernel32:KERNEL32.dll
 0005:000002e8       __imp_GetConsoleCP         00000001801492e8     kernel32:KERNEL32.dll
 0005:000002f0       __imp_GetConsoleMode       00000001801492f0     kernel32:KERNEL32.dll
 0005:000002f8       __imp_SetStdHandle         00000001801492f8     kernel32:KERNEL32.dll
 0005:00000300       __imp_SetFilePointerEx     0000000180149300     kernel32:KERNEL32.dll
 0005:00000308       __imp_CreateFileW          0000000180149308     kernel32:KERNEL32.dll
 0005:00000310       __imp_LeaveCriticalSection 0000000180149310     kernel32:KERNEL32.dll
 0005:00000318       __imp_GetModuleFileNameA   0000000180149318     kernel32:KERNEL32.dll
 0005:00000320       __imp_EncodePointer        0000000180149320     kernel32:KERNEL32.dll
 0005:00000328       \177KERNEL32_NULL_THUNK_DATA 0000000180149328     kernel32:KERNEL32.dll
 0005:00000408       __IMPORT_DESCRIPTOR_KERNEL32 0000000180149408     kernel32:KERNEL32.dll
 0005:0000041c       __IMPORT_DESCRIPTOR_ADVAPI32 000000018014941c     advapi32:ADVAPI32.dll
 0005:00000430       __NULL_IMPORT_DESCRIPTOR   0000000180149430     kernel32:KERNEL32.dll
 0006:00000000       __DELAY_IMPORT_DESCRIPTOR_PhysX3CommonDEBUG_x64_dll 000000018014b000     PhysX3CommonDEBUG_x64:PhysX3CommonDEBUG_x64.dll
 0006:00000020       __NULL_DELAY_IMPORT_DESCRIPTOR 000000018014b020     PhysX3CommonDEBUG_x64:PhysX3CommonDEBUG_x64.dll
 0006:000003a8       \177PhysX3CommonDEBUG_x64_NULL_THUNK_DATA_DLN 000000018014b3a8     PhysX3CommonDEBUG_x64:PhysX3CommonDEBUG_x64.dll
 0006:000004a8       __imp_?writeWord@physx@@YAXG_NAEAVPxOutputStream@1@@Z 000000018014b4a8     PhysX3CommonDEBUG_x64:PhysX3CommonDEBUG_x64.dll
 0006:000004b0       __imp_?writeDword@physx@@YAXI_NAEAVPxOutputStream@1@@Z 000000018014b4b0     PhysX3CommonDEBUG_x64:PhysX3CommonDEBUG_x64.dll
 0006:000004b8       __imp_?writeFloat@physx@@YAXM_NAEAVPxOutputStream@1@@Z 000000018014b4b8     PhysX3CommonDEBUG_x64:PhysX3CommonDEBUG_x64.dll
 0006:000004c0       __imp_?writeHeader@physx@@YA_NCCCCI_NAEAVPxOutputStream@1@@Z 000000018014b4c0     PhysX3CommonDEBUG_x64:PhysX3CommonDEBUG_x64.dll
 0006:000004c8       __imp_??0Allocator@shdfnd@physx@@QEAA@PEBD@Z 000000018014b4c8     PhysX3CommonDEBUG_x64:PhysX3CommonDEBUG_x64.dll
 0006:000004d0       __imp_?allocate@Allocator@shdfnd@physx@@QEAAPEAX_KPEBDH@Z 000000018014b4d0     PhysX3CommonDEBUG_x64:PhysX3CommonDEBUG_x64.dll
 0006:000004d8       __imp_??0NamedAllocator@shdfnd@physx@@QEAA@PEBD@Z 000000018014b4d8     PhysX3CommonDEBUG_x64:PhysX3CommonDEBUG_x64.dll
 0006:000004e0       __imp_??0NamedAllocator@shdfnd@physx@@QEAA@AEBV012@@Z 000000018014b4e0     PhysX3CommonDEBUG_x64:PhysX3CommonDEBUG_x64.dll
 0006:000004e8       __imp_??1NamedAllocator@shdfnd@physx@@QEAA@XZ 000000018014b4e8     PhysX3CommonDEBUG_x64:PhysX3CommonDEBUG_x64.dll
 0006:000004f0       __imp_?allocate@NamedAllocator@shdfnd@physx@@QEAAPEAX_KPEBDH@Z 000000018014b4f0     PhysX3CommonDEBUG_x64:PhysX3CommonDEBUG_x64.dll
 0006:000004f8       __imp_?deallocate@NamedAllocator@shdfnd@physx@@QEAAXPEAX@Z 000000018014b4f8     PhysX3CommonDEBUG_x64:PhysX3CommonDEBUG_x64.dll
 0006:00000500       __imp_?PxGetAssertHandler@physx@@YAAEAVPxAssertHandler@1@XZ 000000018014b500     PhysX3CommonDEBUG_x64:PhysX3CommonDEBUG_x64.dll
 0006:00000508       __imp_?validate@RTree@Gu@physx@@QEAAXXZ 000000018014b508     PhysX3CommonDEBUG_x64:PhysX3CommonDEBUG_x64.dll
 0006:00000510       __imp_??0TempAllocator@shdfnd@physx@@QEAA@PEBD@Z 000000018014b510     PhysX3CommonDEBUG_x64:PhysX3CommonDEBUG_x64.dll
 0006:00000518       __imp_?allocate@TempAllocator@shdfnd@physx@@QEAAPEAX_KPEBDH@Z 000000018014b518     PhysX3CommonDEBUG_x64:PhysX3CommonDEBUG_x64.dll
 0006:00000520       __imp_?deallocate@TempAllocator@shdfnd@physx@@QEAAXPEAX@Z 000000018014b520     PhysX3CommonDEBUG_x64:PhysX3CommonDEBUG_x64.dll
 0006:00000528       __imp_?computeBoundsAroundVertices@Gu@physx@@YAXAEAVPxBounds3@2@IPEIBVPxVec3@2@@Z 000000018014b528     PhysX3CommonDEBUG_x64:PhysX3CommonDEBUG_x64.dll
 0006:00000530       __imp_PxGetFoundation      000000018014b530     PhysX3CommonDEBUG_x64:PhysX3CommonDEBUG_x64.dll
 0006:00000538       __imp_?getAllocator@shdfnd@physx@@YAAEAVPxAllocatorCallback@2@XZ 000000018014b538     PhysX3CommonDEBUG_x64:PhysX3CommonDEBUG_x64.dll
 0006:00000540       __imp_?deallocate@Allocator@shdfnd@physx@@QEAAXPEAX@Z 000000018014b540     PhysX3CommonDEBUG_x64:PhysX3CommonDEBUG_x64.dll
 0006:00000548       __imp_?getInstance@Foundation@shdfnd@physx@@SAAEAV123@XZ 000000018014b548     PhysX3CommonDEBUG_x64:PhysX3CommonDEBUG_x64.dll
 0006:00000550       __imp_?error@Foundation@shdfnd@physx@@QEAAXW4Enum@PxErrorCode@3@PEBDH1ZZ 000000018014b550     PhysX3CommonDEBUG_x64:PhysX3CommonDEBUG_x64.dll
 0006:00000558       __imp_?save@RTree@Gu@physx@@QEBA_NAEAVPxOutputStream@3@@Z 000000018014b558     PhysX3CommonDEBUG_x64:PhysX3CommonDEBUG_x64.dll
 0006:00000560       __imp_?release@InternalTriangleMesh@physx@@QEAAXXZ 000000018014b560     PhysX3CommonDEBUG_x64:PhysX3CommonDEBUG_x64.dll
 0006:00000568       __imp_?allocateVertices@InternalTriangleMesh@physx@@QEAAPEAVPxVec3@2@I@Z 000000018014b568     PhysX3CommonDEBUG_x64:PhysX3CommonDEBUG_x64.dll
 0006:00000570       __imp_?allocateTriangles@InternalTriangleMesh@physx@@QEAAPEAXI_N@Z 000000018014b570     PhysX3CommonDEBUG_x64:PhysX3CommonDEBUG_x64.dll
 0006:00000578       __imp_?allocateMaterials@InternalTriangleMesh@physx@@QEAAPEAGXZ 000000018014b578     PhysX3CommonDEBUG_x64:PhysX3CommonDEBUG_x64.dll
 0006:00000580       __imp_?getNumVertices@InternalTriangleMesh@physx@@QEBAIXZ 000000018014b580     PhysX3CommonDEBUG_x64:PhysX3CommonDEBUG_x64.dll
 0006:00000588       __imp_?getNumTriangles@InternalTriangleMesh@physx@@QEBAIXZ 000000018014b588     PhysX3CommonDEBUG_x64:PhysX3CommonDEBUG_x64.dll
 0006:00000590       __imp_?getVertices@InternalTriangleMesh@physx@@QEBAPEBVPxVec3@2@XZ 000000018014b590     PhysX3CommonDEBUG_x64:PhysX3CommonDEBUG_x64.dll
 0006:00000598       __imp_?getTriangles@InternalTriangleMesh@physx@@QEBAPEBXXZ 000000018014b598     PhysX3CommonDEBUG_x64:PhysX3CommonDEBUG_x64.dll
 0006:000005a0       __imp_?getMaterials@InternalTriangleMesh@physx@@QEBAPEBGXZ 000000018014b5a0     PhysX3CommonDEBUG_x64:PhysX3CommonDEBUG_x64.dll
 0006:000005a8       __imp_?getFaceRemap@InternalTriangleMesh@physx@@QEBAPEBIXZ 000000018014b5a8     PhysX3CommonDEBUG_x64:PhysX3CommonDEBUG_x64.dll
 0006:000005b0       __imp_?getAdjacencies@InternalTriangleMesh@physx@@QEBAPEBIXZ 000000018014b5b0     PhysX3CommonDEBUG_x64:PhysX3CommonDEBUG_x64.dll
 0006:000005b8       __imp_?getCollisionModel@InternalTriangleMesh@physx@@QEBAAEBVRTreeMidphase@Gu@2@XZ 000000018014b5b8     PhysX3CommonDEBUG_x64:PhysX3CommonDEBUG_x64.dll
 0006:000005c0       __imp_?writeWordBuffer@physx@@YAXPEBGI_NAEAVPxOutputStream@1@@Z 000000018014b5c0     PhysX3CommonDEBUG_x64:PhysX3CommonDEBUG_x64.dll
 0006:000005c8       __imp_?writeFloatBuffer@physx@@YAXPEBMI_NAEAVPxOutputStream@1@@Z 000000018014b5c8     PhysX3CommonDEBUG_x64:PhysX3CommonDEBUG_x64.dll
 0006:000005d0       __imp_?computeMaxIndex@physx@@YAIPEBII@Z 000000018014b5d0     PhysX3CommonDEBUG_x64:PhysX3CommonDEBUG_x64.dll
 0006:000005d8       __imp_?storeIndices@physx@@YAXIIPEBIAEAVPxOutputStream@1@_N@Z 000000018014b5d8     PhysX3CommonDEBUG_x64:PhysX3CommonDEBUG_x64.dll
 0006:000005e0       __imp_?computeMaxIndex@physx@@YAGPEBGI@Z 000000018014b5e0     PhysX3CommonDEBUG_x64:PhysX3CommonDEBUG_x64.dll
 0006:000005e8       __imp_?WriteHeader@Gu@physx@@YA_NEEEEI_NAEAVPxOutputStream@2@@Z 000000018014b5e8     PhysX3CommonDEBUG_x64:PhysX3CommonDEBUG_x64.dll
 0006:000005f0       __imp_?StoreIndices@Gu@physx@@YAXGIPEBGAEAVPxOutputStream@2@_N@Z 000000018014b5f0     PhysX3CommonDEBUG_x64:PhysX3CommonDEBUG_x64.dll
 0006:000005f8       __imp_?CreateOffsets@BigConvexData@physx@@IEAAXXZ 000000018014b5f8     PhysX3CommonDEBUG_x64:PhysX3CommonDEBUG_x64.dll
 0006:00000600       __imp_?GetRanks@RadixSort@Gu@physx@@QEBAPEBIXZ 000000018014b600     PhysX3CommonDEBUG_x64:PhysX3CommonDEBUG_x64.dll
 0006:00000608       __imp_??0RadixSortBuffered@Gu@physx@@QEAA@XZ 000000018014b608     PhysX3CommonDEBUG_x64:PhysX3CommonDEBUG_x64.dll
 0006:00000610       __imp_??1RadixSortBuffered@Gu@physx@@UEAA@XZ 000000018014b610     PhysX3CommonDEBUG_x64:PhysX3CommonDEBUG_x64.dll
 0006:00000618       __imp_?Sort@RadixSortBuffered@Gu@physx@@QEAAAEAV123@PEBIIW4RadixHint@23@@Z 000000018014b618     PhysX3CommonDEBUG_x64:PhysX3CommonDEBUG_x64.dll
 0006:00000620       __imp_??0Container@Gu@physx@@QEAA@XZ 000000018014b620     PhysX3CommonDEBUG_x64:PhysX3CommonDEBUG_x64.dll
 0006:00000628       __imp_??0Container@Gu@physx@@QEAA@AEBV012@@Z 000000018014b628     PhysX3CommonDEBUG_x64:PhysX3CommonDEBUG_x64.dll
 0006:00000630       __imp_??1Container@Gu@physx@@QEAA@XZ 000000018014b630     PhysX3CommonDEBUG_x64:PhysX3CommonDEBUG_x64.dll
 0006:00000638       __imp_?Add@Container@Gu@physx@@QEAAAEAV123@I@Z 000000018014b638     PhysX3CommonDEBUG_x64:PhysX3CommonDEBUG_x64.dll
 0006:00000640       __imp_?Add@Container@Gu@physx@@QEAAAEAV123@PEBII@Z 000000018014b640     PhysX3CommonDEBUG_x64:PhysX3CommonDEBUG_x64.dll
 0006:00000648       __imp_?Add@Container@Gu@physx@@QEAAAEAV123@AEBV123@@Z 000000018014b648     PhysX3CommonDEBUG_x64:PhysX3CommonDEBUG_x64.dll
 0006:00000650       __imp_?AddUnique@Container@Gu@physx@@QEAAAEAV123@I@Z 000000018014b650     PhysX3CommonDEBUG_x64:PhysX3CommonDEBUG_x64.dll
 0006:00000658       __imp_?Empty@Container@Gu@physx@@QEAAAEAV123@XZ 000000018014b658     PhysX3CommonDEBUG_x64:PhysX3CommonDEBUG_x64.dll
 0006:00000660       __imp_?Reset@Container@Gu@physx@@QEAAXXZ 000000018014b660     PhysX3CommonDEBUG_x64:PhysX3CommonDEBUG_x64.dll
 0006:00000668       __imp_?Contains@Container@Gu@physx@@QEBA_NIPEAI@Z 000000018014b668     PhysX3CommonDEBUG_x64:PhysX3CommonDEBUG_x64.dll
 0006:00000670       __imp_?DeleteIndex@Container@Gu@physx@@QEAAXI@Z 000000018014b670     PhysX3CommonDEBUG_x64:PhysX3CommonDEBUG_x64.dll
 0006:00000678       __imp_?GetNbEntries@Container@Gu@physx@@QEBAIXZ 000000018014b678     PhysX3CommonDEBUG_x64:PhysX3CommonDEBUG_x64.dll
 0006:00000680       __imp_?GetEntry@Container@Gu@physx@@QEBAII@Z 000000018014b680     PhysX3CommonDEBUG_x64:PhysX3CommonDEBUG_x64.dll
 0006:00000688       __imp_?GetEntries@Container@Gu@physx@@QEBAPEAIXZ 000000018014b688     PhysX3CommonDEBUG_x64:PhysX3CommonDEBUG_x64.dll
 0006:00000690       __imp_??AContainer@Gu@physx@@QEAAAEAII@Z 000000018014b690     PhysX3CommonDEBUG_x64:PhysX3CommonDEBUG_x64.dll
 0006:00000698       __imp_??4Container@Gu@physx@@QEAAXAEBV012@@Z 000000018014b698     PhysX3CommonDEBUG_x64:PhysX3CommonDEBUG_x64.dll
 0006:000006a0       __imp_??0ConvexMesh@Gu@physx@@QEAA@XZ 000000018014b6a0     PhysX3CommonDEBUG_x64:PhysX3CommonDEBUG_x64.dll
 0006:000006a8       __imp_??1ConvexMesh@Gu@physx@@UEAA@XZ 000000018014b6a8     PhysX3CommonDEBUG_x64:PhysX3CommonDEBUG_x64.dll
 0006:000006b0       __imp_??0BigConvexData@physx@@QEAA@XZ 000000018014b6b0     PhysX3CommonDEBUG_x64:PhysX3CommonDEBUG_x64.dll
 0006:000006b8       __imp_??1BigConvexData@physx@@QEAA@XZ 000000018014b6b8     PhysX3CommonDEBUG_x64:PhysX3CommonDEBUG_x64.dll
 0006:000006c0       __imp_?exportExtraData@ConvexMesh@Gu@physx@@UEAAXAEAVPxSerializationContext@3@@Z 000000018014b6c0     PhysX3CommonDEBUG_x64:PhysX3CommonDEBUG_x64.dll
 0006:000006c8       __imp_?getConcreteTypeName@PxConvexMesh@physx@@UEBAPEBDXZ 000000018014b6c8     PhysX3CommonDEBUG_x64:PhysX3CommonDEBUG_x64.dll
 0006:000006d0       __imp_?getIndexBuffer@ConvexMesh@Gu@physx@@UEBAPEBEXZ 000000018014b6d0     PhysX3CommonDEBUG_x64:PhysX3CommonDEBUG_x64.dll
 0006:000006d8       __imp_?getLocalBounds@ConvexMesh@Gu@physx@@UEBA?AVPxBounds3@3@XZ 000000018014b6d8     PhysX3CommonDEBUG_x64:PhysX3CommonDEBUG_x64.dll
 0006:000006e0       __imp_?getMassInformation@ConvexMesh@Gu@physx@@UEBAXAEAMAEAVPxMat33@3@AEAVPxVec3@3@@Z 000000018014b6e0     PhysX3CommonDEBUG_x64:PhysX3CommonDEBUG_x64.dll
 0006:000006e8       __imp_?getNbPolygons@ConvexMesh@Gu@physx@@UEBAIXZ 000000018014b6e8     PhysX3CommonDEBUG_x64:PhysX3CommonDEBUG_x64.dll
 0006:000006f0       __imp_?getNbVertices@ConvexMesh@Gu@physx@@UEBAIXZ 000000018014b6f0     PhysX3CommonDEBUG_x64:PhysX3CommonDEBUG_x64.dll
 0006:000006f8       __imp_?getPolygonData@ConvexMesh@Gu@physx@@UEBA_NIAEAUPxHullPolygon@3@@Z 000000018014b6f8     PhysX3CommonDEBUG_x64:PhysX3CommonDEBUG_x64.dll
 0006:00000700       __imp_?getReferenceCount@ConvexMesh@Gu@physx@@UEBAIXZ 000000018014b700     PhysX3CommonDEBUG_x64:PhysX3CommonDEBUG_x64.dll
 0006:00000708       __imp_?getVertices@ConvexMesh@Gu@physx@@UEBAPEBVPxVec3@3@XZ 000000018014b708     PhysX3CommonDEBUG_x64:PhysX3CommonDEBUG_x64.dll
 0006:00000710       __imp_?isKindOf@PxConvexMesh@physx@@MEBA_NPEBD@Z 000000018014b710     PhysX3CommonDEBUG_x64:PhysX3CommonDEBUG_x64.dll
 0006:00000718       __imp_?onRefCountZero@ConvexMesh@Gu@physx@@UEAAXXZ 000000018014b718     PhysX3CommonDEBUG_x64:PhysX3CommonDEBUG_x64.dll
 0006:00000720       __imp_?release@ConvexMesh@Gu@physx@@UEAAXXZ 000000018014b720     PhysX3CommonDEBUG_x64:PhysX3CommonDEBUG_x64.dll
 0006:00000728       __imp_?readDword@physx@@YAI_NAEAVPxInputStream@1@@Z 000000018014b728     PhysX3CommonDEBUG_x64:PhysX3CommonDEBUG_x64.dll
 0006:00000730       __imp_?ReadHeader@Gu@physx@@YA_NEEEEAEAIAEA_NAEAVPxInputStream@2@@Z 000000018014b730     PhysX3CommonDEBUG_x64:PhysX3CommonDEBUG_x64.dll
 0006:00000738       __imp_??0FPUGuard@shdfnd@physx@@QEAA@XZ 000000018014b738     PhysX3CommonDEBUG_x64:PhysX3CommonDEBUG_x64.dll
 0006:00000740       __imp_??1FPUGuard@shdfnd@physx@@QEAA@XZ 000000018014b740     PhysX3CommonDEBUG_x64:PhysX3CommonDEBUG_x64.dll
 0006:00000748       __imp_?incRefCount@Foundation@shdfnd@physx@@SAXXZ 000000018014b748     PhysX3CommonDEBUG_x64:PhysX3CommonDEBUG_x64.dll
 0006:00000750       __imp_?decRefCount@Foundation@shdfnd@physx@@SAXXZ 000000018014b750     PhysX3CommonDEBUG_x64:PhysX3CommonDEBUG_x64.dll
 0006:00000758       __imp_??0TriangleMesh@Gu@physx@@QEAA@XZ 000000018014b758     PhysX3CommonDEBUG_x64:PhysX3CommonDEBUG_x64.dll
 0006:00000760       __imp_?checkMeshIndicesSize@TriangleMesh@Gu@physx@@QEAAXXZ 000000018014b760     PhysX3CommonDEBUG_x64:PhysX3CommonDEBUG_x64.dll
 0006:00000768       __imp_??1TriangleMesh@Gu@physx@@UEAA@XZ 000000018014b768     PhysX3CommonDEBUG_x64:PhysX3CommonDEBUG_x64.dll
 0006:00000770       __imp_??0HeightField@Gu@physx@@QEAA@PEAVGuMeshFactory@2@@Z 000000018014b770     PhysX3CommonDEBUG_x64:PhysX3CommonDEBUG_x64.dll
 0006:00000778       __imp_?loadFromDesc@HeightField@Gu@physx@@QEAA_NAEBVPxHeightFieldDesc@3@_N@Z 000000018014b778     PhysX3CommonDEBUG_x64:PhysX3CommonDEBUG_x64.dll
 0006:00000780       __imp_?releaseMemory@HeightField@Gu@physx@@QEAAX_N@Z 000000018014b780     PhysX3CommonDEBUG_x64:PhysX3CommonDEBUG_x64.dll
 0006:00000788       __imp_?exportExtraData@TriangleMesh@Gu@physx@@UEAAXAEAVPxSerializationContext@3@@Z 000000018014b788     PhysX3CommonDEBUG_x64:PhysX3CommonDEBUG_x64.dll
 0006:00000790       __imp_?getConcreteTypeName@PxTriangleMesh@physx@@UEBAPEBDXZ 000000018014b790     PhysX3CommonDEBUG_x64:PhysX3CommonDEBUG_x64.dll
 0006:00000798       __imp_?getLocalBounds@TriangleMesh@Gu@physx@@UEBA?AVPxBounds3@3@XZ 000000018014b798     PhysX3CommonDEBUG_x64:PhysX3CommonDEBUG_x64.dll
 0006:000007a0       __imp_?getNbTriangles@TriangleMesh@Gu@physx@@UEBAIXZ 000000018014b7a0     PhysX3CommonDEBUG_x64:PhysX3CommonDEBUG_x64.dll
 0006:000007a8       __imp_?getNbVertices@TriangleMesh@Gu@physx@@UEBAIXZ 000000018014b7a8     PhysX3CommonDEBUG_x64:PhysX3CommonDEBUG_x64.dll
 0006:000007b0       __imp_?getReferenceCount@TriangleMesh@Gu@physx@@UEBAIXZ 000000018014b7b0     PhysX3CommonDEBUG_x64:PhysX3CommonDEBUG_x64.dll
 0006:000007b8       __imp_?getTriangleMaterialIndex@TriangleMesh@Gu@physx@@UEBAGI@Z 000000018014b7b8     PhysX3CommonDEBUG_x64:PhysX3CommonDEBUG_x64.dll
 0006:000007c0       __imp_?getTriangleMeshFlags@TriangleMesh@Gu@physx@@UEBA?AV?$PxFlags@W4Enum@PxTriangleMeshFlag@physx@@E@3@XZ 000000018014b7c0     PhysX3CommonDEBUG_x64:PhysX3CommonDEBUG_x64.dll
 0006:000007c8       __imp_?getTriangles@TriangleMesh@Gu@physx@@UEBAPEBXXZ 000000018014b7c8     PhysX3CommonDEBUG_x64:PhysX3CommonDEBUG_x64.dll
 0006:000007d0       __imp_?getTrianglesRemap@TriangleMesh@Gu@physx@@UEBAPEBIXZ 000000018014b7d0     PhysX3CommonDEBUG_x64:PhysX3CommonDEBUG_x64.dll
 0006:000007d8       __imp_?getVertices@TriangleMesh@Gu@physx@@UEBAPEBVPxVec3@3@XZ 000000018014b7d8     PhysX3CommonDEBUG_x64:PhysX3CommonDEBUG_x64.dll
 0006:000007e0       __imp_?isKindOf@PxTriangleMesh@physx@@MEBA_NPEBD@Z 000000018014b7e0     PhysX3CommonDEBUG_x64:PhysX3CommonDEBUG_x64.dll
 0006:000007e8       __imp_?onRefCountZero@TriangleMesh@Gu@physx@@UEAAXXZ 000000018014b7e8     PhysX3CommonDEBUG_x64:PhysX3CommonDEBUG_x64.dll
 0006:000007f0       __imp_?release@TriangleMesh@Gu@physx@@UEAAXXZ 000000018014b7f0     PhysX3CommonDEBUG_x64:PhysX3CommonDEBUG_x64.dll
 0006:000007f8       __imp_?has16BitIndices@InternalTriangleMesh@physx@@QEBA_NXZ 000000018014b7f8     PhysX3CommonDEBUG_x64:PhysX3CommonDEBUG_x64.dll
 0006:00000800       __imp_?setTriangleAdjacency@InternalTriangleMesh@physx@@QEAAXIII@Z 000000018014b800     PhysX3CommonDEBUG_x64:PhysX3CommonDEBUG_x64.dll
 0006:00000808       __imp_?setupMeshInterface@InternalTriangleMesh@physx@@QEAAXXZ 000000018014b808     PhysX3CommonDEBUG_x64:PhysX3CommonDEBUG_x64.dll
 0006:00000810       \177PhysX3CommonDEBUG_x64_NULL_THUNK_DATA_DLA 000000018014b810     PhysX3CommonDEBUG_x64:PhysX3CommonDEBUG_x64.dll
 0006:00002280       \177PhysX3CommonDEBUG_x64_NULL_THUNK_DATA_DLB 000000018014d280     PhysX3CommonDEBUG_x64:PhysX3CommonDEBUG_x64.dll
 0008:00000000       __guard_check_icall_fptr   000000018014f000     LIBCMTD:guard_support.obj
 0008:00000010       __guard_dispatch_icall_fptr 000000018014f010     LIBCMTD:guard_support.obj
